---
triple:          'arm64-apple-darwin'
binary-path:     '/Users/rohakdebnath/Desktop/Cpp /CodeChef/maximumofgcds'
relocations:
  - { offsetInCU: 0x54, offset: 0x54, size: 0x8, addend: 0x0, symName: __ZNSt3__1L19piecewise_constructE, symObjAddr: 0x56DA, symBinAddr: 0x100007B86, symSize: 0x0 }
  - { offsetInCU: 0x7D3C, offset: 0x7D3C, size: 0x8, addend: 0x0, symName: __ZNSt3__13gcdB7v160006IiiEENS_11common_typeIJT_T0_EE4typeES2_S3_, symObjAddr: 0x73C, symBinAddr: 0x1000029E4, symSize: 0x48 }
  - { offsetInCU: 0x80CC, offset: 0x80CC, size: 0x8, addend: 0x0, symName: __ZNSt3__124__put_character_sequenceB7v160006IcNS_11char_traitsIcEEEERNS_13basic_ostreamIT_T0_EES7_PKS4_m, symObjAddr: 0x49D4, symBinAddr: 0x100006C7C, symSize: 0x1EC }
  - { offsetInCU: 0xA102, offset: 0xA102, size: 0x8, addend: 0x0, symName: __ZNSt3__1neB7v160006ERKNS_14__map_iteratorINS_15__tree_iteratorINS_12__value_typeIiiEEPNS_11__tree_nodeIS3_PvEElEEEESB_, symObjAddr: 0x668, symBinAddr: 0x100002910, symSize: 0x30 }
  - { offsetInCU: 0xA13F, offset: 0xA13F, size: 0x8, addend: 0x0, symName: __ZNSt3__13getB7v160006ILm0EKiiEEONS_13tuple_elementIXT_ENS_4pairIT0_T1_EEE4typeEOS6_, symObjAddr: 0x6F4, symBinAddr: 0x10000299C, symSize: 0x24 }
  - { offsetInCU: 0xA189, offset: 0xA189, size: 0x8, addend: 0x0, symName: __ZNSt3__13getB7v160006ILm1EKiiEEONS_13tuple_elementIXT_ENS_4pairIT0_T1_EEE4typeEOS6_, symObjAddr: 0x718, symBinAddr: 0x1000029C0, symSize: 0x24 }
  - { offsetInCU: 0xA1D3, offset: 0xA1D3, size: 0x8, addend: 0x0, symName: __ZNSt3__13maxB7v160006IiEERKT_S3_S3_, symObjAddr: 0x784, symBinAddr: 0x100002A2C, symSize: 0x2C }
  - { offsetInCU: 0xA216, offset: 0xA216, size: 0x8, addend: 0x0, symName: __ZNSt3__1lsB7v160006INS_11char_traitsIcEEEERNS_13basic_ostreamIcT_EES6_c, symObjAddr: 0x7DC, symBinAddr: 0x100002A84, symSize: 0x34 }
  - { offsetInCU: 0xA25C, offset: 0xA25C, size: 0x8, addend: 0x0, symName: __ZNSt3__122__make_exception_guardB7v160006INS_6vectorINS_3mapIiiNS_4lessIiEENS_9allocatorINS_4pairIKiiEEEEEENS5_ISA_EEE16__destroy_vectorEEENS_28__exception_guard_exceptionsIT_EESF_, symObjAddr: 0xA34, symBinAddr: 0x100002CDC, symSize: 0x40 }
  - { offsetInCU: 0xA291, offset: 0xA291, size: 0x8, addend: 0x0, symName: __ZNSt3__119__debug_db_insert_cB7v160006INS_6vectorINS_3mapIiiNS_4lessIiEENS_9allocatorINS_4pairIKiiEEEEEENS5_ISA_EEEEEEvPT_, symObjAddr: 0xAA8, symBinAddr: 0x100002D50, symSize: 0x10 }
  - { offsetInCU: 0xA2C2, offset: 0xA2C2, size: 0x8, addend: 0x0, symName: __ZNSt3__119__allocate_at_leastB7v160006INS_9allocatorINS_3mapIiiNS_4lessIiEENS1_INS_4pairIKiiEEEEEEEEEEDaRT_m, symObjAddr: 0xE38, symBinAddr: 0x1000030E0, symSize: 0x3C }
  - { offsetInCU: 0xA305, offset: 0xA305, size: 0x8, addend: 0x0, symName: __ZNSt3__13minB7v160006ImEERKT_S3_S3_, symObjAddr: 0xF8C, symBinAddr: 0x100003234, symSize: 0x2C }
  - { offsetInCU: 0xA532, offset: 0xA532, size: 0x8, addend: 0x0, symName: __ZNSt3__13minB7v160006ImNS_6__lessImmEEEERKT_S5_S5_T0_, symObjAddr: 0x1028, symBinAddr: 0x1000032D0, symSize: 0x54 }
  - { offsetInCU: 0xA7B3, offset: 0xA7B3, size: 0x8, addend: 0x0, symName: __ZNSt3__120__throw_length_errorB7v160006EPKc, symObjAddr: 0x110C, symBinAddr: 0x1000033B4, symSize: 0x64 }
  - { offsetInCU: 0xA7DB, offset: 0xA7DB, size: 0x8, addend: 0x0, symName: __ZNSt3__117allocate_at_leastB7v160006INS_9allocatorINS_3mapIiiNS_4lessIiEENS1_INS_4pairIKiiEEEEEEEEEENS_17allocation_resultINS_16allocator_traitsIT_E7pointerEEERSD_m, symObjAddr: 0x11F0, symBinAddr: 0x100003498, symSize: 0x3C }
  - { offsetInCU: 0xA81E, offset: 0xA81E, size: 0x8, addend: 0x0, symName: __ZNSt3__117__libcpp_allocateB7v160006Emm, symObjAddr: 0x12FC, symBinAddr: 0x1000035A4, symSize: 0x60 }
  - { offsetInCU: 0xA878, offset: 0xA878, size: 0x8, addend: 0x0, symName: __ZNSt3__124__is_overaligned_for_newB7v160006Em, symObjAddr: 0x135C, symBinAddr: 0x100003604, symSize: 0x20 }
  - { offsetInCU: 0xA8A6, offset: 0xA8A6, size: 0x8, addend: 0x0, symName: __ZNSt3__121__libcpp_operator_newB7v160006IJmSt11align_val_tEEEPvDpT_, symObjAddr: 0x137C, symBinAddr: 0x100003624, symSize: 0x2C }
  - { offsetInCU: 0xA8F3, offset: 0xA8F3, size: 0x8, addend: 0x0, symName: __ZNSt3__121__libcpp_operator_newB7v160006IJmEEEPvDpT_, symObjAddr: 0x13A8, symBinAddr: 0x100003650, symSize: 0x24 }
  - { offsetInCU: 0xA92C, offset: 0xA92C, size: 0x8, addend: 0x0, symName: __ZNSt3__112__to_addressB7v160006INS_3mapIiiNS_4lessIiEENS_9allocatorINS_4pairIKiiEEEEEEEEPT_SB_, symObjAddr: 0x14C4, symBinAddr: 0x10000376C, symSize: 0x14 }
  - { offsetInCU: 0xA986, offset: 0xA986, size: 0x8, addend: 0x0, symName: __ZNSt3__112construct_atB7v160006INS_3mapIiiNS_4lessIiEENS_9allocatorINS_4pairIKiiEEEEEEJEPS9_EEPT_SC_DpOT0_, symObjAddr: 0x1614, symBinAddr: 0x1000038BC, symSize: 0x34 }
  - { offsetInCU: 0xAA15, offset: 0xAA15, size: 0x8, addend: 0x0, symName: __ZNSt3__118__debug_db_erase_cB7v160006INS_6vectorINS_3mapIiiNS_4lessIiEENS_9allocatorINS_4pairIKiiEEEEEENS5_ISA_EEEEEEvPT_, symObjAddr: 0x1C08, symBinAddr: 0x100003EB0, symSize: 0x10 }
  - { offsetInCU: 0xAA46, offset: 0xAA46, size: 0x8, addend: 0x0, symName: __ZNSt3__110destroy_atB7v160006INS_3mapIiiNS_4lessIiEENS_9allocatorINS_4pairIKiiEEEEEELi0EEEvPT_, symObjAddr: 0x1D50, symBinAddr: 0x100003FF8, symSize: 0x24 }
  - { offsetInCU: 0xAA7D, offset: 0xAA7D, size: 0x8, addend: 0x0, symName: __ZNSt3__112__destroy_atB7v160006INS_3mapIiiNS_4lessIiEENS_9allocatorINS_4pairIKiiEEEEEELi0EEEvPT_, symObjAddr: 0x1D74, symBinAddr: 0x10000401C, symSize: 0x24 }
  - { offsetInCU: 0xAAB4, offset: 0xAAB4, size: 0x8, addend: 0x0, symName: __ZNSt3__110destroy_atB7v160006INS_4pairIKiiEELi0EEEvPT_, symObjAddr: 0x2008, symBinAddr: 0x1000042B0, symSize: 0x24 }
  - { offsetInCU: 0xAAEB, offset: 0xAAEB, size: 0x8, addend: 0x0, symName: __ZNSt3__112__destroy_atB7v160006INS_4pairIKiiEELi0EEEvPT_, symObjAddr: 0x202C, symBinAddr: 0x1000042D4, symSize: 0x10 }
  - { offsetInCU: 0xAB22, offset: 0xAB22, size: 0x8, addend: 0x0, symName: __ZNSt3__17launderB7v160006INS_4pairIKiiEEEEPT_S5_, symObjAddr: 0x2060, symBinAddr: 0x100004308, symSize: 0x24 }
  - { offsetInCU: 0xAB59, offset: 0xAB59, size: 0x8, addend: 0x0, symName: __ZNSt3__19__launderB7v160006INS_4pairIKiiEEEEPT_S5_, symObjAddr: 0x2084, symBinAddr: 0x10000432C, symSize: 0x14 }
  - { offsetInCU: 0xAB90, offset: 0xAB90, size: 0x8, addend: 0x0, symName: __ZNSt3__119__libcpp_deallocateB7v160006EPvmm, symObjAddr: 0x20DC, symBinAddr: 0x100004384, symSize: 0x60 }
  - { offsetInCU: 0xABF5, offset: 0xABF5, size: 0x8, addend: 0x0, symName: __ZNSt3__127__do_deallocate_handle_sizeB7v160006IJSt11align_val_tEEEvPvmDpT_, symObjAddr: 0x213C, symBinAddr: 0x1000043E4, symSize: 0x30 }
  - { offsetInCU: 0xAC48, offset: 0xAC48, size: 0x8, addend: 0x0, symName: __ZNSt3__127__do_deallocate_handle_sizeB7v160006IJEEEvPvmDpT_, symObjAddr: 0x216C, symBinAddr: 0x100004414, symSize: 0x28 }
  - { offsetInCU: 0xAC86, offset: 0xAC86, size: 0x8, addend: 0x0, symName: __ZNSt3__124__libcpp_operator_deleteB7v160006IJPvSt11align_val_tEEEvDpT_, symObjAddr: 0x2194, symBinAddr: 0x10000443C, symSize: 0x2C }
  - { offsetInCU: 0xACCF, offset: 0xACCF, size: 0x8, addend: 0x0, symName: __ZNSt3__124__libcpp_operator_deleteB7v160006IJPvEEEvDpT_, symObjAddr: 0x21C0, symBinAddr: 0x100004468, symSize: 0x24 }
  - { offsetInCU: 0xAD04, offset: 0xAD04, size: 0x8, addend: 0x0, symName: __ZNSt3__122__make_exception_guardB7v160006INS_6vectorIiNS_9allocatorIiEEE16__destroy_vectorEEENS_28__exception_guard_exceptionsIT_EES7_, symObjAddr: 0x23A8, symBinAddr: 0x100004650, symSize: 0x40 }
  - { offsetInCU: 0xAD39, offset: 0xAD39, size: 0x8, addend: 0x0, symName: __ZNSt3__119__debug_db_insert_cB7v160006INS_6vectorIiNS_9allocatorIiEEEEEEvPT_, symObjAddr: 0x241C, symBinAddr: 0x1000046C4, symSize: 0x10 }
  - { offsetInCU: 0xAD6A, offset: 0xAD6A, size: 0x8, addend: 0x0, symName: __ZNSt3__119__allocate_at_leastB7v160006INS_9allocatorIiEEEEDaRT_m, symObjAddr: 0x27A4, symBinAddr: 0x100004A4C, symSize: 0x3C }
  - { offsetInCU: 0xADAD, offset: 0xADAD, size: 0x8, addend: 0x0, symName: __ZNSt3__117allocate_at_leastB7v160006INS_9allocatorIiEEEENS_17allocation_resultINS_16allocator_traitsIT_E7pointerEEERS5_m, symObjAddr: 0x2964, symBinAddr: 0x100004C0C, symSize: 0x3C }
  - { offsetInCU: 0xADF0, offset: 0xADF0, size: 0x8, addend: 0x0, symName: __ZNSt3__112__to_addressB7v160006IiEEPT_S2_, symObjAddr: 0x2B30, symBinAddr: 0x100004DD8, symSize: 0x14 }
  - { offsetInCU: 0xAE4A, offset: 0xAE4A, size: 0x8, addend: 0x0, symName: __ZNSt3__112construct_atB7v160006IiJEPiEEPT_S3_DpOT0_, symObjAddr: 0x2C78, symBinAddr: 0x100004F20, symSize: 0x20 }
  - { offsetInCU: 0xAEA6, offset: 0xAEA6, size: 0x8, addend: 0x0, symName: __ZNSt3__118__debug_db_erase_cB7v160006INS_6vectorIiNS_9allocatorIiEEEEEEvPT_, symObjAddr: 0x2E5C, symBinAddr: 0x100005104, symSize: 0x10 }
  - { offsetInCU: 0xAED7, offset: 0xAED7, size: 0x8, addend: 0x0, symName: __ZNSt3__110destroy_atB7v160006IiLi0EEEvPT_, symObjAddr: 0x2FA4, symBinAddr: 0x10000524C, symSize: 0x24 }
  - { offsetInCU: 0xAF0E, offset: 0xAF0E, size: 0x8, addend: 0x0, symName: __ZNSt3__112__destroy_atB7v160006IiLi0EEEvPT_, symObjAddr: 0x2FC8, symBinAddr: 0x100005270, symSize: 0x10 }
  - { offsetInCU: 0xAFBF, offset: 0xAFBF, size: 0x8, addend: 0x0, symName: __ZNSt3__15__gcdIjEET_S1_S1_, symObjAddr: 0x3074, symBinAddr: 0x10000531C, symSize: 0x68 }
  - { offsetInCU: 0xB22D, offset: 0xB22D, size: 0x8, addend: 0x0, symName: __ZNSt3__13maxB7v160006IiNS_6__lessIiiEEEERKT_S5_S5_T0_, symObjAddr: 0x3184, symBinAddr: 0x10000542C, symSize: 0x54 }
  - { offsetInCU: 0xB311, offset: 0xB311, size: 0x8, addend: 0x0, symName: __ZNSt3__116forward_as_tupleB7v160006IJRKiEEENS_5tupleIJDpOT_EEES6_, symObjAddr: 0x3394, symBinAddr: 0x10000563C, symSize: 0x2C }
  - { offsetInCU: 0xB34A, offset: 0xB34A, size: 0x8, addend: 0x0, symName: __ZNSt3__116forward_as_tupleB7v160006IJEEENS_5tupleIJDpOT_EEES4_, symObjAddr: 0x33C0, symBinAddr: 0x100005668, symSize: 0x4 }
  - { offsetInCU: 0xB36E, offset: 0xB36E, size: 0x8, addend: 0x0, symName: __ZNSt3__17launderB7v160006IKNS_4pairIKiiEEEEPT_S6_, symObjAddr: 0x39DC, symBinAddr: 0x100005C84, symSize: 0x24 }
  - { offsetInCU: 0xB3A5, offset: 0xB3A5, size: 0x8, addend: 0x0, symName: __ZNSt3__19__launderB7v160006IKNS_4pairIKiiEEEEPT_S6_, symObjAddr: 0x3A00, symBinAddr: 0x100005CA8, symSize: 0x14 }
  - { offsetInCU: 0xB41F, offset: 0xB41F, size: 0x8, addend: 0x0, symName: __ZNSt3__112construct_atB7v160006INS_4pairIKiiEEJRKNS_21piecewise_construct_tENS_5tupleIJRS2_EEENS7_IJEEEEPS3_EEPT_SD_DpOT0_, symObjAddr: 0x3D20, symBinAddr: 0x100005FC8, symSize: 0x50 }
  - { offsetInCU: 0xB4C0, offset: 0xB4C0, size: 0x8, addend: 0x0, symName: __ZNSt3__13getB7v160006ILm0EJRKiEEERNS_13tuple_elementIXT_ENS_5tupleIJDpT0_EEEE4typeERS7_, symObjAddr: 0x3E38, symBinAddr: 0x1000060E0, symSize: 0x24 }
  - { offsetInCU: 0xB503, offset: 0xB503, size: 0x8, addend: 0x0, symName: __ZNSt3__127__tree_balance_after_insertB7v160006IPNS_16__tree_node_baseIPvEEEEvT_S5_, symObjAddr: 0x3EE8, symBinAddr: 0x100006190, symSize: 0x32C }
  - { offsetInCU: 0xB57F, offset: 0xB57F, size: 0x8, addend: 0x0, symName: __ZNSt3__120__tree_is_left_childB7v160006IPNS_16__tree_node_baseIPvEEEEbT_, symObjAddr: 0x4254, symBinAddr: 0x1000064FC, symSize: 0x2C }
  - { offsetInCU: 0xB5B4, offset: 0xB5B4, size: 0x8, addend: 0x0, symName: __ZNSt3__118__tree_left_rotateB7v160006IPNS_16__tree_node_baseIPvEEEEvT_, symObjAddr: 0x4280, symBinAddr: 0x100006528, symSize: 0xD8 }
  - { offsetInCU: 0xB5F6, offset: 0xB5F6, size: 0x8, addend: 0x0, symName: __ZNSt3__119__tree_right_rotateB7v160006IPNS_16__tree_node_baseIPvEEEEvT_, symObjAddr: 0x4358, symBinAddr: 0x100006600, symSize: 0xCC }
  - { offsetInCU: 0xB68F, offset: 0xB68F, size: 0x8, addend: 0x0, symName: __ZNSt3__1neB7v160006ERKNS_15__tree_iteratorINS_12__value_typeIiiEEPNS_11__tree_nodeIS2_PvEElEES9_, symObjAddr: 0x4878, symBinAddr: 0x100006B20, symSize: 0x34 }
  - { offsetInCU: 0xB6CC, offset: 0xB6CC, size: 0x8, addend: 0x0, symName: __ZNSt3__1eqB7v160006ERKNS_15__tree_iteratorINS_12__value_typeIiiEEPNS_11__tree_nodeIS2_PvEElEES9_, symObjAddr: 0x48AC, symBinAddr: 0x100006B54, symSize: 0x30 }
  - { offsetInCU: 0xB709, offset: 0xB709, size: 0x8, addend: 0x0, symName: __ZNSt3__116__tree_next_iterB7v160006IPNS_15__tree_end_nodeIPNS_16__tree_node_baseIPvEEEES5_EET_T0_, symObjAddr: 0x4914, symBinAddr: 0x100006BBC, symSize: 0x80 }
  - { offsetInCU: 0xB747, offset: 0xB747, size: 0x8, addend: 0x0, symName: __ZNSt3__110__tree_minB7v160006IPNS_16__tree_node_baseIPvEEEET_S5_, symObjAddr: 0x4994, symBinAddr: 0x100006C3C, symSize: 0x40 }
  - { offsetInCU: 0xB77C, offset: 0xB77C, size: 0x8, addend: 0x0, symName: __ZNSt3__116__pad_and_outputB7v160006IcNS_11char_traitsIcEEEENS_19ostreambuf_iteratorIT_T0_EES6_PKS4_S8_S8_RNS_8ios_baseES4_, symObjAddr: 0x4BDC, symBinAddr: 0x100006E84, symSize: 0x240 }
  - { offsetInCU: 0xB84B, offset: 0xB84B, size: 0x8, addend: 0x0, symName: __ZNSt3__119__debug_db_insert_cB7v160006INS_12basic_stringIcNS_11char_traitsIcEENS_9allocatorIcEEEEEEvPT_, symObjAddr: 0x5090, symBinAddr: 0x100007338, symSize: 0x10 }
  - { offsetInCU: 0xB87C, offset: 0xB87C, size: 0x8, addend: 0x0, symName: __ZNSt3__112__to_addressB7v160006IcEEPT_S2_, symObjAddr: 0x515C, symBinAddr: 0x100007404, symSize: 0x14 }
  - { offsetInCU: 0xB8B1, offset: 0xB8B1, size: 0x8, addend: 0x0, symName: __ZNSt3__19use_facetB7v160006INS_5ctypeIcEEEERKT_RKNS_6localeE, symObjAddr: 0x5414, symBinAddr: 0x1000076BC, symSize: 0x2C }
  - { offsetInCU: 0xC0C2, offset: 0xC0C2, size: 0x8, addend: 0x0, symName: __ZSt28__throw_bad_array_new_lengthB7v160006v, symObjAddr: 0x12C8, symBinAddr: 0x100003570, symSize: 0x34 }
  - { offsetInCU: 0xF14E, offset: 0xF14E, size: 0x8, addend: 0x0, symName: __Z5solvev, symObjAddr: 0x0, symBinAddr: 0x1000022A8, symSize: 0x4C0 }
  - { offsetInCU: 0xF309, offset: 0xF309, size: 0x8, addend: 0x0, symName: __ZNSt3__16vectorINS_3mapIiiNS_4lessIiEENS_9allocatorINS_4pairIKiiEEEEEENS4_IS9_EEEC1Em, symObjAddr: 0x4C0, symBinAddr: 0x100002768, symSize: 0x34 }
  - { offsetInCU: 0xF344, offset: 0xF344, size: 0x8, addend: 0x0, symName: __ZNSt3__16vectorIiNS_9allocatorIiEEEC1Em, symObjAddr: 0x4F4, symBinAddr: 0x10000279C, symSize: 0x34 }
  - { offsetInCU: 0xF37F, offset: 0xF37F, size: 0x8, addend: 0x0, symName: __ZNSt3__16vectorIiNS_9allocatorIiEEEixB7v160006Em, symObjAddr: 0x528, symBinAddr: 0x1000027D0, symSize: 0x24 }
  - { offsetInCU: 0xF3B6, offset: 0xF3B6, size: 0x8, addend: 0x0, symName: __ZNSt3__16vectorINS_3mapIiiNS_4lessIiEENS_9allocatorINS_4pairIKiiEEEEEENS4_IS9_EEEixB7v160006Em, symObjAddr: 0x54C, symBinAddr: 0x1000027F4, symSize: 0x2C }
  - { offsetInCU: 0xF3ED, offset: 0xF3ED, size: 0x8, addend: 0x0, symName: __ZNSt3__13mapIiiNS_4lessIiEENS_9allocatorINS_4pairIKiiEEEEEixERS5_, symObjAddr: 0x578, symBinAddr: 0x100002820, symSize: 0x80 }
  - { offsetInCU: 0xF424, offset: 0xF424, size: 0x8, addend: 0x0, symName: __ZNSt3__13mapIiiNS_4lessIiEENS_9allocatorINS_4pairIKiiEEEEE5beginB7v160006Ev, symObjAddr: 0x5F8, symBinAddr: 0x1000028A0, symSize: 0x38 }
  - { offsetInCU: 0xF44A, offset: 0xF44A, size: 0x8, addend: 0x0, symName: __ZNSt3__13mapIiiNS_4lessIiEENS_9allocatorINS_4pairIKiiEEEEE3endB7v160006Ev, symObjAddr: 0x630, symBinAddr: 0x1000028D8, symSize: 0x38 }
  - { offsetInCU: 0xF470, offset: 0xF470, size: 0x8, addend: 0x0, symName: __ZNKSt3__114__map_iteratorINS_15__tree_iteratorINS_12__value_typeIiiEEPNS_11__tree_nodeIS3_PvEElEEEdeB7v160006Ev, symObjAddr: 0x698, symBinAddr: 0x100002940, symSize: 0x28 }
  - { offsetInCU: 0xF496, offset: 0xF496, size: 0x8, addend: 0x0, symName: __ZNSt3__14pairIKiiEC1B7v160006IS1_iLPv0EEERNS0_IT_T0_EE, symObjAddr: 0x6C0, symBinAddr: 0x100002968, symSize: 0x34 }
  - { offsetInCU: 0xF4E6, offset: 0xF4E6, size: 0x8, addend: 0x0, symName: __ZNSt3__114__map_iteratorINS_15__tree_iteratorINS_12__value_typeIiiEEPNS_11__tree_nodeIS3_PvEElEEEppB7v160006Ev, symObjAddr: 0x7B0, symBinAddr: 0x100002A58, symSize: 0x2C }
  - { offsetInCU: 0xF50C, offset: 0xF50C, size: 0x8, addend: 0x0, symName: __ZNSt3__16vectorIiNS_9allocatorIiEEED1B7v160006Ev, symObjAddr: 0x810, symBinAddr: 0x100002AB8, symSize: 0x2C }
  - { offsetInCU: 0xF536, offset: 0xF536, size: 0x8, addend: 0x0, symName: __ZNSt3__16vectorINS_3mapIiiNS_4lessIiEENS_9allocatorINS_4pairIKiiEEEEEENS4_IS9_EEED1B7v160006Ev, symObjAddr: 0x83C, symBinAddr: 0x100002AE4, symSize: 0x2C }
  - { offsetInCU: 0xF560, offset: 0xF560, size: 0x8, addend: 0x0, symName: _main, symObjAddr: 0x868, symBinAddr: 0x100002B10, symSize: 0x84 }
  - { offsetInCU: 0xF58A, offset: 0xF58A, size: 0x8, addend: 0x0, symName: __ZNSt3__19basic_iosIcNS_11char_traitsIcEEE3tieB7v160006EPNS_13basic_ostreamIcS2_EE, symObjAddr: 0x8EC, symBinAddr: 0x100002B94, symSize: 0x2C }
  - { offsetInCU: 0xF5D0, offset: 0xF5D0, size: 0x8, addend: 0x0, symName: __ZNSt3__16vectorINS_3mapIiiNS_4lessIiEENS_9allocatorINS_4pairIKiiEEEEEENS4_IS9_EEEC2Em, symObjAddr: 0x918, symBinAddr: 0x100002BC0, symSize: 0xE0 }
  - { offsetInCU: 0xF62C, offset: 0xF62C, size: 0x8, addend: 0x0, symName: __ZNSt3__117__compressed_pairIPNS_3mapIiiNS_4lessIiEENS_9allocatorINS_4pairIKiiEEEEEENS4_IS9_EEEC1B7v160006IDnNS_18__default_init_tagEEEOT_OT0_, symObjAddr: 0x9F8, symBinAddr: 0x100002CA0, symSize: 0x3C }
  - { offsetInCU: 0xF684, offset: 0xF684, size: 0x8, addend: 0x0, symName: __ZNSt3__16vectorINS_3mapIiiNS_4lessIiEENS_9allocatorINS_4pairIKiiEEEEEENS4_IS9_EEE16__destroy_vectorC1ERSB_, symObjAddr: 0xA74, symBinAddr: 0x100002D1C, symSize: 0x34 }
  - { offsetInCU: 0xF6BD, offset: 0xF6BD, size: 0x8, addend: 0x0, symName: __ZNSt3__16vectorINS_3mapIiiNS_4lessIiEENS_9allocatorINS_4pairIKiiEEEEEENS4_IS9_EEE11__vallocateB7v160006Em, symObjAddr: 0xAB8, symBinAddr: 0x100002D60, symSize: 0xB4 }
  - { offsetInCU: 0xF701, offset: 0xF701, size: 0x8, addend: 0x0, symName: __ZNSt3__16vectorINS_3mapIiiNS_4lessIiEENS_9allocatorINS_4pairIKiiEEEEEENS4_IS9_EEE18__construct_at_endEm, symObjAddr: 0xB6C, symBinAddr: 0x100002E14, symSize: 0xC8 }
  - { offsetInCU: 0xF773, offset: 0xF773, size: 0x8, addend: 0x0, symName: __ZNSt3__128__exception_guard_exceptionsINS_6vectorINS_3mapIiiNS_4lessIiEENS_9allocatorINS_4pairIKiiEEEEEENS5_ISA_EEE16__destroy_vectorEE10__completeB7v160006Ev, symObjAddr: 0xC34, symBinAddr: 0x100002EDC, symSize: 0x1C }
  - { offsetInCU: 0xF799, offset: 0xF799, size: 0x8, addend: 0x0, symName: __ZNSt3__128__exception_guard_exceptionsINS_6vectorINS_3mapIiiNS_4lessIiEENS_9allocatorINS_4pairIKiiEEEEEENS5_ISA_EEE16__destroy_vectorEED1B7v160006Ev, symObjAddr: 0xC50, symBinAddr: 0x100002EF8, symSize: 0x2C }
  - { offsetInCU: 0xF7C3, offset: 0xF7C3, size: 0x8, addend: 0x0, symName: __ZNSt3__117__compressed_pairIPNS_3mapIiiNS_4lessIiEENS_9allocatorINS_4pairIKiiEEEEEENS4_IS9_EEEC2B7v160006IDnNS_18__default_init_tagEEEOT_OT0_, symObjAddr: 0xC7C, symBinAddr: 0x100002F24, symSize: 0x40 }
  - { offsetInCU: 0xF81B, offset: 0xF81B, size: 0x8, addend: 0x0, symName: __ZNSt3__122__compressed_pair_elemIPNS_3mapIiiNS_4lessIiEENS_9allocatorINS_4pairIKiiEEEEEELi0ELb0EEC2B7v160006IDnvEEOT_, symObjAddr: 0xCBC, symBinAddr: 0x100002F64, symSize: 0x1C }
  - { offsetInCU: 0xF85D, offset: 0xF85D, size: 0x8, addend: 0x0, symName: __ZNSt3__122__compressed_pair_elemINS_9allocatorINS_3mapIiiNS_4lessIiEENS1_INS_4pairIKiiEEEEEEEELi1ELb1EEC2B7v160006ENS_18__default_init_tagE, symObjAddr: 0xCD8, symBinAddr: 0x100002F80, symSize: 0x2C }
  - { offsetInCU: 0xF892, offset: 0xF892, size: 0x8, addend: 0x0, symName: __ZNSt3__19allocatorINS_3mapIiiNS_4lessIiEENS0_INS_4pairIKiiEEEEEEEC2B7v160006Ev, symObjAddr: 0xD04, symBinAddr: 0x100002FAC, symSize: 0x2C }
  - { offsetInCU: 0xF8BC, offset: 0xF8BC, size: 0x8, addend: 0x0, symName: __ZNSt3__116__non_trivial_ifILb1ENS_9allocatorINS_3mapIiiNS_4lessIiEENS1_INS_4pairIKiiEEEEEEEEEC2B7v160006Ev, symObjAddr: 0xD30, symBinAddr: 0x100002FD8, symSize: 0x14 }
  - { offsetInCU: 0xF8E6, offset: 0xF8E6, size: 0x8, addend: 0x0, symName: __ZNSt3__128__exception_guard_exceptionsINS_6vectorINS_3mapIiiNS_4lessIiEENS_9allocatorINS_4pairIKiiEEEEEENS5_ISA_EEE16__destroy_vectorEEC1B7v160006ESD_, symObjAddr: 0xD44, symBinAddr: 0x100002FEC, symSize: 0x34 }
  - { offsetInCU: 0xF91E, offset: 0xF91E, size: 0x8, addend: 0x0, symName: __ZNSt3__128__exception_guard_exceptionsINS_6vectorINS_3mapIiiNS_4lessIiEENS_9allocatorINS_4pairIKiiEEEEEENS5_ISA_EEE16__destroy_vectorEEC2B7v160006ESD_, symObjAddr: 0xD78, symBinAddr: 0x100003020, symSize: 0x24 }
  - { offsetInCU: 0xF956, offset: 0xF956, size: 0x8, addend: 0x0, symName: __ZNSt3__16vectorINS_3mapIiiNS_4lessIiEENS_9allocatorINS_4pairIKiiEEEEEENS4_IS9_EEE16__destroy_vectorC2ERSB_, symObjAddr: 0xD9C, symBinAddr: 0x100003044, symSize: 0x20 }
  - { offsetInCU: 0xF98F, offset: 0xF98F, size: 0x8, addend: 0x0, symName: __ZNKSt3__16vectorINS_3mapIiiNS_4lessIiEENS_9allocatorINS_4pairIKiiEEEEEENS4_IS9_EEE8max_sizeEv, symObjAddr: 0xDBC, symBinAddr: 0x100003064, symSize: 0x60 }
  - { offsetInCU: 0xF9B7, offset: 0xF9B7, size: 0x8, addend: 0x0, symName: __ZNKSt3__16vectorINS_3mapIiiNS_4lessIiEENS_9allocatorINS_4pairIKiiEEEEEENS4_IS9_EEE20__throw_length_errorB7v160006Ev, symObjAddr: 0xE1C, symBinAddr: 0x1000030C4, symSize: 0x1C }
  - { offsetInCU: 0xF9DD, offset: 0xF9DD, size: 0x8, addend: 0x0, symName: __ZNSt3__16vectorINS_3mapIiiNS_4lessIiEENS_9allocatorINS_4pairIKiiEEEEEENS4_IS9_EEE7__allocB7v160006Ev, symObjAddr: 0xE74, symBinAddr: 0x10000311C, symSize: 0x28 }
  - { offsetInCU: 0xFA03, offset: 0xFA03, size: 0x8, addend: 0x0, symName: __ZNSt3__16vectorINS_3mapIiiNS_4lessIiEENS_9allocatorINS_4pairIKiiEEEEEENS4_IS9_EEE9__end_capB7v160006Ev, symObjAddr: 0xE9C, symBinAddr: 0x100003144, symSize: 0x28 }
  - { offsetInCU: 0xFA29, offset: 0xFA29, size: 0x8, addend: 0x0, symName: __ZNKSt3__16vectorINS_3mapIiiNS_4lessIiEENS_9allocatorINS_4pairIKiiEEEEEENS4_IS9_EEE14__annotate_newB7v160006Em, symObjAddr: 0xEC4, symBinAddr: 0x10000316C, symSize: 0xC8 }
  - { offsetInCU: 0xFA68, offset: 0xFA68, size: 0x8, addend: 0x0, symName: __ZNSt3__116allocator_traitsINS_9allocatorINS_3mapIiiNS_4lessIiEENS1_INS_4pairIKiiEEEEEEEEE8max_sizeB7v160006ISA_vvEEmRKSA_, symObjAddr: 0xFB8, symBinAddr: 0x100003260, symSize: 0x28 }
  - { offsetInCU: 0xFA94, offset: 0xFA94, size: 0x8, addend: 0x0, symName: __ZNKSt3__16vectorINS_3mapIiiNS_4lessIiEENS_9allocatorINS_4pairIKiiEEEEEENS4_IS9_EEE7__allocB7v160006Ev, symObjAddr: 0xFE0, symBinAddr: 0x100003288, symSize: 0x28 }
  - { offsetInCU: 0xFABA, offset: 0xFABA, size: 0x8, addend: 0x0, symName: __ZNSt3__114numeric_limitsIlE3maxB7v160006Ev, symObjAddr: 0x1008, symBinAddr: 0x1000032B0, symSize: 0x14 }
  - { offsetInCU: 0xFAD8, offset: 0xFAD8, size: 0x8, addend: 0x0, symName: __ZNKSt3__16__lessImmEclB7v160006ERKmS3_, symObjAddr: 0x107C, symBinAddr: 0x100003324, symSize: 0x34 }
  - { offsetInCU: 0xFB1A, offset: 0xFB1A, size: 0x8, addend: 0x0, symName: __ZNSt3__114numeric_limitsImE3maxB7v160006Ev, symObjAddr: 0x10B0, symBinAddr: 0x100003358, symSize: 0x14 }
  - { offsetInCU: 0xFB2E, offset: 0xFB2E, size: 0x8, addend: 0x0, symName: __ZNSt3__123__libcpp_numeric_limitsImLb1EE3maxB7v160006Ev, symObjAddr: 0x10C4, symBinAddr: 0x10000336C, symSize: 0x8 }
  - { offsetInCU: 0xFB42, offset: 0xFB42, size: 0x8, addend: 0x0, symName: __ZNKSt3__117__compressed_pairIPNS_3mapIiiNS_4lessIiEENS_9allocatorINS_4pairIKiiEEEEEENS4_IS9_EEE6secondB7v160006Ev, symObjAddr: 0x10CC, symBinAddr: 0x100003374, symSize: 0x24 }
  - { offsetInCU: 0xFB68, offset: 0xFB68, size: 0x8, addend: 0x0, symName: __ZNKSt3__122__compressed_pair_elemINS_9allocatorINS_3mapIiiNS_4lessIiEENS1_INS_4pairIKiiEEEEEEEELi1ELb1EE5__getB7v160006Ev, symObjAddr: 0x10F0, symBinAddr: 0x100003398, symSize: 0x14 }
  - { offsetInCU: 0xFB8E, offset: 0xFB8E, size: 0x8, addend: 0x0, symName: __ZNSt3__123__libcpp_numeric_limitsIlLb1EE3maxB7v160006Ev, symObjAddr: 0x1104, symBinAddr: 0x1000033AC, symSize: 0x8 }
  - { offsetInCU: 0xFBA2, offset: 0xFBA2, size: 0x8, addend: 0x0, symName: __ZNSt12length_errorC1B7v160006EPKc, symObjAddr: 0x1170, symBinAddr: 0x100003418, symSize: 0x34 }
  - { offsetInCU: 0xFBDA, offset: 0xFBDA, size: 0x8, addend: 0x0, symName: __ZNSt12length_errorC2B7v160006EPKc, symObjAddr: 0x11A4, symBinAddr: 0x10000344C, symSize: 0x4C }
  - { offsetInCU: 0xFC12, offset: 0xFC12, size: 0x8, addend: 0x0, symName: __ZNSt3__19allocatorINS_3mapIiiNS_4lessIiEENS0_INS_4pairIKiiEEEEEEE17allocate_at_leastB7v160006Em, symObjAddr: 0x122C, symBinAddr: 0x1000034D4, symSize: 0x40 }
  - { offsetInCU: 0xFC46, offset: 0xFC46, size: 0x8, addend: 0x0, symName: __ZNSt3__19allocatorINS_3mapIiiNS_4lessIiEENS0_INS_4pairIKiiEEEEEEE8allocateB7v160006Em, symObjAddr: 0x126C, symBinAddr: 0x100003514, symSize: 0x5C }
  - { offsetInCU: 0xFC7A, offset: 0xFC7A, size: 0x8, addend: 0x0, symName: __ZNSt3__117__compressed_pairIPNS_3mapIiiNS_4lessIiEENS_9allocatorINS_4pairIKiiEEEEEENS4_IS9_EEE6secondB7v160006Ev, symObjAddr: 0x13CC, symBinAddr: 0x100003674, symSize: 0x24 }
  - { offsetInCU: 0xFCA0, offset: 0xFCA0, size: 0x8, addend: 0x0, symName: __ZNSt3__122__compressed_pair_elemINS_9allocatorINS_3mapIiiNS_4lessIiEENS1_INS_4pairIKiiEEEEEEEELi1ELb1EE5__getB7v160006Ev, symObjAddr: 0x13F0, symBinAddr: 0x100003698, symSize: 0x14 }
  - { offsetInCU: 0xFCC6, offset: 0xFCC6, size: 0x8, addend: 0x0, symName: __ZNSt3__117__compressed_pairIPNS_3mapIiiNS_4lessIiEENS_9allocatorINS_4pairIKiiEEEEEENS4_IS9_EEE5firstB7v160006Ev, symObjAddr: 0x1404, symBinAddr: 0x1000036AC, symSize: 0x24 }
  - { offsetInCU: 0xFCEC, offset: 0xFCEC, size: 0x8, addend: 0x0, symName: __ZNSt3__122__compressed_pair_elemIPNS_3mapIiiNS_4lessIiEENS_9allocatorINS_4pairIKiiEEEEEELi0ELb0EE5__getB7v160006Ev, symObjAddr: 0x1428, symBinAddr: 0x1000036D0, symSize: 0x14 }
  - { offsetInCU: 0xFD12, offset: 0xFD12, size: 0x8, addend: 0x0, symName: __ZNKSt3__16vectorINS_3mapIiiNS_4lessIiEENS_9allocatorINS_4pairIKiiEEEEEENS4_IS9_EEE31__annotate_contiguous_containerB7v160006EPKvSD_SD_SD_, symObjAddr: 0x143C, symBinAddr: 0x1000036E4, symSize: 0x20 }
  - { offsetInCU: 0xFD68, offset: 0xFD68, size: 0x8, addend: 0x0, symName: __ZNKSt3__16vectorINS_3mapIiiNS_4lessIiEENS_9allocatorINS_4pairIKiiEEEEEENS4_IS9_EEE4dataB7v160006Ev, symObjAddr: 0x145C, symBinAddr: 0x100003704, symSize: 0x28 }
  - { offsetInCU: 0xFD8E, offset: 0xFD8E, size: 0x8, addend: 0x0, symName: __ZNKSt3__16vectorINS_3mapIiiNS_4lessIiEENS_9allocatorINS_4pairIKiiEEEEEENS4_IS9_EEE8capacityB7v160006Ev, symObjAddr: 0x1484, symBinAddr: 0x10000372C, symSize: 0x40 }
  - { offsetInCU: 0xFDB4, offset: 0xFDB4, size: 0x8, addend: 0x0, symName: __ZNKSt3__16vectorINS_3mapIiiNS_4lessIiEENS_9allocatorINS_4pairIKiiEEEEEENS4_IS9_EEE9__end_capB7v160006Ev, symObjAddr: 0x14D8, symBinAddr: 0x100003780, symSize: 0x28 }
  - { offsetInCU: 0xFDDA, offset: 0xFDDA, size: 0x8, addend: 0x0, symName: __ZNKSt3__117__compressed_pairIPNS_3mapIiiNS_4lessIiEENS_9allocatorINS_4pairIKiiEEEEEENS4_IS9_EEE5firstB7v160006Ev, symObjAddr: 0x1500, symBinAddr: 0x1000037A8, symSize: 0x24 }
  - { offsetInCU: 0xFE00, offset: 0xFE00, size: 0x8, addend: 0x0, symName: __ZNKSt3__122__compressed_pair_elemIPNS_3mapIiiNS_4lessIiEENS_9allocatorINS_4pairIKiiEEEEEELi0ELb0EE5__getB7v160006Ev, symObjAddr: 0x1524, symBinAddr: 0x1000037CC, symSize: 0x14 }
  - { offsetInCU: 0xFE3F, offset: 0xFE3F, size: 0x8, addend: 0x0, symName: __ZNSt3__16vectorINS_3mapIiiNS_4lessIiEENS_9allocatorINS_4pairIKiiEEEEEENS4_IS9_EEE21_ConstructTransactionC1B7v160006ERSB_m, symObjAddr: 0x1538, symBinAddr: 0x1000037E0, symSize: 0x3C }
  - { offsetInCU: 0xFE87, offset: 0xFE87, size: 0x8, addend: 0x0, symName: __ZNSt3__116allocator_traitsINS_9allocatorINS_3mapIiiNS_4lessIiEENS1_INS_4pairIKiiEEEEEEEEE9constructB7v160006IS9_JEvvEEvRSA_PT_DpOT0_, symObjAddr: 0x1574, symBinAddr: 0x10000381C, symSize: 0x28 }
  - { offsetInCU: 0xFEC7, offset: 0xFEC7, size: 0x8, addend: 0x0, symName: __ZNSt3__16vectorINS_3mapIiiNS_4lessIiEENS_9allocatorINS_4pairIKiiEEEEEENS4_IS9_EEE21_ConstructTransactionD1B7v160006Ev, symObjAddr: 0x159C, symBinAddr: 0x100003844, symSize: 0x2C }
  - { offsetInCU: 0xFEF1, offset: 0xFEF1, size: 0x8, addend: 0x0, symName: __ZNSt3__16vectorINS_3mapIiiNS_4lessIiEENS_9allocatorINS_4pairIKiiEEEEEENS4_IS9_EEE21_ConstructTransactionC2B7v160006ERSB_m, symObjAddr: 0x15C8, symBinAddr: 0x100003870, symSize: 0x4C }
  - { offsetInCU: 0xFF39, offset: 0xFF39, size: 0x8, addend: 0x0, symName: __ZNSt3__13mapIiiNS_4lessIiEENS_9allocatorINS_4pairIKiiEEEEEC1B7v160006Ev, symObjAddr: 0x1648, symBinAddr: 0x1000038F0, symSize: 0x2C }
  - { offsetInCU: 0xFF63, offset: 0xFF63, size: 0x8, addend: 0x0, symName: __ZNSt3__13mapIiiNS_4lessIiEENS_9allocatorINS_4pairIKiiEEEEEC2B7v160006Ev, symObjAddr: 0x1674, symBinAddr: 0x10000391C, symSize: 0x40 }
  - { offsetInCU: 0xFF8D, offset: 0xFF8D, size: 0x8, addend: 0x0, symName: __ZNSt3__119__map_value_compareIiNS_12__value_typeIiiEENS_4lessIiEELb1EEC1B7v160006ES4_, symObjAddr: 0x16B4, symBinAddr: 0x10000395C, symSize: 0x2C }
  - { offsetInCU: 0xFFC6, offset: 0xFFC6, size: 0x8, addend: 0x0, symName: __ZNSt3__16__treeINS_12__value_typeIiiEENS_19__map_value_compareIiS2_NS_4lessIiEELb1EEENS_9allocatorIS2_EEEC1ERKS6_, symObjAddr: 0x16E0, symBinAddr: 0x100003988, symSize: 0x34 }
  - { offsetInCU: 0x10001, offset: 0x10001, size: 0x8, addend: 0x0, symName: __ZNSt3__119__map_value_compareIiNS_12__value_typeIiiEENS_4lessIiEELb1EEC2B7v160006ES4_, symObjAddr: 0x1714, symBinAddr: 0x1000039BC, symSize: 0x14 }
  - { offsetInCU: 0x1003A, offset: 0x1003A, size: 0x8, addend: 0x0, symName: __ZNSt3__16__treeINS_12__value_typeIiiEENS_19__map_value_compareIiS2_NS_4lessIiEELb1EEENS_9allocatorIS2_EEEC2ERKS6_, symObjAddr: 0x1728, symBinAddr: 0x1000039D0, symSize: 0x7C }
  - { offsetInCU: 0x10075, offset: 0x10075, size: 0x8, addend: 0x0, symName: __ZNSt3__117__compressed_pairINS_15__tree_end_nodeIPNS_16__tree_node_baseIPvEEEENS_9allocatorINS_11__tree_nodeINS_12__value_typeIiiEES3_EEEEEC1B7v160006ILb1EvEEv, symObjAddr: 0x17A4, symBinAddr: 0x100003A4C, symSize: 0x2C }
  - { offsetInCU: 0x100B0, offset: 0x100B0, size: 0x8, addend: 0x0, symName: __ZNSt3__117__compressed_pairImNS_19__map_value_compareIiNS_12__value_typeIiiEENS_4lessIiEELb1EEEEC1B7v160006IiRKS6_EEOT_OT0_, symObjAddr: 0x17D0, symBinAddr: 0x100003A78, symSize: 0x3C }
  - { offsetInCU: 0x10108, offset: 0x10108, size: 0x8, addend: 0x0, symName: __ZNSt3__16__treeINS_12__value_typeIiiEENS_19__map_value_compareIiS2_NS_4lessIiEELb1EEENS_9allocatorIS2_EEE10__end_nodeB7v160006Ev, symObjAddr: 0x180C, symBinAddr: 0x100003AB4, symSize: 0x2C }
  - { offsetInCU: 0x1012E, offset: 0x1012E, size: 0x8, addend: 0x0, symName: __ZNSt3__16__treeINS_12__value_typeIiiEENS_19__map_value_compareIiS2_NS_4lessIiEELb1EEENS_9allocatorIS2_EEE12__begin_nodeB7v160006Ev, symObjAddr: 0x1838, symBinAddr: 0x100003AE0, symSize: 0x14 }
  - { offsetInCU: 0x10154, offset: 0x10154, size: 0x8, addend: 0x0, symName: __ZNSt3__117__compressed_pairINS_15__tree_end_nodeIPNS_16__tree_node_baseIPvEEEENS_9allocatorINS_11__tree_nodeINS_12__value_typeIiiEES3_EEEEEC2B7v160006ILb1EvEEv, symObjAddr: 0x184C, symBinAddr: 0x100003AF4, symSize: 0x34 }
  - { offsetInCU: 0x10189, offset: 0x10189, size: 0x8, addend: 0x0, symName: __ZNSt3__122__compressed_pair_elemINS_15__tree_end_nodeIPNS_16__tree_node_baseIPvEEEELi0ELb0EEC2B7v160006ENS_16__value_init_tagE, symObjAddr: 0x1880, symBinAddr: 0x100003B28, symSize: 0x2C }
  - { offsetInCU: 0x101BE, offset: 0x101BE, size: 0x8, addend: 0x0, symName: __ZNSt3__122__compressed_pair_elemINS_9allocatorINS_11__tree_nodeINS_12__value_typeIiiEEPvEEEELi1ELb1EEC2B7v160006ENS_16__value_init_tagE, symObjAddr: 0x18AC, symBinAddr: 0x100003B54, symSize: 0x2C }
  - { offsetInCU: 0x101F3, offset: 0x101F3, size: 0x8, addend: 0x0, symName: __ZNSt3__115__tree_end_nodeIPNS_16__tree_node_baseIPvEEEC1B7v160006Ev, symObjAddr: 0x18D8, symBinAddr: 0x100003B80, symSize: 0x2C }
  - { offsetInCU: 0x1021D, offset: 0x1021D, size: 0x8, addend: 0x0, symName: __ZNSt3__115__tree_end_nodeIPNS_16__tree_node_baseIPvEEEC2B7v160006Ev, symObjAddr: 0x1904, symBinAddr: 0x100003BAC, symSize: 0x18 }
  - { offsetInCU: 0x10247, offset: 0x10247, size: 0x8, addend: 0x0, symName: __ZNSt3__19allocatorINS_11__tree_nodeINS_12__value_typeIiiEEPvEEEC2B7v160006Ev, symObjAddr: 0x191C, symBinAddr: 0x100003BC4, symSize: 0x2C }
  - { offsetInCU: 0x10271, offset: 0x10271, size: 0x8, addend: 0x0, symName: __ZNSt3__116__non_trivial_ifILb1ENS_9allocatorINS_11__tree_nodeINS_12__value_typeIiiEEPvEEEEEC2B7v160006Ev, symObjAddr: 0x1948, symBinAddr: 0x100003BF0, symSize: 0x14 }
  - { offsetInCU: 0x1029B, offset: 0x1029B, size: 0x8, addend: 0x0, symName: __ZNSt3__117__compressed_pairImNS_19__map_value_compareIiNS_12__value_typeIiiEENS_4lessIiEELb1EEEEC2B7v160006IiRKS6_EEOT_OT0_, symObjAddr: 0x195C, symBinAddr: 0x100003C04, symSize: 0x44 }
  - { offsetInCU: 0x102F3, offset: 0x102F3, size: 0x8, addend: 0x0, symName: __ZNSt3__122__compressed_pair_elemImLi0ELb0EEC2B7v160006IivEEOT_, symObjAddr: 0x19A0, symBinAddr: 0x100003C48, symSize: 0x24 }
  - { offsetInCU: 0x10335, offset: 0x10335, size: 0x8, addend: 0x0, symName: __ZNSt3__122__compressed_pair_elemINS_19__map_value_compareIiNS_12__value_typeIiiEENS_4lessIiEELb1EEELi1ELb1EEC2B7v160006IRKS6_vEEOT_, symObjAddr: 0x19C4, symBinAddr: 0x100003C6C, symSize: 0x18 }
  - { offsetInCU: 0x10377, offset: 0x10377, size: 0x8, addend: 0x0, symName: __ZNSt3__114pointer_traitsIPNS_15__tree_end_nodeIPNS_16__tree_node_baseIPvEEEEE10pointer_toB7v160006ERS6_, symObjAddr: 0x19DC, symBinAddr: 0x100003C84, symSize: 0x14 }
  - { offsetInCU: 0x1039A, offset: 0x1039A, size: 0x8, addend: 0x0, symName: __ZNSt3__117__compressed_pairINS_15__tree_end_nodeIPNS_16__tree_node_baseIPvEEEENS_9allocatorINS_11__tree_nodeINS_12__value_typeIiiEES3_EEEEE5firstB7v160006Ev, symObjAddr: 0x19F0, symBinAddr: 0x100003C98, symSize: 0x24 }
  - { offsetInCU: 0x103C0, offset: 0x103C0, size: 0x8, addend: 0x0, symName: __ZNSt3__122__compressed_pair_elemINS_15__tree_end_nodeIPNS_16__tree_node_baseIPvEEEELi0ELb0EE5__getB7v160006Ev, symObjAddr: 0x1A14, symBinAddr: 0x100003CBC, symSize: 0x14 }
  - { offsetInCU: 0x103E6, offset: 0x103E6, size: 0x8, addend: 0x0, symName: __ZNSt3__16vectorINS_3mapIiiNS_4lessIiEENS_9allocatorINS_4pairIKiiEEEEEENS4_IS9_EEE21_ConstructTransactionD2B7v160006Ev, symObjAddr: 0x1A28, symBinAddr: 0x100003CD0, symSize: 0x20 }
  - { offsetInCU: 0x10410, offset: 0x10410, size: 0x8, addend: 0x0, symName: __ZNSt3__128__exception_guard_exceptionsINS_6vectorINS_3mapIiiNS_4lessIiEENS_9allocatorINS_4pairIKiiEEEEEENS5_ISA_EEE16__destroy_vectorEED2B7v160006Ev, symObjAddr: 0x1A48, symBinAddr: 0x100003CF0, symSize: 0x50 }
  - { offsetInCU: 0x1043A, offset: 0x1043A, size: 0x8, addend: 0x0, symName: __ZNSt3__16vectorINS_3mapIiiNS_4lessIiEENS_9allocatorINS_4pairIKiiEEEEEENS4_IS9_EEE16__destroy_vectorclB7v160006Ev, symObjAddr: 0x1A98, symBinAddr: 0x100003D40, symSize: 0x9C }
  - { offsetInCU: 0x10460, offset: 0x10460, size: 0x8, addend: 0x0, symName: __ZNKSt3__16vectorINS_3mapIiiNS_4lessIiEENS_9allocatorINS_4pairIKiiEEEEEENS4_IS9_EEE17__annotate_deleteB7v160006Ev, symObjAddr: 0x1B34, symBinAddr: 0x100003DDC, symSize: 0xD4 }
  - { offsetInCU: 0x10486, offset: 0x10486, size: 0x8, addend: 0x0, symName: __ZNSt3__16vectorINS_3mapIiiNS_4lessIiEENS_9allocatorINS_4pairIKiiEEEEEENS4_IS9_EEE7__clearB7v160006Ev, symObjAddr: 0x1C18, symBinAddr: 0x100003EC0, symSize: 0x28 }
  - { offsetInCU: 0x104AC, offset: 0x104AC, size: 0x8, addend: 0x0, symName: __ZNSt3__116allocator_traitsINS_9allocatorINS_3mapIiiNS_4lessIiEENS1_INS_4pairIKiiEEEEEEEEE10deallocateB7v160006ERSA_PS9_m, symObjAddr: 0x1C40, symBinAddr: 0x100003EE8, symSize: 0x34 }
  - { offsetInCU: 0x104EE, offset: 0x104EE, size: 0x8, addend: 0x0, symName: __ZNKSt3__16vectorINS_3mapIiiNS_4lessIiEENS_9allocatorINS_4pairIKiiEEEEEENS4_IS9_EEE4sizeB7v160006Ev, symObjAddr: 0x1C74, symBinAddr: 0x100003F1C, symSize: 0x28 }
  - { offsetInCU: 0x10514, offset: 0x10514, size: 0x8, addend: 0x0, symName: __ZNSt3__16vectorINS_3mapIiiNS_4lessIiEENS_9allocatorINS_4pairIKiiEEEEEENS4_IS9_EEE22__base_destruct_at_endB7v160006EPS9_, symObjAddr: 0x1C9C, symBinAddr: 0x100003F44, symSize: 0x8C }
  - { offsetInCU: 0x10558, offset: 0x10558, size: 0x8, addend: 0x0, symName: __ZNSt3__116allocator_traitsINS_9allocatorINS_3mapIiiNS_4lessIiEENS1_INS_4pairIKiiEEEEEEEEE7destroyB7v160006IS9_vvEEvRSA_PT_, symObjAddr: 0x1D28, symBinAddr: 0x100003FD0, symSize: 0x28 }
  - { offsetInCU: 0x10593, offset: 0x10593, size: 0x8, addend: 0x0, symName: __ZNSt3__13mapIiiNS_4lessIiEENS_9allocatorINS_4pairIKiiEEEEED1B7v160006Ev, symObjAddr: 0x1D98, symBinAddr: 0x100004040, symSize: 0x2C }
  - { offsetInCU: 0x105BD, offset: 0x105BD, size: 0x8, addend: 0x0, symName: __ZNSt3__13mapIiiNS_4lessIiEENS_9allocatorINS_4pairIKiiEEEEED2B7v160006Ev, symObjAddr: 0x1DC4, symBinAddr: 0x10000406C, symSize: 0x2C }
  - { offsetInCU: 0x105E7, offset: 0x105E7, size: 0x8, addend: 0x0, symName: __ZNSt3__16__treeINS_12__value_typeIiiEENS_19__map_value_compareIiS2_NS_4lessIiEELb1EEENS_9allocatorIS2_EEED1Ev, symObjAddr: 0x1DF0, symBinAddr: 0x100004098, symSize: 0x2C }
  - { offsetInCU: 0x10613, offset: 0x10613, size: 0x8, addend: 0x0, symName: __ZNSt3__16__treeINS_12__value_typeIiiEENS_19__map_value_compareIiS2_NS_4lessIiEELb1EEENS_9allocatorIS2_EEED2Ev, symObjAddr: 0x1E1C, symBinAddr: 0x1000040C4, symSize: 0x38 }
  - { offsetInCU: 0x1063F, offset: 0x1063F, size: 0x8, addend: 0x0, symName: __ZNSt3__16__treeINS_12__value_typeIiiEENS_19__map_value_compareIiS2_NS_4lessIiEELb1EEENS_9allocatorIS2_EEE7destroyEPNS_11__tree_nodeIS2_PvEE, symObjAddr: 0x1E54, symBinAddr: 0x1000040FC, symSize: 0xAC }
  - { offsetInCU: 0x1068B, offset: 0x1068B, size: 0x8, addend: 0x0, symName: __ZNKSt3__16__treeINS_12__value_typeIiiEENS_19__map_value_compareIiS2_NS_4lessIiEELb1EEENS_9allocatorIS2_EEE6__rootB7v160006Ev, symObjAddr: 0x1F00, symBinAddr: 0x1000041A8, symSize: 0x28 }
  - { offsetInCU: 0x106B1, offset: 0x106B1, size: 0x8, addend: 0x0, symName: __ZNSt3__16__treeINS_12__value_typeIiiEENS_19__map_value_compareIiS2_NS_4lessIiEELb1EEENS_9allocatorIS2_EEE12__node_allocB7v160006Ev, symObjAddr: 0x1F28, symBinAddr: 0x1000041D0, symSize: 0x28 }
  - { offsetInCU: 0x106D7, offset: 0x106D7, size: 0x8, addend: 0x0, symName: __ZNSt3__116allocator_traitsINS_9allocatorINS_11__tree_nodeINS_12__value_typeIiiEEPvEEEEE7destroyB7v160006INS_4pairIKiiEEvvEEvRS7_PT_, symObjAddr: 0x1F50, symBinAddr: 0x1000041F8, symSize: 0x28 }
  - { offsetInCU: 0x10712, offset: 0x10712, size: 0x8, addend: 0x0, symName: __ZNSt3__122__tree_key_value_typesINS_12__value_typeIiiEEE9__get_ptrB7v160006ERS2_, symObjAddr: 0x1F78, symBinAddr: 0x100004220, symSize: 0x24 }
  - { offsetInCU: 0x10736, offset: 0x10736, size: 0x8, addend: 0x0, symName: __ZNSt3__116allocator_traitsINS_9allocatorINS_11__tree_nodeINS_12__value_typeIiiEEPvEEEEE10deallocateB7v160006ERS7_PS6_m, symObjAddr: 0x1F9C, symBinAddr: 0x100004244, symSize: 0x34 }
  - { offsetInCU: 0x10778, offset: 0x10778, size: 0x8, addend: 0x0, symName: __ZNSt3__117__compressed_pairINS_15__tree_end_nodeIPNS_16__tree_node_baseIPvEEEENS_9allocatorINS_11__tree_nodeINS_12__value_typeIiiEES3_EEEEE6secondB7v160006Ev, symObjAddr: 0x1FD0, symBinAddr: 0x100004278, symSize: 0x24 }
  - { offsetInCU: 0x1079E, offset: 0x1079E, size: 0x8, addend: 0x0, symName: __ZNSt3__122__compressed_pair_elemINS_9allocatorINS_11__tree_nodeINS_12__value_typeIiiEEPvEEEELi1ELb1EE5__getB7v160006Ev, symObjAddr: 0x1FF4, symBinAddr: 0x10000429C, symSize: 0x14 }
  - { offsetInCU: 0x107C4, offset: 0x107C4, size: 0x8, addend: 0x0, symName: __ZNSt3__112__value_typeIiiE11__get_valueB7v160006Ev, symObjAddr: 0x203C, symBinAddr: 0x1000042E4, symSize: 0x24 }
  - { offsetInCU: 0x107EA, offset: 0x107EA, size: 0x8, addend: 0x0, symName: __ZNSt3__19allocatorINS_11__tree_nodeINS_12__value_typeIiiEEPvEEE10deallocateB7v160006EPS5_m, symObjAddr: 0x2098, symBinAddr: 0x100004340, symSize: 0x44 }
  - { offsetInCU: 0x1082C, offset: 0x1082C, size: 0x8, addend: 0x0, symName: __ZNKSt3__16__treeINS_12__value_typeIiiEENS_19__map_value_compareIiS2_NS_4lessIiEELb1EEENS_9allocatorIS2_EEE10__end_nodeB7v160006Ev, symObjAddr: 0x21E4, symBinAddr: 0x10000448C, symSize: 0x2C }
  - { offsetInCU: 0x10852, offset: 0x10852, size: 0x8, addend: 0x0, symName: __ZNKSt3__117__compressed_pairINS_15__tree_end_nodeIPNS_16__tree_node_baseIPvEEEENS_9allocatorINS_11__tree_nodeINS_12__value_typeIiiEES3_EEEEE5firstB7v160006Ev, symObjAddr: 0x2210, symBinAddr: 0x1000044B8, symSize: 0x24 }
  - { offsetInCU: 0x10878, offset: 0x10878, size: 0x8, addend: 0x0, symName: __ZNKSt3__122__compressed_pair_elemINS_15__tree_end_nodeIPNS_16__tree_node_baseIPvEEEELi0ELb0EE5__getB7v160006Ev, symObjAddr: 0x2234, symBinAddr: 0x1000044DC, symSize: 0x14 }
  - { offsetInCU: 0x1089E, offset: 0x1089E, size: 0x8, addend: 0x0, symName: __ZNSt3__19allocatorINS_3mapIiiNS_4lessIiEENS0_INS_4pairIKiiEEEEEEE10deallocateB7v160006EPS8_m, symObjAddr: 0x2248, symBinAddr: 0x1000044F0, symSize: 0x44 }
  - { offsetInCU: 0x108E0, offset: 0x108E0, size: 0x8, addend: 0x0, symName: __ZNSt3__16vectorIiNS_9allocatorIiEEEC2Em, symObjAddr: 0x228C, symBinAddr: 0x100004534, symSize: 0xE0 }
  - { offsetInCU: 0x10930, offset: 0x10930, size: 0x8, addend: 0x0, symName: __ZNSt3__117__compressed_pairIPiNS_9allocatorIiEEEC1B7v160006IDnNS_18__default_init_tagEEEOT_OT0_, symObjAddr: 0x236C, symBinAddr: 0x100004614, symSize: 0x3C }
  - { offsetInCU: 0x10988, offset: 0x10988, size: 0x8, addend: 0x0, symName: __ZNSt3__16vectorIiNS_9allocatorIiEEE16__destroy_vectorC1ERS3_, symObjAddr: 0x23E8, symBinAddr: 0x100004690, symSize: 0x34 }
  - { offsetInCU: 0x109C1, offset: 0x109C1, size: 0x8, addend: 0x0, symName: __ZNSt3__16vectorIiNS_9allocatorIiEEE11__vallocateB7v160006Em, symObjAddr: 0x242C, symBinAddr: 0x1000046D4, symSize: 0xAC }
  - { offsetInCU: 0x10A05, offset: 0x10A05, size: 0x8, addend: 0x0, symName: __ZNSt3__16vectorIiNS_9allocatorIiEEE18__construct_at_endEm, symObjAddr: 0x24D8, symBinAddr: 0x100004780, symSize: 0xC8 }
  - { offsetInCU: 0x10A77, offset: 0x10A77, size: 0x8, addend: 0x0, symName: __ZNSt3__128__exception_guard_exceptionsINS_6vectorIiNS_9allocatorIiEEE16__destroy_vectorEE10__completeB7v160006Ev, symObjAddr: 0x25A0, symBinAddr: 0x100004848, symSize: 0x1C }
  - { offsetInCU: 0x10A9D, offset: 0x10A9D, size: 0x8, addend: 0x0, symName: __ZNSt3__128__exception_guard_exceptionsINS_6vectorIiNS_9allocatorIiEEE16__destroy_vectorEED1B7v160006Ev, symObjAddr: 0x25BC, symBinAddr: 0x100004864, symSize: 0x2C }
  - { offsetInCU: 0x10AC7, offset: 0x10AC7, size: 0x8, addend: 0x0, symName: __ZNSt3__117__compressed_pairIPiNS_9allocatorIiEEEC2B7v160006IDnNS_18__default_init_tagEEEOT_OT0_, symObjAddr: 0x25E8, symBinAddr: 0x100004890, symSize: 0x40 }
  - { offsetInCU: 0x10B1F, offset: 0x10B1F, size: 0x8, addend: 0x0, symName: __ZNSt3__122__compressed_pair_elemIPiLi0ELb0EEC2B7v160006IDnvEEOT_, symObjAddr: 0x2628, symBinAddr: 0x1000048D0, symSize: 0x1C }
  - { offsetInCU: 0x10B61, offset: 0x10B61, size: 0x8, addend: 0x0, symName: __ZNSt3__122__compressed_pair_elemINS_9allocatorIiEELi1ELb1EEC2B7v160006ENS_18__default_init_tagE, symObjAddr: 0x2644, symBinAddr: 0x1000048EC, symSize: 0x2C }
  - { offsetInCU: 0x10B96, offset: 0x10B96, size: 0x8, addend: 0x0, symName: __ZNSt3__19allocatorIiEC2B7v160006Ev, symObjAddr: 0x2670, symBinAddr: 0x100004918, symSize: 0x2C }
  - { offsetInCU: 0x10BC0, offset: 0x10BC0, size: 0x8, addend: 0x0, symName: __ZNSt3__116__non_trivial_ifILb1ENS_9allocatorIiEEEC2B7v160006Ev, symObjAddr: 0x269C, symBinAddr: 0x100004944, symSize: 0x14 }
  - { offsetInCU: 0x10BEA, offset: 0x10BEA, size: 0x8, addend: 0x0, symName: __ZNSt3__128__exception_guard_exceptionsINS_6vectorIiNS_9allocatorIiEEE16__destroy_vectorEEC1B7v160006ES5_, symObjAddr: 0x26B0, symBinAddr: 0x100004958, symSize: 0x34 }
  - { offsetInCU: 0x10C22, offset: 0x10C22, size: 0x8, addend: 0x0, symName: __ZNSt3__128__exception_guard_exceptionsINS_6vectorIiNS_9allocatorIiEEE16__destroy_vectorEEC2B7v160006ES5_, symObjAddr: 0x26E4, symBinAddr: 0x10000498C, symSize: 0x24 }
  - { offsetInCU: 0x10C5A, offset: 0x10C5A, size: 0x8, addend: 0x0, symName: __ZNSt3__16vectorIiNS_9allocatorIiEEE16__destroy_vectorC2ERS3_, symObjAddr: 0x2708, symBinAddr: 0x1000049B0, symSize: 0x20 }
  - { offsetInCU: 0x10C93, offset: 0x10C93, size: 0x8, addend: 0x0, symName: __ZNKSt3__16vectorIiNS_9allocatorIiEEE8max_sizeEv, symObjAddr: 0x2728, symBinAddr: 0x1000049D0, symSize: 0x60 }
  - { offsetInCU: 0x10CBB, offset: 0x10CBB, size: 0x8, addend: 0x0, symName: __ZNKSt3__16vectorIiNS_9allocatorIiEEE20__throw_length_errorB7v160006Ev, symObjAddr: 0x2788, symBinAddr: 0x100004A30, symSize: 0x1C }
  - { offsetInCU: 0x10CE1, offset: 0x10CE1, size: 0x8, addend: 0x0, symName: __ZNSt3__16vectorIiNS_9allocatorIiEEE7__allocB7v160006Ev, symObjAddr: 0x27E0, symBinAddr: 0x100004A88, symSize: 0x28 }
  - { offsetInCU: 0x10D07, offset: 0x10D07, size: 0x8, addend: 0x0, symName: __ZNSt3__16vectorIiNS_9allocatorIiEEE9__end_capB7v160006Ev, symObjAddr: 0x2808, symBinAddr: 0x100004AB0, symSize: 0x28 }
  - { offsetInCU: 0x10D2D, offset: 0x10D2D, size: 0x8, addend: 0x0, symName: __ZNKSt3__16vectorIiNS_9allocatorIiEEE14__annotate_newB7v160006Em, symObjAddr: 0x2830, symBinAddr: 0x100004AD8, symSize: 0xAC }
  - { offsetInCU: 0x10D6C, offset: 0x10D6C, size: 0x8, addend: 0x0, symName: __ZNSt3__116allocator_traitsINS_9allocatorIiEEE8max_sizeB7v160006IS2_vvEEmRKS2_, symObjAddr: 0x28DC, symBinAddr: 0x100004B84, symSize: 0x28 }
  - { offsetInCU: 0x10D98, offset: 0x10D98, size: 0x8, addend: 0x0, symName: __ZNKSt3__16vectorIiNS_9allocatorIiEEE7__allocB7v160006Ev, symObjAddr: 0x2904, symBinAddr: 0x100004BAC, symSize: 0x28 }
  - { offsetInCU: 0x10DBE, offset: 0x10DBE, size: 0x8, addend: 0x0, symName: __ZNKSt3__117__compressed_pairIPiNS_9allocatorIiEEE6secondB7v160006Ev, symObjAddr: 0x292C, symBinAddr: 0x100004BD4, symSize: 0x24 }
  - { offsetInCU: 0x10DE4, offset: 0x10DE4, size: 0x8, addend: 0x0, symName: __ZNKSt3__122__compressed_pair_elemINS_9allocatorIiEELi1ELb1EE5__getB7v160006Ev, symObjAddr: 0x2950, symBinAddr: 0x100004BF8, symSize: 0x14 }
  - { offsetInCU: 0x10E0A, offset: 0x10E0A, size: 0x8, addend: 0x0, symName: __ZNSt3__19allocatorIiE17allocate_at_leastB7v160006Em, symObjAddr: 0x29A0, symBinAddr: 0x100004C48, symSize: 0x40 }
  - { offsetInCU: 0x10E3E, offset: 0x10E3E, size: 0x8, addend: 0x0, symName: __ZNSt3__19allocatorIiE8allocateB7v160006Em, symObjAddr: 0x29E0, symBinAddr: 0x100004C88, symSize: 0x58 }
  - { offsetInCU: 0x10E72, offset: 0x10E72, size: 0x8, addend: 0x0, symName: __ZNSt3__117__compressed_pairIPiNS_9allocatorIiEEE6secondB7v160006Ev, symObjAddr: 0x2A38, symBinAddr: 0x100004CE0, symSize: 0x24 }
  - { offsetInCU: 0x10E98, offset: 0x10E98, size: 0x8, addend: 0x0, symName: __ZNSt3__122__compressed_pair_elemINS_9allocatorIiEELi1ELb1EE5__getB7v160006Ev, symObjAddr: 0x2A5C, symBinAddr: 0x100004D04, symSize: 0x14 }
  - { offsetInCU: 0x10EBE, offset: 0x10EBE, size: 0x8, addend: 0x0, symName: __ZNSt3__117__compressed_pairIPiNS_9allocatorIiEEE5firstB7v160006Ev, symObjAddr: 0x2A70, symBinAddr: 0x100004D18, symSize: 0x24 }
  - { offsetInCU: 0x10EE4, offset: 0x10EE4, size: 0x8, addend: 0x0, symName: __ZNSt3__122__compressed_pair_elemIPiLi0ELb0EE5__getB7v160006Ev, symObjAddr: 0x2A94, symBinAddr: 0x100004D3C, symSize: 0x14 }
  - { offsetInCU: 0x10F0A, offset: 0x10F0A, size: 0x8, addend: 0x0, symName: __ZNKSt3__16vectorIiNS_9allocatorIiEEE31__annotate_contiguous_containerB7v160006EPKvS5_S5_S5_, symObjAddr: 0x2AA8, symBinAddr: 0x100004D50, symSize: 0x20 }
  - { offsetInCU: 0x10F60, offset: 0x10F60, size: 0x8, addend: 0x0, symName: __ZNKSt3__16vectorIiNS_9allocatorIiEEE4dataB7v160006Ev, symObjAddr: 0x2AC8, symBinAddr: 0x100004D70, symSize: 0x28 }
  - { offsetInCU: 0x10F86, offset: 0x10F86, size: 0x8, addend: 0x0, symName: __ZNKSt3__16vectorIiNS_9allocatorIiEEE8capacityB7v160006Ev, symObjAddr: 0x2AF0, symBinAddr: 0x100004D98, symSize: 0x40 }
  - { offsetInCU: 0x10FAC, offset: 0x10FAC, size: 0x8, addend: 0x0, symName: __ZNKSt3__16vectorIiNS_9allocatorIiEEE9__end_capB7v160006Ev, symObjAddr: 0x2B44, symBinAddr: 0x100004DEC, symSize: 0x28 }
  - { offsetInCU: 0x10FD2, offset: 0x10FD2, size: 0x8, addend: 0x0, symName: __ZNKSt3__117__compressed_pairIPiNS_9allocatorIiEEE5firstB7v160006Ev, symObjAddr: 0x2B6C, symBinAddr: 0x100004E14, symSize: 0x24 }
  - { offsetInCU: 0x10FF8, offset: 0x10FF8, size: 0x8, addend: 0x0, symName: __ZNKSt3__122__compressed_pair_elemIPiLi0ELb0EE5__getB7v160006Ev, symObjAddr: 0x2B90, symBinAddr: 0x100004E38, symSize: 0x14 }
  - { offsetInCU: 0x11037, offset: 0x11037, size: 0x8, addend: 0x0, symName: __ZNSt3__16vectorIiNS_9allocatorIiEEE21_ConstructTransactionC1B7v160006ERS3_m, symObjAddr: 0x2BA4, symBinAddr: 0x100004E4C, symSize: 0x3C }
  - { offsetInCU: 0x1107F, offset: 0x1107F, size: 0x8, addend: 0x0, symName: __ZNSt3__116allocator_traitsINS_9allocatorIiEEE9constructB7v160006IiJEvvEEvRS2_PT_DpOT0_, symObjAddr: 0x2BE0, symBinAddr: 0x100004E88, symSize: 0x28 }
  - { offsetInCU: 0x110BF, offset: 0x110BF, size: 0x8, addend: 0x0, symName: __ZNSt3__16vectorIiNS_9allocatorIiEEE21_ConstructTransactionD1B7v160006Ev, symObjAddr: 0x2C08, symBinAddr: 0x100004EB0, symSize: 0x2C }
  - { offsetInCU: 0x110E9, offset: 0x110E9, size: 0x8, addend: 0x0, symName: __ZNSt3__16vectorIiNS_9allocatorIiEEE21_ConstructTransactionC2B7v160006ERS3_m, symObjAddr: 0x2C34, symBinAddr: 0x100004EDC, symSize: 0x44 }
  - { offsetInCU: 0x11131, offset: 0x11131, size: 0x8, addend: 0x0, symName: __ZNSt3__16vectorIiNS_9allocatorIiEEE21_ConstructTransactionD2B7v160006Ev, symObjAddr: 0x2C98, symBinAddr: 0x100004F40, symSize: 0x20 }
  - { offsetInCU: 0x1115B, offset: 0x1115B, size: 0x8, addend: 0x0, symName: __ZNSt3__128__exception_guard_exceptionsINS_6vectorIiNS_9allocatorIiEEE16__destroy_vectorEED2B7v160006Ev, symObjAddr: 0x2CB8, symBinAddr: 0x100004F60, symSize: 0x50 }
  - { offsetInCU: 0x11185, offset: 0x11185, size: 0x8, addend: 0x0, symName: __ZNSt3__16vectorIiNS_9allocatorIiEEE16__destroy_vectorclB7v160006Ev, symObjAddr: 0x2D08, symBinAddr: 0x100004FB0, symSize: 0x9C }
  - { offsetInCU: 0x111AB, offset: 0x111AB, size: 0x8, addend: 0x0, symName: __ZNKSt3__16vectorIiNS_9allocatorIiEEE17__annotate_deleteB7v160006Ev, symObjAddr: 0x2DA4, symBinAddr: 0x10000504C, symSize: 0xB8 }
  - { offsetInCU: 0x111D1, offset: 0x111D1, size: 0x8, addend: 0x0, symName: __ZNSt3__16vectorIiNS_9allocatorIiEEE7__clearB7v160006Ev, symObjAddr: 0x2E6C, symBinAddr: 0x100005114, symSize: 0x28 }
  - { offsetInCU: 0x111F7, offset: 0x111F7, size: 0x8, addend: 0x0, symName: __ZNSt3__116allocator_traitsINS_9allocatorIiEEE10deallocateB7v160006ERS2_Pim, symObjAddr: 0x2E94, symBinAddr: 0x10000513C, symSize: 0x34 }
  - { offsetInCU: 0x11239, offset: 0x11239, size: 0x8, addend: 0x0, symName: __ZNKSt3__16vectorIiNS_9allocatorIiEEE4sizeB7v160006Ev, symObjAddr: 0x2EC8, symBinAddr: 0x100005170, symSize: 0x28 }
  - { offsetInCU: 0x1125F, offset: 0x1125F, size: 0x8, addend: 0x0, symName: __ZNSt3__16vectorIiNS_9allocatorIiEEE22__base_destruct_at_endB7v160006EPi, symObjAddr: 0x2EF0, symBinAddr: 0x100005198, symSize: 0x8C }
  - { offsetInCU: 0x112A3, offset: 0x112A3, size: 0x8, addend: 0x0, symName: __ZNSt3__116allocator_traitsINS_9allocatorIiEEE7destroyB7v160006IivvEEvRS2_PT_, symObjAddr: 0x2F7C, symBinAddr: 0x100005224, symSize: 0x28 }
  - { offsetInCU: 0x112DE, offset: 0x112DE, size: 0x8, addend: 0x0, symName: __ZNSt3__19allocatorIiE10deallocateB7v160006EPim, symObjAddr: 0x2FD8, symBinAddr: 0x100005280, symSize: 0x40 }
  - { offsetInCU: 0x11320, offset: 0x11320, size: 0x8, addend: 0x0, symName: __ZNSt3__14pairIKiiEC2B7v160006IS1_iLPv0EEERNS0_IT_T0_EE, symObjAddr: 0x3018, symBinAddr: 0x1000052C0, symSize: 0x30 }
  - { offsetInCU: 0x11376, offset: 0x11376, size: 0x8, addend: 0x0, symName: __ZNSt3__110__get_pairILm0EE3getB7v160006IKiiEEOT_ONS_4pairIS4_T0_EE, symObjAddr: 0x3048, symBinAddr: 0x1000052F0, symSize: 0x14 }
  - { offsetInCU: 0x113AC, offset: 0x113AC, size: 0x8, addend: 0x0, symName: __ZNSt3__110__get_pairILm1EE3getB7v160006IKiiEEOT0_ONS_4pairIT_S4_EE, symObjAddr: 0x305C, symBinAddr: 0x100005304, symSize: 0x18 }
  - { offsetInCU: 0x113EC, offset: 0x113EC, size: 0x8, addend: 0x0, symName: __ZNKSt3__18__ct_absIiiLb1EEclB7v160006Ei, symObjAddr: 0x30DC, symBinAddr: 0x100005384, symSize: 0x8C }
  - { offsetInCU: 0x11420, offset: 0x11420, size: 0x8, addend: 0x0, symName: __ZNSt3__114numeric_limitsIiE3minB7v160006Ev, symObjAddr: 0x3168, symBinAddr: 0x100005410, symSize: 0x14 }
  - { offsetInCU: 0x11434, offset: 0x11434, size: 0x8, addend: 0x0, symName: __ZNSt3__123__libcpp_numeric_limitsIiLb1EE3minB7v160006Ev, symObjAddr: 0x317C, symBinAddr: 0x100005424, symSize: 0x8 }
  - { offsetInCU: 0x11452, offset: 0x11452, size: 0x8, addend: 0x0, symName: __ZNKSt3__16__lessIiiEclB7v160006ERKiS3_, symObjAddr: 0x31D8, symBinAddr: 0x100005480, symSize: 0x34 }
  - { offsetInCU: 0x11494, offset: 0x11494, size: 0x8, addend: 0x0, symName: __ZNSt3__16vectorIiNS_9allocatorIiEEED2B7v160006Ev, symObjAddr: 0x320C, symBinAddr: 0x1000054B4, symSize: 0x44 }
  - { offsetInCU: 0x114BE, offset: 0x114BE, size: 0x8, addend: 0x0, symName: __ZNSt3__16vectorINS_3mapIiiNS_4lessIiEENS_9allocatorINS_4pairIKiiEEEEEENS4_IS9_EEED2B7v160006Ev, symObjAddr: 0x3250, symBinAddr: 0x1000054F8, symSize: 0x44 }
  - { offsetInCU: 0x1150C, offset: 0x1150C, size: 0x8, addend: 0x0, symName: __ZNSt3__16__treeINS_12__value_typeIiiEENS_19__map_value_compareIiS2_NS_4lessIiEELb1EEENS_9allocatorIS2_EEE25__emplace_unique_key_argsIiJRKNS_21piecewise_construct_tENS_5tupleIJRKiEEENSE_IJEEEEEENS_4pairINS_15__tree_iteratorIS2_PNS_11__tree_nodeIS2_PvEElEEbEERKT_DpOT0_, symObjAddr: 0x3294, symBinAddr: 0x10000553C, symSize: 0x100 }
  - { offsetInCU: 0x115E2, offset: 0x115E2, size: 0x8, addend: 0x0, symName: __ZNKSt3__115__tree_iteratorINS_12__value_typeIiiEEPNS_11__tree_nodeIS2_PvEElEptB7v160006Ev, symObjAddr: 0x33C4, symBinAddr: 0x10000566C, symSize: 0x2C }
  - { offsetInCU: 0x11608, offset: 0x11608, size: 0x8, addend: 0x0, symName: __ZNSt3__16__treeINS_12__value_typeIiiEENS_19__map_value_compareIiS2_NS_4lessIiEELb1EEENS_9allocatorIS2_EEE12__find_equalIiEERPNS_16__tree_node_baseIPvEERPNS_15__tree_end_nodeISE_EERKT_, symObjAddr: 0x33F0, symBinAddr: 0x100005698, symSize: 0x184 }
  - { offsetInCU: 0x11675, offset: 0x11675, size: 0x8, addend: 0x0, symName: __ZNSt3__16__treeINS_12__value_typeIiiEENS_19__map_value_compareIiS2_NS_4lessIiEELb1EEENS_9allocatorIS2_EEE16__construct_nodeIJRKNS_21piecewise_construct_tENS_5tupleIJRKiEEENSE_IJEEEEEENS_10unique_ptrINS_11__tree_nodeIS2_PvEENS_22__tree_node_destructorINS7_ISM_EEEEEEDpOT_, symObjAddr: 0x3574, symBinAddr: 0x10000581C, symSize: 0x120 }
  - { offsetInCU: 0x116FE, offset: 0x116FE, size: 0x8, addend: 0x0, symName: __ZNSt3__16__treeINS_12__value_typeIiiEENS_19__map_value_compareIiS2_NS_4lessIiEELb1EEENS_9allocatorIS2_EEE16__insert_node_atEPNS_15__tree_end_nodeIPNS_16__tree_node_baseIPvEEEERSE_SE_, symObjAddr: 0x3694, symBinAddr: 0x10000593C, symSize: 0xCC }
  - { offsetInCU: 0x11753, offset: 0x11753, size: 0x8, addend: 0x0, symName: __ZNKSt3__110unique_ptrINS_11__tree_nodeINS_12__value_typeIiiEEPvEENS_22__tree_node_destructorINS_9allocatorIS5_EEEEE3getB7v160006Ev, symObjAddr: 0x3760, symBinAddr: 0x100005A08, symSize: 0x28 }
  - { offsetInCU: 0x11779, offset: 0x11779, size: 0x8, addend: 0x0, symName: __ZNSt3__110unique_ptrINS_11__tree_nodeINS_12__value_typeIiiEEPvEENS_22__tree_node_destructorINS_9allocatorIS5_EEEEE7releaseB7v160006Ev, symObjAddr: 0x3788, symBinAddr: 0x100005A30, symSize: 0x44 }
  - { offsetInCU: 0x117AE, offset: 0x117AE, size: 0x8, addend: 0x0, symName: __ZNSt3__110unique_ptrINS_11__tree_nodeINS_12__value_typeIiiEEPvEENS_22__tree_node_destructorINS_9allocatorIS5_EEEEED1B7v160006Ev, symObjAddr: 0x37CC, symBinAddr: 0x100005A74, symSize: 0x2C }
  - { offsetInCU: 0x117D8, offset: 0x117D8, size: 0x8, addend: 0x0, symName: __ZNSt3__115__tree_iteratorINS_12__value_typeIiiEEPNS_11__tree_nodeIS2_PvEElEC1B7v160006ES6_, symObjAddr: 0x37F8, symBinAddr: 0x100005AA0, symSize: 0x34 }
  - { offsetInCU: 0x1181C, offset: 0x1181C, size: 0x8, addend: 0x0, symName: __ZNSt3__14pairINS_15__tree_iteratorINS_12__value_typeIiiEEPNS_11__tree_nodeIS3_PvEElEEbEC1B7v160006IS8_RbLS5_0EEEOT_OT0_, symObjAddr: 0x382C, symBinAddr: 0x100005AD4, symSize: 0x3C }
  - { offsetInCU: 0x1187A, offset: 0x1187A, size: 0x8, addend: 0x0, symName: __ZNKSt3__16__treeINS_12__value_typeIiiEENS_19__map_value_compareIiS2_NS_4lessIiEELb1EEENS_9allocatorIS2_EEE10__root_ptrEv, symObjAddr: 0x3868, symBinAddr: 0x100005B10, symSize: 0x24 }
  - { offsetInCU: 0x118A0, offset: 0x118A0, size: 0x8, addend: 0x0, symName: __ZNSt3__16__treeINS_12__value_typeIiiEENS_19__map_value_compareIiS2_NS_4lessIiEELb1EEENS_9allocatorIS2_EEE10value_compB7v160006Ev, symObjAddr: 0x388C, symBinAddr: 0x100005B34, symSize: 0x28 }
  - { offsetInCU: 0x118C6, offset: 0x118C6, size: 0x8, addend: 0x0, symName: __ZNKSt3__119__map_value_compareIiNS_12__value_typeIiiEENS_4lessIiEELb1EEclB7v160006ERKiRKS2_, symObjAddr: 0x38B4, symBinAddr: 0x100005B5C, symSize: 0x50 }
  - { offsetInCU: 0x1190A, offset: 0x1190A, size: 0x8, addend: 0x0, symName: __ZNKSt3__119__map_value_compareIiNS_12__value_typeIiiEENS_4lessIiEELb1EEclB7v160006ERKS2_RKi, symObjAddr: 0x3904, symBinAddr: 0x100005BAC, symSize: 0x48 }
  - { offsetInCU: 0x1194E, offset: 0x1194E, size: 0x8, addend: 0x0, symName: __ZNSt3__117__compressed_pairImNS_19__map_value_compareIiNS_12__value_typeIiiEENS_4lessIiEELb1EEEE6secondB7v160006Ev, symObjAddr: 0x394C, symBinAddr: 0x100005BF4, symSize: 0x24 }
  - { offsetInCU: 0x11974, offset: 0x11974, size: 0x8, addend: 0x0, symName: __ZNSt3__122__compressed_pair_elemINS_19__map_value_compareIiNS_12__value_typeIiiEENS_4lessIiEELb1EEELi1ELb1EE5__getB7v160006Ev, symObjAddr: 0x3970, symBinAddr: 0x100005C18, symSize: 0x14 }
  - { offsetInCU: 0x1199A, offset: 0x1199A, size: 0x8, addend: 0x0, symName: __ZNKSt3__14lessIiEclB7v160006ERKiS3_, symObjAddr: 0x3984, symBinAddr: 0x100005C2C, symSize: 0x34 }
  - { offsetInCU: 0x119DE, offset: 0x119DE, size: 0x8, addend: 0x0, symName: __ZNKSt3__112__value_typeIiiE11__get_valueB7v160006Ev, symObjAddr: 0x39B8, symBinAddr: 0x100005C60, symSize: 0x24 }
  - { offsetInCU: 0x11A04, offset: 0x11A04, size: 0x8, addend: 0x0, symName: __ZNSt3__116allocator_traitsINS_9allocatorINS_11__tree_nodeINS_12__value_typeIiiEEPvEEEEE8allocateB7v160006ERS7_m, symObjAddr: 0x3A14, symBinAddr: 0x100005CBC, symSize: 0x2C }
  - { offsetInCU: 0x11A37, offset: 0x11A37, size: 0x8, addend: 0x0, symName: __ZNSt3__122__tree_node_destructorINS_9allocatorINS_11__tree_nodeINS_12__value_typeIiiEEPvEEEEEC1B7v160006ERS7_b, symObjAddr: 0x3A40, symBinAddr: 0x100005CE8, symSize: 0x48 }
  - { offsetInCU: 0x11A85, offset: 0x11A85, size: 0x8, addend: 0x0, symName: __ZNSt3__110unique_ptrINS_11__tree_nodeINS_12__value_typeIiiEEPvEENS_22__tree_node_destructorINS_9allocatorIS5_EEEEEC1B7v160006ILb1EvEEPS5_NS_16__dependent_typeINS_27__unique_ptr_deleter_sfinaeIS9_EEXT_EE20__good_rval_ref_typeE, symObjAddr: 0x3A88, symBinAddr: 0x100005D30, symSize: 0x3C }
  - { offsetInCU: 0x11AD6, offset: 0x11AD6, size: 0x8, addend: 0x0, symName: __ZNSt3__116allocator_traitsINS_9allocatorINS_11__tree_nodeINS_12__value_typeIiiEEPvEEEEE9constructB7v160006INS_4pairIKiiEEJRKNS_21piecewise_construct_tENS_5tupleIJRSB_EEENSG_IJEEEEvvEEvRS7_PT_DpOT0_, symObjAddr: 0x3AC4, symBinAddr: 0x100005D6C, symSize: 0x40 }
  - { offsetInCU: 0x11B53, offset: 0x11B53, size: 0x8, addend: 0x0, symName: __ZNKSt3__110unique_ptrINS_11__tree_nodeINS_12__value_typeIiiEEPvEENS_22__tree_node_destructorINS_9allocatorIS5_EEEEEptB7v160006Ev, symObjAddr: 0x3B04, symBinAddr: 0x100005DAC, symSize: 0x28 }
  - { offsetInCU: 0x11B79, offset: 0x11B79, size: 0x8, addend: 0x0, symName: __ZNSt3__110unique_ptrINS_11__tree_nodeINS_12__value_typeIiiEEPvEENS_22__tree_node_destructorINS_9allocatorIS5_EEEEE11get_deleterB7v160006Ev, symObjAddr: 0x3B2C, symBinAddr: 0x100005DD4, symSize: 0x24 }
  - { offsetInCU: 0x11B9F, offset: 0x11B9F, size: 0x8, addend: 0x0, symName: __ZNSt3__19allocatorINS_11__tree_nodeINS_12__value_typeIiiEEPvEEE8allocateB7v160006Em, symObjAddr: 0x3B50, symBinAddr: 0x100005DF8, symSize: 0x5C }
  - { offsetInCU: 0x11BDD, offset: 0x11BDD, size: 0x8, addend: 0x0, symName: __ZNSt3__116allocator_traitsINS_9allocatorINS_11__tree_nodeINS_12__value_typeIiiEEPvEEEEE8max_sizeB7v160006IS7_vvEEmRKS7_, symObjAddr: 0x3BAC, symBinAddr: 0x100005E54, symSize: 0x28 }
  - { offsetInCU: 0x11C09, offset: 0x11C09, size: 0x8, addend: 0x0, symName: __ZNSt3__122__tree_node_destructorINS_9allocatorINS_11__tree_nodeINS_12__value_typeIiiEEPvEEEEEC2B7v160006ERS7_b, symObjAddr: 0x3BD4, symBinAddr: 0x100005E7C, symSize: 0x38 }
  - { offsetInCU: 0x11C51, offset: 0x11C51, size: 0x8, addend: 0x0, symName: __ZNSt3__110unique_ptrINS_11__tree_nodeINS_12__value_typeIiiEEPvEENS_22__tree_node_destructorINS_9allocatorIS5_EEEEEC2B7v160006ILb1EvEEPS5_NS_16__dependent_typeINS_27__unique_ptr_deleter_sfinaeIS9_EEXT_EE20__good_rval_ref_typeE, symObjAddr: 0x3C0C, symBinAddr: 0x100005EB4, symSize: 0x48 }
  - { offsetInCU: 0x11CA2, offset: 0x11CA2, size: 0x8, addend: 0x0, symName: __ZNSt3__117__compressed_pairIPNS_11__tree_nodeINS_12__value_typeIiiEEPvEENS_22__tree_node_destructorINS_9allocatorIS5_EEEEEC1B7v160006IRS6_SA_EEOT_OT0_, symObjAddr: 0x3C54, symBinAddr: 0x100005EFC, symSize: 0x3C }
  - { offsetInCU: 0x11CFA, offset: 0x11CFA, size: 0x8, addend: 0x0, symName: __ZNSt3__117__compressed_pairIPNS_11__tree_nodeINS_12__value_typeIiiEEPvEENS_22__tree_node_destructorINS_9allocatorIS5_EEEEEC2B7v160006IRS6_SA_EEOT_OT0_, symObjAddr: 0x3C90, symBinAddr: 0x100005F38, symSize: 0x48 }
  - { offsetInCU: 0x11D52, offset: 0x11D52, size: 0x8, addend: 0x0, symName: __ZNSt3__122__compressed_pair_elemIPNS_11__tree_nodeINS_12__value_typeIiiEEPvEELi0ELb0EEC2B7v160006IRS6_vEEOT_, symObjAddr: 0x3CD8, symBinAddr: 0x100005F80, symSize: 0x24 }
  - { offsetInCU: 0x11D94, offset: 0x11D94, size: 0x8, addend: 0x0, symName: __ZNSt3__122__compressed_pair_elemINS_22__tree_node_destructorINS_9allocatorINS_11__tree_nodeINS_12__value_typeIiiEEPvEEEEEELi1ELb0EEC2B7v160006IS9_vEEOT_, symObjAddr: 0x3CFC, symBinAddr: 0x100005FA4, symSize: 0x24 }
  - { offsetInCU: 0x11DD6, offset: 0x11DD6, size: 0x8, addend: 0x0, symName: __ZNSt3__14pairIKiiEC1B7v160006IJRS1_EJEEENS_21piecewise_construct_tENS_5tupleIJDpT_EEENS6_IJDpT0_EEE, symObjAddr: 0x3D70, symBinAddr: 0x100006018, symSize: 0x44 }
  - { offsetInCU: 0x11E3D, offset: 0x11E3D, size: 0x8, addend: 0x0, symName: __ZNSt3__14pairIKiiEC1B7v160006IJRS1_EJEJLm0EEJEEENS_21piecewise_construct_tERNS_5tupleIJDpT_EEERNS6_IJDpT0_EEENS_15__tuple_indicesIJXspT1_EEEENSF_IJXspT2_EEEE, symObjAddr: 0x3DB4, symBinAddr: 0x10000605C, symSize: 0x3C }
  - { offsetInCU: 0x11ECD, offset: 0x11ECD, size: 0x8, addend: 0x0, symName: __ZNSt3__14pairIKiiEC2B7v160006IJRS1_EJEJLm0EEJEEENS_21piecewise_construct_tERNS_5tupleIJDpT_EEERNS6_IJDpT0_EEENS_15__tuple_indicesIJXspT1_EEEENSF_IJXspT2_EEEE, symObjAddr: 0x3DF0, symBinAddr: 0x100006098, symSize: 0x48 }
  - { offsetInCU: 0x11F5D, offset: 0x11F5D, size: 0x8, addend: 0x0, symName: __ZNSt3__112__tuple_leafILm0ERKiLb0EE3getB7v160006Ev, symObjAddr: 0x3E5C, symBinAddr: 0x100006104, symSize: 0x18 }
  - { offsetInCU: 0x11F83, offset: 0x11F83, size: 0x8, addend: 0x0, symName: __ZNKSt3__117__compressed_pairIPNS_11__tree_nodeINS_12__value_typeIiiEEPvEENS_22__tree_node_destructorINS_9allocatorIS5_EEEEE5firstB7v160006Ev, symObjAddr: 0x3E74, symBinAddr: 0x10000611C, symSize: 0x24 }
  - { offsetInCU: 0x11FA9, offset: 0x11FA9, size: 0x8, addend: 0x0, symName: __ZNKSt3__122__compressed_pair_elemIPNS_11__tree_nodeINS_12__value_typeIiiEEPvEELi0ELb0EE5__getB7v160006Ev, symObjAddr: 0x3E98, symBinAddr: 0x100006140, symSize: 0x14 }
  - { offsetInCU: 0x11FCF, offset: 0x11FCF, size: 0x8, addend: 0x0, symName: __ZNSt3__117__compressed_pairIPNS_11__tree_nodeINS_12__value_typeIiiEEPvEENS_22__tree_node_destructorINS_9allocatorIS5_EEEEE6secondB7v160006Ev, symObjAddr: 0x3EAC, symBinAddr: 0x100006154, symSize: 0x28 }
  - { offsetInCU: 0x11FF5, offset: 0x11FF5, size: 0x8, addend: 0x0, symName: __ZNSt3__122__compressed_pair_elemINS_22__tree_node_destructorINS_9allocatorINS_11__tree_nodeINS_12__value_typeIiiEEPvEEEEEELi1ELb0EE5__getB7v160006Ev, symObjAddr: 0x3ED4, symBinAddr: 0x10000617C, symSize: 0x14 }
  - { offsetInCU: 0x1201B, offset: 0x1201B, size: 0x8, addend: 0x0, symName: __ZNSt3__16__treeINS_12__value_typeIiiEENS_19__map_value_compareIiS2_NS_4lessIiEELb1EEENS_9allocatorIS2_EEE4sizeB7v160006Ev, symObjAddr: 0x4214, symBinAddr: 0x1000064BC, symSize: 0x28 }
  - { offsetInCU: 0x12041, offset: 0x12041, size: 0x8, addend: 0x0, symName: __ZNKSt3__116__tree_node_baseIPvE15__parent_unsafeB7v160006Ev, symObjAddr: 0x423C, symBinAddr: 0x1000064E4, symSize: 0x18 }
  - { offsetInCU: 0x12067, offset: 0x12067, size: 0x8, addend: 0x0, symName: __ZNSt3__116__tree_node_baseIPvE12__set_parentB7v160006EPS2_, symObjAddr: 0x4424, symBinAddr: 0x1000066CC, symSize: 0x20 }
  - { offsetInCU: 0x1209C, offset: 0x1209C, size: 0x8, addend: 0x0, symName: __ZNSt3__117__compressed_pairImNS_19__map_value_compareIiNS_12__value_typeIiiEENS_4lessIiEELb1EEEE5firstB7v160006Ev, symObjAddr: 0x4444, symBinAddr: 0x1000066EC, symSize: 0x24 }
  - { offsetInCU: 0x120C2, offset: 0x120C2, size: 0x8, addend: 0x0, symName: __ZNSt3__122__compressed_pair_elemImLi0ELb0EE5__getB7v160006Ev, symObjAddr: 0x4468, symBinAddr: 0x100006710, symSize: 0x14 }
  - { offsetInCU: 0x120E8, offset: 0x120E8, size: 0x8, addend: 0x0, symName: __ZNSt3__117__compressed_pairIPNS_11__tree_nodeINS_12__value_typeIiiEEPvEENS_22__tree_node_destructorINS_9allocatorIS5_EEEEE5firstB7v160006Ev, symObjAddr: 0x447C, symBinAddr: 0x100006724, symSize: 0x24 }
  - { offsetInCU: 0x1210E, offset: 0x1210E, size: 0x8, addend: 0x0, symName: __ZNSt3__122__compressed_pair_elemIPNS_11__tree_nodeINS_12__value_typeIiiEEPvEELi0ELb0EE5__getB7v160006Ev, symObjAddr: 0x44A0, symBinAddr: 0x100006748, symSize: 0x14 }
  - { offsetInCU: 0x12134, offset: 0x12134, size: 0x8, addend: 0x0, symName: __ZNSt3__110unique_ptrINS_11__tree_nodeINS_12__value_typeIiiEEPvEENS_22__tree_node_destructorINS_9allocatorIS5_EEEEED2B7v160006Ev, symObjAddr: 0x44B4, symBinAddr: 0x10000675C, symSize: 0x30 }
  - { offsetInCU: 0x1215E, offset: 0x1215E, size: 0x8, addend: 0x0, symName: __ZNSt3__110unique_ptrINS_11__tree_nodeINS_12__value_typeIiiEEPvEENS_22__tree_node_destructorINS_9allocatorIS5_EEEEE5resetB7v160006EPS5_, symObjAddr: 0x44E4, symBinAddr: 0x10000678C, symSize: 0x78 }
  - { offsetInCU: 0x121A2, offset: 0x121A2, size: 0x8, addend: 0x0, symName: __ZNSt3__122__tree_node_destructorINS_9allocatorINS_11__tree_nodeINS_12__value_typeIiiEEPvEEEEEclB7v160006EPS6_, symObjAddr: 0x455C, symBinAddr: 0x100006804, symSize: 0x98 }
  - { offsetInCU: 0x121D7, offset: 0x121D7, size: 0x8, addend: 0x0, symName: __ZNSt3__115__tree_iteratorINS_12__value_typeIiiEEPNS_11__tree_nodeIS2_PvEElEC2B7v160006ES6_, symObjAddr: 0x45F4, symBinAddr: 0x10000689C, symSize: 0x20 }
  - { offsetInCU: 0x12210, offset: 0x12210, size: 0x8, addend: 0x0, symName: __ZNSt3__14pairINS_15__tree_iteratorINS_12__value_typeIiiEEPNS_11__tree_nodeIS3_PvEElEEbEC2B7v160006IS8_RbLS5_0EEEOT_OT0_, symObjAddr: 0x4614, symBinAddr: 0x1000068BC, symSize: 0x38 }
  - { offsetInCU: 0x1226E, offset: 0x1226E, size: 0x8, addend: 0x0, symName: __ZNSt3__15tupleIJRKiEEC1B7v160006INS_4_AndELi0EEES2_, symObjAddr: 0x464C, symBinAddr: 0x1000068F4, symSize: 0x34 }
  - { offsetInCU: 0x122B6, offset: 0x122B6, size: 0x8, addend: 0x0, symName: __ZNSt3__15tupleIJRKiEEC2B7v160006INS_4_AndELi0EEES2_, symObjAddr: 0x4680, symBinAddr: 0x100006928, symSize: 0x34 }
  - { offsetInCU: 0x122FE, offset: 0x122FE, size: 0x8, addend: 0x0, symName: __ZNSt3__112__tuple_implINS_15__tuple_indicesIJLm0EEEEJRKiEEC1B7v160006IJLm0EEJS4_EJEJEJS4_EEENS1_IJXspT_EEEENS_13__tuple_typesIJDpT0_EEENS1_IJXspT1_EEEENS8_IJDpT2_EEEDpOT3_, symObjAddr: 0x46B4, symBinAddr: 0x10000695C, symSize: 0x34 }
  - { offsetInCU: 0x12393, offset: 0x12393, size: 0x8, addend: 0x0, symName: __ZNSt3__112__tuple_implINS_15__tuple_indicesIJLm0EEEEJRKiEEC2B7v160006IJLm0EEJS4_EJEJEJS4_EEENS1_IJXspT_EEEENS_13__tuple_typesIJDpT0_EEENS1_IJXspT1_EEEENS8_IJDpT2_EEEDpOT3_, symObjAddr: 0x46E8, symBinAddr: 0x100006990, symSize: 0x34 }
  - { offsetInCU: 0x12428, offset: 0x12428, size: 0x8, addend: 0x0, symName: __ZNSt3__112__tuple_leafILm0ERKiLb0EEC2B7v160006IS2_vEEOT_, symObjAddr: 0x471C, symBinAddr: 0x1000069C4, symSize: 0x20 }
  - { offsetInCU: 0x1246B, offset: 0x1246B, size: 0x8, addend: 0x0, symName: __ZNSt3__114pointer_traitsIPNS_12__value_typeIiiEEE10pointer_toB7v160006ERS2_, symObjAddr: 0x473C, symBinAddr: 0x1000069E4, symSize: 0x14 }
  - { offsetInCU: 0x1248E, offset: 0x1248E, size: 0x8, addend: 0x0, symName: __ZNKSt3__115__tree_iteratorINS_12__value_typeIiiEEPNS_11__tree_nodeIS2_PvEElE8__get_npB7v160006Ev, symObjAddr: 0x4750, symBinAddr: 0x1000069F8, symSize: 0x18 }
  - { offsetInCU: 0x124B4, offset: 0x124B4, size: 0x8, addend: 0x0, symName: __ZNSt3__16__treeINS_12__value_typeIiiEENS_19__map_value_compareIiS2_NS_4lessIiEELb1EEENS_9allocatorIS2_EEE5beginB7v160006Ev, symObjAddr: 0x4768, symBinAddr: 0x100006A10, symSize: 0x34 }
  - { offsetInCU: 0x124DA, offset: 0x124DA, size: 0x8, addend: 0x0, symName: __ZNSt3__114__map_iteratorINS_15__tree_iteratorINS_12__value_typeIiiEEPNS_11__tree_nodeIS3_PvEElEEEC1B7v160006ES8_, symObjAddr: 0x479C, symBinAddr: 0x100006A44, symSize: 0x34 }
  - { offsetInCU: 0x12513, offset: 0x12513, size: 0x8, addend: 0x0, symName: __ZNSt3__115__tree_iteratorINS_12__value_typeIiiEEPNS_11__tree_nodeIS2_PvEElEC1B7v160006EPNS_15__tree_end_nodeIPNS_16__tree_node_baseIS4_EEEE, symObjAddr: 0x47D0, symBinAddr: 0x100006A78, symSize: 0x34 }
  - { offsetInCU: 0x1254C, offset: 0x1254C, size: 0x8, addend: 0x0, symName: __ZNSt3__115__tree_iteratorINS_12__value_typeIiiEEPNS_11__tree_nodeIS2_PvEElEC2B7v160006EPNS_15__tree_end_nodeIPNS_16__tree_node_baseIS4_EEEE, symObjAddr: 0x4804, symBinAddr: 0x100006AAC, symSize: 0x20 }
  - { offsetInCU: 0x12585, offset: 0x12585, size: 0x8, addend: 0x0, symName: __ZNSt3__114__map_iteratorINS_15__tree_iteratorINS_12__value_typeIiiEEPNS_11__tree_nodeIS3_PvEElEEEC2B7v160006ES8_, symObjAddr: 0x4824, symBinAddr: 0x100006ACC, symSize: 0x20 }
  - { offsetInCU: 0x125BE, offset: 0x125BE, size: 0x8, addend: 0x0, symName: __ZNSt3__16__treeINS_12__value_typeIiiEENS_19__map_value_compareIiS2_NS_4lessIiEELb1EEENS_9allocatorIS2_EEE3endB7v160006Ev, symObjAddr: 0x4844, symBinAddr: 0x100006AEC, symSize: 0x34 }
  - { offsetInCU: 0x125E4, offset: 0x125E4, size: 0x8, addend: 0x0, symName: __ZNSt3__115__tree_iteratorINS_12__value_typeIiiEEPNS_11__tree_nodeIS2_PvEElEppB7v160006Ev, symObjAddr: 0x48DC, symBinAddr: 0x100006B84, symSize: 0x38 }
  - { offsetInCU: 0x12623, offset: 0x12623, size: 0x8, addend: 0x0, symName: __ZNKSt3__113basic_ostreamIcNS_11char_traitsIcEEE6sentrycvbB7v160006Ev, symObjAddr: 0x4BC0, symBinAddr: 0x100006E68, symSize: 0x1C }
  - { offsetInCU: 0x12649, offset: 0x12649, size: 0x8, addend: 0x0, symName: __ZNSt3__119ostreambuf_iteratorIcNS_11char_traitsIcEEEC1B7v160006ERNS_13basic_ostreamIcS2_EE, symObjAddr: 0x4E1C, symBinAddr: 0x1000070C4, symSize: 0x34 }
  - { offsetInCU: 0x12681, offset: 0x12681, size: 0x8, addend: 0x0, symName: __ZNKSt3__18ios_base5flagsB7v160006Ev, symObjAddr: 0x4E50, symBinAddr: 0x1000070F8, symSize: 0x18 }
  - { offsetInCU: 0x126A9, offset: 0x126A9, size: 0x8, addend: 0x0, symName: __ZNKSt3__19basic_iosIcNS_11char_traitsIcEEE4fillB7v160006Ev, symObjAddr: 0x4E68, symBinAddr: 0x100007110, symSize: 0x64 }
  - { offsetInCU: 0x126D1, offset: 0x126D1, size: 0x8, addend: 0x0, symName: __ZNKSt3__119ostreambuf_iteratorIcNS_11char_traitsIcEEE6failedB7v160006Ev, symObjAddr: 0x4ECC, symBinAddr: 0x100007174, symSize: 0x24 }
  - { offsetInCU: 0x126F7, offset: 0x126F7, size: 0x8, addend: 0x0, symName: __ZNSt3__19basic_iosIcNS_11char_traitsIcEEE8setstateB7v160006Ej, symObjAddr: 0x4EF0, symBinAddr: 0x100007198, symSize: 0x2C }
  - { offsetInCU: 0x1272C, offset: 0x1272C, size: 0x8, addend: 0x0, symName: __ZNKSt3__18ios_base5widthB7v160006Ev, symObjAddr: 0x4F1C, symBinAddr: 0x1000071C4, symSize: 0x18 }
  - { offsetInCU: 0x12754, offset: 0x12754, size: 0x8, addend: 0x0, symName: __ZNSt3__115basic_streambufIcNS_11char_traitsIcEEE5sputnB7v160006EPKcl, symObjAddr: 0x4F34, symBinAddr: 0x1000071DC, symSize: 0x3C }
  - { offsetInCU: 0x12796, offset: 0x12796, size: 0x8, addend: 0x0, symName: __ZNSt3__112basic_stringIcNS_11char_traitsIcEENS_9allocatorIcEEEC1B7v160006Emc, symObjAddr: 0x4F70, symBinAddr: 0x100007218, symSize: 0x3C }
  - { offsetInCU: 0x127DE, offset: 0x127DE, size: 0x8, addend: 0x0, symName: __ZNSt3__112basic_stringIcNS_11char_traitsIcEENS_9allocatorIcEEE4dataB7v160006Ev, symObjAddr: 0x4FAC, symBinAddr: 0x100007254, symSize: 0x28 }
  - { offsetInCU: 0x12804, offset: 0x12804, size: 0x8, addend: 0x0, symName: __ZNSt3__18ios_base5widthB7v160006El, symObjAddr: 0x4FD4, symBinAddr: 0x10000727C, symSize: 0x2C }
  - { offsetInCU: 0x1284A, offset: 0x1284A, size: 0x8, addend: 0x0, symName: __ZNSt3__112basic_stringIcNS_11char_traitsIcEENS_9allocatorIcEEEC2B7v160006Emc, symObjAddr: 0x5000, symBinAddr: 0x1000072A8, symSize: 0x54 }
  - { offsetInCU: 0x12892, offset: 0x12892, size: 0x8, addend: 0x0, symName: __ZNSt3__117__compressed_pairINS_12basic_stringIcNS_11char_traitsIcEENS_9allocatorIcEEE5__repES5_EC1B7v160006INS_18__default_init_tagESA_EEOT_OT0_, symObjAddr: 0x5054, symBinAddr: 0x1000072FC, symSize: 0x3C }
  - { offsetInCU: 0x128EA, offset: 0x128EA, size: 0x8, addend: 0x0, symName: __ZNSt3__117__compressed_pairINS_12basic_stringIcNS_11char_traitsIcEENS_9allocatorIcEEE5__repES5_EC2B7v160006INS_18__default_init_tagESA_EEOT_OT0_, symObjAddr: 0x50A0, symBinAddr: 0x100007348, symSize: 0x3C }
  - { offsetInCU: 0x12942, offset: 0x12942, size: 0x8, addend: 0x0, symName: __ZNSt3__122__compressed_pair_elemINS_12basic_stringIcNS_11char_traitsIcEENS_9allocatorIcEEE5__repELi0ELb0EEC2B7v160006ENS_18__default_init_tagE, symObjAddr: 0x50DC, symBinAddr: 0x100007384, symSize: 0x14 }
  - { offsetInCU: 0x12977, offset: 0x12977, size: 0x8, addend: 0x0, symName: __ZNSt3__122__compressed_pair_elemINS_9allocatorIcEELi1ELb1EEC2B7v160006ENS_18__default_init_tagE, symObjAddr: 0x50F0, symBinAddr: 0x100007398, symSize: 0x2C }
  - { offsetInCU: 0x129AC, offset: 0x129AC, size: 0x8, addend: 0x0, symName: __ZNSt3__19allocatorIcEC2B7v160006Ev, symObjAddr: 0x511C, symBinAddr: 0x1000073C4, symSize: 0x2C }
  - { offsetInCU: 0x129D6, offset: 0x129D6, size: 0x8, addend: 0x0, symName: __ZNSt3__116__non_trivial_ifILb1ENS_9allocatorIcEEEC2B7v160006Ev, symObjAddr: 0x5148, symBinAddr: 0x1000073F0, symSize: 0x14 }
  - { offsetInCU: 0x12A00, offset: 0x12A00, size: 0x8, addend: 0x0, symName: __ZNSt3__112basic_stringIcNS_11char_traitsIcEENS_9allocatorIcEEE13__get_pointerB7v160006Ev, symObjAddr: 0x5170, symBinAddr: 0x100007418, symSize: 0x54 }
  - { offsetInCU: 0x12A26, offset: 0x12A26, size: 0x8, addend: 0x0, symName: __ZNKSt3__112basic_stringIcNS_11char_traitsIcEENS_9allocatorIcEEE9__is_longB7v160006Ev, symObjAddr: 0x51C4, symBinAddr: 0x10000746C, symSize: 0x38 }
  - { offsetInCU: 0x12A4C, offset: 0x12A4C, size: 0x8, addend: 0x0, symName: __ZNSt3__112basic_stringIcNS_11char_traitsIcEENS_9allocatorIcEEE18__get_long_pointerB7v160006Ev, symObjAddr: 0x51FC, symBinAddr: 0x1000074A4, symSize: 0x28 }
  - { offsetInCU: 0x12A72, offset: 0x12A72, size: 0x8, addend: 0x0, symName: __ZNSt3__112basic_stringIcNS_11char_traitsIcEENS_9allocatorIcEEE19__get_short_pointerB7v160006Ev, symObjAddr: 0x5224, symBinAddr: 0x1000074CC, symSize: 0x28 }
  - { offsetInCU: 0x12A98, offset: 0x12A98, size: 0x8, addend: 0x0, symName: __ZNKSt3__117__compressed_pairINS_12basic_stringIcNS_11char_traitsIcEENS_9allocatorIcEEE5__repES5_E5firstB7v160006Ev, symObjAddr: 0x524C, symBinAddr: 0x1000074F4, symSize: 0x24 }
  - { offsetInCU: 0x12ABE, offset: 0x12ABE, size: 0x8, addend: 0x0, symName: __ZNKSt3__122__compressed_pair_elemINS_12basic_stringIcNS_11char_traitsIcEENS_9allocatorIcEEE5__repELi0ELb0EE5__getB7v160006Ev, symObjAddr: 0x5270, symBinAddr: 0x100007518, symSize: 0x14 }
  - { offsetInCU: 0x12AE4, offset: 0x12AE4, size: 0x8, addend: 0x0, symName: __ZNSt3__117__compressed_pairINS_12basic_stringIcNS_11char_traitsIcEENS_9allocatorIcEEE5__repES5_E5firstB7v160006Ev, symObjAddr: 0x5284, symBinAddr: 0x10000752C, symSize: 0x24 }
  - { offsetInCU: 0x12B0A, offset: 0x12B0A, size: 0x8, addend: 0x0, symName: __ZNSt3__122__compressed_pair_elemINS_12basic_stringIcNS_11char_traitsIcEENS_9allocatorIcEEE5__repELi0ELb0EE5__getB7v160006Ev, symObjAddr: 0x52A8, symBinAddr: 0x100007550, symSize: 0x14 }
  - { offsetInCU: 0x12B30, offset: 0x12B30, size: 0x8, addend: 0x0, symName: __ZNSt3__114pointer_traitsIPcE10pointer_toB7v160006ERc, symObjAddr: 0x52BC, symBinAddr: 0x100007564, symSize: 0x14 }
  - { offsetInCU: 0x12B53, offset: 0x12B53, size: 0x8, addend: 0x0, symName: __ZNSt3__119ostreambuf_iteratorIcNS_11char_traitsIcEEEC2B7v160006ERNS_13basic_ostreamIcS2_EE, symObjAddr: 0x52D0, symBinAddr: 0x100007578, symSize: 0x54 }
  - { offsetInCU: 0x12B8B, offset: 0x12B8B, size: 0x8, addend: 0x0, symName: __ZNKSt3__19basic_iosIcNS_11char_traitsIcEEE5rdbufB7v160006Ev, symObjAddr: 0x5324, symBinAddr: 0x1000075CC, symSize: 0x24 }
  - { offsetInCU: 0x12BB3, offset: 0x12BB3, size: 0x8, addend: 0x0, symName: __ZNKSt3__18ios_base5rdbufB7v160006Ev, symObjAddr: 0x5348, symBinAddr: 0x1000075F0, symSize: 0x18 }
  - { offsetInCU: 0x12BD9, offset: 0x12BD9, size: 0x8, addend: 0x0, symName: __ZNSt3__111char_traitsIcE11eq_int_typeEii, symObjAddr: 0x5360, symBinAddr: 0x100007608, symSize: 0x28 }
  - { offsetInCU: 0x12C0A, offset: 0x12C0A, size: 0x8, addend: 0x0, symName: __ZNSt3__111char_traitsIcE3eofEv, symObjAddr: 0x5388, symBinAddr: 0x100007630, symSize: 0x8 }
  - { offsetInCU: 0x12C1E, offset: 0x12C1E, size: 0x8, addend: 0x0, symName: __ZNKSt3__19basic_iosIcNS_11char_traitsIcEEE5widenB7v160006Ec, symObjAddr: 0x5390, symBinAddr: 0x100007638, symSize: 0x84 }
  - { offsetInCU: 0x12C8C, offset: 0x12C8C, size: 0x8, addend: 0x0, symName: __ZNKSt3__15ctypeIcE5widenB7v160006Ec, symObjAddr: 0x5440, symBinAddr: 0x1000076E8, symSize: 0x38 }
  - { offsetInCU: 0x12CC1, offset: 0x12CC1, size: 0x8, addend: 0x0, symName: __ZNSt3__18ios_base8setstateB7v160006Ej, symObjAddr: 0x5478, symBinAddr: 0x100007720, symSize: 0x34 }
...
