---
triple:          'arm64-apple-darwin'
binary-path:     '/Users/rohakdebnath/Desktop/Cpp /MISC/electricity'
relocations:
  - { offsetInCU: 0x46, offset: 0x46, size: 0x8, addend: 0x0, symName: __ZNSt3__16chrono8FebruaryE, symObjAddr: 0x2B50, symBinAddr: 0x100003D48, symSize: 0x0 }
  - { offsetInCU: 0x322, offset: 0x322, size: 0x8, addend: 0x0, symName: __ZNSt3__16chronomiB7v160006IiNS_5ratioILl86400ELl1EEEiS3_EENS_11common_typeIJNS0_8durationIT_T0_EENS5_IT1_T2_EEEE4typeERKS8_RKSB_, symObjAddr: 0xC30, symBinAddr: 0x100001CB4, symSize: 0x70 }
  - { offsetInCU: 0x587, offset: 0x587, size: 0x8, addend: 0x0, symName: __ZNSt3__16chronodvB7v160006ERKNS0_10year_monthERKNS0_3dayE, symObjAddr: 0x184, symBinAddr: 0x100001208, symSize: 0x58 }
  - { offsetInCU: 0x5C1, offset: 0x5C1, size: 0x8, addend: 0x0, symName: __ZNSt3__16chronodvB7v160006ERKNS0_4yearERKNS0_5monthE, symObjAddr: 0x1DC, symBinAddr: 0x100001260, symSize: 0x34 }
  - { offsetInCU: 0x1215, offset: 0x1215, size: 0x8, addend: 0x0, symName: __ZNSt3__16chronoeqB7v160006IiNS_5ratioILl86400ELl1EEEiS3_EEbRKNS0_8durationIT_T0_EERKNS4_IT1_T2_EE, symObjAddr: 0x2EC, symBinAddr: 0x100001370, symSize: 0x34 }
  - { offsetInCU: 0x1276, offset: 0x1276, size: 0x8, addend: 0x0, symName: __ZNSt3__16chronomiB7v160006INS0_12system_clockENS0_8durationIiNS_5ratioILl86400ELl1EEEEES6_EENS_11common_typeIJT0_T1_EE4typeERKNS0_10time_pointIT_S8_EERKNSC_ISD_S9_EE, symObjAddr: 0x320, symBinAddr: 0x1000013A4, symSize: 0x58 }
  - { offsetInCU: 0x13C1, offset: 0x13C1, size: 0x8, addend: 0x0, symName: __ZNSt3__16chronossB7v160006ERKNS0_5monthES3_, symObjAddr: 0xAB8, symBinAddr: 0x100001B3C, symSize: 0x74 }
  - { offsetInCU: 0x5B45, offset: 0x5B45, size: 0x8, addend: 0x0, symName: __ZNSt3__124__put_character_sequenceB7v160006IcNS_11char_traitsIcEEEERNS_13basic_ostreamIT_T0_EES7_PKS4_m, symObjAddr: 0x1F48, symBinAddr: 0x100002FCC, symSize: 0x1EC }
  - { offsetInCU: 0x7AC8, offset: 0x7AC8, size: 0x8, addend: 0x0, symName: __ZNSt3__1lsB7v160006INS_11char_traitsIcEEEERNS_13basic_ostreamIcT_EES6_c, symObjAddr: 0x698, symBinAddr: 0x10000171C, symSize: 0x34 }
  - { offsetInCU: 0x7B0E, offset: 0x7B0E, size: 0x8, addend: 0x0, symName: __ZNSt3__1leB7v160006ENS_15strong_orderingENS_20_CmpUnspecifiedParamE, symObjAddr: 0xA94, symBinAddr: 0x100001B18, symSize: 0x24 }
  - { offsetInCU: 0x7B63, offset: 0x7B63, size: 0x8, addend: 0x0, symName: __ZNSt3__122__make_exception_guardB7v160006INS_6vectorI4elecNS_9allocatorIS2_EEE16__destroy_vectorEEENS_28__exception_guard_exceptionsIT_EES8_, symObjAddr: 0xE04, symBinAddr: 0x100001E88, symSize: 0x40 }
  - { offsetInCU: 0x7B98, offset: 0x7B98, size: 0x8, addend: 0x0, symName: __ZNSt3__119__debug_db_insert_cB7v160006INS_6vectorI4elecNS_9allocatorIS2_EEEEEEvPT_, symObjAddr: 0xE78, symBinAddr: 0x100001EFC, symSize: 0x10 }
  - { offsetInCU: 0x7BC9, offset: 0x7BC9, size: 0x8, addend: 0x0, symName: __ZNSt3__119__allocate_at_leastB7v160006INS_9allocatorI4elecEEEEDaRT_m, symObjAddr: 0x1200, symBinAddr: 0x100002284, symSize: 0x3C }
  - { offsetInCU: 0x7C0C, offset: 0x7C0C, size: 0x8, addend: 0x0, symName: __ZNSt3__13minB7v160006ImEERKT_S3_S3_, symObjAddr: 0x1338, symBinAddr: 0x1000023BC, symSize: 0x2C }
  - { offsetInCU: 0x7E39, offset: 0x7E39, size: 0x8, addend: 0x0, symName: __ZNSt3__13minB7v160006ImNS_6__lessImmEEEERKT_S5_S5_T0_, symObjAddr: 0x13C8, symBinAddr: 0x10000244C, symSize: 0x54 }
  - { offsetInCU: 0x80BA, offset: 0x80BA, size: 0x8, addend: 0x0, symName: __ZNSt3__120__throw_length_errorB7v160006EPKc, symObjAddr: 0x14AC, symBinAddr: 0x100002530, symSize: 0x64 }
  - { offsetInCU: 0x80E2, offset: 0x80E2, size: 0x8, addend: 0x0, symName: __ZNSt3__117allocate_at_leastB7v160006INS_9allocatorI4elecEEEENS_17allocation_resultINS_16allocator_traitsIT_E7pointerEEERS6_m, symObjAddr: 0x1590, symBinAddr: 0x100002614, symSize: 0x3C }
  - { offsetInCU: 0x8125, offset: 0x8125, size: 0x8, addend: 0x0, symName: __ZNSt3__117__libcpp_allocateB7v160006Emm, symObjAddr: 0x1698, symBinAddr: 0x10000271C, symSize: 0x60 }
  - { offsetInCU: 0x817F, offset: 0x817F, size: 0x8, addend: 0x0, symName: __ZNSt3__124__is_overaligned_for_newB7v160006Em, symObjAddr: 0x16F8, symBinAddr: 0x10000277C, symSize: 0x20 }
  - { offsetInCU: 0x81AD, offset: 0x81AD, size: 0x8, addend: 0x0, symName: __ZNSt3__121__libcpp_operator_newB7v160006IJmSt11align_val_tEEEPvDpT_, symObjAddr: 0x1718, symBinAddr: 0x10000279C, symSize: 0x2C }
  - { offsetInCU: 0x81FA, offset: 0x81FA, size: 0x8, addend: 0x0, symName: __ZNSt3__121__libcpp_operator_newB7v160006IJmEEEPvDpT_, symObjAddr: 0x1744, symBinAddr: 0x1000027C8, symSize: 0x24 }
  - { offsetInCU: 0x8233, offset: 0x8233, size: 0x8, addend: 0x0, symName: __ZNSt3__112__to_addressB7v160006I4elecEEPT_S3_, symObjAddr: 0x1860, symBinAddr: 0x1000028E4, symSize: 0x14 }
  - { offsetInCU: 0x828D, offset: 0x828D, size: 0x8, addend: 0x0, symName: __ZNSt3__112construct_atB7v160006I4elecJEPS1_EEPT_S4_DpOT0_, symObjAddr: 0x19A8, symBinAddr: 0x100002A2C, symSize: 0x44 }
  - { offsetInCU: 0x82E9, offset: 0x82E9, size: 0x8, addend: 0x0, symName: __ZNSt3__118__debug_db_erase_cB7v160006INS_6vectorI4elecNS_9allocatorIS2_EEEEEEvPT_, symObjAddr: 0x1C40, symBinAddr: 0x100002CC4, symSize: 0x10 }
  - { offsetInCU: 0x831A, offset: 0x831A, size: 0x8, addend: 0x0, symName: __ZNSt3__110destroy_atB7v160006I4elecLi0EEEvPT_, symObjAddr: 0x1D88, symBinAddr: 0x100002E0C, symSize: 0x24 }
  - { offsetInCU: 0x8351, offset: 0x8351, size: 0x8, addend: 0x0, symName: __ZNSt3__112__destroy_atB7v160006I4elecLi0EEEvPT_, symObjAddr: 0x1DAC, symBinAddr: 0x100002E30, symSize: 0x10 }
  - { offsetInCU: 0x8388, offset: 0x8388, size: 0x8, addend: 0x0, symName: __ZNSt3__119__libcpp_deallocateB7v160006EPvmm, symObjAddr: 0x1DFC, symBinAddr: 0x100002E80, symSize: 0x60 }
  - { offsetInCU: 0x83ED, offset: 0x83ED, size: 0x8, addend: 0x0, symName: __ZNSt3__127__do_deallocate_handle_sizeB7v160006IJSt11align_val_tEEEvPvmDpT_, symObjAddr: 0x1E5C, symBinAddr: 0x100002EE0, symSize: 0x30 }
  - { offsetInCU: 0x8440, offset: 0x8440, size: 0x8, addend: 0x0, symName: __ZNSt3__127__do_deallocate_handle_sizeB7v160006IJEEEvPvmDpT_, symObjAddr: 0x1E8C, symBinAddr: 0x100002F10, symSize: 0x28 }
  - { offsetInCU: 0x847E, offset: 0x847E, size: 0x8, addend: 0x0, symName: __ZNSt3__124__libcpp_operator_deleteB7v160006IJPvSt11align_val_tEEEvDpT_, symObjAddr: 0x1EB4, symBinAddr: 0x100002F38, symSize: 0x2C }
  - { offsetInCU: 0x84C7, offset: 0x84C7, size: 0x8, addend: 0x0, symName: __ZNSt3__124__libcpp_operator_deleteB7v160006IJPvEEEvDpT_, symObjAddr: 0x1EE0, symBinAddr: 0x100002F64, symSize: 0x24 }
  - { offsetInCU: 0x84FC, offset: 0x84FC, size: 0x8, addend: 0x0, symName: __ZNSt3__116__pad_and_outputB7v160006IcNS_11char_traitsIcEEEENS_19ostreambuf_iteratorIT_T0_EES6_PKS4_S8_S8_RNS_8ios_baseES4_, symObjAddr: 0x2150, symBinAddr: 0x1000031D4, symSize: 0x240 }
  - { offsetInCU: 0x85CB, offset: 0x85CB, size: 0x8, addend: 0x0, symName: __ZNSt3__119__debug_db_insert_cB7v160006INS_12basic_stringIcNS_11char_traitsIcEENS_9allocatorIcEEEEEEvPT_, symObjAddr: 0x2604, symBinAddr: 0x100003688, symSize: 0x10 }
  - { offsetInCU: 0x85FC, offset: 0x85FC, size: 0x8, addend: 0x0, symName: __ZNSt3__112__to_addressB7v160006IcEEPT_S2_, symObjAddr: 0x26D0, symBinAddr: 0x100003754, symSize: 0x14 }
  - { offsetInCU: 0x8631, offset: 0x8631, size: 0x8, addend: 0x0, symName: __ZNSt3__19use_facetB7v160006INS_5ctypeIcEEEERKT_RKNS_6localeE, symObjAddr: 0x2988, symBinAddr: 0x100003A0C, symSize: 0x2C }
  - { offsetInCU: 0x8F32, offset: 0x8F32, size: 0x8, addend: 0x0, symName: __ZSt28__throw_bad_array_new_lengthB7v160006v, symObjAddr: 0x1664, symBinAddr: 0x1000026E8, symSize: 0x34 }
  - { offsetInCU: 0xBB78, offset: 0xBB78, size: 0x8, addend: 0x0, symName: __Z15nextdateandbillRK4elecS1_, symObjAddr: 0x0, symBinAddr: 0x100001084, symSize: 0x184 }
  - { offsetInCU: 0xBC12, offset: 0xBC12, size: 0x8, addend: 0x0, symName: __ZNSt3__16chrono4yearC1B7v160006Ei, symObjAddr: 0x210, symBinAddr: 0x100001294, symSize: 0x34 }
  - { offsetInCU: 0xBC4A, offset: 0xBC4A, size: 0x8, addend: 0x0, symName: __ZNSt3__16chrono5monthC1B7v160006Ej, symObjAddr: 0x244, symBinAddr: 0x1000012C8, symSize: 0x34 }
  - { offsetInCU: 0xBCA0, offset: 0xBCA0, size: 0x8, addend: 0x0, symName: __ZNSt3__16chrono3dayC1B7v160006Ej, symObjAddr: 0x278, symBinAddr: 0x1000012FC, symSize: 0x34 }
  - { offsetInCU: 0xBDC3, offset: 0xBDC3, size: 0x8, addend: 0x0, symName: __ZNKSt3__16chrono14year_month_daycvNS0_10time_pointINS0_12system_clockENS0_8durationIiNS_5ratioILl86400ELl1EEEEEEEB7v160006Ev, symObjAddr: 0x2AC, symBinAddr: 0x100001330, symSize: 0x40 }
  - { offsetInCU: 0xBDF3, offset: 0xBDF3, size: 0x8, addend: 0x0, symName: __ZNSt3__16chrono8durationIiNS_5ratioILl86400ELl1EEEEC1B7v160006IiEERKT_PNS_9enable_ifIXaasr14is_convertibleIS8_iEE5valueooL_ZNS_17integral_constantIbLb0EE5valueEEntsr23treat_as_floating_pointIS6_EE5valueEvE4typeE, symObjAddr: 0x378, symBinAddr: 0x1000013FC, symSize: 0x3C }
  - { offsetInCU: 0xBE3F, offset: 0xBE3F, size: 0x8, addend: 0x0, symName: _main, symObjAddr: 0x3B4, symBinAddr: 0x100001438, symSize: 0x260 }
  - { offsetInCU: 0xBEEE, offset: 0xBEEE, size: 0x8, addend: 0x0, symName: __ZNSt3__19basic_iosIcNS_11char_traitsIcEEE3tieB7v160006EPNS_13basic_ostreamIcS2_EE, symObjAddr: 0x614, symBinAddr: 0x100001698, symSize: 0x2C }
  - { offsetInCU: 0xBF34, offset: 0xBF34, size: 0x8, addend: 0x0, symName: __ZNSt3__16vectorI4elecNS_9allocatorIS1_EEEC1Em, symObjAddr: 0x640, symBinAddr: 0x1000016C4, symSize: 0x34 }
  - { offsetInCU: 0xBF6F, offset: 0xBF6F, size: 0x8, addend: 0x0, symName: __ZNSt3__16vectorI4elecNS_9allocatorIS1_EEEixB7v160006Em, symObjAddr: 0x674, symBinAddr: 0x1000016F8, symSize: 0x24 }
  - { offsetInCU: 0xBFA6, offset: 0xBFA6, size: 0x8, addend: 0x0, symName: __ZNSt3__16vectorI4elecNS_9allocatorIS1_EEED1B7v160006Ev, symObjAddr: 0x6CC, symBinAddr: 0x100001750, symSize: 0x2C }
  - { offsetInCU: 0xBFE4, offset: 0xBFE4, size: 0x8, addend: 0x0, symName: __ZNKSt3__16chrono10year_month4yearB7v160006Ev, symObjAddr: 0x6F8, symBinAddr: 0x10000177C, symSize: 0x20 }
  - { offsetInCU: 0xC00A, offset: 0xC00A, size: 0x8, addend: 0x0, symName: __ZNKSt3__16chrono10year_month5monthB7v160006Ev, symObjAddr: 0x718, symBinAddr: 0x10000179C, symSize: 0x20 }
  - { offsetInCU: 0xC030, offset: 0xC030, size: 0x8, addend: 0x0, symName: __ZNSt3__16chrono14year_month_dayC1B7v160006ERKNS0_4yearERKNS0_5monthERKNS0_3dayE, symObjAddr: 0x738, symBinAddr: 0x1000017BC, symSize: 0x44 }
  - { offsetInCU: 0xC084, offset: 0xC084, size: 0x8, addend: 0x0, symName: __ZNSt3__16chrono14year_month_dayC2B7v160006ERKNS0_4yearERKNS0_5monthERKNS0_3dayE, symObjAddr: 0x77C, symBinAddr: 0x100001800, symSize: 0x44 }
  - { offsetInCU: 0xC0D8, offset: 0xC0D8, size: 0x8, addend: 0x0, symName: __ZNSt3__16chrono10year_monthC1B7v160006ERKNS0_4yearERKNS0_5monthE, symObjAddr: 0x7C0, symBinAddr: 0x100001844, symSize: 0x3C }
  - { offsetInCU: 0xC11E, offset: 0xC11E, size: 0x8, addend: 0x0, symName: __ZNSt3__16chrono10year_monthC2B7v160006ERKNS0_4yearERKNS0_5monthE, symObjAddr: 0x7FC, symBinAddr: 0x100001880, symSize: 0x34 }
  - { offsetInCU: 0xC164, offset: 0xC164, size: 0x8, addend: 0x0, symName: __ZNSt3__16chrono4yearC2B7v160006Ei, symObjAddr: 0x830, symBinAddr: 0x1000018B4, symSize: 0x20 }
  - { offsetInCU: 0xC19C, offset: 0xC19C, size: 0x8, addend: 0x0, symName: __ZNSt3__16chrono5monthC2B7v160006Ej, symObjAddr: 0x850, symBinAddr: 0x1000018D4, symSize: 0x20 }
  - { offsetInCU: 0xC1D4, offset: 0xC1D4, size: 0x8, addend: 0x0, symName: __ZNSt3__16chrono3dayC2B7v160006Ej, symObjAddr: 0x870, symBinAddr: 0x1000018F4, symSize: 0x20 }
  - { offsetInCU: 0xC20C, offset: 0xC20C, size: 0x8, addend: 0x0, symName: __ZNKSt3__16chrono14year_month_day9__to_daysB7v160006Ev, symObjAddr: 0x890, symBinAddr: 0x100001914, symSize: 0x1AC }
  - { offsetInCU: 0xC29C, offset: 0xC29C, size: 0x8, addend: 0x0, symName: __ZNSt3__16chrono10time_pointINS0_12system_clockENS0_8durationIiNS_5ratioILl86400ELl1EEEEEEC1B7v160006ERKS6_, symObjAddr: 0xA3C, symBinAddr: 0x100001AC0, symSize: 0x34 }
  - { offsetInCU: 0xC2D4, offset: 0xC2D4, size: 0x8, addend: 0x0, symName: __ZNKSt3__16chrono4yearcviB7v160006Ev, symObjAddr: 0xA7C, symBinAddr: 0x100001B00, symSize: 0x18 }
  - { offsetInCU: 0xC309, offset: 0xC309, size: 0x8, addend: 0x0, symName: __ZNSt3__120_CmpUnspecifiedParamC1B7v160006EMS0_i, symObjAddr: 0xB2C, symBinAddr: 0x100001BB0, symSize: 0x34 }
  - { offsetInCU: 0xC33E, offset: 0xC33E, size: 0x8, addend: 0x0, symName: __ZNKSt3__16chrono5monthcvjB7v160006Ev, symObjAddr: 0xB60, symBinAddr: 0x100001BE4, symSize: 0x18 }
  - { offsetInCU: 0xC364, offset: 0xC364, size: 0x8, addend: 0x0, symName: __ZNKSt3__16chrono3daycvjB7v160006Ev, symObjAddr: 0xB78, symBinAddr: 0x100001BFC, symSize: 0x18 }
  - { offsetInCU: 0xC38A, offset: 0xC38A, size: 0x8, addend: 0x0, symName: __ZNSt3__120_CmpUnspecifiedParamC2B7v160006EMS0_i, symObjAddr: 0xB90, symBinAddr: 0x100001C14, symSize: 0x18 }
  - { offsetInCU: 0xC3BF, offset: 0xC3BF, size: 0x8, addend: 0x0, symName: __ZNSt3__16chrono10time_pointINS0_12system_clockENS0_8durationIiNS_5ratioILl86400ELl1EEEEEEC2B7v160006ERKS6_, symObjAddr: 0xBA8, symBinAddr: 0x100001C2C, symSize: 0x24 }
  - { offsetInCU: 0xC401, offset: 0xC401, size: 0x8, addend: 0x0, symName: __ZNKSt3__16chrono13__duration_eqINS0_8durationIiNS_5ratioILl86400ELl1EEEEES5_EclB7v160006ERKS5_S8_, symObjAddr: 0xBCC, symBinAddr: 0x100001C50, symSize: 0x4C }
  - { offsetInCU: 0xC445, offset: 0xC445, size: 0x8, addend: 0x0, symName: __ZNKSt3__16chrono8durationIiNS_5ratioILl86400ELl1EEEE5countB7v160006Ev, symObjAddr: 0xC18, symBinAddr: 0x100001C9C, symSize: 0x18 }
  - { offsetInCU: 0xC46B, offset: 0xC46B, size: 0x8, addend: 0x0, symName: __ZNKSt3__16chrono10time_pointINS0_12system_clockENS0_8durationIiNS_5ratioILl86400ELl1EEEEEE16time_since_epochB7v160006Ev, symObjAddr: 0xCA0, symBinAddr: 0x100001D24, symSize: 0x20 }
  - { offsetInCU: 0xC491, offset: 0xC491, size: 0x8, addend: 0x0, symName: __ZNSt3__16chrono8durationIiNS_5ratioILl86400ELl1EEEEC2B7v160006IiEERKT_PNS_9enable_ifIXaasr14is_convertibleIS8_iEE5valueooL_ZNS_17integral_constantIbLb0EE5valueEEntsr23treat_as_floating_pointIS6_EE5valueEvE4typeE, symObjAddr: 0xCC0, symBinAddr: 0x100001D44, symSize: 0x28 }
  - { offsetInCU: 0xC4DD, offset: 0xC4DD, size: 0x8, addend: 0x0, symName: __ZNSt3__16vectorI4elecNS_9allocatorIS1_EEEC2Em, symObjAddr: 0xCE8, symBinAddr: 0x100001D6C, symSize: 0xE0 }
  - { offsetInCU: 0xC539, offset: 0xC539, size: 0x8, addend: 0x0, symName: __ZNSt3__117__compressed_pairIP4elecNS_9allocatorIS1_EEEC1B7v160006IDnNS_18__default_init_tagEEEOT_OT0_, symObjAddr: 0xDC8, symBinAddr: 0x100001E4C, symSize: 0x3C }
  - { offsetInCU: 0xC591, offset: 0xC591, size: 0x8, addend: 0x0, symName: __ZNSt3__16vectorI4elecNS_9allocatorIS1_EEE16__destroy_vectorC1ERS4_, symObjAddr: 0xE44, symBinAddr: 0x100001EC8, symSize: 0x34 }
  - { offsetInCU: 0xC5CA, offset: 0xC5CA, size: 0x8, addend: 0x0, symName: __ZNSt3__16vectorI4elecNS_9allocatorIS1_EEE11__vallocateB7v160006Em, symObjAddr: 0xE88, symBinAddr: 0x100001F0C, symSize: 0xAC }
  - { offsetInCU: 0xC60E, offset: 0xC60E, size: 0x8, addend: 0x0, symName: __ZNSt3__16vectorI4elecNS_9allocatorIS1_EEE18__construct_at_endEm, symObjAddr: 0xF34, symBinAddr: 0x100001FB8, symSize: 0xC8 }
  - { offsetInCU: 0xC680, offset: 0xC680, size: 0x8, addend: 0x0, symName: __ZNSt3__128__exception_guard_exceptionsINS_6vectorI4elecNS_9allocatorIS2_EEE16__destroy_vectorEE10__completeB7v160006Ev, symObjAddr: 0xFFC, symBinAddr: 0x100002080, symSize: 0x1C }
  - { offsetInCU: 0xC6A6, offset: 0xC6A6, size: 0x8, addend: 0x0, symName: __ZNSt3__128__exception_guard_exceptionsINS_6vectorI4elecNS_9allocatorIS2_EEE16__destroy_vectorEED1B7v160006Ev, symObjAddr: 0x1018, symBinAddr: 0x10000209C, symSize: 0x2C }
  - { offsetInCU: 0xC6D0, offset: 0xC6D0, size: 0x8, addend: 0x0, symName: __ZNSt3__117__compressed_pairIP4elecNS_9allocatorIS1_EEEC2B7v160006IDnNS_18__default_init_tagEEEOT_OT0_, symObjAddr: 0x1044, symBinAddr: 0x1000020C8, symSize: 0x40 }
  - { offsetInCU: 0xC728, offset: 0xC728, size: 0x8, addend: 0x0, symName: __ZNSt3__122__compressed_pair_elemIP4elecLi0ELb0EEC2B7v160006IDnvEEOT_, symObjAddr: 0x1084, symBinAddr: 0x100002108, symSize: 0x1C }
  - { offsetInCU: 0xC76A, offset: 0xC76A, size: 0x8, addend: 0x0, symName: __ZNSt3__122__compressed_pair_elemINS_9allocatorI4elecEELi1ELb1EEC2B7v160006ENS_18__default_init_tagE, symObjAddr: 0x10A0, symBinAddr: 0x100002124, symSize: 0x2C }
  - { offsetInCU: 0xC79F, offset: 0xC79F, size: 0x8, addend: 0x0, symName: __ZNSt3__19allocatorI4elecEC2B7v160006Ev, symObjAddr: 0x10CC, symBinAddr: 0x100002150, symSize: 0x2C }
  - { offsetInCU: 0xC7C9, offset: 0xC7C9, size: 0x8, addend: 0x0, symName: __ZNSt3__116__non_trivial_ifILb1ENS_9allocatorI4elecEEEC2B7v160006Ev, symObjAddr: 0x10F8, symBinAddr: 0x10000217C, symSize: 0x14 }
  - { offsetInCU: 0xC7F3, offset: 0xC7F3, size: 0x8, addend: 0x0, symName: __ZNSt3__128__exception_guard_exceptionsINS_6vectorI4elecNS_9allocatorIS2_EEE16__destroy_vectorEEC1B7v160006ES6_, symObjAddr: 0x110C, symBinAddr: 0x100002190, symSize: 0x34 }
  - { offsetInCU: 0xC82B, offset: 0xC82B, size: 0x8, addend: 0x0, symName: __ZNSt3__128__exception_guard_exceptionsINS_6vectorI4elecNS_9allocatorIS2_EEE16__destroy_vectorEEC2B7v160006ES6_, symObjAddr: 0x1140, symBinAddr: 0x1000021C4, symSize: 0x24 }
  - { offsetInCU: 0xC863, offset: 0xC863, size: 0x8, addend: 0x0, symName: __ZNSt3__16vectorI4elecNS_9allocatorIS1_EEE16__destroy_vectorC2ERS4_, symObjAddr: 0x1164, symBinAddr: 0x1000021E8, symSize: 0x20 }
  - { offsetInCU: 0xC89C, offset: 0xC89C, size: 0x8, addend: 0x0, symName: __ZNKSt3__16vectorI4elecNS_9allocatorIS1_EEE8max_sizeEv, symObjAddr: 0x1184, symBinAddr: 0x100002208, symSize: 0x60 }
  - { offsetInCU: 0xC8C4, offset: 0xC8C4, size: 0x8, addend: 0x0, symName: __ZNKSt3__16vectorI4elecNS_9allocatorIS1_EEE20__throw_length_errorB7v160006Ev, symObjAddr: 0x11E4, symBinAddr: 0x100002268, symSize: 0x1C }
  - { offsetInCU: 0xC8EA, offset: 0xC8EA, size: 0x8, addend: 0x0, symName: __ZNSt3__16vectorI4elecNS_9allocatorIS1_EEE7__allocB7v160006Ev, symObjAddr: 0x123C, symBinAddr: 0x1000022C0, symSize: 0x28 }
  - { offsetInCU: 0xC910, offset: 0xC910, size: 0x8, addend: 0x0, symName: __ZNSt3__16vectorI4elecNS_9allocatorIS1_EEE9__end_capB7v160006Ev, symObjAddr: 0x1264, symBinAddr: 0x1000022E8, symSize: 0x28 }
  - { offsetInCU: 0xC936, offset: 0xC936, size: 0x8, addend: 0x0, symName: __ZNKSt3__16vectorI4elecNS_9allocatorIS1_EEE14__annotate_newB7v160006Em, symObjAddr: 0x128C, symBinAddr: 0x100002310, symSize: 0xAC }
  - { offsetInCU: 0xC975, offset: 0xC975, size: 0x8, addend: 0x0, symName: __ZNSt3__116allocator_traitsINS_9allocatorI4elecEEE8max_sizeB7v160006IS3_vvEEmRKS3_, symObjAddr: 0x1364, symBinAddr: 0x1000023E8, symSize: 0x28 }
  - { offsetInCU: 0xC9A0, offset: 0xC9A0, size: 0x8, addend: 0x0, symName: __ZNKSt3__16vectorI4elecNS_9allocatorIS1_EEE7__allocB7v160006Ev, symObjAddr: 0x138C, symBinAddr: 0x100002410, symSize: 0x28 }
  - { offsetInCU: 0xC9C6, offset: 0xC9C6, size: 0x8, addend: 0x0, symName: __ZNSt3__114numeric_limitsIlE3maxB7v160006Ev, symObjAddr: 0x13B4, symBinAddr: 0x100002438, symSize: 0x14 }
  - { offsetInCU: 0xC9EE, offset: 0xC9EE, size: 0x8, addend: 0x0, symName: __ZNKSt3__16__lessImmEclB7v160006ERKmS3_, symObjAddr: 0x141C, symBinAddr: 0x1000024A0, symSize: 0x34 }
  - { offsetInCU: 0xCA30, offset: 0xCA30, size: 0x8, addend: 0x0, symName: __ZNSt3__114numeric_limitsImE3maxB7v160006Ev, symObjAddr: 0x1450, symBinAddr: 0x1000024D4, symSize: 0x14 }
  - { offsetInCU: 0xCA44, offset: 0xCA44, size: 0x8, addend: 0x0, symName: __ZNSt3__123__libcpp_numeric_limitsImLb1EE3maxB7v160006Ev, symObjAddr: 0x1464, symBinAddr: 0x1000024E8, symSize: 0x8 }
  - { offsetInCU: 0xCA58, offset: 0xCA58, size: 0x8, addend: 0x0, symName: __ZNKSt3__117__compressed_pairIP4elecNS_9allocatorIS1_EEE6secondB7v160006Ev, symObjAddr: 0x146C, symBinAddr: 0x1000024F0, symSize: 0x24 }
  - { offsetInCU: 0xCA7E, offset: 0xCA7E, size: 0x8, addend: 0x0, symName: __ZNKSt3__122__compressed_pair_elemINS_9allocatorI4elecEELi1ELb1EE5__getB7v160006Ev, symObjAddr: 0x1490, symBinAddr: 0x100002514, symSize: 0x14 }
  - { offsetInCU: 0xCAA4, offset: 0xCAA4, size: 0x8, addend: 0x0, symName: __ZNSt3__123__libcpp_numeric_limitsIlLb1EE3maxB7v160006Ev, symObjAddr: 0x14A4, symBinAddr: 0x100002528, symSize: 0x8 }
  - { offsetInCU: 0xCAB8, offset: 0xCAB8, size: 0x8, addend: 0x0, symName: __ZNSt12length_errorC1B7v160006EPKc, symObjAddr: 0x1510, symBinAddr: 0x100002594, symSize: 0x34 }
  - { offsetInCU: 0xCAF0, offset: 0xCAF0, size: 0x8, addend: 0x0, symName: __ZNSt12length_errorC2B7v160006EPKc, symObjAddr: 0x1544, symBinAddr: 0x1000025C8, symSize: 0x4C }
  - { offsetInCU: 0xCB28, offset: 0xCB28, size: 0x8, addend: 0x0, symName: __ZNSt3__19allocatorI4elecE17allocate_at_leastB7v160006Em, symObjAddr: 0x15CC, symBinAddr: 0x100002650, symSize: 0x40 }
  - { offsetInCU: 0xCB5C, offset: 0xCB5C, size: 0x8, addend: 0x0, symName: __ZNSt3__19allocatorI4elecE8allocateB7v160006Em, symObjAddr: 0x160C, symBinAddr: 0x100002690, symSize: 0x58 }
  - { offsetInCU: 0xCB90, offset: 0xCB90, size: 0x8, addend: 0x0, symName: __ZNSt3__117__compressed_pairIP4elecNS_9allocatorIS1_EEE6secondB7v160006Ev, symObjAddr: 0x1768, symBinAddr: 0x1000027EC, symSize: 0x24 }
  - { offsetInCU: 0xCBB6, offset: 0xCBB6, size: 0x8, addend: 0x0, symName: __ZNSt3__122__compressed_pair_elemINS_9allocatorI4elecEELi1ELb1EE5__getB7v160006Ev, symObjAddr: 0x178C, symBinAddr: 0x100002810, symSize: 0x14 }
  - { offsetInCU: 0xCBDC, offset: 0xCBDC, size: 0x8, addend: 0x0, symName: __ZNSt3__117__compressed_pairIP4elecNS_9allocatorIS1_EEE5firstB7v160006Ev, symObjAddr: 0x17A0, symBinAddr: 0x100002824, symSize: 0x24 }
  - { offsetInCU: 0xCC02, offset: 0xCC02, size: 0x8, addend: 0x0, symName: __ZNSt3__122__compressed_pair_elemIP4elecLi0ELb0EE5__getB7v160006Ev, symObjAddr: 0x17C4, symBinAddr: 0x100002848, symSize: 0x14 }
  - { offsetInCU: 0xCC28, offset: 0xCC28, size: 0x8, addend: 0x0, symName: __ZNKSt3__16vectorI4elecNS_9allocatorIS1_EEE31__annotate_contiguous_containerB7v160006EPKvS6_S6_S6_, symObjAddr: 0x17D8, symBinAddr: 0x10000285C, symSize: 0x20 }
  - { offsetInCU: 0xCC7A, offset: 0xCC7A, size: 0x8, addend: 0x0, symName: __ZNKSt3__16vectorI4elecNS_9allocatorIS1_EEE4dataB7v160006Ev, symObjAddr: 0x17F8, symBinAddr: 0x10000287C, symSize: 0x28 }
  - { offsetInCU: 0xCCA0, offset: 0xCCA0, size: 0x8, addend: 0x0, symName: __ZNKSt3__16vectorI4elecNS_9allocatorIS1_EEE8capacityB7v160006Ev, symObjAddr: 0x1820, symBinAddr: 0x1000028A4, symSize: 0x40 }
  - { offsetInCU: 0xCCC6, offset: 0xCCC6, size: 0x8, addend: 0x0, symName: __ZNKSt3__16vectorI4elecNS_9allocatorIS1_EEE9__end_capB7v160006Ev, symObjAddr: 0x1874, symBinAddr: 0x1000028F8, symSize: 0x28 }
  - { offsetInCU: 0xCCEC, offset: 0xCCEC, size: 0x8, addend: 0x0, symName: __ZNKSt3__117__compressed_pairIP4elecNS_9allocatorIS1_EEE5firstB7v160006Ev, symObjAddr: 0x189C, symBinAddr: 0x100002920, symSize: 0x24 }
  - { offsetInCU: 0xCD12, offset: 0xCD12, size: 0x8, addend: 0x0, symName: __ZNKSt3__122__compressed_pair_elemIP4elecLi0ELb0EE5__getB7v160006Ev, symObjAddr: 0x18C0, symBinAddr: 0x100002944, symSize: 0x14 }
  - { offsetInCU: 0xCD51, offset: 0xCD51, size: 0x8, addend: 0x0, symName: __ZNSt3__16vectorI4elecNS_9allocatorIS1_EEE21_ConstructTransactionC1B7v160006ERS4_m, symObjAddr: 0x18D4, symBinAddr: 0x100002958, symSize: 0x3C }
  - { offsetInCU: 0xCD99, offset: 0xCD99, size: 0x8, addend: 0x0, symName: __ZNSt3__116allocator_traitsINS_9allocatorI4elecEEE9constructB7v160006IS2_JEvvEEvRS3_PT_DpOT0_, symObjAddr: 0x1910, symBinAddr: 0x100002994, symSize: 0x28 }
  - { offsetInCU: 0xCDD8, offset: 0xCDD8, size: 0x8, addend: 0x0, symName: __ZNSt3__16vectorI4elecNS_9allocatorIS1_EEE21_ConstructTransactionD1B7v160006Ev, symObjAddr: 0x1938, symBinAddr: 0x1000029BC, symSize: 0x2C }
  - { offsetInCU: 0xCE02, offset: 0xCE02, size: 0x8, addend: 0x0, symName: __ZNSt3__16vectorI4elecNS_9allocatorIS1_EEE21_ConstructTransactionC2B7v160006ERS4_m, symObjAddr: 0x1964, symBinAddr: 0x1000029E8, symSize: 0x44 }
  - { offsetInCU: 0xCE4A, offset: 0xCE4A, size: 0x8, addend: 0x0, symName: __ZN4elecC1Eiiii, symObjAddr: 0x19EC, symBinAddr: 0x100002A70, symSize: 0x4C }
  - { offsetInCU: 0xCEAC, offset: 0xCEAC, size: 0x8, addend: 0x0, symName: __ZN4elecC2Eiiii, symObjAddr: 0x1A38, symBinAddr: 0x100002ABC, symSize: 0x44 }
  - { offsetInCU: 0xCF0E, offset: 0xCF0E, size: 0x8, addend: 0x0, symName: __ZNSt3__16vectorI4elecNS_9allocatorIS1_EEE21_ConstructTransactionD2B7v160006Ev, symObjAddr: 0x1A7C, symBinAddr: 0x100002B00, symSize: 0x20 }
  - { offsetInCU: 0xCF38, offset: 0xCF38, size: 0x8, addend: 0x0, symName: __ZNSt3__128__exception_guard_exceptionsINS_6vectorI4elecNS_9allocatorIS2_EEE16__destroy_vectorEED2B7v160006Ev, symObjAddr: 0x1A9C, symBinAddr: 0x100002B20, symSize: 0x50 }
  - { offsetInCU: 0xCF62, offset: 0xCF62, size: 0x8, addend: 0x0, symName: __ZNSt3__16vectorI4elecNS_9allocatorIS1_EEE16__destroy_vectorclB7v160006Ev, symObjAddr: 0x1AEC, symBinAddr: 0x100002B70, symSize: 0x9C }
  - { offsetInCU: 0xCF88, offset: 0xCF88, size: 0x8, addend: 0x0, symName: __ZNKSt3__16vectorI4elecNS_9allocatorIS1_EEE17__annotate_deleteB7v160006Ev, symObjAddr: 0x1B88, symBinAddr: 0x100002C0C, symSize: 0xB8 }
  - { offsetInCU: 0xCFAE, offset: 0xCFAE, size: 0x8, addend: 0x0, symName: __ZNSt3__16vectorI4elecNS_9allocatorIS1_EEE7__clearB7v160006Ev, symObjAddr: 0x1C50, symBinAddr: 0x100002CD4, symSize: 0x28 }
  - { offsetInCU: 0xCFD4, offset: 0xCFD4, size: 0x8, addend: 0x0, symName: __ZNSt3__116allocator_traitsINS_9allocatorI4elecEEE10deallocateB7v160006ERS3_PS2_m, symObjAddr: 0x1C78, symBinAddr: 0x100002CFC, symSize: 0x34 }
  - { offsetInCU: 0xD016, offset: 0xD016, size: 0x8, addend: 0x0, symName: __ZNKSt3__16vectorI4elecNS_9allocatorIS1_EEE4sizeB7v160006Ev, symObjAddr: 0x1CAC, symBinAddr: 0x100002D30, symSize: 0x28 }
  - { offsetInCU: 0xD03C, offset: 0xD03C, size: 0x8, addend: 0x0, symName: __ZNSt3__16vectorI4elecNS_9allocatorIS1_EEE22__base_destruct_at_endB7v160006EPS1_, symObjAddr: 0x1CD4, symBinAddr: 0x100002D58, symSize: 0x8C }
  - { offsetInCU: 0xD080, offset: 0xD080, size: 0x8, addend: 0x0, symName: __ZNSt3__116allocator_traitsINS_9allocatorI4elecEEE7destroyB7v160006IS2_vvEEvRS3_PT_, symObjAddr: 0x1D60, symBinAddr: 0x100002DE4, symSize: 0x28 }
  - { offsetInCU: 0xD0BA, offset: 0xD0BA, size: 0x8, addend: 0x0, symName: __ZNSt3__19allocatorI4elecE10deallocateB7v160006EPS1_m, symObjAddr: 0x1DBC, symBinAddr: 0x100002E40, symSize: 0x40 }
  - { offsetInCU: 0xD0FC, offset: 0xD0FC, size: 0x8, addend: 0x0, symName: __ZNSt3__16vectorI4elecNS_9allocatorIS1_EEED2B7v160006Ev, symObjAddr: 0x1F04, symBinAddr: 0x100002F88, symSize: 0x44 }
  - { offsetInCU: 0xD13F, offset: 0xD13F, size: 0x8, addend: 0x0, symName: __ZNKSt3__113basic_ostreamIcNS_11char_traitsIcEEE6sentrycvbB7v160006Ev, symObjAddr: 0x2134, symBinAddr: 0x1000031B8, symSize: 0x1C }
  - { offsetInCU: 0xD165, offset: 0xD165, size: 0x8, addend: 0x0, symName: __ZNSt3__119ostreambuf_iteratorIcNS_11char_traitsIcEEEC1B7v160006ERNS_13basic_ostreamIcS2_EE, symObjAddr: 0x2390, symBinAddr: 0x100003414, symSize: 0x34 }
  - { offsetInCU: 0xD19D, offset: 0xD19D, size: 0x8, addend: 0x0, symName: __ZNKSt3__18ios_base5flagsB7v160006Ev, symObjAddr: 0x23C4, symBinAddr: 0x100003448, symSize: 0x18 }
  - { offsetInCU: 0xD1C5, offset: 0xD1C5, size: 0x8, addend: 0x0, symName: __ZNKSt3__19basic_iosIcNS_11char_traitsIcEEE4fillB7v160006Ev, symObjAddr: 0x23DC, symBinAddr: 0x100003460, symSize: 0x64 }
  - { offsetInCU: 0xD1ED, offset: 0xD1ED, size: 0x8, addend: 0x0, symName: __ZNKSt3__119ostreambuf_iteratorIcNS_11char_traitsIcEEE6failedB7v160006Ev, symObjAddr: 0x2440, symBinAddr: 0x1000034C4, symSize: 0x24 }
  - { offsetInCU: 0xD213, offset: 0xD213, size: 0x8, addend: 0x0, symName: __ZNSt3__19basic_iosIcNS_11char_traitsIcEEE8setstateB7v160006Ej, symObjAddr: 0x2464, symBinAddr: 0x1000034E8, symSize: 0x2C }
  - { offsetInCU: 0xD248, offset: 0xD248, size: 0x8, addend: 0x0, symName: __ZNKSt3__18ios_base5widthB7v160006Ev, symObjAddr: 0x2490, symBinAddr: 0x100003514, symSize: 0x18 }
  - { offsetInCU: 0xD270, offset: 0xD270, size: 0x8, addend: 0x0, symName: __ZNSt3__115basic_streambufIcNS_11char_traitsIcEEE5sputnB7v160006EPKcl, symObjAddr: 0x24A8, symBinAddr: 0x10000352C, symSize: 0x3C }
  - { offsetInCU: 0xD2B2, offset: 0xD2B2, size: 0x8, addend: 0x0, symName: __ZNSt3__112basic_stringIcNS_11char_traitsIcEENS_9allocatorIcEEEC1B7v160006Emc, symObjAddr: 0x24E4, symBinAddr: 0x100003568, symSize: 0x3C }
  - { offsetInCU: 0xD2FA, offset: 0xD2FA, size: 0x8, addend: 0x0, symName: __ZNSt3__112basic_stringIcNS_11char_traitsIcEENS_9allocatorIcEEE4dataB7v160006Ev, symObjAddr: 0x2520, symBinAddr: 0x1000035A4, symSize: 0x28 }
  - { offsetInCU: 0xD320, offset: 0xD320, size: 0x8, addend: 0x0, symName: __ZNSt3__18ios_base5widthB7v160006El, symObjAddr: 0x2548, symBinAddr: 0x1000035CC, symSize: 0x2C }
  - { offsetInCU: 0xD366, offset: 0xD366, size: 0x8, addend: 0x0, symName: __ZNSt3__112basic_stringIcNS_11char_traitsIcEENS_9allocatorIcEEEC2B7v160006Emc, symObjAddr: 0x2574, symBinAddr: 0x1000035F8, symSize: 0x54 }
  - { offsetInCU: 0xD3AE, offset: 0xD3AE, size: 0x8, addend: 0x0, symName: __ZNSt3__117__compressed_pairINS_12basic_stringIcNS_11char_traitsIcEENS_9allocatorIcEEE5__repES5_EC1B7v160006INS_18__default_init_tagESA_EEOT_OT0_, symObjAddr: 0x25C8, symBinAddr: 0x10000364C, symSize: 0x3C }
  - { offsetInCU: 0xD406, offset: 0xD406, size: 0x8, addend: 0x0, symName: __ZNSt3__117__compressed_pairINS_12basic_stringIcNS_11char_traitsIcEENS_9allocatorIcEEE5__repES5_EC2B7v160006INS_18__default_init_tagESA_EEOT_OT0_, symObjAddr: 0x2614, symBinAddr: 0x100003698, symSize: 0x3C }
  - { offsetInCU: 0xD45E, offset: 0xD45E, size: 0x8, addend: 0x0, symName: __ZNSt3__122__compressed_pair_elemINS_12basic_stringIcNS_11char_traitsIcEENS_9allocatorIcEEE5__repELi0ELb0EEC2B7v160006ENS_18__default_init_tagE, symObjAddr: 0x2650, symBinAddr: 0x1000036D4, symSize: 0x14 }
  - { offsetInCU: 0xD493, offset: 0xD493, size: 0x8, addend: 0x0, symName: __ZNSt3__122__compressed_pair_elemINS_9allocatorIcEELi1ELb1EEC2B7v160006ENS_18__default_init_tagE, symObjAddr: 0x2664, symBinAddr: 0x1000036E8, symSize: 0x2C }
  - { offsetInCU: 0xD4C8, offset: 0xD4C8, size: 0x8, addend: 0x0, symName: __ZNSt3__19allocatorIcEC2B7v160006Ev, symObjAddr: 0x2690, symBinAddr: 0x100003714, symSize: 0x2C }
  - { offsetInCU: 0xD4F2, offset: 0xD4F2, size: 0x8, addend: 0x0, symName: __ZNSt3__116__non_trivial_ifILb1ENS_9allocatorIcEEEC2B7v160006Ev, symObjAddr: 0x26BC, symBinAddr: 0x100003740, symSize: 0x14 }
  - { offsetInCU: 0xD51C, offset: 0xD51C, size: 0x8, addend: 0x0, symName: __ZNSt3__112basic_stringIcNS_11char_traitsIcEENS_9allocatorIcEEE13__get_pointerB7v160006Ev, symObjAddr: 0x26E4, symBinAddr: 0x100003768, symSize: 0x54 }
  - { offsetInCU: 0xD542, offset: 0xD542, size: 0x8, addend: 0x0, symName: __ZNKSt3__112basic_stringIcNS_11char_traitsIcEENS_9allocatorIcEEE9__is_longB7v160006Ev, symObjAddr: 0x2738, symBinAddr: 0x1000037BC, symSize: 0x38 }
  - { offsetInCU: 0xD568, offset: 0xD568, size: 0x8, addend: 0x0, symName: __ZNSt3__112basic_stringIcNS_11char_traitsIcEENS_9allocatorIcEEE18__get_long_pointerB7v160006Ev, symObjAddr: 0x2770, symBinAddr: 0x1000037F4, symSize: 0x28 }
  - { offsetInCU: 0xD58E, offset: 0xD58E, size: 0x8, addend: 0x0, symName: __ZNSt3__112basic_stringIcNS_11char_traitsIcEENS_9allocatorIcEEE19__get_short_pointerB7v160006Ev, symObjAddr: 0x2798, symBinAddr: 0x10000381C, symSize: 0x28 }
  - { offsetInCU: 0xD5B4, offset: 0xD5B4, size: 0x8, addend: 0x0, symName: __ZNKSt3__117__compressed_pairINS_12basic_stringIcNS_11char_traitsIcEENS_9allocatorIcEEE5__repES5_E5firstB7v160006Ev, symObjAddr: 0x27C0, symBinAddr: 0x100003844, symSize: 0x24 }
  - { offsetInCU: 0xD5DA, offset: 0xD5DA, size: 0x8, addend: 0x0, symName: __ZNKSt3__122__compressed_pair_elemINS_12basic_stringIcNS_11char_traitsIcEENS_9allocatorIcEEE5__repELi0ELb0EE5__getB7v160006Ev, symObjAddr: 0x27E4, symBinAddr: 0x100003868, symSize: 0x14 }
  - { offsetInCU: 0xD600, offset: 0xD600, size: 0x8, addend: 0x0, symName: __ZNSt3__117__compressed_pairINS_12basic_stringIcNS_11char_traitsIcEENS_9allocatorIcEEE5__repES5_E5firstB7v160006Ev, symObjAddr: 0x27F8, symBinAddr: 0x10000387C, symSize: 0x24 }
  - { offsetInCU: 0xD626, offset: 0xD626, size: 0x8, addend: 0x0, symName: __ZNSt3__122__compressed_pair_elemINS_12basic_stringIcNS_11char_traitsIcEENS_9allocatorIcEEE5__repELi0ELb0EE5__getB7v160006Ev, symObjAddr: 0x281C, symBinAddr: 0x1000038A0, symSize: 0x14 }
  - { offsetInCU: 0xD64C, offset: 0xD64C, size: 0x8, addend: 0x0, symName: __ZNSt3__114pointer_traitsIPcE10pointer_toB7v160006ERc, symObjAddr: 0x2830, symBinAddr: 0x1000038B4, symSize: 0x14 }
  - { offsetInCU: 0xD66F, offset: 0xD66F, size: 0x8, addend: 0x0, symName: __ZNSt3__119ostreambuf_iteratorIcNS_11char_traitsIcEEEC2B7v160006ERNS_13basic_ostreamIcS2_EE, symObjAddr: 0x2844, symBinAddr: 0x1000038C8, symSize: 0x54 }
  - { offsetInCU: 0xD6A7, offset: 0xD6A7, size: 0x8, addend: 0x0, symName: __ZNKSt3__19basic_iosIcNS_11char_traitsIcEEE5rdbufB7v160006Ev, symObjAddr: 0x2898, symBinAddr: 0x10000391C, symSize: 0x24 }
  - { offsetInCU: 0xD6CF, offset: 0xD6CF, size: 0x8, addend: 0x0, symName: __ZNKSt3__18ios_base5rdbufB7v160006Ev, symObjAddr: 0x28BC, symBinAddr: 0x100003940, symSize: 0x18 }
  - { offsetInCU: 0xD6F5, offset: 0xD6F5, size: 0x8, addend: 0x0, symName: __ZNSt3__111char_traitsIcE11eq_int_typeEii, symObjAddr: 0x28D4, symBinAddr: 0x100003958, symSize: 0x28 }
  - { offsetInCU: 0xD726, offset: 0xD726, size: 0x8, addend: 0x0, symName: __ZNSt3__111char_traitsIcE3eofEv, symObjAddr: 0x28FC, symBinAddr: 0x100003980, symSize: 0x8 }
  - { offsetInCU: 0xD73A, offset: 0xD73A, size: 0x8, addend: 0x0, symName: __ZNKSt3__19basic_iosIcNS_11char_traitsIcEEE5widenB7v160006Ec, symObjAddr: 0x2904, symBinAddr: 0x100003988, symSize: 0x84 }
  - { offsetInCU: 0xD7A8, offset: 0xD7A8, size: 0x8, addend: 0x0, symName: __ZNKSt3__15ctypeIcE5widenB7v160006Ec, symObjAddr: 0x29B4, symBinAddr: 0x100003A38, symSize: 0x38 }
  - { offsetInCU: 0xD7DD, offset: 0xD7DD, size: 0x8, addend: 0x0, symName: __ZNSt3__18ios_base8setstateB7v160006Ej, symObjAddr: 0x29EC, symBinAddr: 0x100003A70, symSize: 0x34 }
...
