---
triple:          'arm64-apple-darwin'
binary-path:     '/Users/rohakdebnath/Desktop/Cpp /CodeForces/divpairs'
relocations:
  - { offsetInCU: 0xE7, offset: 0xE7, size: 0x8, addend: 0x0, symName: __ZSt23__is_constant_evaluatedv, symObjAddr: 0x0, symBinAddr: 0x100000864, symSize: 0x8 }
  - { offsetInCU: 0xEF, offset: 0xEF, size: 0x8, addend: 0x0, symName: __ZNSt8__detail11__synth3wayE, symObjAddr: 0x1C44, symBinAddr: 0x100002A1C, symSize: 0x0 }
  - { offsetInCU: 0x1E1E, offset: 0x1E1E, size: 0x8, addend: 0x0, symName: __ZNSt8__detail11__synth3wayE, symObjAddr: 0x1C44, symBinAddr: 0x100002A1C, symSize: 0x0 }
  - { offsetInCU: 0x1E78, offset: 0x1E78, size: 0x8, addend: 0x0, symName: __ZSt19piecewise_construct, symObjAddr: 0x1C45, symBinAddr: 0x100002A1D, symSize: 0x0 }
  - { offsetInCU: 0x26E10, offset: 0x26E10, size: 0x8, addend: 0x0, symName: __ZStL8__ioinit, symObjAddr: 0xD0568, symBinAddr: 0x10000805E, symSize: 0x0 }
  - { offsetInCU: 0x33E22, offset: 0x33E22, size: 0x8, addend: 0x0, symName: __ZNSt8__detail14__destructibleISt13_Bit_iteratorEE, symObjAddr: 0x1C46, symBinAddr: 0x100002A1E, symSize: 0x0 }
  - { offsetInCU: 0x33E3C, offset: 0x33E3C, size: 0x8, addend: 0x0, symName: __ZNSt8__detail19__destructible_implISt13_Bit_iteratorEE, symObjAddr: 0x1C47, symBinAddr: 0x100002A1F, symSize: 0x0 }
  - { offsetInCU: 0x341EE, offset: 0x341EE, size: 0x8, addend: 0x0, symName: __ZNSt8__detail14__destructibleISt19_Bit_const_iteratorEE, symObjAddr: 0x1C48, symBinAddr: 0x100002A20, symSize: 0x0 }
  - { offsetInCU: 0x34208, offset: 0x34208, size: 0x8, addend: 0x0, symName: __ZNSt8__detail19__destructible_implISt19_Bit_const_iteratorEE, symObjAddr: 0x1C49, symBinAddr: 0x100002A21, symSize: 0x0 }
  - { offsetInCU: 0x34972, offset: 0x34972, size: 0x8, addend: 0x0, symName: __ZNSt8__detail14__destructibleIN9__gnu_cxx17__normal_iteratorIPcSt4spanIcLm18446744073709551615EEEEEE, symObjAddr: 0x1C4A, symBinAddr: 0x100002A22, symSize: 0x0 }
  - { offsetInCU: 0x3498C, offset: 0x3498C, size: 0x8, addend: 0x0, symName: __ZNSt8__detail19__destructible_implIN9__gnu_cxx17__normal_iteratorIPcSt4spanIcLm18446744073709551615EEEEEE, symObjAddr: 0x1C4B, symBinAddr: 0x100002A23, symSize: 0x0 }
  - { offsetInCU: 0x34D3E, offset: 0x34D3E, size: 0x8, addend: 0x0, symName: __ZNSt8__detail14__destructibleISt16reverse_iteratorIN9__gnu_cxx17__normal_iteratorIPcSt4spanIcLm18446744073709551615EEEEEEE, symObjAddr: 0x1C4C, symBinAddr: 0x100002A24, symSize: 0x0 }
  - { offsetInCU: 0x34D58, offset: 0x34D58, size: 0x8, addend: 0x0, symName: __ZNSt8__detail19__destructible_implISt16reverse_iteratorIN9__gnu_cxx17__normal_iteratorIPcSt4spanIcLm18446744073709551615EEEEEEE, symObjAddr: 0x1C4D, symBinAddr: 0x100002A25, symSize: 0x0 }
  - { offsetInCU: 0x34ECB, offset: 0x34ECB, size: 0x8, addend: 0x0, symName: __ZNSt8__detail14__destructibleINSt8__format10_Sink_iterIcEEEE, symObjAddr: 0x1C4E, symBinAddr: 0x100002A26, symSize: 0x0 }
  - { offsetInCU: 0x34EE5, offset: 0x34EE5, size: 0x8, addend: 0x0, symName: __ZNSt8__detail19__destructible_implINSt8__format10_Sink_iterIcEEEE, symObjAddr: 0x1C4F, symBinAddr: 0x100002A27, symSize: 0x0 }
  - { offsetInCU: 0x35013, offset: 0x35013, size: 0x8, addend: 0x0, symName: __ZNSt8__detail14__destructibleIN9__gnu_cxx17__normal_iteratorIPwSt4spanIwLm18446744073709551615EEEEEE, symObjAddr: 0x1C50, symBinAddr: 0x100002A28, symSize: 0x0 }
  - { offsetInCU: 0x3502D, offset: 0x3502D, size: 0x8, addend: 0x0, symName: __ZNSt8__detail19__destructible_implIN9__gnu_cxx17__normal_iteratorIPwSt4spanIwLm18446744073709551615EEEEEE, symObjAddr: 0x1C51, symBinAddr: 0x100002A29, symSize: 0x0 }
  - { offsetInCU: 0x35383, offset: 0x35383, size: 0x8, addend: 0x0, symName: __ZNSt8__detail14__destructibleISt16reverse_iteratorIN9__gnu_cxx17__normal_iteratorIPwSt4spanIwLm18446744073709551615EEEEEEE, symObjAddr: 0x1C52, symBinAddr: 0x100002A2A, symSize: 0x0 }
  - { offsetInCU: 0x3539D, offset: 0x3539D, size: 0x8, addend: 0x0, symName: __ZNSt8__detail19__destructible_implISt16reverse_iteratorIN9__gnu_cxx17__normal_iteratorIPwSt4spanIwLm18446744073709551615EEEEEEE, symObjAddr: 0x1C53, symBinAddr: 0x100002A2B, symSize: 0x0 }
  - { offsetInCU: 0x35510, offset: 0x35510, size: 0x8, addend: 0x0, symName: __ZNSt8__detail14__destructibleINSt8__format10_Sink_iterIwEEEE, symObjAddr: 0x1C54, symBinAddr: 0x100002A2C, symSize: 0x0 }
  - { offsetInCU: 0x3552A, offset: 0x3552A, size: 0x8, addend: 0x0, symName: __ZNSt8__detail19__destructible_implINSt8__format10_Sink_iterIwEEEE, symObjAddr: 0x1C55, symBinAddr: 0x100002A2D, symSize: 0x0 }
  - { offsetInCU: 0x35641, offset: 0x35641, size: 0x8, addend: 0x0, symName: __ZNSt8__detail14__destructibleIPcEE, symObjAddr: 0x1C56, symBinAddr: 0x100002A2E, symSize: 0x0 }
  - { offsetInCU: 0x3565B, offset: 0x3565B, size: 0x8, addend: 0x0, symName: __ZNSt8__detail19__destructible_implIPcEE, symObjAddr: 0x1C57, symBinAddr: 0x100002A2F, symSize: 0x0 }
  - { offsetInCU: 0x35886, offset: 0x35886, size: 0x8, addend: 0x0, symName: __ZNSt8__detail14__destructibleIPwEE, symObjAddr: 0x1C58, symBinAddr: 0x100002A30, symSize: 0x0 }
  - { offsetInCU: 0x358A0, offset: 0x358A0, size: 0x8, addend: 0x0, symName: __ZNSt8__detail19__destructible_implIPwEE, symObjAddr: 0x1C59, symBinAddr: 0x100002A31, symSize: 0x0 }
  - { offsetInCU: 0x35F02, offset: 0x35F02, size: 0x8, addend: 0x0, symName: __ZNSt8__detail14__destructibleIiEE, symObjAddr: 0x1C5A, symBinAddr: 0x100002A32, symSize: 0x0 }
  - { offsetInCU: 0x35F1C, offset: 0x35F1C, size: 0x8, addend: 0x0, symName: __ZNSt8__detail19__destructible_implIiEE, symObjAddr: 0x1C5B, symBinAddr: 0x100002A33, symSize: 0x0 }
  - { offsetInCU: 0x3615E, offset: 0x3615E, size: 0x8, addend: 0x0, symName: __ZNSt8__detail14__destructibleIN9__gnu_cxx17__normal_iteratorIPKcNSt7__cxx1112basic_stringIcSt11char_traitsIcESaIcEEEEEEE, symObjAddr: 0x1C5C, symBinAddr: 0x100002A34, symSize: 0x0 }
  - { offsetInCU: 0x36178, offset: 0x36178, size: 0x8, addend: 0x0, symName: __ZNSt8__detail19__destructible_implIN9__gnu_cxx17__normal_iteratorIPKcNSt7__cxx1112basic_stringIcSt11char_traitsIcESaIcEEEEEEE, symObjAddr: 0x1C5D, symBinAddr: 0x100002A35, symSize: 0x0 }
  - { offsetInCU: 0x366F2, offset: 0x366F2, size: 0x8, addend: 0x0, symName: __ZNSt8__detail30__integer_to_chars_is_unsignedIjEE, symObjAddr: 0x1C5E, symBinAddr: 0x100002A36, symSize: 0x0 }
  - { offsetInCU: 0x3670C, offset: 0x3670C, size: 0x8, addend: 0x0, symName: __ZNSt8__detail30__integer_to_chars_is_unsignedImEE, symObjAddr: 0x1C5F, symBinAddr: 0x100002A37, symSize: 0x0 }
  - { offsetInCU: 0x36726, offset: 0x36726, size: 0x8, addend: 0x0, symName: __ZNSt8__detail30__integer_to_chars_is_unsignedIyEE, symObjAddr: 0x1C60, symBinAddr: 0x100002A38, symSize: 0x0 }
  - { offsetInCU: 0x36A79, offset: 0x36A79, size: 0x8, addend: 0x0, symName: __ZSt22__is_specialization_ofINSt7__cxx1112basic_stringIcSt11char_traitsIcESaIcEEES1_E, symObjAddr: 0x1C61, symBinAddr: 0x100002A39, symSize: 0x0 }
  - { offsetInCU: 0x36B05, offset: 0x36B05, size: 0x8, addend: 0x0, symName: __ZSt22__is_specialization_ofINSt7__cxx1112basic_stringIwSt11char_traitsIwESaIwEEES1_E, symObjAddr: 0x1C62, symBinAddr: 0x100002A3A, symSize: 0x0 }
  - { offsetInCU: 0x36D2E, offset: 0x36D2E, size: 0x8, addend: 0x0, symName: __ZNSt8__detail14__destructibleImEE, symObjAddr: 0x1C63, symBinAddr: 0x100002A3B, symSize: 0x0 }
  - { offsetInCU: 0x36D48, offset: 0x36D48, size: 0x8, addend: 0x0, symName: __ZNSt8__detail19__destructible_implImEE, symObjAddr: 0x1C64, symBinAddr: 0x100002A3C, symSize: 0x0 }
  - { offsetInCU: 0x37028, offset: 0x37028, size: 0x8, addend: 0x0, symName: __ZNSt8__detail14__destructibleIPKcEE, symObjAddr: 0x1C65, symBinAddr: 0x100002A3D, symSize: 0x0 }
  - { offsetInCU: 0x37042, offset: 0x37042, size: 0x8, addend: 0x0, symName: __ZNSt8__detail19__destructible_implIPKcEE, symObjAddr: 0x1C66, symBinAddr: 0x100002A3E, symSize: 0x0 }
  - { offsetInCU: 0x3723F, offset: 0x3723F, size: 0x8, addend: 0x0, symName: __ZNSt8__detail14__destructibleIPKwEE, symObjAddr: 0x1C67, symBinAddr: 0x100002A3F, symSize: 0x0 }
  - { offsetInCU: 0x37259, offset: 0x37259, size: 0x8, addend: 0x0, symName: __ZNSt8__detail19__destructible_implIPKwEE, symObjAddr: 0x1C68, symBinAddr: 0x100002A40, symSize: 0x0 }
  - { offsetInCU: 0x3823E, offset: 0x3823E, size: 0x8, addend: 0x0, symName: __ZNSt8__detail14__destructibleIjEE, symObjAddr: 0x1C69, symBinAddr: 0x100002A41, symSize: 0x0 }
  - { offsetInCU: 0x38258, offset: 0x38258, size: 0x8, addend: 0x0, symName: __ZNSt8__detail19__destructible_implIjEE, symObjAddr: 0x1C6A, symBinAddr: 0x100002A42, symSize: 0x0 }
  - { offsetInCU: 0x38427, offset: 0x38427, size: 0x8, addend: 0x0, symName: __ZNSt8__detail14__destructibleIlEE, symObjAddr: 0x1C6B, symBinAddr: 0x100002A43, symSize: 0x0 }
  - { offsetInCU: 0x38441, offset: 0x38441, size: 0x8, addend: 0x0, symName: __ZNSt8__detail19__destructible_implIlEE, symObjAddr: 0x1C6C, symBinAddr: 0x100002A44, symSize: 0x0 }
  - { offsetInCU: 0x38ABD, offset: 0x38ABD, size: 0x8, addend: 0x0, symName: __ZNSt8__detail30__integer_to_chars_is_unsignedIoEE, symObjAddr: 0x1C6D, symBinAddr: 0x100002A45, symSize: 0x0 }
  - { offsetInCU: 0x38AE8, offset: 0x38AE8, size: 0x8, addend: 0x0, symName: __GLOBAL__sub_I_divpairs.cpp, symObjAddr: 0x1C30, symBinAddr: 0x100002494, symSize: 0x14 }
  - { offsetInCU: 0x38AF0, offset: 0x38AF0, size: 0x8, addend: 0x0, symName: __ZNSt8__detail11__synth3wayE, symObjAddr: 0x1C44, symBinAddr: 0x100002A1C, symSize: 0x0 }
  - { offsetInCU: 0x38B11, offset: 0x38B11, size: 0x8, addend: 0x0, symName: __Z41__static_initialization_and_destruction_0v, symObjAddr: 0x1BF4, symBinAddr: 0x100002458, symSize: 0x3C }
  - { offsetInCU: 0x38B19, offset: 0x38B19, size: 0x8, addend: 0x0, symName: __GLOBAL__sub_I_divpairs.cpp, symObjAddr: 0x1C30, symBinAddr: 0x100002494, symSize: 0x14 }
  - { offsetInCU: 0x38B04, offset: 0x38B04, size: 0x8, addend: 0x0, symName: __ZNSt10_Head_baseILm0EOSt4pairIxxELb0EE7_M_headERS3_, symObjAddr: 0x1BDC, symBinAddr: 0x100002440, symSize: 0x18 }
  - { offsetInCU: 0x38B0C, offset: 0x38B0C, size: 0x8, addend: 0x0, symName: __Z41__static_initialization_and_destruction_0v, symObjAddr: 0x1BF4, symBinAddr: 0x100002458, symSize: 0x3C }
  - { offsetInCU: 0x38B37, offset: 0x38B37, size: 0x8, addend: 0x0, symName: __ZNSt11_Tuple_implILm0EJOSt4pairIxxEEE7_M_headERS3_, symObjAddr: 0x1BC0, symBinAddr: 0x100002424, symSize: 0x1C }
  - { offsetInCU: 0x38B3F, offset: 0x38B3F, size: 0x8, addend: 0x0, symName: __ZNSt10_Head_baseILm0EOSt4pairIxxELb0EE7_M_headERS3_, symObjAddr: 0x1BDC, symBinAddr: 0x100002440, symSize: 0x18 }
  - { offsetInCU: 0x38BF7, offset: 0x38BF7, size: 0x8, addend: 0x0, symName: __ZSt12__get_helperILm0EOSt4pairIxxEJEERT0_RSt11_Tuple_implIXT_EJS3_DpT1_EE, symObjAddr: 0x1BA4, symBinAddr: 0x100002408, symSize: 0x1C }
  - { offsetInCU: 0x38BFF, offset: 0x38BFF, size: 0x8, addend: 0x0, symName: __ZNSt11_Tuple_implILm0EJOSt4pairIxxEEE7_M_headERS3_, symObjAddr: 0x1BC0, symBinAddr: 0x100002424, symSize: 0x1C }
  - { offsetInCU: 0x38C42, offset: 0x38C42, size: 0x8, addend: 0x0, symName: __ZSt7forwardIOSt4pairIxxEEOT_RNSt16remove_referenceIS3_E4typeE, symObjAddr: 0x1B90, symBinAddr: 0x1000023F4, symSize: 0x14 }
  - { offsetInCU: 0x38C4A, offset: 0x38C4A, size: 0x8, addend: 0x0, symName: __ZSt12__get_helperILm0EOSt4pairIxxEJEERT0_RSt11_Tuple_implIXT_EJS3_DpT1_EE, symObjAddr: 0x1BA4, symBinAddr: 0x100002408, symSize: 0x1C }
  - { offsetInCU: 0x38CAB, offset: 0x38CAB, size: 0x8, addend: 0x0, symName: __ZSt3getILm0EJOSt4pairIxxEEERNSt13tuple_elementIXT_ESt5tupleIJDpT0_EEE4typeERS7_, symObjAddr: 0x1B74, symBinAddr: 0x1000023D8, symSize: 0x1C }
  - { offsetInCU: 0x38CB3, offset: 0x38CB3, size: 0x8, addend: 0x0, symName: __ZSt7forwardIOSt4pairIxxEEOT_RNSt16remove_referenceIS3_E4typeE, symObjAddr: 0x1B90, symBinAddr: 0x1000023F4, symSize: 0x14 }
  - { offsetInCU: 0x38D71, offset: 0x38D71, size: 0x8, addend: 0x0, symName: __ZNSt4pairIKS_IxxExEC1IJOS0_EJLm0EEJEJEEERSt5tupleIJDpT_EERS5_IJDpT1_EESt12_Index_tupleIJXspT0_EEESE_IJXspT2_EEE, symObjAddr: 0x1B2C, symBinAddr: 0x100002390, symSize: 0x48 }
  - { offsetInCU: 0x38D79, offset: 0x38D79, size: 0x8, addend: 0x0, symName: __ZSt3getILm0EJOSt4pairIxxEEERNSt13tuple_elementIXT_ESt5tupleIJDpT0_EEE4typeERS7_, symObjAddr: 0x1B74, symBinAddr: 0x1000023D8, symSize: 0x1C }
  - { offsetInCU: 0x38E61, offset: 0x38E61, size: 0x8, addend: 0x0, symName: __ZNSt4pairIKS_IxxExEC1IJOS0_EJEEESt21piecewise_construct_tSt5tupleIJDpT_EES6_IJDpT0_EE, symObjAddr: 0x1AF0, symBinAddr: 0x100002354, symSize: 0x3C }
  - { offsetInCU: 0x38E69, offset: 0x38E69, size: 0x8, addend: 0x0, symName: __ZNSt4pairIKS_IxxExEC1IJOS0_EJLm0EEJEJEEERSt5tupleIJDpT_EERS5_IJDpT1_EESt12_Index_tupleIJXspT0_EEESE_IJXspT2_EEE, symObjAddr: 0x1B2C, symBinAddr: 0x100002390, symSize: 0x48 }
  - { offsetInCU: 0x38ED1, offset: 0x38ED1, size: 0x8, addend: 0x0, symName: __ZNSt11_Tuple_implILm0EJOSt4pairIxxEEEC2EOS3_, symObjAddr: 0x1AC8, symBinAddr: 0x10000232C, symSize: 0x28 }
  - { offsetInCU: 0x38ED9, offset: 0x38ED9, size: 0x8, addend: 0x0, symName: __ZNSt4pairIKS_IxxExEC1IJOS0_EJEEESt21piecewise_construct_tSt5tupleIJDpT_EES6_IJDpT0_EE, symObjAddr: 0x1AF0, symBinAddr: 0x100002354, symSize: 0x3C }
  - { offsetInCU: 0x38EE0, offset: 0x38EE0, size: 0x8, addend: 0x0, symName: __ZNSt15__new_allocatorISt13_Rb_tree_nodeISt4pairIKS1_IxxExEEE8allocateEmPKv, symObjAddr: 0x1A28, symBinAddr: 0x10000228C, symSize: 0xA0 }
  - { offsetInCU: 0x38EE8, offset: 0x38EE8, size: 0x8, addend: 0x0, symName: __ZNSt11_Tuple_implILm0EJOSt4pairIxxEEEC2EOS3_, symObjAddr: 0x1AC8, symBinAddr: 0x10000232C, symSize: 0x28 }
  - { offsetInCU: 0x38F6E, offset: 0x38F6E, size: 0x8, addend: 0x0, symName: __ZNK9__gnu_cxx16__aligned_membufISt4pairIKS1_IxxExEE7_M_addrEv, symObjAddr: 0x1A14, symBinAddr: 0x100002278, symSize: 0x14 }
  - { offsetInCU: 0x38F76, offset: 0x38F76, size: 0x8, addend: 0x0, symName: __ZNSt15__new_allocatorISt13_Rb_tree_nodeISt4pairIKS1_IxxExEEE8allocateEmPKv, symObjAddr: 0x1A28, symBinAddr: 0x10000228C, symSize: 0xA0 }
  - { offsetInCU: 0x390EE, offset: 0x390EE, size: 0x8, addend: 0x0, symName: __ZSt12construct_atISt4pairIKS0_IxxExEJRKSt21piecewise_construct_tSt5tupleIJOS1_EES7_IJEEEEDTgsnwcvPvLi0E_T_pispcl7declvalIT0_EEEEPSC_DpOSD_, symObjAddr: 0x195C, symBinAddr: 0x1000021C0, symSize: 0xB8 }
  - { offsetInCU: 0x390F6, offset: 0x390F6, size: 0x8, addend: 0x0, symName: __ZNK9__gnu_cxx16__aligned_membufISt4pairIKS1_IxxExEE7_M_addrEv, symObjAddr: 0x1A14, symBinAddr: 0x100002278, symSize: 0x14 }
  - { offsetInCU: 0x39094, offset: 0x39094, size: 0x8, addend: 0x0, symName: __ZNSt5tupleIJOSt4pairIxxEEEC1EOS3_, symObjAddr: 0x1934, symBinAddr: 0x100002198, symSize: 0x28 }
  - { offsetInCU: 0x3909C, offset: 0x3909C, size: 0x8, addend: 0x0, symName: __ZSt12construct_atISt4pairIKS0_IxxExEJRKSt21piecewise_construct_tSt5tupleIJOS1_EES7_IJEEEEDTgsnwcvPvLi0E_T_pispcl7declvalIT0_EEEEPSC_DpOSD_, symObjAddr: 0x195C, symBinAddr: 0x1000021C0, symSize: 0xB8 }
  - { offsetInCU: 0x390DA, offset: 0x390DA, size: 0x8, addend: 0x0, symName: __ZNSt15__new_allocatorISt13_Rb_tree_nodeISt4pairIKS1_IxxExEEE10deallocateEPS5_m, symObjAddr: 0x18F8, symBinAddr: 0x10000215C, symSize: 0x3C }
  - { offsetInCU: 0x390E2, offset: 0x390E2, size: 0x8, addend: 0x0, symName: __ZNSt5tupleIJOSt4pairIxxEEEC1EOS3_, symObjAddr: 0x1934, symBinAddr: 0x100002198, symSize: 0x28 }
  - { offsetInCU: 0x39133, offset: 0x39133, size: 0x8, addend: 0x0, symName: __ZNK9__gnu_cxx16__aligned_membufISt4pairIKS1_IxxExEE6_M_ptrEv, symObjAddr: 0x18DC, symBinAddr: 0x100002140, symSize: 0x1C }
  - { offsetInCU: 0x3913B, offset: 0x3913B, size: 0x8, addend: 0x0, symName: __ZNSt15__new_allocatorISt13_Rb_tree_nodeISt4pairIKS1_IxxExEEE10deallocateEPS5_m, symObjAddr: 0x18F8, symBinAddr: 0x10000215C, symSize: 0x3C }
  - { offsetInCU: 0x3922A, offset: 0x3922A, size: 0x8, addend: 0x0, symName: __ZSt7forwardIRPSt13_Rb_tree_nodeISt4pairIKS1_IxxExEEEOT_RNSt16remove_referenceIS8_E4typeE, symObjAddr: 0x18C8, symBinAddr: 0x10000212C, symSize: 0x14 }
  - { offsetInCU: 0x39232, offset: 0x39232, size: 0x8, addend: 0x0, symName: __ZNK9__gnu_cxx16__aligned_membufISt4pairIKS1_IxxExEE6_M_ptrEv, symObjAddr: 0x18DC, symBinAddr: 0x100002140, symSize: 0x1C }
  - { offsetInCU: 0x39330, offset: 0x39330, size: 0x8, addend: 0x0, symName: __ZSt10destroy_atISt4pairIKS0_IxxExEEvPT_, symObjAddr: 0x18B4, symBinAddr: 0x100002118, symSize: 0x14 }
  - { offsetInCU: 0x39338, offset: 0x39338, size: 0x8, addend: 0x0, symName: __ZSt7forwardIRPSt13_Rb_tree_nodeISt4pairIKS1_IxxExEEEOT_RNSt16remove_referenceIS8_E4typeE, symObjAddr: 0x18C8, symBinAddr: 0x10000212C, symSize: 0x14 }
  - { offsetInCU: 0x392F5, offset: 0x392F5, size: 0x8, addend: 0x0, symName: __ZNKSt10_Select1stISt4pairIKS0_IxxExEEclERKS3_, symObjAddr: 0x189C, symBinAddr: 0x100002100, symSize: 0x18 }
  - { offsetInCU: 0x392FD, offset: 0x392FD, size: 0x8, addend: 0x0, symName: __ZSt10destroy_atISt4pairIKS0_IxxExEEvPT_, symObjAddr: 0x18B4, symBinAddr: 0x100002118, symSize: 0x14 }
  - { offsetInCU: 0x3933B, offset: 0x3933B, size: 0x8, addend: 0x0, symName: __ZNKSt13_Rb_tree_nodeISt4pairIKS0_IxxExEE9_M_valptrEv, symObjAddr: 0x187C, symBinAddr: 0x1000020E0, symSize: 0x20 }
  - { offsetInCU: 0x39343, offset: 0x39343, size: 0x8, addend: 0x0, symName: __ZNKSt10_Select1stISt4pairIKS0_IxxExEEclERKS3_, symObjAddr: 0x189C, symBinAddr: 0x100002100, symSize: 0x18 }
  - { offsetInCU: 0x393DE, offset: 0x393DE, size: 0x8, addend: 0x0, symName: __ZSt7forwardIRPSt18_Rb_tree_node_baseEOT_RNSt16remove_referenceIS3_E4typeE, symObjAddr: 0x1868, symBinAddr: 0x1000020CC, symSize: 0x14 }
  - { offsetInCU: 0x393E6, offset: 0x393E6, size: 0x8, addend: 0x0, symName: __ZNKSt13_Rb_tree_nodeISt4pairIKS0_IxxExEE9_M_valptrEv, symObjAddr: 0x187C, symBinAddr: 0x1000020E0, symSize: 0x20 }
  - { offsetInCU: 0x3947D, offset: 0x3947D, size: 0x8, addend: 0x0, symName: __ZNSt4pairIPSt18_Rb_tree_node_baseS1_EC1IRPSt13_Rb_tree_nodeIS_IKS_IxxExEERS1_EEOT_OT0_, symObjAddr: 0x1820, symBinAddr: 0x100002084, symSize: 0x48 }
  - { offsetInCU: 0x39485, offset: 0x39485, size: 0x8, addend: 0x0, symName: __ZSt7forwardIRPSt18_Rb_tree_node_baseEOT_RNSt16remove_referenceIS3_E4typeE, symObjAddr: 0x1868, symBinAddr: 0x1000020CC, symSize: 0x14 }
  - { offsetInCU: 0x39489, offset: 0x39489, size: 0x8, addend: 0x0, symName: __ZNSt8_Rb_treeISt4pairIxxES0_IKS1_xESt10_Select1stIS3_ESt4lessIS1_ESaIS3_EE5beginEv, symObjAddr: 0x17F8, symBinAddr: 0x10000205C, symSize: 0x28 }
  - { offsetInCU: 0x39491, offset: 0x39491, size: 0x8, addend: 0x0, symName: __ZNSt4pairIPSt18_Rb_tree_node_baseS1_EC1IRPSt13_Rb_tree_nodeIS_IKS_IxxExEERS1_EEOT_OT0_, symObjAddr: 0x1820, symBinAddr: 0x100002084, symSize: 0x48 }
  - { offsetInCU: 0x394BA, offset: 0x394BA, size: 0x8, addend: 0x0, symName: __ZNSt8_Rb_treeISt4pairIxxES0_IKS1_xESt10_Select1stIS3_ESt4lessIS1_ESaIS3_EE17_M_construct_nodeIJRKSt21piecewise_construct_tSt5tupleIJOS1_EESE_IJEEEEEvPSt13_Rb_tree_nodeIS3_EDpOT_, symObjAddr: 0x1708, symBinAddr: 0x100001F6C, symSize: 0xF0 }
  - { offsetInCU: 0x394C2, offset: 0x394C2, size: 0x8, addend: 0x0, symName: __ZNSt8_Rb_treeISt4pairIxxES0_IKS1_xESt10_Select1stIS3_ESt4lessIS1_ESaIS3_EE5beginEv, symObjAddr: 0x17F8, symBinAddr: 0x10000205C, symSize: 0x28 }
  - { offsetInCU: 0x395AE, offset: 0x395AE, size: 0x8, addend: 0x0, symName: __ZNSt8_Rb_treeISt4pairIxxES0_IKS1_xESt10_Select1stIS3_ESt4lessIS1_ESaIS3_EE11_M_get_nodeEv, symObjAddr: 0x1630, symBinAddr: 0x100001E94, symSize: 0xD8 }
  - { offsetInCU: 0x395B6, offset: 0x395B6, size: 0x8, addend: 0x0, symName: __ZNSt8_Rb_treeISt4pairIxxES0_IKS1_xESt10_Select1stIS3_ESt4lessIS1_ESaIS3_EE17_M_construct_nodeIJRKSt21piecewise_construct_tSt5tupleIJOS1_EESE_IJEEEEEvPSt13_Rb_tree_nodeIS3_EDpOT_, symObjAddr: 0x1708, symBinAddr: 0x100001F6C, symSize: 0xF0 }
  - { offsetInCU: 0x396B5, offset: 0x396B5, size: 0x8, addend: 0x0, symName: __ZNSt10_Head_baseILm0EOSt4pairIxxELb0EEC2IS1_EEOT_, symObjAddr: 0x1600, symBinAddr: 0x100001E64, symSize: 0x30 }
  - { offsetInCU: 0x396BD, offset: 0x396BD, size: 0x8, addend: 0x0, symName: __ZNSt8_Rb_treeISt4pairIxxES0_IKS1_xESt10_Select1stIS3_ESt4lessIS1_ESaIS3_EE11_M_get_nodeEv, symObjAddr: 0x1630, symBinAddr: 0x100001E94, symSize: 0xD8 }
  - { offsetInCU: 0x396CC, offset: 0x396CC, size: 0x8, addend: 0x0, symName: __ZN9__gnu_cxx16__aligned_membufISt4pairIKS1_IxxExEE7_M_addrEv, symObjAddr: 0x15EC, symBinAddr: 0x100001E50, symSize: 0x14 }
  - { offsetInCU: 0x396D4, offset: 0x396D4, size: 0x8, addend: 0x0, symName: __ZNSt10_Head_baseILm0EOSt4pairIxxELb0EEC2IS1_EEOT_, symObjAddr: 0x1600, symBinAddr: 0x100001E64, symSize: 0x30 }
  - { offsetInCU: 0x3977C, offset: 0x3977C, size: 0x8, addend: 0x0, symName: __ZNSt8_Rb_treeISt4pairIxxES0_IKS1_xESt10_Select1stIS3_ESt4lessIS1_ESaIS3_EE21_M_get_Node_allocatorEv, symObjAddr: 0x15D8, symBinAddr: 0x100001E3C, symSize: 0x14 }
  - { offsetInCU: 0x39784, offset: 0x39784, size: 0x8, addend: 0x0, symName: __ZN9__gnu_cxx16__aligned_membufISt4pairIKS1_IxxExEE7_M_addrEv, symObjAddr: 0x15EC, symBinAddr: 0x100001E50, symSize: 0x14 }
  - { offsetInCU: 0x397AD, offset: 0x397AD, size: 0x8, addend: 0x0, symName: __ZNSt8_Rb_treeISt4pairIxxES0_IKS1_xESt10_Select1stIS3_ESt4lessIS1_ESaIS3_EE14_M_insert_nodeEPSt18_Rb_tree_node_baseSB_PSt13_Rb_tree_nodeIS3_E, symObjAddr: 0x1504, symBinAddr: 0x100001D68, symSize: 0xD4 }
  - { offsetInCU: 0x397B5, offset: 0x397B5, size: 0x8, addend: 0x0, symName: __ZNSt8_Rb_treeISt4pairIxxES0_IKS1_xESt10_Select1stIS3_ESt4lessIS1_ESaIS3_EE21_M_get_Node_allocatorEv, symObjAddr: 0x15D8, symBinAddr: 0x100001E3C, symSize: 0x14 }
  - { offsetInCU: 0x39831, offset: 0x39831, size: 0x8, addend: 0x0, symName: __ZNSt8_Rb_treeISt4pairIxxES0_IKS1_xESt10_Select1stIS3_ESt4lessIS1_ESaIS3_EE6_S_keyEPKSt13_Rb_tree_nodeIS3_E, symObjAddr: 0x14DC, symBinAddr: 0x100001D40, symSize: 0x28 }
  - { offsetInCU: 0x39839, offset: 0x39839, size: 0x8, addend: 0x0, symName: __ZNSt8_Rb_treeISt4pairIxxES0_IKS1_xESt10_Select1stIS3_ESt4lessIS1_ESaIS3_EE14_M_insert_nodeEPSt18_Rb_tree_node_baseSB_PSt13_Rb_tree_nodeIS3_E, symObjAddr: 0x1504, symBinAddr: 0x100001D68, symSize: 0xD4 }
  - { offsetInCU: 0x39865, offset: 0x39865, size: 0x8, addend: 0x0, symName: __ZNSt17_Rb_tree_iteratorISt4pairIKS0_IxxExEEppEv, symObjAddr: 0x14AC, symBinAddr: 0x100001D10, symSize: 0x30 }
  - { offsetInCU: 0x3986D, offset: 0x3986D, size: 0x8, addend: 0x0, symName: __ZNSt8_Rb_treeISt4pairIxxES0_IKS1_xESt10_Select1stIS3_ESt4lessIS1_ESaIS3_EE6_S_keyEPKSt13_Rb_tree_nodeIS3_E, symObjAddr: 0x14DC, symBinAddr: 0x100001D40, symSize: 0x28 }
  - { offsetInCU: 0x39896, offset: 0x39896, size: 0x8, addend: 0x0, symName: __ZNSt17_Rb_tree_iteratorISt4pairIKS0_IxxExEEmmEv, symObjAddr: 0x147C, symBinAddr: 0x100001CE0, symSize: 0x30 }
  - { offsetInCU: 0x3989E, offset: 0x3989E, size: 0x8, addend: 0x0, symName: __ZNSt17_Rb_tree_iteratorISt4pairIKS0_IxxExEEppEv, symObjAddr: 0x14AC, symBinAddr: 0x100001D10, symSize: 0x30 }
  - { offsetInCU: 0x3995A, offset: 0x3995A, size: 0x8, addend: 0x0, symName: __ZNSt4pairIPSt18_Rb_tree_node_baseS1_EC1IRS1_S4_EEOT_OT0_, symObjAddr: 0x1434, symBinAddr: 0x100001C98, symSize: 0x48 }
  - { offsetInCU: 0x39962, offset: 0x39962, size: 0x8, addend: 0x0, symName: __ZNSt17_Rb_tree_iteratorISt4pairIKS0_IxxExEEmmEv, symObjAddr: 0x147C, symBinAddr: 0x100001CE0, symSize: 0x30 }
  - { offsetInCU: 0x39984, offset: 0x39984, size: 0x8, addend: 0x0, symName: __ZNSt8_Rb_treeISt4pairIxxES0_IKS1_xESt10_Select1stIS3_ESt4lessIS1_ESaIS3_EE11_M_leftmostEv, symObjAddr: 0x141C, symBinAddr: 0x100001C80, symSize: 0x18 }
  - { offsetInCU: 0x3998C, offset: 0x3998C, size: 0x8, addend: 0x0, symName: __ZNSt4pairIPSt18_Rb_tree_node_baseS1_EC1IRS1_S4_EEOT_OT0_, symObjAddr: 0x1434, symBinAddr: 0x100001C98, symSize: 0x48 }
  - { offsetInCU: 0x399B5, offset: 0x399B5, size: 0x8, addend: 0x0, symName: __ZNSt8_Rb_treeISt4pairIxxES0_IKS1_xESt10_Select1stIS3_ESt4lessIS1_ESaIS3_EE24_M_get_insert_unique_posERS2_, symObjAddr: 0x12B8, symBinAddr: 0x100001B1C, symSize: 0x164 }
  - { offsetInCU: 0x399BD, offset: 0x399BD, size: 0x8, addend: 0x0, symName: __ZNSt8_Rb_treeISt4pairIxxES0_IKS1_xESt10_Select1stIS3_ESt4lessIS1_ESaIS3_EE11_M_leftmostEv, symObjAddr: 0x141C, symBinAddr: 0x100001C80, symSize: 0x18 }
  - { offsetInCU: 0x39AC1, offset: 0x39AC1, size: 0x8, addend: 0x0, symName: __ZNSt4pairIPSt18_Rb_tree_node_baseS1_EC1ERKS1_S4_, symObjAddr: 0x127C, symBinAddr: 0x100001AE0, symSize: 0x3C }
  - { offsetInCU: 0x39AC9, offset: 0x39AC9, size: 0x8, addend: 0x0, symName: __ZNSt8_Rb_treeISt4pairIxxES0_IKS1_xESt10_Select1stIS3_ESt4lessIS1_ESaIS3_EE24_M_get_insert_unique_posERS2_, symObjAddr: 0x12B8, symBinAddr: 0x100001B1C, symSize: 0x164 }
  - { offsetInCU: 0x39AD9, offset: 0x39AD9, size: 0x8, addend: 0x0, symName: __ZNSt8_Rb_treeISt4pairIxxES0_IKS1_xESt10_Select1stIS3_ESt4lessIS1_ESaIS3_EE6_S_keyEPKSt18_Rb_tree_node_base, symObjAddr: 0x1260, symBinAddr: 0x100001AC4, symSize: 0x1C }
  - { offsetInCU: 0x39AE1, offset: 0x39AE1, size: 0x8, addend: 0x0, symName: __ZNSt4pairIPSt18_Rb_tree_node_baseS1_EC1ERKS1_S4_, symObjAddr: 0x127C, symBinAddr: 0x100001AE0, symSize: 0x3C }
  - { offsetInCU: 0x39B0D, offset: 0x39B0D, size: 0x8, addend: 0x0, symName: __ZNSt8_Rb_treeISt4pairIxxES0_IKS1_xESt10_Select1stIS3_ESt4lessIS1_ESaIS3_EE12_M_rightmostEv, symObjAddr: 0x1248, symBinAddr: 0x100001AAC, symSize: 0x18 }
  - { offsetInCU: 0x39B15, offset: 0x39B15, size: 0x8, addend: 0x0, symName: __ZNSt8_Rb_treeISt4pairIxxES0_IKS1_xESt10_Select1stIS3_ESt4lessIS1_ESaIS3_EE6_S_keyEPKSt18_Rb_tree_node_base, symObjAddr: 0x1260, symBinAddr: 0x100001AC4, symSize: 0x1C }
  - { offsetInCU: 0x39B3E, offset: 0x39B3E, size: 0x8, addend: 0x0, symName: __ZNKSt8_Rb_treeISt4pairIxxES0_IKS1_xESt10_Select1stIS3_ESt4lessIS1_ESaIS3_EE4sizeEv, symObjAddr: 0x1230, symBinAddr: 0x100001A94, symSize: 0x18 }
  - { offsetInCU: 0x39B46, offset: 0x39B46, size: 0x8, addend: 0x0, symName: __ZNSt8_Rb_treeISt4pairIxxES0_IKS1_xESt10_Select1stIS3_ESt4lessIS1_ESaIS3_EE12_M_rightmostEv, symObjAddr: 0x1248, symBinAddr: 0x100001AAC, symSize: 0x18 }
  - { offsetInCU: 0x39B6F, offset: 0x39B6F, size: 0x8, addend: 0x0, symName: __ZNKSt23_Rb_tree_const_iteratorISt4pairIKS0_IxxExEE13_M_const_castEv, symObjAddr: 0x1208, symBinAddr: 0x100001A6C, symSize: 0x28 }
  - { offsetInCU: 0x39B77, offset: 0x39B77, size: 0x8, addend: 0x0, symName: __ZNKSt8_Rb_treeISt4pairIxxES0_IKS1_xESt10_Select1stIS3_ESt4lessIS1_ESaIS3_EE4sizeEv, symObjAddr: 0x1230, symBinAddr: 0x100001A94, symSize: 0x18 }
  - { offsetInCU: 0x39BA0, offset: 0x39BA0, size: 0x8, addend: 0x0, symName: __ZNSt8_Rb_treeISt4pairIxxES0_IKS1_xESt10_Select1stIS3_ESt4lessIS1_ESaIS3_EE14_M_create_nodeIJRKSt21piecewise_construct_tSt5tupleIJOS1_EESE_IJEEEEEPSt13_Rb_tree_nodeIS3_EDpOT_, symObjAddr: 0x1198, symBinAddr: 0x1000019FC, symSize: 0x70 }
  - { offsetInCU: 0x39BA8, offset: 0x39BA8, size: 0x8, addend: 0x0, symName: __ZNKSt23_Rb_tree_const_iteratorISt4pairIKS0_IxxExEE13_M_const_castEv, symObjAddr: 0x1208, symBinAddr: 0x100001A6C, symSize: 0x28 }
  - { offsetInCU: 0x39CA0, offset: 0x39CA0, size: 0x8, addend: 0x0, symName: __ZNSt11_Tuple_implILm0EJOSt4pairIxxEEEC2IS1_EEOT_, symObjAddr: 0x115C, symBinAddr: 0x1000019C0, symSize: 0x3C }
  - { offsetInCU: 0x39CA8, offset: 0x39CA8, size: 0x8, addend: 0x0, symName: __ZNSt8_Rb_treeISt4pairIxxES0_IKS1_xESt10_Select1stIS3_ESt4lessIS1_ESaIS3_EE14_M_create_nodeIJRKSt21piecewise_construct_tSt5tupleIJOS1_EESE_IJEEEEEPSt13_Rb_tree_nodeIS3_EDpOT_, symObjAddr: 0x1198, symBinAddr: 0x1000019FC, symSize: 0x70 }
  - { offsetInCU: 0x39CB8, offset: 0x39CB8, size: 0x8, addend: 0x0, symName: __ZN9__gnu_cxx16__aligned_membufISt4pairIKS1_IxxExEE6_M_ptrEv, symObjAddr: 0x1140, symBinAddr: 0x1000019A4, symSize: 0x1C }
  - { offsetInCU: 0x39CC0, offset: 0x39CC0, size: 0x8, addend: 0x0, symName: __ZNSt11_Tuple_implILm0EJOSt4pairIxxEEEC2IS1_EEOT_, symObjAddr: 0x115C, symBinAddr: 0x1000019C0, symSize: 0x3C }
  - { offsetInCU: 0x39CE9, offset: 0x39CE9, size: 0x8, addend: 0x0, symName: __ZNSt8_Rb_treeISt4pairIxxES0_IKS1_xESt10_Select1stIS3_ESt4lessIS1_ESaIS3_EE14_M_lower_boundEPSt13_Rb_tree_nodeIS3_EPSt18_Rb_tree_node_baseRS2_, symObjAddr: 0x10A0, symBinAddr: 0x100001904, symSize: 0xA0 }
  - { offsetInCU: 0x39CF1, offset: 0x39CF1, size: 0x8, addend: 0x0, symName: __ZN9__gnu_cxx16__aligned_membufISt4pairIKS1_IxxExEE6_M_ptrEv, symObjAddr: 0x1140, symBinAddr: 0x1000019A4, symSize: 0x1C }
  - { offsetInCU: 0x39D59, offset: 0x39D59, size: 0x8, addend: 0x0, symName: __ZNSt8_Rb_treeISt4pairIxxES0_IKS1_xESt10_Select1stIS3_ESt4lessIS1_ESaIS3_EE6_M_endEv, symObjAddr: 0x1088, symBinAddr: 0x1000018EC, symSize: 0x18 }
  - { offsetInCU: 0x39D61, offset: 0x39D61, size: 0x8, addend: 0x0, symName: __ZNSt8_Rb_treeISt4pairIxxES0_IKS1_xESt10_Select1stIS3_ESt4lessIS1_ESaIS3_EE14_M_lower_boundEPSt13_Rb_tree_nodeIS3_EPSt18_Rb_tree_node_baseRS2_, symObjAddr: 0x10A0, symBinAddr: 0x100001904, symSize: 0xA0 }
  - { offsetInCU: 0x39D8A, offset: 0x39D8A, size: 0x8, addend: 0x0, symName: __ZNSt8_Rb_treeISt4pairIxxES0_IKS1_xESt10_Select1stIS3_ESt4lessIS1_ESaIS3_EE11_M_put_nodeEPSt13_Rb_tree_nodeIS3_E, symObjAddr: 0x1004, symBinAddr: 0x100001868, symSize: 0x84 }
  - { offsetInCU: 0x39D92, offset: 0x39D92, size: 0x8, addend: 0x0, symName: __ZNSt8_Rb_treeISt4pairIxxES0_IKS1_xESt10_Select1stIS3_ESt4lessIS1_ESaIS3_EE6_M_endEv, symObjAddr: 0x1088, symBinAddr: 0x1000018EC, symSize: 0x18 }
  - { offsetInCU: 0x39E54, offset: 0x39E54, size: 0x8, addend: 0x0, symName: __ZNSt8_Rb_treeISt4pairIxxES0_IKS1_xESt10_Select1stIS3_ESt4lessIS1_ESaIS3_EE15_M_destroy_nodeEPSt13_Rb_tree_nodeIS3_E, symObjAddr: 0xFB8, symBinAddr: 0x10000181C, symSize: 0x4C }
  - { offsetInCU: 0x39E5C, offset: 0x39E5C, size: 0x8, addend: 0x0, symName: __ZNSt8_Rb_treeISt4pairIxxES0_IKS1_xESt10_Select1stIS3_ESt4lessIS1_ESaIS3_EE11_M_put_nodeEPSt13_Rb_tree_nodeIS3_E, symObjAddr: 0x1004, symBinAddr: 0x100001868, symSize: 0x84 }
  - { offsetInCU: 0x39F43, offset: 0x39F43, size: 0x8, addend: 0x0, symName: __ZNSt17_Rb_tree_iteratorISt4pairIKS0_IxxExEEC1EPSt18_Rb_tree_node_base, symObjAddr: 0xF94, symBinAddr: 0x1000017F8, symSize: 0x24 }
  - { offsetInCU: 0x39F4B, offset: 0x39F4B, size: 0x8, addend: 0x0, symName: __ZNSt8_Rb_treeISt4pairIxxES0_IKS1_xESt10_Select1stIS3_ESt4lessIS1_ESaIS3_EE15_M_destroy_nodeEPSt13_Rb_tree_nodeIS3_E, symObjAddr: 0xFB8, symBinAddr: 0x10000181C, symSize: 0x4C }
  - { offsetInCU: 0x39F39, offset: 0x39F39, size: 0x8, addend: 0x0, symName: __ZNSt8_Rb_treeISt4pairIxxES0_IKS1_xESt10_Select1stIS3_ESt4lessIS1_ESaIS3_EE10_Auto_node9_M_insertES0_IPSt18_Rb_tree_node_baseSC_E, symObjAddr: 0xF48, symBinAddr: 0x1000017AC, symSize: 0x4C }
  - { offsetInCU: 0x39F41, offset: 0x39F41, size: 0x8, addend: 0x0, symName: __ZNSt17_Rb_tree_iteratorISt4pairIKS0_IxxExEEC1EPSt18_Rb_tree_node_base, symObjAddr: 0xF94, symBinAddr: 0x1000017F8, symSize: 0x24 }
  - { offsetInCU: 0x3A016, offset: 0x3A016, size: 0x8, addend: 0x0, symName: __ZNSt4pairIPSt18_Rb_tree_node_baseS1_EC1IS1_S1_EERS_IT_T0_E, symObjAddr: 0xF10, symBinAddr: 0x100001774, symSize: 0x38 }
  - { offsetInCU: 0x3A01E, offset: 0x3A01E, size: 0x8, addend: 0x0, symName: __ZNSt8_Rb_treeISt4pairIxxES0_IKS1_xESt10_Select1stIS3_ESt4lessIS1_ESaIS3_EE10_Auto_node9_M_insertES0_IPSt18_Rb_tree_node_baseSC_E, symObjAddr: 0xF48, symBinAddr: 0x1000017AC, symSize: 0x4C }
  - { offsetInCU: 0x3A031, offset: 0x3A031, size: 0x8, addend: 0x0, symName: __ZNKSt8_Rb_treeISt4pairIxxES0_IKS1_xESt10_Select1stIS3_ESt4lessIS1_ESaIS3_EE10_Auto_node6_M_keyEv, symObjAddr: 0xEF0, symBinAddr: 0x100001754, symSize: 0x20 }
  - { offsetInCU: 0x3A039, offset: 0x3A039, size: 0x8, addend: 0x0, symName: __ZNSt4pairIPSt18_Rb_tree_node_baseS1_EC1IS1_S1_EERS_IT_T0_E, symObjAddr: 0xF10, symBinAddr: 0x100001774, symSize: 0x38 }
  - { offsetInCU: 0x3A062, offset: 0x3A062, size: 0x8, addend: 0x0, symName: __ZNSt8_Rb_treeISt4pairIxxES0_IKS1_xESt10_Select1stIS3_ESt4lessIS1_ESaIS3_EE29_M_get_insert_hint_unique_posESt23_Rb_tree_const_iteratorIS3_ERS2_, symObjAddr: 0xBB8, symBinAddr: 0x10000141C, symSize: 0x338 }
  - { offsetInCU: 0x3A06A, offset: 0x3A06A, size: 0x8, addend: 0x0, symName: __ZNKSt8_Rb_treeISt4pairIxxES0_IKS1_xESt10_Select1stIS3_ESt4lessIS1_ESaIS3_EE10_Auto_node6_M_keyEv, symObjAddr: 0xEF0, symBinAddr: 0x100001754, symSize: 0x20 }
  - { offsetInCU: 0x3A1AB, offset: 0x3A1AB, size: 0x8, addend: 0x0, symName: __ZNSt8_Rb_treeISt4pairIxxES0_IKS1_xESt10_Select1stIS3_ESt4lessIS1_ESaIS3_EE10_Auto_nodeD1Ev, symObjAddr: 0xB74, symBinAddr: 0x1000013D8, symSize: 0x44 }
  - { offsetInCU: 0x3A1B3, offset: 0x3A1B3, size: 0x8, addend: 0x0, symName: __ZNSt8_Rb_treeISt4pairIxxES0_IKS1_xESt10_Select1stIS3_ESt4lessIS1_ESaIS3_EE29_M_get_insert_hint_unique_posESt23_Rb_tree_const_iteratorIS3_ERS2_, symObjAddr: 0xBB8, symBinAddr: 0x10000141C, symSize: 0x338 }
  - { offsetInCU: 0x3A289, offset: 0x3A289, size: 0x8, addend: 0x0, symName: __ZNSt8_Rb_treeISt4pairIxxES0_IKS1_xESt10_Select1stIS3_ESt4lessIS1_ESaIS3_EE10_Auto_nodeC1IJRKSt21piecewise_construct_tSt5tupleIJOS1_EESF_IJEEEEERS9_DpOT_, symObjAddr: 0xAF8, symBinAddr: 0x10000135C, symSize: 0x7C }
  - { offsetInCU: 0x3A291, offset: 0x3A291, size: 0x8, addend: 0x0, symName: __ZNSt8_Rb_treeISt4pairIxxES0_IKS1_xESt10_Select1stIS3_ESt4lessIS1_ESaIS3_EE10_Auto_nodeD1Ev, symObjAddr: 0xB74, symBinAddr: 0x1000013D8, symSize: 0x44 }
  - { offsetInCU: 0x3A2D5, offset: 0x3A2D5, size: 0x8, addend: 0x0, symName: __ZSt7forwardISt5tupleIJEEEOT_RNSt16remove_referenceIS2_E4typeE, symObjAddr: 0xAE4, symBinAddr: 0x100001348, symSize: 0x14 }
  - { offsetInCU: 0x3A2DD, offset: 0x3A2DD, size: 0x8, addend: 0x0, symName: __ZNSt8_Rb_treeISt4pairIxxES0_IKS1_xESt10_Select1stIS3_ESt4lessIS1_ESaIS3_EE10_Auto_nodeC1IJRKSt21piecewise_construct_tSt5tupleIJOS1_EESF_IJEEEEERS9_DpOT_, symObjAddr: 0xAF8, symBinAddr: 0x10000135C, symSize: 0x7C }
  - { offsetInCU: 0x3A360, offset: 0x3A360, size: 0x8, addend: 0x0, symName: __ZSt7forwardISt5tupleIJOSt4pairIxxEEEEOT_RNSt16remove_referenceIS5_E4typeE, symObjAddr: 0xAD0, symBinAddr: 0x100001334, symSize: 0x14 }
  - { offsetInCU: 0x3A368, offset: 0x3A368, size: 0x8, addend: 0x0, symName: __ZSt7forwardISt5tupleIJEEEOT_RNSt16remove_referenceIS2_E4typeE, symObjAddr: 0xAE4, symBinAddr: 0x100001348, symSize: 0x14 }
  - { offsetInCU: 0x3A3A4, offset: 0x3A3A4, size: 0x8, addend: 0x0, symName: __ZSt7forwardIRKSt21piecewise_construct_tEOT_RNSt16remove_referenceIS3_E4typeE, symObjAddr: 0xABC, symBinAddr: 0x100001320, symSize: 0x14 }
  - { offsetInCU: 0x3A3AC, offset: 0x3A3AC, size: 0x8, addend: 0x0, symName: __ZSt7forwardISt5tupleIJOSt4pairIxxEEEEOT_RNSt16remove_referenceIS5_E4typeE, symObjAddr: 0xAD0, symBinAddr: 0x100001334, symSize: 0x14 }
  - { offsetInCU: 0x3A3F9, offset: 0x3A3F9, size: 0x8, addend: 0x0, symName: __ZNSt5tupleIJOSt4pairIxxEEEC1IJS1_ELb1ELb1EEEDpOT_, symObjAddr: 0xA80, symBinAddr: 0x1000012E4, symSize: 0x3C }
  - { offsetInCU: 0x3A401, offset: 0x3A401, size: 0x8, addend: 0x0, symName: __ZSt7forwardIRKSt21piecewise_construct_tEOT_RNSt16remove_referenceIS3_E4typeE, symObjAddr: 0xABC, symBinAddr: 0x100001320, symSize: 0x14 }
  - { offsetInCU: 0x3A49C, offset: 0x3A49C, size: 0x8, addend: 0x0, symName: __ZSt7forwardISt4pairIxxEEOT_RNSt16remove_referenceIS2_E4typeE, symObjAddr: 0xA6C, symBinAddr: 0x1000012D0, symSize: 0x14 }
  - { offsetInCU: 0x3A4A4, offset: 0x3A4A4, size: 0x8, addend: 0x0, symName: __ZNSt5tupleIJOSt4pairIxxEEEC1IJS1_ELb1ELb1EEEDpOT_, symObjAddr: 0xA80, symBinAddr: 0x1000012E4, symSize: 0x3C }
  - { offsetInCU: 0x3A588, offset: 0x3A588, size: 0x8, addend: 0x0, symName: __ZStssIxxENSt26common_comparison_categoryIJDTclL_ZNSt8__detail11__synth3wayEEcl7declvalIRT_EEcl7declvalIS3_EEEEDTclL_ZNS1_11__synth3wayEEcl7declvalIRT0_EEcl7declvalIS6_EEEEEE4typeERKSt4pairIS2_S5_ESD_, symObjAddr: 0x9D8, symBinAddr: 0x10000123C, symSize: 0x94 }
  - { offsetInCU: 0x3A590, offset: 0x3A590, size: 0x8, addend: 0x0, symName: __ZSt7forwardISt4pairIxxEEOT_RNSt16remove_referenceIS2_E4typeE, symObjAddr: 0xA6C, symBinAddr: 0x1000012D0, symSize: 0x14 }
  - { offsetInCU: 0x3A526, offset: 0x3A526, size: 0x8, addend: 0x0, symName: __ZNSt13_Rb_tree_nodeISt4pairIKS0_IxxExEE9_M_valptrEv, symObjAddr: 0x9B8, symBinAddr: 0x10000121C, symSize: 0x20 }
  - { offsetInCU: 0x3A52E, offset: 0x3A52E, size: 0x8, addend: 0x0, symName: __ZStssIxxENSt26common_comparison_categoryIJDTclL_ZNSt8__detail11__synth3wayEEcl7declvalIRT_EEcl7declvalIS3_EEEEDTclL_ZNS1_11__synth3wayEEcl7declvalIRT0_EEcl7declvalIS6_EEEEEE4typeERKSt4pairIS2_S5_ESD_, symObjAddr: 0x9D8, symBinAddr: 0x10000123C, symSize: 0x94 }
  - { offsetInCU: 0x3A557, offset: 0x3A557, size: 0x8, addend: 0x0, symName: __ZNKSt8_Rb_treeISt4pairIxxES0_IKS1_xESt10_Select1stIS3_ESt4lessIS1_ESaIS3_EE8key_compEv, symObjAddr: 0x9A0, symBinAddr: 0x100001204, symSize: 0x18 }
  - { offsetInCU: 0x3A55F, offset: 0x3A55F, size: 0x8, addend: 0x0, symName: __ZNSt13_Rb_tree_nodeISt4pairIKS0_IxxExEE9_M_valptrEv, symObjAddr: 0x9B8, symBinAddr: 0x10000121C, symSize: 0x20 }
  - { offsetInCU: 0x3A588, offset: 0x3A588, size: 0x8, addend: 0x0, symName: __ZNSt8_Rb_treeISt4pairIxxES0_IKS1_xESt10_Select1stIS3_ESt4lessIS1_ESaIS3_EE3endEv, symObjAddr: 0x978, symBinAddr: 0x1000011DC, symSize: 0x28 }
  - { offsetInCU: 0x3A590, offset: 0x3A590, size: 0x8, addend: 0x0, symName: __ZNKSt8_Rb_treeISt4pairIxxES0_IKS1_xESt10_Select1stIS3_ESt4lessIS1_ESaIS3_EE8key_compEv, symObjAddr: 0x9A0, symBinAddr: 0x100001204, symSize: 0x18 }
  - { offsetInCU: 0x3A5B9, offset: 0x3A5B9, size: 0x8, addend: 0x0, symName: __ZNSt8_Rb_treeISt4pairIxxES0_IKS1_xESt10_Select1stIS3_ESt4lessIS1_ESaIS3_EE11lower_boundERS2_, symObjAddr: 0x930, symBinAddr: 0x100001194, symSize: 0x48 }
  - { offsetInCU: 0x3A5C1, offset: 0x3A5C1, size: 0x8, addend: 0x0, symName: __ZNSt8_Rb_treeISt4pairIxxES0_IKS1_xESt10_Select1stIS3_ESt4lessIS1_ESaIS3_EE3endEv, symObjAddr: 0x978, symBinAddr: 0x1000011DC, symSize: 0x28 }
  - { offsetInCU: 0x3A5FF, offset: 0x3A5FF, size: 0x8, addend: 0x0, symName: __ZNKSt8_Rb_treeISt4pairIxxES0_IKS1_xESt10_Select1stIS3_ESt4lessIS1_ESaIS3_EE9_M_mbeginEv, symObjAddr: 0x918, symBinAddr: 0x10000117C, symSize: 0x18 }
  - { offsetInCU: 0x3A607, offset: 0x3A607, size: 0x8, addend: 0x0, symName: __ZNSt8_Rb_treeISt4pairIxxES0_IKS1_xESt10_Select1stIS3_ESt4lessIS1_ESaIS3_EE11lower_boundERS2_, symObjAddr: 0x930, symBinAddr: 0x100001194, symSize: 0x48 }
  - { offsetInCU: 0x3A630, offset: 0x3A630, size: 0x8, addend: 0x0, symName: __ZNSt8_Rb_treeISt4pairIxxES0_IKS1_xESt10_Select1stIS3_ESt4lessIS1_ESaIS3_EE12_M_drop_nodeEPSt13_Rb_tree_nodeIS3_E, symObjAddr: 0x8E4, symBinAddr: 0x100001148, symSize: 0x34 }
  - { offsetInCU: 0x3A638, offset: 0x3A638, size: 0x8, addend: 0x0, symName: __ZNKSt8_Rb_treeISt4pairIxxES0_IKS1_xESt10_Select1stIS3_ESt4lessIS1_ESaIS3_EE9_M_mbeginEv, symObjAddr: 0x918, symBinAddr: 0x10000117C, symSize: 0x18 }
  - { offsetInCU: 0x3A676, offset: 0x3A676, size: 0x8, addend: 0x0, symName: __ZNSt8_Rb_treeISt4pairIxxES0_IKS1_xESt10_Select1stIS3_ESt4lessIS1_ESaIS3_EE7_S_leftEPSt18_Rb_tree_node_base, symObjAddr: 0x8CC, symBinAddr: 0x100001130, symSize: 0x18 }
  - { offsetInCU: 0x3A67E, offset: 0x3A67E, size: 0x8, addend: 0x0, symName: __ZNSt8_Rb_treeISt4pairIxxES0_IKS1_xESt10_Select1stIS3_ESt4lessIS1_ESaIS3_EE12_M_drop_nodeEPSt13_Rb_tree_nodeIS3_E, symObjAddr: 0x8E4, symBinAddr: 0x100001148, symSize: 0x34 }
  - { offsetInCU: 0x3A6AA, offset: 0x3A6AA, size: 0x8, addend: 0x0, symName: __ZNSt8_Rb_treeISt4pairIxxES0_IKS1_xESt10_Select1stIS3_ESt4lessIS1_ESaIS3_EE8_S_rightEPSt18_Rb_tree_node_base, symObjAddr: 0x8B4, symBinAddr: 0x100001118, symSize: 0x18 }
  - { offsetInCU: 0x3A6B2, offset: 0x3A6B2, size: 0x8, addend: 0x0, symName: __ZNSt8_Rb_treeISt4pairIxxES0_IKS1_xESt10_Select1stIS3_ESt4lessIS1_ESaIS3_EE7_S_leftEPSt18_Rb_tree_node_base, symObjAddr: 0x8CC, symBinAddr: 0x100001130, symSize: 0x18 }
  - { offsetInCU: 0x3A6F9, offset: 0x3A6F9, size: 0x8, addend: 0x0, symName: __ZNSt8_Rb_treeISt4pairIxxES0_IKS1_xESt10_Select1stIS3_ESt4lessIS1_ESaIS3_EE22_M_emplace_hint_uniqueIJRKSt21piecewise_construct_tSt5tupleIJOS1_EESE_IJEEEEESt17_Rb_tree_iteratorIS3_ESt23_Rb_tree_const_iteratorIS3_EDpOT_, symObjAddr: 0x7D0, symBinAddr: 0x100001034, symSize: 0xE4 }
  - { offsetInCU: 0x3A701, offset: 0x3A701, size: 0x8, addend: 0x0, symName: __ZNSt8_Rb_treeISt4pairIxxES0_IKS1_xESt10_Select1stIS3_ESt4lessIS1_ESaIS3_EE8_S_rightEPSt18_Rb_tree_node_base, symObjAddr: 0x8B4, symBinAddr: 0x100001118, symSize: 0x18 }
  - { offsetInCU: 0x3A83A, offset: 0x3A83A, size: 0x8, addend: 0x0, symName: __ZNSt23_Rb_tree_const_iteratorISt4pairIKS0_IxxExEEC1ERKSt17_Rb_tree_iteratorIS3_E, symObjAddr: 0x7A8, symBinAddr: 0x10000100C, symSize: 0x28 }
  - { offsetInCU: 0x3A842, offset: 0x3A842, size: 0x8, addend: 0x0, symName: __ZNSt8_Rb_treeISt4pairIxxES0_IKS1_xESt10_Select1stIS3_ESt4lessIS1_ESaIS3_EE22_M_emplace_hint_uniqueIJRKSt21piecewise_construct_tSt5tupleIJOS1_EESE_IJEEEEESt17_Rb_tree_iteratorIS3_ESt23_Rb_tree_const_iteratorIS3_EDpOT_, symObjAddr: 0x7D0, symBinAddr: 0x100001034, symSize: 0xE4 }
  - { offsetInCU: 0x3A8A0, offset: 0x3A8A0, size: 0x8, addend: 0x0, symName: __ZSt16forward_as_tupleIJSt4pairIxxEEESt5tupleIJDpOT_EES5_, symObjAddr: 0x770, symBinAddr: 0x100000FD4, symSize: 0x38 }
  - { offsetInCU: 0x3A8A8, offset: 0x3A8A8, size: 0x8, addend: 0x0, symName: __ZNSt23_Rb_tree_const_iteratorISt4pairIKS0_IxxExEEC1ERKSt17_Rb_tree_iteratorIS3_E, symObjAddr: 0x7A8, symBinAddr: 0x10000100C, symSize: 0x28 }
  - { offsetInCU: 0x3A8E3, offset: 0x3A8E3, size: 0x8, addend: 0x0, symName: __ZSt4moveIRSt4pairIxxEEONSt16remove_referenceIT_E4typeEOS4_, symObjAddr: 0x75C, symBinAddr: 0x100000FC0, symSize: 0x14 }
  - { offsetInCU: 0x3A8EB, offset: 0x3A8EB, size: 0x8, addend: 0x0, symName: __ZSt16forward_as_tupleIJSt4pairIxxEEESt5tupleIJDpOT_EES5_, symObjAddr: 0x770, symBinAddr: 0x100000FD4, symSize: 0x38 }
  - { offsetInCU: 0x3A8CA, offset: 0x3A8CA, size: 0x8, addend: 0x0, symName: __ZNKSt4lessISt4pairIxxEEclERKS1_S4_, symObjAddr: 0x70C, symBinAddr: 0x100000F70, symSize: 0x50 }
  - { offsetInCU: 0x3A8D2, offset: 0x3A8D2, size: 0x8, addend: 0x0, symName: __ZSt4moveIRSt4pairIxxEEONSt16remove_referenceIT_E4typeEOS4_, symObjAddr: 0x75C, symBinAddr: 0x100000FC0, symSize: 0x14 }
  - { offsetInCU: 0x3A938, offset: 0x3A938, size: 0x8, addend: 0x0, symName: __ZNKSt8__detail10_Synth3wayclIxxEEDaRKT_RKT0_, symObjAddr: 0x6B0, symBinAddr: 0x100000F14, symSize: 0x5C }
  - { offsetInCU: 0x3A940, offset: 0x3A940, size: 0x8, addend: 0x0, symName: __ZNKSt4lessISt4pairIxxEEclERKS1_S4_, symObjAddr: 0x70C, symBinAddr: 0x100000F70, symSize: 0x50 }
  - { offsetInCU: 0x3A9AD, offset: 0x3A9AD, size: 0x8, addend: 0x0, symName: __ZNKSt17_Rb_tree_iteratorISt4pairIKS0_IxxExEEdeEv, symObjAddr: 0x690, symBinAddr: 0x100000EF4, symSize: 0x20 }
  - { offsetInCU: 0x3A9B5, offset: 0x3A9B5, size: 0x8, addend: 0x0, symName: __ZNKSt8__detail10_Synth3wayclIxxEEDaRKT_RKT0_, symObjAddr: 0x6B0, symBinAddr: 0x100000F14, symSize: 0x5C }
  - { offsetInCU: 0x3A9DE, offset: 0x3A9DE, size: 0x8, addend: 0x0, symName: __ZNKSt3mapISt4pairIxxExSt4lessIS1_ESaIS0_IKS1_xEEE8key_compEv, symObjAddr: 0x664, symBinAddr: 0x100000EC8, symSize: 0x2C }
  - { offsetInCU: 0x3A9E6, offset: 0x3A9E6, size: 0x8, addend: 0x0, symName: __ZNKSt17_Rb_tree_iteratorISt4pairIKS0_IxxExEEdeEv, symObjAddr: 0x690, symBinAddr: 0x100000EF4, symSize: 0x20 }
  - { offsetInCU: 0x3AA4E, offset: 0x3AA4E, size: 0x8, addend: 0x0, symName: __ZSteqRKSt17_Rb_tree_iteratorISt4pairIKS0_IxxExEES6_, symObjAddr: 0x634, symBinAddr: 0x100000E98, symSize: 0x30 }
  - { offsetInCU: 0x3AA56, offset: 0x3AA56, size: 0x8, addend: 0x0, symName: __ZNKSt3mapISt4pairIxxExSt4lessIS1_ESaIS0_IKS1_xEEE8key_compEv, symObjAddr: 0x664, symBinAddr: 0x100000EC8, symSize: 0x2C }
  - { offsetInCU: 0x3AA6F, offset: 0x3AA6F, size: 0x8, addend: 0x0, symName: __ZNSt3mapISt4pairIxxExSt4lessIS1_ESaIS0_IKS1_xEEE3endEv, symObjAddr: 0x618, symBinAddr: 0x100000E7C, symSize: 0x1C }
  - { offsetInCU: 0x3AA77, offset: 0x3AA77, size: 0x8, addend: 0x0, symName: __ZSteqRKSt17_Rb_tree_iteratorISt4pairIKS0_IxxExEES6_, symObjAddr: 0x634, symBinAddr: 0x100000E98, symSize: 0x30 }
  - { offsetInCU: 0x3AAA0, offset: 0x3AAA0, size: 0x8, addend: 0x0, symName: __ZNSt3mapISt4pairIxxExSt4lessIS1_ESaIS0_IKS1_xEEE11lower_boundERS4_, symObjAddr: 0x5F4, symBinAddr: 0x100000E58, symSize: 0x24 }
  - { offsetInCU: 0x3AAA8, offset: 0x3AAA8, size: 0x8, addend: 0x0, symName: __ZNSt3mapISt4pairIxxExSt4lessIS1_ESaIS0_IKS1_xEEE3endEv, symObjAddr: 0x618, symBinAddr: 0x100000E7C, symSize: 0x1C }
  - { offsetInCU: 0x3AB35, offset: 0x3AB35, size: 0x8, addend: 0x0, symName: __ZSt7forwardIxEOT_RNSt16remove_referenceIS0_E4typeE, symObjAddr: 0x5E0, symBinAddr: 0x100000E44, symSize: 0x14 }
  - { offsetInCU: 0x3AB3D, offset: 0x3AB3D, size: 0x8, addend: 0x0, symName: __ZNSt3mapISt4pairIxxExSt4lessIS1_ESaIS0_IKS1_xEEE11lower_boundERS4_, symObjAddr: 0x5F4, symBinAddr: 0x100000E58, symSize: 0x24 }
  - { offsetInCU: 0x3AB46, offset: 0x3AB46, size: 0x8, addend: 0x0, symName: __ZNSt8_Rb_treeISt4pairIxxES0_IKS1_xESt10_Select1stIS3_ESt4lessIS1_ESaIS3_EE8_M_beginEv, symObjAddr: 0x5C4, symBinAddr: 0x100000E28, symSize: 0x1C }
  - { offsetInCU: 0x3AB4E, offset: 0x3AB4E, size: 0x8, addend: 0x0, symName: __ZSt7forwardIxEOT_RNSt16remove_referenceIS0_E4typeE, symObjAddr: 0x5E0, symBinAddr: 0x100000E44, symSize: 0x14 }
  - { offsetInCU: 0x3AB77, offset: 0x3AB77, size: 0x8, addend: 0x0, symName: __ZNSt8_Rb_treeISt4pairIxxES0_IKS1_xESt10_Select1stIS3_ESt4lessIS1_ESaIS3_EE8_M_eraseEPSt13_Rb_tree_nodeIS3_E, symObjAddr: 0x560, symBinAddr: 0x100000DC4, symSize: 0x64 }
  - { offsetInCU: 0x3AB7F, offset: 0x3AB7F, size: 0x8, addend: 0x0, symName: __ZNSt8_Rb_treeISt4pairIxxES0_IKS1_xESt10_Select1stIS3_ESt4lessIS1_ESaIS3_EE8_M_beginEv, symObjAddr: 0x5C4, symBinAddr: 0x100000E28, symSize: 0x1C }
  - { offsetInCU: 0x3AC35, offset: 0x3AC35, size: 0x8, addend: 0x0, symName: __ZNSt20_Rb_tree_key_compareISt4lessISt4pairIxxEEEC2Ev, symObjAddr: 0x54C, symBinAddr: 0x100000DB0, symSize: 0x14 }
  - { offsetInCU: 0x3AC3D, offset: 0x3AC3D, size: 0x8, addend: 0x0, symName: __ZNSt8_Rb_treeISt4pairIxxES0_IKS1_xESt10_Select1stIS3_ESt4lessIS1_ESaIS3_EE8_M_eraseEPSt13_Rb_tree_nodeIS3_E, symObjAddr: 0x560, symBinAddr: 0x100000DC4, symSize: 0x64 }
  - { offsetInCU: 0x3AC4A, offset: 0x3AC4A, size: 0x8, addend: 0x0, symName: __ZNSt3mapISt4pairIxxExSt4lessIS1_ESaIS0_IKS1_xEEEixEOS1_, symObjAddr: 0x448, symBinAddr: 0x100000CAC, symSize: 0x104 }
  - { offsetInCU: 0x3AC52, offset: 0x3AC52, size: 0x8, addend: 0x0, symName: __ZNSt20_Rb_tree_key_compareISt4lessISt4pairIxxEEEC2Ev, symObjAddr: 0x54C, symBinAddr: 0x100000DB0, symSize: 0x14 }
  - { offsetInCU: 0x3AD1A, offset: 0x3AD1A, size: 0x8, addend: 0x0, symName: __ZNSt4pairIxxEC1IxxEEOT_OT0_, symObjAddr: 0x400, symBinAddr: 0x100000C64, symSize: 0x48 }
  - { offsetInCU: 0x3AD22, offset: 0x3AD22, size: 0x8, addend: 0x0, symName: __ZNSt3mapISt4pairIxxExSt4lessIS1_ESaIS0_IKS1_xEEEixEOS1_, symObjAddr: 0x448, symBinAddr: 0x100000CAC, symSize: 0x104 }
  - { offsetInCU: 0x3ADDB, offset: 0x3ADDB, size: 0x8, addend: 0x0, symName: __ZNSt8_Rb_treeISt4pairIxxES0_IKS1_xESt10_Select1stIS3_ESt4lessIS1_ESaIS3_EED1Ev, symObjAddr: 0x3CC, symBinAddr: 0x100000C30, symSize: 0x34 }
  - { offsetInCU: 0x3ADE3, offset: 0x3ADE3, size: 0x8, addend: 0x0, symName: __ZNSt4pairIxxEC1IxxEEOT_OT0_, symObjAddr: 0x400, symBinAddr: 0x100000C64, symSize: 0x48 }
  - { offsetInCU: 0x3AE68, offset: 0x3AE68, size: 0x8, addend: 0x0, symName: __ZNSt8_Rb_treeISt4pairIxxES0_IKS1_xESt10_Select1stIS3_ESt4lessIS1_ESaIS3_EE13_Rb_tree_implIS7_Lb1EEC1Ev, symObjAddr: 0x388, symBinAddr: 0x100000BEC, symSize: 0x44 }
  - { offsetInCU: 0x3AE70, offset: 0x3AE70, size: 0x8, addend: 0x0, symName: __ZNSt8_Rb_treeISt4pairIxxES0_IKS1_xESt10_Select1stIS3_ESt4lessIS1_ESaIS3_EED1Ev, symObjAddr: 0x3CC, symBinAddr: 0x100000C30, symSize: 0x34 }
  - { offsetInCU: 0x3AE8A, offset: 0x3AE8A, size: 0x8, addend: 0x0, symName: _main, symObjAddr: 0x318, symBinAddr: 0x100000B7C, symSize: 0x70 }
  - { offsetInCU: 0x3AE92, offset: 0x3AE92, size: 0x8, addend: 0x0, symName: __ZNSt8_Rb_treeISt4pairIxxES0_IKS1_xESt10_Select1stIS3_ESt4lessIS1_ESaIS3_EE13_Rb_tree_implIS7_Lb1EEC1Ev, symObjAddr: 0x388, symBinAddr: 0x100000BEC, symSize: 0x44 }
  - { offsetInCU: 0x3AECB, offset: 0x3AECB, size: 0x8, addend: 0x0, symName: __Z5solvev, symObjAddr: 0x17C, symBinAddr: 0x1000009E0, symSize: 0x19C }
  - { offsetInCU: 0x3AED3, offset: 0x3AED3, size: 0x8, addend: 0x0, symName: _main, symObjAddr: 0x318, symBinAddr: 0x100000B7C, symSize: 0x70 }
  - { offsetInCU: 0x3AFED, offset: 0x3AFED, size: 0x8, addend: 0x0, symName: __ZNSt3mapISt4pairIxxExSt4lessIS1_ESaIS0_IKS1_xEEED1Ev, symObjAddr: 0x15C, symBinAddr: 0x1000009C0, symSize: 0x20 }
  - { offsetInCU: 0x3AFF5, offset: 0x3AFF5, size: 0x8, addend: 0x0, symName: __Z5solvev, symObjAddr: 0x17C, symBinAddr: 0x1000009E0, symSize: 0x19C }
  - { offsetInCU: 0x3B038, offset: 0x3B038, size: 0x8, addend: 0x0, symName: __ZNSt3mapISt4pairIxxExSt4lessIS1_ESaIS0_IKS1_xEEEC1Ev, symObjAddr: 0x13C, symBinAddr: 0x1000009A0, symSize: 0x20 }
  - { offsetInCU: 0x3B040, offset: 0x3B040, size: 0x8, addend: 0x0, symName: __ZNSt3mapISt4pairIxxExSt4lessIS1_ESaIS0_IKS1_xEEED1Ev, symObjAddr: 0x15C, symBinAddr: 0x1000009C0, symSize: 0x20 }
  - { offsetInCU: 0x3B09D, offset: 0x3B09D, size: 0x8, addend: 0x0, symName: __ZNSt8_Rb_treeISt4pairIxxES0_IKS1_xESt10_Select1stIS3_ESt4lessIS1_ESaIS3_EEC1Ev, symObjAddr: 0x11C, symBinAddr: 0x100000980, symSize: 0x20 }
  - { offsetInCU: 0x3B0A5, offset: 0x3B0A5, size: 0x8, addend: 0x0, symName: __ZNSt3mapISt4pairIxxExSt4lessIS1_ESaIS0_IKS1_xEEEC1Ev, symObjAddr: 0x13C, symBinAddr: 0x1000009A0, symSize: 0x20 }
  - { offsetInCU: 0x3B113, offset: 0x3B113, size: 0x8, addend: 0x0, symName: __ZNSt8_Rb_treeISt4pairIxxES0_IKS1_xESt10_Select1stIS3_ESt4lessIS1_ESaIS3_EE13_Rb_tree_implIS7_Lb1EED1Ev, symObjAddr: 0xFC, symBinAddr: 0x100000960, symSize: 0x20 }
  - { offsetInCU: 0x3B11B, offset: 0x3B11B, size: 0x8, addend: 0x0, symName: __ZNSt8_Rb_treeISt4pairIxxES0_IKS1_xESt10_Select1stIS3_ESt4lessIS1_ESaIS3_EEC1Ev, symObjAddr: 0x11C, symBinAddr: 0x100000980, symSize: 0x20 }
  - { offsetInCU: 0x3B103, offset: 0x3B103, size: 0x8, addend: 0x0, symName: __ZNSt15_Rb_tree_header8_M_resetEv, symObjAddr: 0xC0, symBinAddr: 0x100000924, symSize: 0x3C }
  - { offsetInCU: 0x3B10B, offset: 0x3B10B, size: 0x8, addend: 0x0, symName: __ZNSt8_Rb_treeISt4pairIxxES0_IKS1_xESt10_Select1stIS3_ESt4lessIS1_ESaIS3_EE13_Rb_tree_implIS7_Lb1EED1Ev, symObjAddr: 0xFC, symBinAddr: 0x100000960, symSize: 0x20 }
  - { offsetInCU: 0x3B16A, offset: 0x3B16A, size: 0x8, addend: 0x0, symName: __ZNSt15_Rb_tree_headerC2Ev, symObjAddr: 0x98, symBinAddr: 0x1000008FC, symSize: 0x28 }
  - { offsetInCU: 0x3B172, offset: 0x3B172, size: 0x8, addend: 0x0, symName: __ZNSt15_Rb_tree_header8_M_resetEv, symObjAddr: 0xC0, symBinAddr: 0x100000924, symSize: 0x3C }
  - { offsetInCU: 0x3B18D, offset: 0x3B18D, size: 0x8, addend: 0x0, symName: __ZdlPvS_, symObjAddr: 0x80, symBinAddr: 0x1000008E4, symSize: 0x18 }
  - { offsetInCU: 0x3B195, offset: 0x3B195, size: 0x8, addend: 0x0, symName: __ZNSt15_Rb_tree_headerC2Ev, symObjAddr: 0x98, symBinAddr: 0x1000008FC, symSize: 0x28 }
  - { offsetInCU: 0x3B1CD, offset: 0x3B1CD, size: 0x8, addend: 0x0, symName: __ZnwmPv, symObjAddr: 0x68, symBinAddr: 0x1000008CC, symSize: 0x18 }
  - { offsetInCU: 0x3B1D5, offset: 0x3B1D5, size: 0x8, addend: 0x0, symName: __ZdlPvS_, symObjAddr: 0x80, symBinAddr: 0x1000008E4, symSize: 0x18 }
  - { offsetInCU: 0x3B249, offset: 0x3B249, size: 0x8, addend: 0x0, symName: __ZStltSt15strong_orderingNSt9__cmp_cat8__unspecE, symObjAddr: 0x44, symBinAddr: 0x1000008A8, symSize: 0x24 }
  - { offsetInCU: 0x3B251, offset: 0x3B251, size: 0x8, addend: 0x0, symName: __ZnwmPv, symObjAddr: 0x68, symBinAddr: 0x1000008CC, symSize: 0x18 }
  - { offsetInCU: 0x3B291, offset: 0x3B291, size: 0x8, addend: 0x0, symName: __ZSteqSt15strong_orderingNSt9__cmp_cat8__unspecE, symObjAddr: 0x20, symBinAddr: 0x100000884, symSize: 0x24 }
  - { offsetInCU: 0x3B299, offset: 0x3B299, size: 0x8, addend: 0x0, symName: __ZStltSt15strong_orderingNSt9__cmp_cat8__unspecE, symObjAddr: 0x44, symBinAddr: 0x1000008A8, symSize: 0x24 }
  - { offsetInCU: 0x3B2E8, offset: 0x3B2E8, size: 0x8, addend: 0x0, symName: __ZNSt9__cmp_cat8__unspecC1EPS0_, symObjAddr: 0x8, symBinAddr: 0x10000086C, symSize: 0x18 }
  - { offsetInCU: 0x3B2F0, offset: 0x3B2F0, size: 0x8, addend: 0x0, symName: __ZSteqSt15strong_orderingNSt9__cmp_cat8__unspecE, symObjAddr: 0x20, symBinAddr: 0x100000884, symSize: 0x24 }
  - { offsetInCU: 0x3B342, offset: 0x3B342, size: 0x8, addend: 0x0, symName: __ZSt23__is_constant_evaluatedv, symObjAddr: 0x0, symBinAddr: 0x100000864, symSize: 0x8 }
  - { offsetInCU: 0x3B34A, offset: 0x3B34A, size: 0x8, addend: 0x0, symName: __ZNSt9__cmp_cat8__unspecC1EPS0_, symObjAddr: 0x8, symBinAddr: 0x10000086C, symSize: 0x18 }
...
