---
triple:          'arm64-apple-darwin'
binary-path:     '/Users/rohakdebnath/Desktop/Cpp /CodeChef/B8'
relocations:
  - { offsetInCU: 0x54, offset: 0x54, size: 0x8, addend: 0x0, symName: __ZNSt3__1L19piecewise_constructE, symObjAddr: 0x434F, symBinAddr: 0x100007C57, symSize: 0x0 }
  - { offsetInCU: 0x7061, offset: 0x7061, size: 0x8, addend: 0x0, symName: __ZNSt3__124__put_character_sequenceB7v160006IcNS_11char_traitsIcEEEERNS_13basic_ostreamIT_T0_EES7_PKS4_m, symObjAddr: 0x36CC, symBinAddr: 0x100006DE8, symSize: 0x1EC }
  - { offsetInCU: 0x8EAA, offset: 0x8EAA, size: 0x8, addend: 0x0, symName: __ZNSt3__1neB7v160006ERKNS_14__map_iteratorINS_15__tree_iteratorINS_12__value_typeIiiEEPNS_11__tree_nodeIS3_PvEElEEEESB_, symObjAddr: 0x40C, symBinAddr: 0x100003B28, symSize: 0x30 }
  - { offsetInCU: 0x8EE7, offset: 0x8EE7, size: 0x8, addend: 0x0, symName: __ZNSt3__13getB7v160006ILm0EKiiEEONS_13tuple_elementIXT_ENS_4pairIT0_T1_EEE4typeEOS6_, symObjAddr: 0x498, symBinAddr: 0x100003BB4, symSize: 0x24 }
  - { offsetInCU: 0x8F31, offset: 0x8F31, size: 0x8, addend: 0x0, symName: __ZNSt3__13getB7v160006ILm1EKiiEEONS_13tuple_elementIXT_ENS_4pairIT0_T1_EEE4typeEOS6_, symObjAddr: 0x4BC, symBinAddr: 0x100003BD8, symSize: 0x24 }
  - { offsetInCU: 0x8F7B, offset: 0x8F7B, size: 0x8, addend: 0x0, symName: __ZNSt3__1lsB7v160006INS_11char_traitsIcEEEERNS_13basic_ostreamIcT_EES6_c, symObjAddr: 0x4E0, symBinAddr: 0x100003BFC, symSize: 0x34 }
  - { offsetInCU: 0x8FC1, offset: 0x8FC1, size: 0x8, addend: 0x0, symName: __ZNSt3__122__make_exception_guardB7v160006INS_6vectorIxNS_9allocatorIxEEE16__destroy_vectorEEENS_28__exception_guard_exceptionsIT_EES7_, symObjAddr: 0x764, symBinAddr: 0x100003E80, symSize: 0x40 }
  - { offsetInCU: 0x8FF6, offset: 0x8FF6, size: 0x8, addend: 0x0, symName: __ZNSt3__119__debug_db_insert_cB7v160006INS_6vectorIxNS_9allocatorIxEEEEEEvPT_, symObjAddr: 0x7D8, symBinAddr: 0x100003EF4, symSize: 0x10 }
  - { offsetInCU: 0x9027, offset: 0x9027, size: 0x8, addend: 0x0, symName: __ZNSt3__119__allocate_at_leastB7v160006INS_9allocatorIxEEEEDaRT_m, symObjAddr: 0xB60, symBinAddr: 0x10000427C, symSize: 0x3C }
  - { offsetInCU: 0x906A, offset: 0x906A, size: 0x8, addend: 0x0, symName: __ZNSt3__13minB7v160006ImEERKT_S3_S3_, symObjAddr: 0xC98, symBinAddr: 0x1000043B4, symSize: 0x2C }
  - { offsetInCU: 0x9297, offset: 0x9297, size: 0x8, addend: 0x0, symName: __ZNSt3__13minB7v160006ImNS_6__lessImmEEEERKT_S5_S5_T0_, symObjAddr: 0xD34, symBinAddr: 0x100004450, symSize: 0x54 }
  - { offsetInCU: 0x9518, offset: 0x9518, size: 0x8, addend: 0x0, symName: __ZNSt3__120__throw_length_errorB7v160006EPKc, symObjAddr: 0xE18, symBinAddr: 0x100004534, symSize: 0x64 }
  - { offsetInCU: 0x9540, offset: 0x9540, size: 0x8, addend: 0x0, symName: __ZNSt3__117allocate_at_leastB7v160006INS_9allocatorIxEEEENS_17allocation_resultINS_16allocator_traitsIT_E7pointerEEERS5_m, symObjAddr: 0xEFC, symBinAddr: 0x100004618, symSize: 0x3C }
  - { offsetInCU: 0x9583, offset: 0x9583, size: 0x8, addend: 0x0, symName: __ZNSt3__117__libcpp_allocateB7v160006Emm, symObjAddr: 0x1004, symBinAddr: 0x100004720, symSize: 0x60 }
  - { offsetInCU: 0x95DD, offset: 0x95DD, size: 0x8, addend: 0x0, symName: __ZNSt3__124__is_overaligned_for_newB7v160006Em, symObjAddr: 0x1064, symBinAddr: 0x100004780, symSize: 0x20 }
  - { offsetInCU: 0x960B, offset: 0x960B, size: 0x8, addend: 0x0, symName: __ZNSt3__121__libcpp_operator_newB7v160006IJmSt11align_val_tEEEPvDpT_, symObjAddr: 0x1084, symBinAddr: 0x1000047A0, symSize: 0x2C }
  - { offsetInCU: 0x9658, offset: 0x9658, size: 0x8, addend: 0x0, symName: __ZNSt3__121__libcpp_operator_newB7v160006IJmEEEPvDpT_, symObjAddr: 0x10B0, symBinAddr: 0x1000047CC, symSize: 0x24 }
  - { offsetInCU: 0x9691, offset: 0x9691, size: 0x8, addend: 0x0, symName: __ZNSt3__112__to_addressB7v160006IxEEPT_S2_, symObjAddr: 0x11CC, symBinAddr: 0x1000048E8, symSize: 0x14 }
  - { offsetInCU: 0x96EB, offset: 0x96EB, size: 0x8, addend: 0x0, symName: __ZNSt3__112construct_atB7v160006IxJEPxEEPT_S3_DpOT0_, symObjAddr: 0x1314, symBinAddr: 0x100004A30, symSize: 0x20 }
  - { offsetInCU: 0x9747, offset: 0x9747, size: 0x8, addend: 0x0, symName: __ZNSt3__118__debug_db_erase_cB7v160006INS_6vectorIxNS_9allocatorIxEEEEEEvPT_, symObjAddr: 0x14F8, symBinAddr: 0x100004C14, symSize: 0x10 }
  - { offsetInCU: 0x9778, offset: 0x9778, size: 0x8, addend: 0x0, symName: __ZNSt3__110destroy_atB7v160006IxLi0EEEvPT_, symObjAddr: 0x1640, symBinAddr: 0x100004D5C, symSize: 0x24 }
  - { offsetInCU: 0x97AF, offset: 0x97AF, size: 0x8, addend: 0x0, symName: __ZNSt3__112__destroy_atB7v160006IxLi0EEEvPT_, symObjAddr: 0x1664, symBinAddr: 0x100004D80, symSize: 0x10 }
  - { offsetInCU: 0x97E6, offset: 0x97E6, size: 0x8, addend: 0x0, symName: __ZNSt3__119__libcpp_deallocateB7v160006EPvmm, symObjAddr: 0x16B4, symBinAddr: 0x100004DD0, symSize: 0x60 }
  - { offsetInCU: 0x984B, offset: 0x984B, size: 0x8, addend: 0x0, symName: __ZNSt3__127__do_deallocate_handle_sizeB7v160006IJSt11align_val_tEEEvPvmDpT_, symObjAddr: 0x1714, symBinAddr: 0x100004E30, symSize: 0x30 }
  - { offsetInCU: 0x989E, offset: 0x989E, size: 0x8, addend: 0x0, symName: __ZNSt3__127__do_deallocate_handle_sizeB7v160006IJEEEvPvmDpT_, symObjAddr: 0x1744, symBinAddr: 0x100004E60, symSize: 0x28 }
  - { offsetInCU: 0x98DC, offset: 0x98DC, size: 0x8, addend: 0x0, symName: __ZNSt3__124__libcpp_operator_deleteB7v160006IJPvSt11align_val_tEEEvDpT_, symObjAddr: 0x176C, symBinAddr: 0x100004E88, symSize: 0x2C }
  - { offsetInCU: 0x9925, offset: 0x9925, size: 0x8, addend: 0x0, symName: __ZNSt3__124__libcpp_operator_deleteB7v160006IJPvEEEvDpT_, symObjAddr: 0x1798, symBinAddr: 0x100004EB4, symSize: 0x24 }
  - { offsetInCU: 0x9A07, offset: 0x9A07, size: 0x8, addend: 0x0, symName: __ZNSt3__110destroy_atB7v160006INS_4pairIKiiEELi0EEEvPT_, symObjAddr: 0x1E54, symBinAddr: 0x100005570, symSize: 0x24 }
  - { offsetInCU: 0x9A3E, offset: 0x9A3E, size: 0x8, addend: 0x0, symName: __ZNSt3__112__destroy_atB7v160006INS_4pairIKiiEELi0EEEvPT_, symObjAddr: 0x1E78, symBinAddr: 0x100005594, symSize: 0x10 }
  - { offsetInCU: 0x9A75, offset: 0x9A75, size: 0x8, addend: 0x0, symName: __ZNSt3__17launderB7v160006INS_4pairIKiiEEEEPT_S5_, symObjAddr: 0x1EAC, symBinAddr: 0x1000055C8, symSize: 0x24 }
  - { offsetInCU: 0x9AAC, offset: 0x9AAC, size: 0x8, addend: 0x0, symName: __ZNSt3__19__launderB7v160006INS_4pairIKiiEEEEPT_S5_, symObjAddr: 0x1ED0, symBinAddr: 0x1000055EC, symSize: 0x14 }
  - { offsetInCU: 0x9B32, offset: 0x9B32, size: 0x8, addend: 0x0, symName: __ZNSt3__116forward_as_tupleB7v160006IJRKiEEENS_5tupleIJDpOT_EEES6_, symObjAddr: 0x208C, symBinAddr: 0x1000057A8, symSize: 0x2C }
  - { offsetInCU: 0x9B6B, offset: 0x9B6B, size: 0x8, addend: 0x0, symName: __ZNSt3__116forward_as_tupleB7v160006IJEEENS_5tupleIJDpOT_EEES4_, symObjAddr: 0x20B8, symBinAddr: 0x1000057D4, symSize: 0x4 }
  - { offsetInCU: 0x9B8F, offset: 0x9B8F, size: 0x8, addend: 0x0, symName: __ZNSt3__17launderB7v160006IKNS_4pairIKiiEEEEPT_S6_, symObjAddr: 0x26D4, symBinAddr: 0x100005DF0, symSize: 0x24 }
  - { offsetInCU: 0x9BC6, offset: 0x9BC6, size: 0x8, addend: 0x0, symName: __ZNSt3__19__launderB7v160006IKNS_4pairIKiiEEEEPT_S6_, symObjAddr: 0x26F8, symBinAddr: 0x100005E14, symSize: 0x14 }
  - { offsetInCU: 0x9C40, offset: 0x9C40, size: 0x8, addend: 0x0, symName: __ZNSt3__112construct_atB7v160006INS_4pairIKiiEEJRKNS_21piecewise_construct_tENS_5tupleIJRS2_EEENS7_IJEEEEPS3_EEPT_SD_DpOT0_, symObjAddr: 0x2A18, symBinAddr: 0x100006134, symSize: 0x50 }
  - { offsetInCU: 0x9CE1, offset: 0x9CE1, size: 0x8, addend: 0x0, symName: __ZNSt3__13getB7v160006ILm0EJRKiEEERNS_13tuple_elementIXT_ENS_5tupleIJDpT0_EEEE4typeERS7_, symObjAddr: 0x2B30, symBinAddr: 0x10000624C, symSize: 0x24 }
  - { offsetInCU: 0x9D24, offset: 0x9D24, size: 0x8, addend: 0x0, symName: __ZNSt3__127__tree_balance_after_insertB7v160006IPNS_16__tree_node_baseIPvEEEEvT_S5_, symObjAddr: 0x2BE0, symBinAddr: 0x1000062FC, symSize: 0x32C }
  - { offsetInCU: 0x9DA0, offset: 0x9DA0, size: 0x8, addend: 0x0, symName: __ZNSt3__120__tree_is_left_childB7v160006IPNS_16__tree_node_baseIPvEEEEbT_, symObjAddr: 0x2F4C, symBinAddr: 0x100006668, symSize: 0x2C }
  - { offsetInCU: 0x9DD5, offset: 0x9DD5, size: 0x8, addend: 0x0, symName: __ZNSt3__118__tree_left_rotateB7v160006IPNS_16__tree_node_baseIPvEEEEvT_, symObjAddr: 0x2F78, symBinAddr: 0x100006694, symSize: 0xD8 }
  - { offsetInCU: 0x9E17, offset: 0x9E17, size: 0x8, addend: 0x0, symName: __ZNSt3__119__tree_right_rotateB7v160006IPNS_16__tree_node_baseIPvEEEEvT_, symObjAddr: 0x3050, symBinAddr: 0x10000676C, symSize: 0xCC }
  - { offsetInCU: 0x9EB0, offset: 0x9EB0, size: 0x8, addend: 0x0, symName: __ZNSt3__1neB7v160006ERKNS_15__tree_iteratorINS_12__value_typeIiiEEPNS_11__tree_nodeIS2_PvEElEES9_, symObjAddr: 0x3570, symBinAddr: 0x100006C8C, symSize: 0x34 }
  - { offsetInCU: 0x9EED, offset: 0x9EED, size: 0x8, addend: 0x0, symName: __ZNSt3__1eqB7v160006ERKNS_15__tree_iteratorINS_12__value_typeIiiEEPNS_11__tree_nodeIS2_PvEElEES9_, symObjAddr: 0x35A4, symBinAddr: 0x100006CC0, symSize: 0x30 }
  - { offsetInCU: 0x9F2A, offset: 0x9F2A, size: 0x8, addend: 0x0, symName: __ZNSt3__116__tree_next_iterB7v160006IPNS_15__tree_end_nodeIPNS_16__tree_node_baseIPvEEEES5_EET_T0_, symObjAddr: 0x360C, symBinAddr: 0x100006D28, symSize: 0x80 }
  - { offsetInCU: 0x9F68, offset: 0x9F68, size: 0x8, addend: 0x0, symName: __ZNSt3__110__tree_minB7v160006IPNS_16__tree_node_baseIPvEEEET_S5_, symObjAddr: 0x368C, symBinAddr: 0x100006DA8, symSize: 0x40 }
  - { offsetInCU: 0x9F9D, offset: 0x9F9D, size: 0x8, addend: 0x0, symName: __ZNSt3__116__pad_and_outputB7v160006IcNS_11char_traitsIcEEEENS_19ostreambuf_iteratorIT_T0_EES6_PKS4_S8_S8_RNS_8ios_baseES4_, symObjAddr: 0x38D4, symBinAddr: 0x100006FF0, symSize: 0x240 }
  - { offsetInCU: 0xA06C, offset: 0xA06C, size: 0x8, addend: 0x0, symName: __ZNSt3__119__debug_db_insert_cB7v160006INS_12basic_stringIcNS_11char_traitsIcEENS_9allocatorIcEEEEEEvPT_, symObjAddr: 0x3D88, symBinAddr: 0x1000074A4, symSize: 0x10 }
  - { offsetInCU: 0xA09D, offset: 0xA09D, size: 0x8, addend: 0x0, symName: __ZNSt3__112__to_addressB7v160006IcEEPT_S2_, symObjAddr: 0x3E54, symBinAddr: 0x100007570, symSize: 0x14 }
  - { offsetInCU: 0xA0D2, offset: 0xA0D2, size: 0x8, addend: 0x0, symName: __ZNSt3__19use_facetB7v160006INS_5ctypeIcEEEERKT_RKNS_6localeE, symObjAddr: 0x410C, symBinAddr: 0x100007828, symSize: 0x2C }
  - { offsetInCU: 0xA851, offset: 0xA851, size: 0x8, addend: 0x0, symName: __ZSt28__throw_bad_array_new_lengthB7v160006v, symObjAddr: 0xFD0, symBinAddr: 0x1000046EC, symSize: 0x34 }
  - { offsetInCU: 0xD7D1, offset: 0xD7D1, size: 0x8, addend: 0x0, symName: __Z5solvev, symObjAddr: 0x0, symBinAddr: 0x10000371C, symSize: 0x298 }
  - { offsetInCU: 0xD8ED, offset: 0xD8ED, size: 0x8, addend: 0x0, symName: __ZNSt3__16vectorIxNS_9allocatorIxEEEC1Em, symObjAddr: 0x298, symBinAddr: 0x1000039B4, symSize: 0x34 }
  - { offsetInCU: 0xD928, offset: 0xD928, size: 0x8, addend: 0x0, symName: __ZNSt3__16vectorIxNS_9allocatorIxEEEixB7v160006Em, symObjAddr: 0x2CC, symBinAddr: 0x1000039E8, symSize: 0x24 }
  - { offsetInCU: 0xD95F, offset: 0xD95F, size: 0x8, addend: 0x0, symName: __ZNSt3__13mapIiiNS_4lessIiEENS_9allocatorINS_4pairIKiiEEEEEC1B7v160006Ev, symObjAddr: 0x2F0, symBinAddr: 0x100003A0C, symSize: 0x2C }
  - { offsetInCU: 0xD989, offset: 0xD989, size: 0x8, addend: 0x0, symName: __ZNSt3__13mapIiiNS_4lessIiEENS_9allocatorINS_4pairIKiiEEEEEixERS5_, symObjAddr: 0x31C, symBinAddr: 0x100003A38, symSize: 0x80 }
  - { offsetInCU: 0xD9C0, offset: 0xD9C0, size: 0x8, addend: 0x0, symName: __ZNSt3__13mapIiiNS_4lessIiEENS_9allocatorINS_4pairIKiiEEEEE5beginB7v160006Ev, symObjAddr: 0x39C, symBinAddr: 0x100003AB8, symSize: 0x38 }
  - { offsetInCU: 0xD9E6, offset: 0xD9E6, size: 0x8, addend: 0x0, symName: __ZNSt3__13mapIiiNS_4lessIiEENS_9allocatorINS_4pairIKiiEEEEE3endB7v160006Ev, symObjAddr: 0x3D4, symBinAddr: 0x100003AF0, symSize: 0x38 }
  - { offsetInCU: 0xDA0C, offset: 0xDA0C, size: 0x8, addend: 0x0, symName: __ZNKSt3__114__map_iteratorINS_15__tree_iteratorINS_12__value_typeIiiEEPNS_11__tree_nodeIS3_PvEElEEEdeB7v160006Ev, symObjAddr: 0x43C, symBinAddr: 0x100003B58, symSize: 0x28 }
  - { offsetInCU: 0xDA32, offset: 0xDA32, size: 0x8, addend: 0x0, symName: __ZNSt3__14pairIKiiEC1B7v160006IS1_iLPv0EEERNS0_IT_T0_EE, symObjAddr: 0x464, symBinAddr: 0x100003B80, symSize: 0x34 }
  - { offsetInCU: 0xDA82, offset: 0xDA82, size: 0x8, addend: 0x0, symName: __ZNSt3__114__map_iteratorINS_15__tree_iteratorINS_12__value_typeIiiEEPNS_11__tree_nodeIS3_PvEElEEEppB7v160006Ev, symObjAddr: 0x514, symBinAddr: 0x100003C30, symSize: 0x2C }
  - { offsetInCU: 0xDAA8, offset: 0xDAA8, size: 0x8, addend: 0x0, symName: __ZNSt3__13mapIiiNS_4lessIiEENS_9allocatorINS_4pairIKiiEEEEED1B7v160006Ev, symObjAddr: 0x540, symBinAddr: 0x100003C5C, symSize: 0x2C }
  - { offsetInCU: 0xDAD2, offset: 0xDAD2, size: 0x8, addend: 0x0, symName: __ZNSt3__16vectorIxNS_9allocatorIxEEED1B7v160006Ev, symObjAddr: 0x56C, symBinAddr: 0x100003C88, symSize: 0x2C }
  - { offsetInCU: 0xDAFC, offset: 0xDAFC, size: 0x8, addend: 0x0, symName: _main, symObjAddr: 0x598, symBinAddr: 0x100003CB4, symSize: 0x84 }
  - { offsetInCU: 0xDB26, offset: 0xDB26, size: 0x8, addend: 0x0, symName: __ZNSt3__19basic_iosIcNS_11char_traitsIcEEE3tieB7v160006EPNS_13basic_ostreamIcS2_EE, symObjAddr: 0x61C, symBinAddr: 0x100003D38, symSize: 0x2C }
  - { offsetInCU: 0xDB6C, offset: 0xDB6C, size: 0x8, addend: 0x0, symName: __ZNSt3__16vectorIxNS_9allocatorIxEEEC2Em, symObjAddr: 0x648, symBinAddr: 0x100003D64, symSize: 0xE0 }
  - { offsetInCU: 0xDBC8, offset: 0xDBC8, size: 0x8, addend: 0x0, symName: __ZNSt3__117__compressed_pairIPxNS_9allocatorIxEEEC1B7v160006IDnNS_18__default_init_tagEEEOT_OT0_, symObjAddr: 0x728, symBinAddr: 0x100003E44, symSize: 0x3C }
  - { offsetInCU: 0xDC20, offset: 0xDC20, size: 0x8, addend: 0x0, symName: __ZNSt3__16vectorIxNS_9allocatorIxEEE16__destroy_vectorC1ERS3_, symObjAddr: 0x7A4, symBinAddr: 0x100003EC0, symSize: 0x34 }
  - { offsetInCU: 0xDC59, offset: 0xDC59, size: 0x8, addend: 0x0, symName: __ZNSt3__16vectorIxNS_9allocatorIxEEE11__vallocateB7v160006Em, symObjAddr: 0x7E8, symBinAddr: 0x100003F04, symSize: 0xAC }
  - { offsetInCU: 0xDC9D, offset: 0xDC9D, size: 0x8, addend: 0x0, symName: __ZNSt3__16vectorIxNS_9allocatorIxEEE18__construct_at_endEm, symObjAddr: 0x894, symBinAddr: 0x100003FB0, symSize: 0xC8 }
  - { offsetInCU: 0xDD0F, offset: 0xDD0F, size: 0x8, addend: 0x0, symName: __ZNSt3__128__exception_guard_exceptionsINS_6vectorIxNS_9allocatorIxEEE16__destroy_vectorEE10__completeB7v160006Ev, symObjAddr: 0x95C, symBinAddr: 0x100004078, symSize: 0x1C }
  - { offsetInCU: 0xDD35, offset: 0xDD35, size: 0x8, addend: 0x0, symName: __ZNSt3__128__exception_guard_exceptionsINS_6vectorIxNS_9allocatorIxEEE16__destroy_vectorEED1B7v160006Ev, symObjAddr: 0x978, symBinAddr: 0x100004094, symSize: 0x2C }
  - { offsetInCU: 0xDD5F, offset: 0xDD5F, size: 0x8, addend: 0x0, symName: __ZNSt3__117__compressed_pairIPxNS_9allocatorIxEEEC2B7v160006IDnNS_18__default_init_tagEEEOT_OT0_, symObjAddr: 0x9A4, symBinAddr: 0x1000040C0, symSize: 0x40 }
  - { offsetInCU: 0xDDB7, offset: 0xDDB7, size: 0x8, addend: 0x0, symName: __ZNSt3__122__compressed_pair_elemIPxLi0ELb0EEC2B7v160006IDnvEEOT_, symObjAddr: 0x9E4, symBinAddr: 0x100004100, symSize: 0x1C }
  - { offsetInCU: 0xDDF9, offset: 0xDDF9, size: 0x8, addend: 0x0, symName: __ZNSt3__122__compressed_pair_elemINS_9allocatorIxEELi1ELb1EEC2B7v160006ENS_18__default_init_tagE, symObjAddr: 0xA00, symBinAddr: 0x10000411C, symSize: 0x2C }
  - { offsetInCU: 0xDE2E, offset: 0xDE2E, size: 0x8, addend: 0x0, symName: __ZNSt3__19allocatorIxEC2B7v160006Ev, symObjAddr: 0xA2C, symBinAddr: 0x100004148, symSize: 0x2C }
  - { offsetInCU: 0xDE58, offset: 0xDE58, size: 0x8, addend: 0x0, symName: __ZNSt3__116__non_trivial_ifILb1ENS_9allocatorIxEEEC2B7v160006Ev, symObjAddr: 0xA58, symBinAddr: 0x100004174, symSize: 0x14 }
  - { offsetInCU: 0xDE82, offset: 0xDE82, size: 0x8, addend: 0x0, symName: __ZNSt3__128__exception_guard_exceptionsINS_6vectorIxNS_9allocatorIxEEE16__destroy_vectorEEC1B7v160006ES5_, symObjAddr: 0xA6C, symBinAddr: 0x100004188, symSize: 0x34 }
  - { offsetInCU: 0xDEBA, offset: 0xDEBA, size: 0x8, addend: 0x0, symName: __ZNSt3__128__exception_guard_exceptionsINS_6vectorIxNS_9allocatorIxEEE16__destroy_vectorEEC2B7v160006ES5_, symObjAddr: 0xAA0, symBinAddr: 0x1000041BC, symSize: 0x24 }
  - { offsetInCU: 0xDEF2, offset: 0xDEF2, size: 0x8, addend: 0x0, symName: __ZNSt3__16vectorIxNS_9allocatorIxEEE16__destroy_vectorC2ERS3_, symObjAddr: 0xAC4, symBinAddr: 0x1000041E0, symSize: 0x20 }
  - { offsetInCU: 0xDF2B, offset: 0xDF2B, size: 0x8, addend: 0x0, symName: __ZNKSt3__16vectorIxNS_9allocatorIxEEE8max_sizeEv, symObjAddr: 0xAE4, symBinAddr: 0x100004200, symSize: 0x60 }
  - { offsetInCU: 0xDF53, offset: 0xDF53, size: 0x8, addend: 0x0, symName: __ZNKSt3__16vectorIxNS_9allocatorIxEEE20__throw_length_errorB7v160006Ev, symObjAddr: 0xB44, symBinAddr: 0x100004260, symSize: 0x1C }
  - { offsetInCU: 0xDF79, offset: 0xDF79, size: 0x8, addend: 0x0, symName: __ZNSt3__16vectorIxNS_9allocatorIxEEE7__allocB7v160006Ev, symObjAddr: 0xB9C, symBinAddr: 0x1000042B8, symSize: 0x28 }
  - { offsetInCU: 0xDF9F, offset: 0xDF9F, size: 0x8, addend: 0x0, symName: __ZNSt3__16vectorIxNS_9allocatorIxEEE9__end_capB7v160006Ev, symObjAddr: 0xBC4, symBinAddr: 0x1000042E0, symSize: 0x28 }
  - { offsetInCU: 0xDFC5, offset: 0xDFC5, size: 0x8, addend: 0x0, symName: __ZNKSt3__16vectorIxNS_9allocatorIxEEE14__annotate_newB7v160006Em, symObjAddr: 0xBEC, symBinAddr: 0x100004308, symSize: 0xAC }
  - { offsetInCU: 0xE004, offset: 0xE004, size: 0x8, addend: 0x0, symName: __ZNSt3__116allocator_traitsINS_9allocatorIxEEE8max_sizeB7v160006IS2_vvEEmRKS2_, symObjAddr: 0xCC4, symBinAddr: 0x1000043E0, symSize: 0x28 }
  - { offsetInCU: 0xE030, offset: 0xE030, size: 0x8, addend: 0x0, symName: __ZNKSt3__16vectorIxNS_9allocatorIxEEE7__allocB7v160006Ev, symObjAddr: 0xCEC, symBinAddr: 0x100004408, symSize: 0x28 }
  - { offsetInCU: 0xE056, offset: 0xE056, size: 0x8, addend: 0x0, symName: __ZNSt3__114numeric_limitsIlE3maxB7v160006Ev, symObjAddr: 0xD14, symBinAddr: 0x100004430, symSize: 0x14 }
  - { offsetInCU: 0xE074, offset: 0xE074, size: 0x8, addend: 0x0, symName: __ZNKSt3__16__lessImmEclB7v160006ERKmS3_, symObjAddr: 0xD88, symBinAddr: 0x1000044A4, symSize: 0x34 }
  - { offsetInCU: 0xE0B6, offset: 0xE0B6, size: 0x8, addend: 0x0, symName: __ZNSt3__114numeric_limitsImE3maxB7v160006Ev, symObjAddr: 0xDBC, symBinAddr: 0x1000044D8, symSize: 0x14 }
  - { offsetInCU: 0xE0CA, offset: 0xE0CA, size: 0x8, addend: 0x0, symName: __ZNSt3__123__libcpp_numeric_limitsImLb1EE3maxB7v160006Ev, symObjAddr: 0xDD0, symBinAddr: 0x1000044EC, symSize: 0x8 }
  - { offsetInCU: 0xE0DE, offset: 0xE0DE, size: 0x8, addend: 0x0, symName: __ZNKSt3__117__compressed_pairIPxNS_9allocatorIxEEE6secondB7v160006Ev, symObjAddr: 0xDD8, symBinAddr: 0x1000044F4, symSize: 0x24 }
  - { offsetInCU: 0xE104, offset: 0xE104, size: 0x8, addend: 0x0, symName: __ZNKSt3__122__compressed_pair_elemINS_9allocatorIxEELi1ELb1EE5__getB7v160006Ev, symObjAddr: 0xDFC, symBinAddr: 0x100004518, symSize: 0x14 }
  - { offsetInCU: 0xE12A, offset: 0xE12A, size: 0x8, addend: 0x0, symName: __ZNSt3__123__libcpp_numeric_limitsIlLb1EE3maxB7v160006Ev, symObjAddr: 0xE10, symBinAddr: 0x10000452C, symSize: 0x8 }
  - { offsetInCU: 0xE13E, offset: 0xE13E, size: 0x8, addend: 0x0, symName: __ZNSt12length_errorC1B7v160006EPKc, symObjAddr: 0xE7C, symBinAddr: 0x100004598, symSize: 0x34 }
  - { offsetInCU: 0xE176, offset: 0xE176, size: 0x8, addend: 0x0, symName: __ZNSt12length_errorC2B7v160006EPKc, symObjAddr: 0xEB0, symBinAddr: 0x1000045CC, symSize: 0x4C }
  - { offsetInCU: 0xE1AE, offset: 0xE1AE, size: 0x8, addend: 0x0, symName: __ZNSt3__19allocatorIxE17allocate_at_leastB7v160006Em, symObjAddr: 0xF38, symBinAddr: 0x100004654, symSize: 0x40 }
  - { offsetInCU: 0xE1E2, offset: 0xE1E2, size: 0x8, addend: 0x0, symName: __ZNSt3__19allocatorIxE8allocateB7v160006Em, symObjAddr: 0xF78, symBinAddr: 0x100004694, symSize: 0x58 }
  - { offsetInCU: 0xE216, offset: 0xE216, size: 0x8, addend: 0x0, symName: __ZNSt3__117__compressed_pairIPxNS_9allocatorIxEEE6secondB7v160006Ev, symObjAddr: 0x10D4, symBinAddr: 0x1000047F0, symSize: 0x24 }
  - { offsetInCU: 0xE23C, offset: 0xE23C, size: 0x8, addend: 0x0, symName: __ZNSt3__122__compressed_pair_elemINS_9allocatorIxEELi1ELb1EE5__getB7v160006Ev, symObjAddr: 0x10F8, symBinAddr: 0x100004814, symSize: 0x14 }
  - { offsetInCU: 0xE262, offset: 0xE262, size: 0x8, addend: 0x0, symName: __ZNSt3__117__compressed_pairIPxNS_9allocatorIxEEE5firstB7v160006Ev, symObjAddr: 0x110C, symBinAddr: 0x100004828, symSize: 0x24 }
  - { offsetInCU: 0xE288, offset: 0xE288, size: 0x8, addend: 0x0, symName: __ZNSt3__122__compressed_pair_elemIPxLi0ELb0EE5__getB7v160006Ev, symObjAddr: 0x1130, symBinAddr: 0x10000484C, symSize: 0x14 }
  - { offsetInCU: 0xE2AE, offset: 0xE2AE, size: 0x8, addend: 0x0, symName: __ZNKSt3__16vectorIxNS_9allocatorIxEEE31__annotate_contiguous_containerB7v160006EPKvS5_S5_S5_, symObjAddr: 0x1144, symBinAddr: 0x100004860, symSize: 0x20 }
  - { offsetInCU: 0xE304, offset: 0xE304, size: 0x8, addend: 0x0, symName: __ZNKSt3__16vectorIxNS_9allocatorIxEEE4dataB7v160006Ev, symObjAddr: 0x1164, symBinAddr: 0x100004880, symSize: 0x28 }
  - { offsetInCU: 0xE32A, offset: 0xE32A, size: 0x8, addend: 0x0, symName: __ZNKSt3__16vectorIxNS_9allocatorIxEEE8capacityB7v160006Ev, symObjAddr: 0x118C, symBinAddr: 0x1000048A8, symSize: 0x40 }
  - { offsetInCU: 0xE350, offset: 0xE350, size: 0x8, addend: 0x0, symName: __ZNKSt3__16vectorIxNS_9allocatorIxEEE9__end_capB7v160006Ev, symObjAddr: 0x11E0, symBinAddr: 0x1000048FC, symSize: 0x28 }
  - { offsetInCU: 0xE376, offset: 0xE376, size: 0x8, addend: 0x0, symName: __ZNKSt3__117__compressed_pairIPxNS_9allocatorIxEEE5firstB7v160006Ev, symObjAddr: 0x1208, symBinAddr: 0x100004924, symSize: 0x24 }
  - { offsetInCU: 0xE39C, offset: 0xE39C, size: 0x8, addend: 0x0, symName: __ZNKSt3__122__compressed_pair_elemIPxLi0ELb0EE5__getB7v160006Ev, symObjAddr: 0x122C, symBinAddr: 0x100004948, symSize: 0x14 }
  - { offsetInCU: 0xE3DB, offset: 0xE3DB, size: 0x8, addend: 0x0, symName: __ZNSt3__16vectorIxNS_9allocatorIxEEE21_ConstructTransactionC1B7v160006ERS3_m, symObjAddr: 0x1240, symBinAddr: 0x10000495C, symSize: 0x3C }
  - { offsetInCU: 0xE423, offset: 0xE423, size: 0x8, addend: 0x0, symName: __ZNSt3__116allocator_traitsINS_9allocatorIxEEE9constructB7v160006IxJEvvEEvRS2_PT_DpOT0_, symObjAddr: 0x127C, symBinAddr: 0x100004998, symSize: 0x28 }
  - { offsetInCU: 0xE463, offset: 0xE463, size: 0x8, addend: 0x0, symName: __ZNSt3__16vectorIxNS_9allocatorIxEEE21_ConstructTransactionD1B7v160006Ev, symObjAddr: 0x12A4, symBinAddr: 0x1000049C0, symSize: 0x2C }
  - { offsetInCU: 0xE48D, offset: 0xE48D, size: 0x8, addend: 0x0, symName: __ZNSt3__16vectorIxNS_9allocatorIxEEE21_ConstructTransactionC2B7v160006ERS3_m, symObjAddr: 0x12D0, symBinAddr: 0x1000049EC, symSize: 0x44 }
  - { offsetInCU: 0xE4D5, offset: 0xE4D5, size: 0x8, addend: 0x0, symName: __ZNSt3__16vectorIxNS_9allocatorIxEEE21_ConstructTransactionD2B7v160006Ev, symObjAddr: 0x1334, symBinAddr: 0x100004A50, symSize: 0x20 }
  - { offsetInCU: 0xE4FF, offset: 0xE4FF, size: 0x8, addend: 0x0, symName: __ZNSt3__128__exception_guard_exceptionsINS_6vectorIxNS_9allocatorIxEEE16__destroy_vectorEED2B7v160006Ev, symObjAddr: 0x1354, symBinAddr: 0x100004A70, symSize: 0x50 }
  - { offsetInCU: 0xE529, offset: 0xE529, size: 0x8, addend: 0x0, symName: __ZNSt3__16vectorIxNS_9allocatorIxEEE16__destroy_vectorclB7v160006Ev, symObjAddr: 0x13A4, symBinAddr: 0x100004AC0, symSize: 0x9C }
  - { offsetInCU: 0xE54F, offset: 0xE54F, size: 0x8, addend: 0x0, symName: __ZNKSt3__16vectorIxNS_9allocatorIxEEE17__annotate_deleteB7v160006Ev, symObjAddr: 0x1440, symBinAddr: 0x100004B5C, symSize: 0xB8 }
  - { offsetInCU: 0xE575, offset: 0xE575, size: 0x8, addend: 0x0, symName: __ZNSt3__16vectorIxNS_9allocatorIxEEE7__clearB7v160006Ev, symObjAddr: 0x1508, symBinAddr: 0x100004C24, symSize: 0x28 }
  - { offsetInCU: 0xE59B, offset: 0xE59B, size: 0x8, addend: 0x0, symName: __ZNSt3__116allocator_traitsINS_9allocatorIxEEE10deallocateB7v160006ERS2_Pxm, symObjAddr: 0x1530, symBinAddr: 0x100004C4C, symSize: 0x34 }
  - { offsetInCU: 0xE5DD, offset: 0xE5DD, size: 0x8, addend: 0x0, symName: __ZNKSt3__16vectorIxNS_9allocatorIxEEE4sizeB7v160006Ev, symObjAddr: 0x1564, symBinAddr: 0x100004C80, symSize: 0x28 }
  - { offsetInCU: 0xE603, offset: 0xE603, size: 0x8, addend: 0x0, symName: __ZNSt3__16vectorIxNS_9allocatorIxEEE22__base_destruct_at_endB7v160006EPx, symObjAddr: 0x158C, symBinAddr: 0x100004CA8, symSize: 0x8C }
  - { offsetInCU: 0xE647, offset: 0xE647, size: 0x8, addend: 0x0, symName: __ZNSt3__116allocator_traitsINS_9allocatorIxEEE7destroyB7v160006IxvvEEvRS2_PT_, symObjAddr: 0x1618, symBinAddr: 0x100004D34, symSize: 0x28 }
  - { offsetInCU: 0xE682, offset: 0xE682, size: 0x8, addend: 0x0, symName: __ZNSt3__19allocatorIxE10deallocateB7v160006EPxm, symObjAddr: 0x1674, symBinAddr: 0x100004D90, symSize: 0x40 }
  - { offsetInCU: 0xE6C4, offset: 0xE6C4, size: 0x8, addend: 0x0, symName: __ZNSt3__14pairIKiiEC2B7v160006IS1_iLPv0EEERNS0_IT_T0_EE, symObjAddr: 0x17BC, symBinAddr: 0x100004ED8, symSize: 0x30 }
  - { offsetInCU: 0xE71A, offset: 0xE71A, size: 0x8, addend: 0x0, symName: __ZNSt3__110__get_pairILm0EE3getB7v160006IKiiEEOT_ONS_4pairIS4_T0_EE, symObjAddr: 0x17EC, symBinAddr: 0x100004F08, symSize: 0x14 }
  - { offsetInCU: 0xE756, offset: 0xE756, size: 0x8, addend: 0x0, symName: __ZNSt3__110__get_pairILm1EE3getB7v160006IKiiEEOT0_ONS_4pairIT_S4_EE, symObjAddr: 0x1800, symBinAddr: 0x100004F1C, symSize: 0x18 }
  - { offsetInCU: 0xE78C, offset: 0xE78C, size: 0x8, addend: 0x0, symName: __ZNSt3__16vectorIxNS_9allocatorIxEEED2B7v160006Ev, symObjAddr: 0x1818, symBinAddr: 0x100004F34, symSize: 0x44 }
  - { offsetInCU: 0xE7B6, offset: 0xE7B6, size: 0x8, addend: 0x0, symName: __ZNSt3__13mapIiiNS_4lessIiEENS_9allocatorINS_4pairIKiiEEEEEC2B7v160006Ev, symObjAddr: 0x185C, symBinAddr: 0x100004F78, symSize: 0x40 }
  - { offsetInCU: 0xE7E0, offset: 0xE7E0, size: 0x8, addend: 0x0, symName: __ZNSt3__119__map_value_compareIiNS_12__value_typeIiiEENS_4lessIiEELb1EEC1B7v160006ES4_, symObjAddr: 0x189C, symBinAddr: 0x100004FB8, symSize: 0x2C }
  - { offsetInCU: 0xE819, offset: 0xE819, size: 0x8, addend: 0x0, symName: __ZNSt3__16__treeINS_12__value_typeIiiEENS_19__map_value_compareIiS2_NS_4lessIiEELb1EEENS_9allocatorIS2_EEEC1ERKS6_, symObjAddr: 0x18C8, symBinAddr: 0x100004FE4, symSize: 0x34 }
  - { offsetInCU: 0xE854, offset: 0xE854, size: 0x8, addend: 0x0, symName: __ZNSt3__119__map_value_compareIiNS_12__value_typeIiiEENS_4lessIiEELb1EEC2B7v160006ES4_, symObjAddr: 0x18FC, symBinAddr: 0x100005018, symSize: 0x14 }
  - { offsetInCU: 0xE88D, offset: 0xE88D, size: 0x8, addend: 0x0, symName: __ZNSt3__16__treeINS_12__value_typeIiiEENS_19__map_value_compareIiS2_NS_4lessIiEELb1EEENS_9allocatorIS2_EEEC2ERKS6_, symObjAddr: 0x1910, symBinAddr: 0x10000502C, symSize: 0x7C }
  - { offsetInCU: 0xE8C8, offset: 0xE8C8, size: 0x8, addend: 0x0, symName: __ZNSt3__117__compressed_pairINS_15__tree_end_nodeIPNS_16__tree_node_baseIPvEEEENS_9allocatorINS_11__tree_nodeINS_12__value_typeIiiEES3_EEEEEC1B7v160006ILb1EvEEv, symObjAddr: 0x198C, symBinAddr: 0x1000050A8, symSize: 0x2C }
  - { offsetInCU: 0xE8FD, offset: 0xE8FD, size: 0x8, addend: 0x0, symName: __ZNSt3__117__compressed_pairImNS_19__map_value_compareIiNS_12__value_typeIiiEENS_4lessIiEELb1EEEEC1B7v160006IiRKS6_EEOT_OT0_, symObjAddr: 0x19B8, symBinAddr: 0x1000050D4, symSize: 0x3C }
  - { offsetInCU: 0xE955, offset: 0xE955, size: 0x8, addend: 0x0, symName: __ZNSt3__16__treeINS_12__value_typeIiiEENS_19__map_value_compareIiS2_NS_4lessIiEELb1EEENS_9allocatorIS2_EEE10__end_nodeB7v160006Ev, symObjAddr: 0x19F4, symBinAddr: 0x100005110, symSize: 0x2C }
  - { offsetInCU: 0xE97B, offset: 0xE97B, size: 0x8, addend: 0x0, symName: __ZNSt3__16__treeINS_12__value_typeIiiEENS_19__map_value_compareIiS2_NS_4lessIiEELb1EEENS_9allocatorIS2_EEE12__begin_nodeB7v160006Ev, symObjAddr: 0x1A20, symBinAddr: 0x10000513C, symSize: 0x14 }
  - { offsetInCU: 0xE9A1, offset: 0xE9A1, size: 0x8, addend: 0x0, symName: __ZNSt3__117__compressed_pairINS_15__tree_end_nodeIPNS_16__tree_node_baseIPvEEEENS_9allocatorINS_11__tree_nodeINS_12__value_typeIiiEES3_EEEEEC2B7v160006ILb1EvEEv, symObjAddr: 0x1A34, symBinAddr: 0x100005150, symSize: 0x34 }
  - { offsetInCU: 0xE9D6, offset: 0xE9D6, size: 0x8, addend: 0x0, symName: __ZNSt3__122__compressed_pair_elemINS_15__tree_end_nodeIPNS_16__tree_node_baseIPvEEEELi0ELb0EEC2B7v160006ENS_16__value_init_tagE, symObjAddr: 0x1A68, symBinAddr: 0x100005184, symSize: 0x2C }
  - { offsetInCU: 0xEA0B, offset: 0xEA0B, size: 0x8, addend: 0x0, symName: __ZNSt3__122__compressed_pair_elemINS_9allocatorINS_11__tree_nodeINS_12__value_typeIiiEEPvEEEELi1ELb1EEC2B7v160006ENS_16__value_init_tagE, symObjAddr: 0x1A94, symBinAddr: 0x1000051B0, symSize: 0x2C }
  - { offsetInCU: 0xEA40, offset: 0xEA40, size: 0x8, addend: 0x0, symName: __ZNSt3__115__tree_end_nodeIPNS_16__tree_node_baseIPvEEEC1B7v160006Ev, symObjAddr: 0x1AC0, symBinAddr: 0x1000051DC, symSize: 0x2C }
  - { offsetInCU: 0xEA6A, offset: 0xEA6A, size: 0x8, addend: 0x0, symName: __ZNSt3__115__tree_end_nodeIPNS_16__tree_node_baseIPvEEEC2B7v160006Ev, symObjAddr: 0x1AEC, symBinAddr: 0x100005208, symSize: 0x18 }
  - { offsetInCU: 0xEA94, offset: 0xEA94, size: 0x8, addend: 0x0, symName: __ZNSt3__19allocatorINS_11__tree_nodeINS_12__value_typeIiiEEPvEEEC2B7v160006Ev, symObjAddr: 0x1B04, symBinAddr: 0x100005220, symSize: 0x2C }
  - { offsetInCU: 0xEABE, offset: 0xEABE, size: 0x8, addend: 0x0, symName: __ZNSt3__116__non_trivial_ifILb1ENS_9allocatorINS_11__tree_nodeINS_12__value_typeIiiEEPvEEEEEC2B7v160006Ev, symObjAddr: 0x1B30, symBinAddr: 0x10000524C, symSize: 0x14 }
  - { offsetInCU: 0xEAE8, offset: 0xEAE8, size: 0x8, addend: 0x0, symName: __ZNSt3__117__compressed_pairImNS_19__map_value_compareIiNS_12__value_typeIiiEENS_4lessIiEELb1EEEEC2B7v160006IiRKS6_EEOT_OT0_, symObjAddr: 0x1B44, symBinAddr: 0x100005260, symSize: 0x44 }
  - { offsetInCU: 0xEB40, offset: 0xEB40, size: 0x8, addend: 0x0, symName: __ZNSt3__122__compressed_pair_elemImLi0ELb0EEC2B7v160006IivEEOT_, symObjAddr: 0x1B88, symBinAddr: 0x1000052A4, symSize: 0x24 }
  - { offsetInCU: 0xEB82, offset: 0xEB82, size: 0x8, addend: 0x0, symName: __ZNSt3__122__compressed_pair_elemINS_19__map_value_compareIiNS_12__value_typeIiiEENS_4lessIiEELb1EEELi1ELb1EEC2B7v160006IRKS6_vEEOT_, symObjAddr: 0x1BAC, symBinAddr: 0x1000052C8, symSize: 0x18 }
  - { offsetInCU: 0xEBC4, offset: 0xEBC4, size: 0x8, addend: 0x0, symName: __ZNSt3__114pointer_traitsIPNS_15__tree_end_nodeIPNS_16__tree_node_baseIPvEEEEE10pointer_toB7v160006ERS6_, symObjAddr: 0x1BC4, symBinAddr: 0x1000052E0, symSize: 0x14 }
  - { offsetInCU: 0xEBE7, offset: 0xEBE7, size: 0x8, addend: 0x0, symName: __ZNSt3__117__compressed_pairINS_15__tree_end_nodeIPNS_16__tree_node_baseIPvEEEENS_9allocatorINS_11__tree_nodeINS_12__value_typeIiiEES3_EEEEE5firstB7v160006Ev, symObjAddr: 0x1BD8, symBinAddr: 0x1000052F4, symSize: 0x24 }
  - { offsetInCU: 0xEC0D, offset: 0xEC0D, size: 0x8, addend: 0x0, symName: __ZNSt3__122__compressed_pair_elemINS_15__tree_end_nodeIPNS_16__tree_node_baseIPvEEEELi0ELb0EE5__getB7v160006Ev, symObjAddr: 0x1BFC, symBinAddr: 0x100005318, symSize: 0x14 }
  - { offsetInCU: 0xEC33, offset: 0xEC33, size: 0x8, addend: 0x0, symName: __ZNSt3__13mapIiiNS_4lessIiEENS_9allocatorINS_4pairIKiiEEEEED2B7v160006Ev, symObjAddr: 0x1C10, symBinAddr: 0x10000532C, symSize: 0x2C }
  - { offsetInCU: 0xEC5D, offset: 0xEC5D, size: 0x8, addend: 0x0, symName: __ZNSt3__16__treeINS_12__value_typeIiiEENS_19__map_value_compareIiS2_NS_4lessIiEELb1EEENS_9allocatorIS2_EEED1Ev, symObjAddr: 0x1C3C, symBinAddr: 0x100005358, symSize: 0x2C }
  - { offsetInCU: 0xEC89, offset: 0xEC89, size: 0x8, addend: 0x0, symName: __ZNSt3__16__treeINS_12__value_typeIiiEENS_19__map_value_compareIiS2_NS_4lessIiEELb1EEENS_9allocatorIS2_EEED2Ev, symObjAddr: 0x1C68, symBinAddr: 0x100005384, symSize: 0x38 }
  - { offsetInCU: 0xECB5, offset: 0xECB5, size: 0x8, addend: 0x0, symName: __ZNSt3__16__treeINS_12__value_typeIiiEENS_19__map_value_compareIiS2_NS_4lessIiEELb1EEENS_9allocatorIS2_EEE7destroyEPNS_11__tree_nodeIS2_PvEE, symObjAddr: 0x1CA0, symBinAddr: 0x1000053BC, symSize: 0xAC }
  - { offsetInCU: 0xED01, offset: 0xED01, size: 0x8, addend: 0x0, symName: __ZNKSt3__16__treeINS_12__value_typeIiiEENS_19__map_value_compareIiS2_NS_4lessIiEELb1EEENS_9allocatorIS2_EEE6__rootB7v160006Ev, symObjAddr: 0x1D4C, symBinAddr: 0x100005468, symSize: 0x28 }
  - { offsetInCU: 0xED27, offset: 0xED27, size: 0x8, addend: 0x0, symName: __ZNSt3__16__treeINS_12__value_typeIiiEENS_19__map_value_compareIiS2_NS_4lessIiEELb1EEENS_9allocatorIS2_EEE12__node_allocB7v160006Ev, symObjAddr: 0x1D74, symBinAddr: 0x100005490, symSize: 0x28 }
  - { offsetInCU: 0xED4D, offset: 0xED4D, size: 0x8, addend: 0x0, symName: __ZNSt3__116allocator_traitsINS_9allocatorINS_11__tree_nodeINS_12__value_typeIiiEEPvEEEEE7destroyB7v160006INS_4pairIKiiEEvvEEvRS7_PT_, symObjAddr: 0x1D9C, symBinAddr: 0x1000054B8, symSize: 0x28 }
  - { offsetInCU: 0xED88, offset: 0xED88, size: 0x8, addend: 0x0, symName: __ZNSt3__122__tree_key_value_typesINS_12__value_typeIiiEEE9__get_ptrB7v160006ERS2_, symObjAddr: 0x1DC4, symBinAddr: 0x1000054E0, symSize: 0x24 }
  - { offsetInCU: 0xEDAC, offset: 0xEDAC, size: 0x8, addend: 0x0, symName: __ZNSt3__116allocator_traitsINS_9allocatorINS_11__tree_nodeINS_12__value_typeIiiEEPvEEEEE10deallocateB7v160006ERS7_PS6_m, symObjAddr: 0x1DE8, symBinAddr: 0x100005504, symSize: 0x34 }
  - { offsetInCU: 0xEDEE, offset: 0xEDEE, size: 0x8, addend: 0x0, symName: __ZNSt3__117__compressed_pairINS_15__tree_end_nodeIPNS_16__tree_node_baseIPvEEEENS_9allocatorINS_11__tree_nodeINS_12__value_typeIiiEES3_EEEEE6secondB7v160006Ev, symObjAddr: 0x1E1C, symBinAddr: 0x100005538, symSize: 0x24 }
  - { offsetInCU: 0xEE14, offset: 0xEE14, size: 0x8, addend: 0x0, symName: __ZNSt3__122__compressed_pair_elemINS_9allocatorINS_11__tree_nodeINS_12__value_typeIiiEEPvEEEELi1ELb1EE5__getB7v160006Ev, symObjAddr: 0x1E40, symBinAddr: 0x10000555C, symSize: 0x14 }
  - { offsetInCU: 0xEE3A, offset: 0xEE3A, size: 0x8, addend: 0x0, symName: __ZNSt3__112__value_typeIiiE11__get_valueB7v160006Ev, symObjAddr: 0x1E88, symBinAddr: 0x1000055A4, symSize: 0x24 }
  - { offsetInCU: 0xEE60, offset: 0xEE60, size: 0x8, addend: 0x0, symName: __ZNSt3__19allocatorINS_11__tree_nodeINS_12__value_typeIiiEEPvEEE10deallocateB7v160006EPS5_m, symObjAddr: 0x1EE4, symBinAddr: 0x100005600, symSize: 0x44 }
  - { offsetInCU: 0xEEA2, offset: 0xEEA2, size: 0x8, addend: 0x0, symName: __ZNKSt3__16__treeINS_12__value_typeIiiEENS_19__map_value_compareIiS2_NS_4lessIiEELb1EEENS_9allocatorIS2_EEE10__end_nodeB7v160006Ev, symObjAddr: 0x1F28, symBinAddr: 0x100005644, symSize: 0x2C }
  - { offsetInCU: 0xEEC8, offset: 0xEEC8, size: 0x8, addend: 0x0, symName: __ZNKSt3__117__compressed_pairINS_15__tree_end_nodeIPNS_16__tree_node_baseIPvEEEENS_9allocatorINS_11__tree_nodeINS_12__value_typeIiiEES3_EEEEE5firstB7v160006Ev, symObjAddr: 0x1F54, symBinAddr: 0x100005670, symSize: 0x24 }
  - { offsetInCU: 0xEEEE, offset: 0xEEEE, size: 0x8, addend: 0x0, symName: __ZNKSt3__122__compressed_pair_elemINS_15__tree_end_nodeIPNS_16__tree_node_baseIPvEEEELi0ELb0EE5__getB7v160006Ev, symObjAddr: 0x1F78, symBinAddr: 0x100005694, symSize: 0x14 }
  - { offsetInCU: 0xEF38, offset: 0xEF38, size: 0x8, addend: 0x0, symName: __ZNSt3__16__treeINS_12__value_typeIiiEENS_19__map_value_compareIiS2_NS_4lessIiEELb1EEENS_9allocatorIS2_EEE25__emplace_unique_key_argsIiJRKNS_21piecewise_construct_tENS_5tupleIJRKiEEENSE_IJEEEEEENS_4pairINS_15__tree_iteratorIS2_PNS_11__tree_nodeIS2_PvEElEEbEERKT_DpOT0_, symObjAddr: 0x1F8C, symBinAddr: 0x1000056A8, symSize: 0x100 }
  - { offsetInCU: 0xF00E, offset: 0xF00E, size: 0x8, addend: 0x0, symName: __ZNKSt3__115__tree_iteratorINS_12__value_typeIiiEEPNS_11__tree_nodeIS2_PvEElEptB7v160006Ev, symObjAddr: 0x20BC, symBinAddr: 0x1000057D8, symSize: 0x2C }
  - { offsetInCU: 0xF034, offset: 0xF034, size: 0x8, addend: 0x0, symName: __ZNSt3__16__treeINS_12__value_typeIiiEENS_19__map_value_compareIiS2_NS_4lessIiEELb1EEENS_9allocatorIS2_EEE12__find_equalIiEERPNS_16__tree_node_baseIPvEERPNS_15__tree_end_nodeISE_EERKT_, symObjAddr: 0x20E8, symBinAddr: 0x100005804, symSize: 0x184 }
  - { offsetInCU: 0xF0A1, offset: 0xF0A1, size: 0x8, addend: 0x0, symName: __ZNSt3__16__treeINS_12__value_typeIiiEENS_19__map_value_compareIiS2_NS_4lessIiEELb1EEENS_9allocatorIS2_EEE16__construct_nodeIJRKNS_21piecewise_construct_tENS_5tupleIJRKiEEENSE_IJEEEEEENS_10unique_ptrINS_11__tree_nodeIS2_PvEENS_22__tree_node_destructorINS7_ISM_EEEEEEDpOT_, symObjAddr: 0x226C, symBinAddr: 0x100005988, symSize: 0x120 }
  - { offsetInCU: 0xF12A, offset: 0xF12A, size: 0x8, addend: 0x0, symName: __ZNSt3__16__treeINS_12__value_typeIiiEENS_19__map_value_compareIiS2_NS_4lessIiEELb1EEENS_9allocatorIS2_EEE16__insert_node_atEPNS_15__tree_end_nodeIPNS_16__tree_node_baseIPvEEEERSE_SE_, symObjAddr: 0x238C, symBinAddr: 0x100005AA8, symSize: 0xCC }
  - { offsetInCU: 0xF17F, offset: 0xF17F, size: 0x8, addend: 0x0, symName: __ZNKSt3__110unique_ptrINS_11__tree_nodeINS_12__value_typeIiiEEPvEENS_22__tree_node_destructorINS_9allocatorIS5_EEEEE3getB7v160006Ev, symObjAddr: 0x2458, symBinAddr: 0x100005B74, symSize: 0x28 }
  - { offsetInCU: 0xF1A5, offset: 0xF1A5, size: 0x8, addend: 0x0, symName: __ZNSt3__110unique_ptrINS_11__tree_nodeINS_12__value_typeIiiEEPvEENS_22__tree_node_destructorINS_9allocatorIS5_EEEEE7releaseB7v160006Ev, symObjAddr: 0x2480, symBinAddr: 0x100005B9C, symSize: 0x44 }
  - { offsetInCU: 0xF1DA, offset: 0xF1DA, size: 0x8, addend: 0x0, symName: __ZNSt3__110unique_ptrINS_11__tree_nodeINS_12__value_typeIiiEEPvEENS_22__tree_node_destructorINS_9allocatorIS5_EEEEED1B7v160006Ev, symObjAddr: 0x24C4, symBinAddr: 0x100005BE0, symSize: 0x2C }
  - { offsetInCU: 0xF204, offset: 0xF204, size: 0x8, addend: 0x0, symName: __ZNSt3__115__tree_iteratorINS_12__value_typeIiiEEPNS_11__tree_nodeIS2_PvEElEC1B7v160006ES6_, symObjAddr: 0x24F0, symBinAddr: 0x100005C0C, symSize: 0x34 }
  - { offsetInCU: 0xF248, offset: 0xF248, size: 0x8, addend: 0x0, symName: __ZNSt3__14pairINS_15__tree_iteratorINS_12__value_typeIiiEEPNS_11__tree_nodeIS3_PvEElEEbEC1B7v160006IS8_RbLS5_0EEEOT_OT0_, symObjAddr: 0x2524, symBinAddr: 0x100005C40, symSize: 0x3C }
  - { offsetInCU: 0xF2A6, offset: 0xF2A6, size: 0x8, addend: 0x0, symName: __ZNKSt3__16__treeINS_12__value_typeIiiEENS_19__map_value_compareIiS2_NS_4lessIiEELb1EEENS_9allocatorIS2_EEE10__root_ptrEv, symObjAddr: 0x2560, symBinAddr: 0x100005C7C, symSize: 0x24 }
  - { offsetInCU: 0xF2CC, offset: 0xF2CC, size: 0x8, addend: 0x0, symName: __ZNSt3__16__treeINS_12__value_typeIiiEENS_19__map_value_compareIiS2_NS_4lessIiEELb1EEENS_9allocatorIS2_EEE10value_compB7v160006Ev, symObjAddr: 0x2584, symBinAddr: 0x100005CA0, symSize: 0x28 }
  - { offsetInCU: 0xF2F2, offset: 0xF2F2, size: 0x8, addend: 0x0, symName: __ZNKSt3__119__map_value_compareIiNS_12__value_typeIiiEENS_4lessIiEELb1EEclB7v160006ERKiRKS2_, symObjAddr: 0x25AC, symBinAddr: 0x100005CC8, symSize: 0x50 }
  - { offsetInCU: 0xF336, offset: 0xF336, size: 0x8, addend: 0x0, symName: __ZNKSt3__119__map_value_compareIiNS_12__value_typeIiiEENS_4lessIiEELb1EEclB7v160006ERKS2_RKi, symObjAddr: 0x25FC, symBinAddr: 0x100005D18, symSize: 0x48 }
  - { offsetInCU: 0xF37A, offset: 0xF37A, size: 0x8, addend: 0x0, symName: __ZNSt3__117__compressed_pairImNS_19__map_value_compareIiNS_12__value_typeIiiEENS_4lessIiEELb1EEEE6secondB7v160006Ev, symObjAddr: 0x2644, symBinAddr: 0x100005D60, symSize: 0x24 }
  - { offsetInCU: 0xF3A0, offset: 0xF3A0, size: 0x8, addend: 0x0, symName: __ZNSt3__122__compressed_pair_elemINS_19__map_value_compareIiNS_12__value_typeIiiEENS_4lessIiEELb1EEELi1ELb1EE5__getB7v160006Ev, symObjAddr: 0x2668, symBinAddr: 0x100005D84, symSize: 0x14 }
  - { offsetInCU: 0xF3C6, offset: 0xF3C6, size: 0x8, addend: 0x0, symName: __ZNKSt3__14lessIiEclB7v160006ERKiS3_, symObjAddr: 0x267C, symBinAddr: 0x100005D98, symSize: 0x34 }
  - { offsetInCU: 0xF40A, offset: 0xF40A, size: 0x8, addend: 0x0, symName: __ZNKSt3__112__value_typeIiiE11__get_valueB7v160006Ev, symObjAddr: 0x26B0, symBinAddr: 0x100005DCC, symSize: 0x24 }
  - { offsetInCU: 0xF430, offset: 0xF430, size: 0x8, addend: 0x0, symName: __ZNSt3__116allocator_traitsINS_9allocatorINS_11__tree_nodeINS_12__value_typeIiiEEPvEEEEE8allocateB7v160006ERS7_m, symObjAddr: 0x270C, symBinAddr: 0x100005E28, symSize: 0x2C }
  - { offsetInCU: 0xF463, offset: 0xF463, size: 0x8, addend: 0x0, symName: __ZNSt3__122__tree_node_destructorINS_9allocatorINS_11__tree_nodeINS_12__value_typeIiiEEPvEEEEEC1B7v160006ERS7_b, symObjAddr: 0x2738, symBinAddr: 0x100005E54, symSize: 0x48 }
  - { offsetInCU: 0xF4B1, offset: 0xF4B1, size: 0x8, addend: 0x0, symName: __ZNSt3__110unique_ptrINS_11__tree_nodeINS_12__value_typeIiiEEPvEENS_22__tree_node_destructorINS_9allocatorIS5_EEEEEC1B7v160006ILb1EvEEPS5_NS_16__dependent_typeINS_27__unique_ptr_deleter_sfinaeIS9_EEXT_EE20__good_rval_ref_typeE, symObjAddr: 0x2780, symBinAddr: 0x100005E9C, symSize: 0x3C }
  - { offsetInCU: 0xF502, offset: 0xF502, size: 0x8, addend: 0x0, symName: __ZNSt3__116allocator_traitsINS_9allocatorINS_11__tree_nodeINS_12__value_typeIiiEEPvEEEEE9constructB7v160006INS_4pairIKiiEEJRKNS_21piecewise_construct_tENS_5tupleIJRSB_EEENSG_IJEEEEvvEEvRS7_PT_DpOT0_, symObjAddr: 0x27BC, symBinAddr: 0x100005ED8, symSize: 0x40 }
  - { offsetInCU: 0xF57F, offset: 0xF57F, size: 0x8, addend: 0x0, symName: __ZNKSt3__110unique_ptrINS_11__tree_nodeINS_12__value_typeIiiEEPvEENS_22__tree_node_destructorINS_9allocatorIS5_EEEEEptB7v160006Ev, symObjAddr: 0x27FC, symBinAddr: 0x100005F18, symSize: 0x28 }
  - { offsetInCU: 0xF5A5, offset: 0xF5A5, size: 0x8, addend: 0x0, symName: __ZNSt3__110unique_ptrINS_11__tree_nodeINS_12__value_typeIiiEEPvEENS_22__tree_node_destructorINS_9allocatorIS5_EEEEE11get_deleterB7v160006Ev, symObjAddr: 0x2824, symBinAddr: 0x100005F40, symSize: 0x24 }
  - { offsetInCU: 0xF5CB, offset: 0xF5CB, size: 0x8, addend: 0x0, symName: __ZNSt3__19allocatorINS_11__tree_nodeINS_12__value_typeIiiEEPvEEE8allocateB7v160006Em, symObjAddr: 0x2848, symBinAddr: 0x100005F64, symSize: 0x5C }
  - { offsetInCU: 0xF609, offset: 0xF609, size: 0x8, addend: 0x0, symName: __ZNSt3__116allocator_traitsINS_9allocatorINS_11__tree_nodeINS_12__value_typeIiiEEPvEEEEE8max_sizeB7v160006IS7_vvEEmRKS7_, symObjAddr: 0x28A4, symBinAddr: 0x100005FC0, symSize: 0x28 }
  - { offsetInCU: 0xF635, offset: 0xF635, size: 0x8, addend: 0x0, symName: __ZNSt3__122__tree_node_destructorINS_9allocatorINS_11__tree_nodeINS_12__value_typeIiiEEPvEEEEEC2B7v160006ERS7_b, symObjAddr: 0x28CC, symBinAddr: 0x100005FE8, symSize: 0x38 }
  - { offsetInCU: 0xF67D, offset: 0xF67D, size: 0x8, addend: 0x0, symName: __ZNSt3__110unique_ptrINS_11__tree_nodeINS_12__value_typeIiiEEPvEENS_22__tree_node_destructorINS_9allocatorIS5_EEEEEC2B7v160006ILb1EvEEPS5_NS_16__dependent_typeINS_27__unique_ptr_deleter_sfinaeIS9_EEXT_EE20__good_rval_ref_typeE, symObjAddr: 0x2904, symBinAddr: 0x100006020, symSize: 0x48 }
  - { offsetInCU: 0xF6CE, offset: 0xF6CE, size: 0x8, addend: 0x0, symName: __ZNSt3__117__compressed_pairIPNS_11__tree_nodeINS_12__value_typeIiiEEPvEENS_22__tree_node_destructorINS_9allocatorIS5_EEEEEC1B7v160006IRS6_SA_EEOT_OT0_, symObjAddr: 0x294C, symBinAddr: 0x100006068, symSize: 0x3C }
  - { offsetInCU: 0xF726, offset: 0xF726, size: 0x8, addend: 0x0, symName: __ZNSt3__117__compressed_pairIPNS_11__tree_nodeINS_12__value_typeIiiEEPvEENS_22__tree_node_destructorINS_9allocatorIS5_EEEEEC2B7v160006IRS6_SA_EEOT_OT0_, symObjAddr: 0x2988, symBinAddr: 0x1000060A4, symSize: 0x48 }
  - { offsetInCU: 0xF77E, offset: 0xF77E, size: 0x8, addend: 0x0, symName: __ZNSt3__122__compressed_pair_elemIPNS_11__tree_nodeINS_12__value_typeIiiEEPvEELi0ELb0EEC2B7v160006IRS6_vEEOT_, symObjAddr: 0x29D0, symBinAddr: 0x1000060EC, symSize: 0x24 }
  - { offsetInCU: 0xF7C0, offset: 0xF7C0, size: 0x8, addend: 0x0, symName: __ZNSt3__122__compressed_pair_elemINS_22__tree_node_destructorINS_9allocatorINS_11__tree_nodeINS_12__value_typeIiiEEPvEEEEEELi1ELb0EEC2B7v160006IS9_vEEOT_, symObjAddr: 0x29F4, symBinAddr: 0x100006110, symSize: 0x24 }
  - { offsetInCU: 0xF802, offset: 0xF802, size: 0x8, addend: 0x0, symName: __ZNSt3__14pairIKiiEC1B7v160006IJRS1_EJEEENS_21piecewise_construct_tENS_5tupleIJDpT_EEENS6_IJDpT0_EEE, symObjAddr: 0x2A68, symBinAddr: 0x100006184, symSize: 0x44 }
  - { offsetInCU: 0xF869, offset: 0xF869, size: 0x8, addend: 0x0, symName: __ZNSt3__14pairIKiiEC1B7v160006IJRS1_EJEJLm0EEJEEENS_21piecewise_construct_tERNS_5tupleIJDpT_EEERNS6_IJDpT0_EEENS_15__tuple_indicesIJXspT1_EEEENSF_IJXspT2_EEEE, symObjAddr: 0x2AAC, symBinAddr: 0x1000061C8, symSize: 0x3C }
  - { offsetInCU: 0xF8F9, offset: 0xF8F9, size: 0x8, addend: 0x0, symName: __ZNSt3__14pairIKiiEC2B7v160006IJRS1_EJEJLm0EEJEEENS_21piecewise_construct_tERNS_5tupleIJDpT_EEERNS6_IJDpT0_EEENS_15__tuple_indicesIJXspT1_EEEENSF_IJXspT2_EEEE, symObjAddr: 0x2AE8, symBinAddr: 0x100006204, symSize: 0x48 }
  - { offsetInCU: 0xF989, offset: 0xF989, size: 0x8, addend: 0x0, symName: __ZNSt3__112__tuple_leafILm0ERKiLb0EE3getB7v160006Ev, symObjAddr: 0x2B54, symBinAddr: 0x100006270, symSize: 0x18 }
  - { offsetInCU: 0xF9AF, offset: 0xF9AF, size: 0x8, addend: 0x0, symName: __ZNKSt3__117__compressed_pairIPNS_11__tree_nodeINS_12__value_typeIiiEEPvEENS_22__tree_node_destructorINS_9allocatorIS5_EEEEE5firstB7v160006Ev, symObjAddr: 0x2B6C, symBinAddr: 0x100006288, symSize: 0x24 }
  - { offsetInCU: 0xF9D5, offset: 0xF9D5, size: 0x8, addend: 0x0, symName: __ZNKSt3__122__compressed_pair_elemIPNS_11__tree_nodeINS_12__value_typeIiiEEPvEELi0ELb0EE5__getB7v160006Ev, symObjAddr: 0x2B90, symBinAddr: 0x1000062AC, symSize: 0x14 }
  - { offsetInCU: 0xF9FB, offset: 0xF9FB, size: 0x8, addend: 0x0, symName: __ZNSt3__117__compressed_pairIPNS_11__tree_nodeINS_12__value_typeIiiEEPvEENS_22__tree_node_destructorINS_9allocatorIS5_EEEEE6secondB7v160006Ev, symObjAddr: 0x2BA4, symBinAddr: 0x1000062C0, symSize: 0x28 }
  - { offsetInCU: 0xFA21, offset: 0xFA21, size: 0x8, addend: 0x0, symName: __ZNSt3__122__compressed_pair_elemINS_22__tree_node_destructorINS_9allocatorINS_11__tree_nodeINS_12__value_typeIiiEEPvEEEEEELi1ELb0EE5__getB7v160006Ev, symObjAddr: 0x2BCC, symBinAddr: 0x1000062E8, symSize: 0x14 }
  - { offsetInCU: 0xFA47, offset: 0xFA47, size: 0x8, addend: 0x0, symName: __ZNSt3__16__treeINS_12__value_typeIiiEENS_19__map_value_compareIiS2_NS_4lessIiEELb1EEENS_9allocatorIS2_EEE4sizeB7v160006Ev, symObjAddr: 0x2F0C, symBinAddr: 0x100006628, symSize: 0x28 }
  - { offsetInCU: 0xFA6D, offset: 0xFA6D, size: 0x8, addend: 0x0, symName: __ZNKSt3__116__tree_node_baseIPvE15__parent_unsafeB7v160006Ev, symObjAddr: 0x2F34, symBinAddr: 0x100006650, symSize: 0x18 }
  - { offsetInCU: 0xFA93, offset: 0xFA93, size: 0x8, addend: 0x0, symName: __ZNSt3__116__tree_node_baseIPvE12__set_parentB7v160006EPS2_, symObjAddr: 0x311C, symBinAddr: 0x100006838, symSize: 0x20 }
  - { offsetInCU: 0xFAC8, offset: 0xFAC8, size: 0x8, addend: 0x0, symName: __ZNSt3__117__compressed_pairImNS_19__map_value_compareIiNS_12__value_typeIiiEENS_4lessIiEELb1EEEE5firstB7v160006Ev, symObjAddr: 0x313C, symBinAddr: 0x100006858, symSize: 0x24 }
  - { offsetInCU: 0xFAEE, offset: 0xFAEE, size: 0x8, addend: 0x0, symName: __ZNSt3__122__compressed_pair_elemImLi0ELb0EE5__getB7v160006Ev, symObjAddr: 0x3160, symBinAddr: 0x10000687C, symSize: 0x14 }
  - { offsetInCU: 0xFB14, offset: 0xFB14, size: 0x8, addend: 0x0, symName: __ZNSt3__117__compressed_pairIPNS_11__tree_nodeINS_12__value_typeIiiEEPvEENS_22__tree_node_destructorINS_9allocatorIS5_EEEEE5firstB7v160006Ev, symObjAddr: 0x3174, symBinAddr: 0x100006890, symSize: 0x24 }
  - { offsetInCU: 0xFB3A, offset: 0xFB3A, size: 0x8, addend: 0x0, symName: __ZNSt3__122__compressed_pair_elemIPNS_11__tree_nodeINS_12__value_typeIiiEEPvEELi0ELb0EE5__getB7v160006Ev, symObjAddr: 0x3198, symBinAddr: 0x1000068B4, symSize: 0x14 }
  - { offsetInCU: 0xFB60, offset: 0xFB60, size: 0x8, addend: 0x0, symName: __ZNSt3__110unique_ptrINS_11__tree_nodeINS_12__value_typeIiiEEPvEENS_22__tree_node_destructorINS_9allocatorIS5_EEEEED2B7v160006Ev, symObjAddr: 0x31AC, symBinAddr: 0x1000068C8, symSize: 0x30 }
  - { offsetInCU: 0xFB8A, offset: 0xFB8A, size: 0x8, addend: 0x0, symName: __ZNSt3__110unique_ptrINS_11__tree_nodeINS_12__value_typeIiiEEPvEENS_22__tree_node_destructorINS_9allocatorIS5_EEEEE5resetB7v160006EPS5_, symObjAddr: 0x31DC, symBinAddr: 0x1000068F8, symSize: 0x78 }
  - { offsetInCU: 0xFBCE, offset: 0xFBCE, size: 0x8, addend: 0x0, symName: __ZNSt3__122__tree_node_destructorINS_9allocatorINS_11__tree_nodeINS_12__value_typeIiiEEPvEEEEEclB7v160006EPS6_, symObjAddr: 0x3254, symBinAddr: 0x100006970, symSize: 0x98 }
  - { offsetInCU: 0xFC03, offset: 0xFC03, size: 0x8, addend: 0x0, symName: __ZNSt3__115__tree_iteratorINS_12__value_typeIiiEEPNS_11__tree_nodeIS2_PvEElEC2B7v160006ES6_, symObjAddr: 0x32EC, symBinAddr: 0x100006A08, symSize: 0x20 }
  - { offsetInCU: 0xFC3C, offset: 0xFC3C, size: 0x8, addend: 0x0, symName: __ZNSt3__14pairINS_15__tree_iteratorINS_12__value_typeIiiEEPNS_11__tree_nodeIS3_PvEElEEbEC2B7v160006IS8_RbLS5_0EEEOT_OT0_, symObjAddr: 0x330C, symBinAddr: 0x100006A28, symSize: 0x38 }
  - { offsetInCU: 0xFC9A, offset: 0xFC9A, size: 0x8, addend: 0x0, symName: __ZNSt3__15tupleIJRKiEEC1B7v160006INS_4_AndELi0EEES2_, symObjAddr: 0x3344, symBinAddr: 0x100006A60, symSize: 0x34 }
  - { offsetInCU: 0xFCE2, offset: 0xFCE2, size: 0x8, addend: 0x0, symName: __ZNSt3__15tupleIJRKiEEC2B7v160006INS_4_AndELi0EEES2_, symObjAddr: 0x3378, symBinAddr: 0x100006A94, symSize: 0x34 }
  - { offsetInCU: 0xFD2A, offset: 0xFD2A, size: 0x8, addend: 0x0, symName: __ZNSt3__112__tuple_implINS_15__tuple_indicesIJLm0EEEEJRKiEEC1B7v160006IJLm0EEJS4_EJEJEJS4_EEENS1_IJXspT_EEEENS_13__tuple_typesIJDpT0_EEENS1_IJXspT1_EEEENS8_IJDpT2_EEEDpOT3_, symObjAddr: 0x33AC, symBinAddr: 0x100006AC8, symSize: 0x34 }
  - { offsetInCU: 0xFDBF, offset: 0xFDBF, size: 0x8, addend: 0x0, symName: __ZNSt3__112__tuple_implINS_15__tuple_indicesIJLm0EEEEJRKiEEC2B7v160006IJLm0EEJS4_EJEJEJS4_EEENS1_IJXspT_EEEENS_13__tuple_typesIJDpT0_EEENS1_IJXspT1_EEEENS8_IJDpT2_EEEDpOT3_, symObjAddr: 0x33E0, symBinAddr: 0x100006AFC, symSize: 0x34 }
  - { offsetInCU: 0xFE54, offset: 0xFE54, size: 0x8, addend: 0x0, symName: __ZNSt3__112__tuple_leafILm0ERKiLb0EEC2B7v160006IS2_vEEOT_, symObjAddr: 0x3414, symBinAddr: 0x100006B30, symSize: 0x20 }
  - { offsetInCU: 0xFE97, offset: 0xFE97, size: 0x8, addend: 0x0, symName: __ZNSt3__114pointer_traitsIPNS_12__value_typeIiiEEE10pointer_toB7v160006ERS2_, symObjAddr: 0x3434, symBinAddr: 0x100006B50, symSize: 0x14 }
  - { offsetInCU: 0xFEBA, offset: 0xFEBA, size: 0x8, addend: 0x0, symName: __ZNKSt3__115__tree_iteratorINS_12__value_typeIiiEEPNS_11__tree_nodeIS2_PvEElE8__get_npB7v160006Ev, symObjAddr: 0x3448, symBinAddr: 0x100006B64, symSize: 0x18 }
  - { offsetInCU: 0xFEE0, offset: 0xFEE0, size: 0x8, addend: 0x0, symName: __ZNSt3__16__treeINS_12__value_typeIiiEENS_19__map_value_compareIiS2_NS_4lessIiEELb1EEENS_9allocatorIS2_EEE5beginB7v160006Ev, symObjAddr: 0x3460, symBinAddr: 0x100006B7C, symSize: 0x34 }
  - { offsetInCU: 0xFF06, offset: 0xFF06, size: 0x8, addend: 0x0, symName: __ZNSt3__114__map_iteratorINS_15__tree_iteratorINS_12__value_typeIiiEEPNS_11__tree_nodeIS3_PvEElEEEC1B7v160006ES8_, symObjAddr: 0x3494, symBinAddr: 0x100006BB0, symSize: 0x34 }
  - { offsetInCU: 0xFF3F, offset: 0xFF3F, size: 0x8, addend: 0x0, symName: __ZNSt3__115__tree_iteratorINS_12__value_typeIiiEEPNS_11__tree_nodeIS2_PvEElEC1B7v160006EPNS_15__tree_end_nodeIPNS_16__tree_node_baseIS4_EEEE, symObjAddr: 0x34C8, symBinAddr: 0x100006BE4, symSize: 0x34 }
  - { offsetInCU: 0xFF78, offset: 0xFF78, size: 0x8, addend: 0x0, symName: __ZNSt3__115__tree_iteratorINS_12__value_typeIiiEEPNS_11__tree_nodeIS2_PvEElEC2B7v160006EPNS_15__tree_end_nodeIPNS_16__tree_node_baseIS4_EEEE, symObjAddr: 0x34FC, symBinAddr: 0x100006C18, symSize: 0x20 }
  - { offsetInCU: 0xFFB1, offset: 0xFFB1, size: 0x8, addend: 0x0, symName: __ZNSt3__114__map_iteratorINS_15__tree_iteratorINS_12__value_typeIiiEEPNS_11__tree_nodeIS3_PvEElEEEC2B7v160006ES8_, symObjAddr: 0x351C, symBinAddr: 0x100006C38, symSize: 0x20 }
  - { offsetInCU: 0xFFEA, offset: 0xFFEA, size: 0x8, addend: 0x0, symName: __ZNSt3__16__treeINS_12__value_typeIiiEENS_19__map_value_compareIiS2_NS_4lessIiEELb1EEENS_9allocatorIS2_EEE3endB7v160006Ev, symObjAddr: 0x353C, symBinAddr: 0x100006C58, symSize: 0x34 }
  - { offsetInCU: 0x10010, offset: 0x10010, size: 0x8, addend: 0x0, symName: __ZNSt3__115__tree_iteratorINS_12__value_typeIiiEEPNS_11__tree_nodeIS2_PvEElEppB7v160006Ev, symObjAddr: 0x35D4, symBinAddr: 0x100006CF0, symSize: 0x38 }
  - { offsetInCU: 0x1004F, offset: 0x1004F, size: 0x8, addend: 0x0, symName: __ZNKSt3__113basic_ostreamIcNS_11char_traitsIcEEE6sentrycvbB7v160006Ev, symObjAddr: 0x38B8, symBinAddr: 0x100006FD4, symSize: 0x1C }
  - { offsetInCU: 0x10075, offset: 0x10075, size: 0x8, addend: 0x0, symName: __ZNSt3__119ostreambuf_iteratorIcNS_11char_traitsIcEEEC1B7v160006ERNS_13basic_ostreamIcS2_EE, symObjAddr: 0x3B14, symBinAddr: 0x100007230, symSize: 0x34 }
  - { offsetInCU: 0x100AD, offset: 0x100AD, size: 0x8, addend: 0x0, symName: __ZNKSt3__18ios_base5flagsB7v160006Ev, symObjAddr: 0x3B48, symBinAddr: 0x100007264, symSize: 0x18 }
  - { offsetInCU: 0x100D5, offset: 0x100D5, size: 0x8, addend: 0x0, symName: __ZNKSt3__19basic_iosIcNS_11char_traitsIcEEE4fillB7v160006Ev, symObjAddr: 0x3B60, symBinAddr: 0x10000727C, symSize: 0x64 }
  - { offsetInCU: 0x100FD, offset: 0x100FD, size: 0x8, addend: 0x0, symName: __ZNKSt3__119ostreambuf_iteratorIcNS_11char_traitsIcEEE6failedB7v160006Ev, symObjAddr: 0x3BC4, symBinAddr: 0x1000072E0, symSize: 0x24 }
  - { offsetInCU: 0x10123, offset: 0x10123, size: 0x8, addend: 0x0, symName: __ZNSt3__19basic_iosIcNS_11char_traitsIcEEE8setstateB7v160006Ej, symObjAddr: 0x3BE8, symBinAddr: 0x100007304, symSize: 0x2C }
  - { offsetInCU: 0x10158, offset: 0x10158, size: 0x8, addend: 0x0, symName: __ZNKSt3__18ios_base5widthB7v160006Ev, symObjAddr: 0x3C14, symBinAddr: 0x100007330, symSize: 0x18 }
  - { offsetInCU: 0x10180, offset: 0x10180, size: 0x8, addend: 0x0, symName: __ZNSt3__115basic_streambufIcNS_11char_traitsIcEEE5sputnB7v160006EPKcl, symObjAddr: 0x3C2C, symBinAddr: 0x100007348, symSize: 0x3C }
  - { offsetInCU: 0x101C2, offset: 0x101C2, size: 0x8, addend: 0x0, symName: __ZNSt3__112basic_stringIcNS_11char_traitsIcEENS_9allocatorIcEEEC1B7v160006Emc, symObjAddr: 0x3C68, symBinAddr: 0x100007384, symSize: 0x3C }
  - { offsetInCU: 0x1020A, offset: 0x1020A, size: 0x8, addend: 0x0, symName: __ZNSt3__112basic_stringIcNS_11char_traitsIcEENS_9allocatorIcEEE4dataB7v160006Ev, symObjAddr: 0x3CA4, symBinAddr: 0x1000073C0, symSize: 0x28 }
  - { offsetInCU: 0x10230, offset: 0x10230, size: 0x8, addend: 0x0, symName: __ZNSt3__18ios_base5widthB7v160006El, symObjAddr: 0x3CCC, symBinAddr: 0x1000073E8, symSize: 0x2C }
  - { offsetInCU: 0x10276, offset: 0x10276, size: 0x8, addend: 0x0, symName: __ZNSt3__112basic_stringIcNS_11char_traitsIcEENS_9allocatorIcEEEC2B7v160006Emc, symObjAddr: 0x3CF8, symBinAddr: 0x100007414, symSize: 0x54 }
  - { offsetInCU: 0x102BE, offset: 0x102BE, size: 0x8, addend: 0x0, symName: __ZNSt3__117__compressed_pairINS_12basic_stringIcNS_11char_traitsIcEENS_9allocatorIcEEE5__repES5_EC1B7v160006INS_18__default_init_tagESA_EEOT_OT0_, symObjAddr: 0x3D4C, symBinAddr: 0x100007468, symSize: 0x3C }
  - { offsetInCU: 0x10316, offset: 0x10316, size: 0x8, addend: 0x0, symName: __ZNSt3__117__compressed_pairINS_12basic_stringIcNS_11char_traitsIcEENS_9allocatorIcEEE5__repES5_EC2B7v160006INS_18__default_init_tagESA_EEOT_OT0_, symObjAddr: 0x3D98, symBinAddr: 0x1000074B4, symSize: 0x3C }
  - { offsetInCU: 0x1036E, offset: 0x1036E, size: 0x8, addend: 0x0, symName: __ZNSt3__122__compressed_pair_elemINS_12basic_stringIcNS_11char_traitsIcEENS_9allocatorIcEEE5__repELi0ELb0EEC2B7v160006ENS_18__default_init_tagE, symObjAddr: 0x3DD4, symBinAddr: 0x1000074F0, symSize: 0x14 }
  - { offsetInCU: 0x103A3, offset: 0x103A3, size: 0x8, addend: 0x0, symName: __ZNSt3__122__compressed_pair_elemINS_9allocatorIcEELi1ELb1EEC2B7v160006ENS_18__default_init_tagE, symObjAddr: 0x3DE8, symBinAddr: 0x100007504, symSize: 0x2C }
  - { offsetInCU: 0x103D8, offset: 0x103D8, size: 0x8, addend: 0x0, symName: __ZNSt3__19allocatorIcEC2B7v160006Ev, symObjAddr: 0x3E14, symBinAddr: 0x100007530, symSize: 0x2C }
  - { offsetInCU: 0x10402, offset: 0x10402, size: 0x8, addend: 0x0, symName: __ZNSt3__116__non_trivial_ifILb1ENS_9allocatorIcEEEC2B7v160006Ev, symObjAddr: 0x3E40, symBinAddr: 0x10000755C, symSize: 0x14 }
  - { offsetInCU: 0x1042C, offset: 0x1042C, size: 0x8, addend: 0x0, symName: __ZNSt3__112basic_stringIcNS_11char_traitsIcEENS_9allocatorIcEEE13__get_pointerB7v160006Ev, symObjAddr: 0x3E68, symBinAddr: 0x100007584, symSize: 0x54 }
  - { offsetInCU: 0x10452, offset: 0x10452, size: 0x8, addend: 0x0, symName: __ZNKSt3__112basic_stringIcNS_11char_traitsIcEENS_9allocatorIcEEE9__is_longB7v160006Ev, symObjAddr: 0x3EBC, symBinAddr: 0x1000075D8, symSize: 0x38 }
  - { offsetInCU: 0x10478, offset: 0x10478, size: 0x8, addend: 0x0, symName: __ZNSt3__112basic_stringIcNS_11char_traitsIcEENS_9allocatorIcEEE18__get_long_pointerB7v160006Ev, symObjAddr: 0x3EF4, symBinAddr: 0x100007610, symSize: 0x28 }
  - { offsetInCU: 0x1049E, offset: 0x1049E, size: 0x8, addend: 0x0, symName: __ZNSt3__112basic_stringIcNS_11char_traitsIcEENS_9allocatorIcEEE19__get_short_pointerB7v160006Ev, symObjAddr: 0x3F1C, symBinAddr: 0x100007638, symSize: 0x28 }
  - { offsetInCU: 0x104C4, offset: 0x104C4, size: 0x8, addend: 0x0, symName: __ZNKSt3__117__compressed_pairINS_12basic_stringIcNS_11char_traitsIcEENS_9allocatorIcEEE5__repES5_E5firstB7v160006Ev, symObjAddr: 0x3F44, symBinAddr: 0x100007660, symSize: 0x24 }
  - { offsetInCU: 0x104EA, offset: 0x104EA, size: 0x8, addend: 0x0, symName: __ZNKSt3__122__compressed_pair_elemINS_12basic_stringIcNS_11char_traitsIcEENS_9allocatorIcEEE5__repELi0ELb0EE5__getB7v160006Ev, symObjAddr: 0x3F68, symBinAddr: 0x100007684, symSize: 0x14 }
  - { offsetInCU: 0x10510, offset: 0x10510, size: 0x8, addend: 0x0, symName: __ZNSt3__117__compressed_pairINS_12basic_stringIcNS_11char_traitsIcEENS_9allocatorIcEEE5__repES5_E5firstB7v160006Ev, symObjAddr: 0x3F7C, symBinAddr: 0x100007698, symSize: 0x24 }
  - { offsetInCU: 0x10536, offset: 0x10536, size: 0x8, addend: 0x0, symName: __ZNSt3__122__compressed_pair_elemINS_12basic_stringIcNS_11char_traitsIcEENS_9allocatorIcEEE5__repELi0ELb0EE5__getB7v160006Ev, symObjAddr: 0x3FA0, symBinAddr: 0x1000076BC, symSize: 0x14 }
  - { offsetInCU: 0x1055C, offset: 0x1055C, size: 0x8, addend: 0x0, symName: __ZNSt3__114pointer_traitsIPcE10pointer_toB7v160006ERc, symObjAddr: 0x3FB4, symBinAddr: 0x1000076D0, symSize: 0x14 }
  - { offsetInCU: 0x1057F, offset: 0x1057F, size: 0x8, addend: 0x0, symName: __ZNSt3__119ostreambuf_iteratorIcNS_11char_traitsIcEEEC2B7v160006ERNS_13basic_ostreamIcS2_EE, symObjAddr: 0x3FC8, symBinAddr: 0x1000076E4, symSize: 0x54 }
  - { offsetInCU: 0x105B7, offset: 0x105B7, size: 0x8, addend: 0x0, symName: __ZNKSt3__19basic_iosIcNS_11char_traitsIcEEE5rdbufB7v160006Ev, symObjAddr: 0x401C, symBinAddr: 0x100007738, symSize: 0x24 }
  - { offsetInCU: 0x105DF, offset: 0x105DF, size: 0x8, addend: 0x0, symName: __ZNKSt3__18ios_base5rdbufB7v160006Ev, symObjAddr: 0x4040, symBinAddr: 0x10000775C, symSize: 0x18 }
  - { offsetInCU: 0x10605, offset: 0x10605, size: 0x8, addend: 0x0, symName: __ZNSt3__111char_traitsIcE11eq_int_typeEii, symObjAddr: 0x4058, symBinAddr: 0x100007774, symSize: 0x28 }
  - { offsetInCU: 0x10636, offset: 0x10636, size: 0x8, addend: 0x0, symName: __ZNSt3__111char_traitsIcE3eofEv, symObjAddr: 0x4080, symBinAddr: 0x10000779C, symSize: 0x8 }
  - { offsetInCU: 0x1064A, offset: 0x1064A, size: 0x8, addend: 0x0, symName: __ZNKSt3__19basic_iosIcNS_11char_traitsIcEEE5widenB7v160006Ec, symObjAddr: 0x4088, symBinAddr: 0x1000077A4, symSize: 0x84 }
  - { offsetInCU: 0x106B8, offset: 0x106B8, size: 0x8, addend: 0x0, symName: __ZNKSt3__15ctypeIcE5widenB7v160006Ec, symObjAddr: 0x4138, symBinAddr: 0x100007854, symSize: 0x38 }
  - { offsetInCU: 0x106ED, offset: 0x106ED, size: 0x8, addend: 0x0, symName: __ZNSt3__18ios_base8setstateB7v160006Ej, symObjAddr: 0x4170, symBinAddr: 0x10000788C, symSize: 0x34 }
...
