---
triple:          'arm64-apple-darwin'
binary-path:     '/Users/rohakdebnath/Desktop/Cpp /CSES/taskanddedlines'
relocations:
  - { offsetInCU: 0x47E3, offset: 0x47E3, size: 0x8, addend: 0x0, symName: __ZNSt3__124__put_character_sequenceB7v160006IcNS_11char_traitsIcEEEERNS_13basic_ostreamIT_T0_EES7_PKS4_m, symObjAddr: 0x1AAC, symBinAddr: 0x100003028, symSize: 0x1EC }
  - { offsetInCU: 0x662C, offset: 0x662C, size: 0x8, addend: 0x0, symName: __ZNSt3__14sortB7v160006INS_11__wrap_iterIPxEEEEvT_S4_, symObjAddr: 0x30C, symBinAddr: 0x100001888, symSize: 0x3C }
  - { offsetInCU: 0x666E, offset: 0x666E, size: 0x8, addend: 0x0, symName: __ZNSt3__111partial_sumB7v160006INS_11__wrap_iterIPxEES3_EET0_T_S5_S4_, symObjAddr: 0x3A8, symBinAddr: 0x100001924, symSize: 0xFC }
  - { offsetInCU: 0x66E4, offset: 0x66E4, size: 0x8, addend: 0x0, symName: '__ZNSt3__110accumulateB7v160006INS_11__wrap_iterIPxEEiZ4mainE3$_0EET0_T_S6_S5_T1_', symObjAddr: 0x4A4, symBinAddr: 0x100001A20, symSize: 0x80 }
  - { offsetInCU: 0x6755, offset: 0x6755, size: 0x8, addend: 0x0, symName: __ZNSt3__1lsB7v160006INS_11char_traitsIcEEEERNS_13basic_ostreamIcT_EES6_c, symObjAddr: 0x524, symBinAddr: 0x100001AA0, symSize: 0x34 }
  - { offsetInCU: 0x679B, offset: 0x679B, size: 0x8, addend: 0x0, symName: __ZNSt3__122__make_exception_guardB7v160006INS_6vectorIxNS_9allocatorIxEEE16__destroy_vectorEEENS_28__exception_guard_exceptionsIT_EES7_, symObjAddr: 0x6A0, symBinAddr: 0x100001C1C, symSize: 0x40 }
  - { offsetInCU: 0x67D0, offset: 0x67D0, size: 0x8, addend: 0x0, symName: __ZNSt3__119__debug_db_insert_cB7v160006INS_6vectorIxNS_9allocatorIxEEEEEEvPT_, symObjAddr: 0x714, symBinAddr: 0x100001C90, symSize: 0x10 }
  - { offsetInCU: 0x6801, offset: 0x6801, size: 0x8, addend: 0x0, symName: __ZNSt3__119__allocate_at_leastB7v160006INS_9allocatorIxEEEEDaRT_m, symObjAddr: 0xA9C, symBinAddr: 0x100002018, symSize: 0x3C }
  - { offsetInCU: 0x6844, offset: 0x6844, size: 0x8, addend: 0x0, symName: __ZNSt3__13minB7v160006ImEERKT_S3_S3_, symObjAddr: 0xBD4, symBinAddr: 0x100002150, symSize: 0x2C }
  - { offsetInCU: 0x6A71, offset: 0x6A71, size: 0x8, addend: 0x0, symName: __ZNSt3__13minB7v160006ImNS_6__lessImmEEEERKT_S5_S5_T0_, symObjAddr: 0xC70, symBinAddr: 0x1000021EC, symSize: 0x54 }
  - { offsetInCU: 0x6CF2, offset: 0x6CF2, size: 0x8, addend: 0x0, symName: __ZNSt3__120__throw_length_errorB7v160006EPKc, symObjAddr: 0xD54, symBinAddr: 0x1000022D0, symSize: 0x64 }
  - { offsetInCU: 0x6D1A, offset: 0x6D1A, size: 0x8, addend: 0x0, symName: __ZNSt3__117allocate_at_leastB7v160006INS_9allocatorIxEEEENS_17allocation_resultINS_16allocator_traitsIT_E7pointerEEERS5_m, symObjAddr: 0xE38, symBinAddr: 0x1000023B4, symSize: 0x3C }
  - { offsetInCU: 0x6D5D, offset: 0x6D5D, size: 0x8, addend: 0x0, symName: __ZNSt3__117__libcpp_allocateB7v160006Emm, symObjAddr: 0xF40, symBinAddr: 0x1000024BC, symSize: 0x60 }
  - { offsetInCU: 0x6DB7, offset: 0x6DB7, size: 0x8, addend: 0x0, symName: __ZNSt3__124__is_overaligned_for_newB7v160006Em, symObjAddr: 0xFA0, symBinAddr: 0x10000251C, symSize: 0x20 }
  - { offsetInCU: 0x6DE5, offset: 0x6DE5, size: 0x8, addend: 0x0, symName: __ZNSt3__121__libcpp_operator_newB7v160006IJmSt11align_val_tEEEPvDpT_, symObjAddr: 0xFC0, symBinAddr: 0x10000253C, symSize: 0x2C }
  - { offsetInCU: 0x6E32, offset: 0x6E32, size: 0x8, addend: 0x0, symName: __ZNSt3__121__libcpp_operator_newB7v160006IJmEEEPvDpT_, symObjAddr: 0xFEC, symBinAddr: 0x100002568, symSize: 0x24 }
  - { offsetInCU: 0x6E6B, offset: 0x6E6B, size: 0x8, addend: 0x0, symName: __ZNSt3__112__to_addressB7v160006IxEEPT_S2_, symObjAddr: 0x1108, symBinAddr: 0x100002684, symSize: 0x14 }
  - { offsetInCU: 0x6EC5, offset: 0x6EC5, size: 0x8, addend: 0x0, symName: __ZNSt3__112construct_atB7v160006IxJEPxEEPT_S3_DpOT0_, symObjAddr: 0x1250, symBinAddr: 0x1000027CC, symSize: 0x20 }
  - { offsetInCU: 0x6F21, offset: 0x6F21, size: 0x8, addend: 0x0, symName: __ZNSt3__118__debug_db_erase_cB7v160006INS_6vectorIxNS_9allocatorIxEEEEEEvPT_, symObjAddr: 0x1434, symBinAddr: 0x1000029B0, symSize: 0x10 }
  - { offsetInCU: 0x6F52, offset: 0x6F52, size: 0x8, addend: 0x0, symName: __ZNSt3__110destroy_atB7v160006IxLi0EEEvPT_, symObjAddr: 0x157C, symBinAddr: 0x100002AF8, symSize: 0x24 }
  - { offsetInCU: 0x6F89, offset: 0x6F89, size: 0x8, addend: 0x0, symName: __ZNSt3__112__destroy_atB7v160006IxLi0EEEvPT_, symObjAddr: 0x15A0, symBinAddr: 0x100002B1C, symSize: 0x10 }
  - { offsetInCU: 0x6FC0, offset: 0x6FC0, size: 0x8, addend: 0x0, symName: __ZNSt3__119__libcpp_deallocateB7v160006EPvmm, symObjAddr: 0x15F0, symBinAddr: 0x100002B6C, symSize: 0x60 }
  - { offsetInCU: 0x7025, offset: 0x7025, size: 0x8, addend: 0x0, symName: __ZNSt3__127__do_deallocate_handle_sizeB7v160006IJSt11align_val_tEEEvPvmDpT_, symObjAddr: 0x1650, symBinAddr: 0x100002BCC, symSize: 0x30 }
  - { offsetInCU: 0x7078, offset: 0x7078, size: 0x8, addend: 0x0, symName: __ZNSt3__127__do_deallocate_handle_sizeB7v160006IJEEEvPvmDpT_, symObjAddr: 0x1680, symBinAddr: 0x100002BFC, symSize: 0x28 }
  - { offsetInCU: 0x70B6, offset: 0x70B6, size: 0x8, addend: 0x0, symName: __ZNSt3__124__libcpp_operator_deleteB7v160006IJPvSt11align_val_tEEEvDpT_, symObjAddr: 0x16A8, symBinAddr: 0x100002C24, symSize: 0x2C }
  - { offsetInCU: 0x70FF, offset: 0x70FF, size: 0x8, addend: 0x0, symName: __ZNSt3__124__libcpp_operator_deleteB7v160006IJPvEEEvDpT_, symObjAddr: 0x16D4, symBinAddr: 0x100002C50, symSize: 0x24 }
  - { offsetInCU: 0x7134, offset: 0x7134, size: 0x8, addend: 0x0, symName: __ZNSt3__14sortB7v160006INS_11__wrap_iterIPxEENS_6__lessIxxEEEEvT_S6_T0_, symObjAddr: 0x16F8, symBinAddr: 0x100002C74, symSize: 0x40 }
  - { offsetInCU: 0x718E, offset: 0x718E, size: 0x8, addend: 0x0, symName: __ZNSt3__111__sort_implB7v160006INS_17_ClassicAlgPolicyENS_11__wrap_iterIPxEENS_6__lessIxxEEEEvT0_S7_RT1_, symObjAddr: 0x1738, symBinAddr: 0x100002CB4, symSize: 0x84 }
  - { offsetInCU: 0x7235, offset: 0x7235, size: 0x8, addend: 0x0, symName: __ZNSt3__123__debug_randomize_rangeB7v160006INS_17_ClassicAlgPolicyENS_11__wrap_iterIPxEES4_EEvT0_T1_, symObjAddr: 0x17BC, symBinAddr: 0x100002D38, symSize: 0x14 }
  - { offsetInCU: 0x7286, offset: 0x7286, size: 0x8, addend: 0x0, symName: __ZNSt3__113__unwrap_iterB7v160006INS_11__wrap_iterIPxEENS_18__unwrap_iter_implIS3_Lb1EEELi0EEEDTclsrT0_8__unwrapclsr3stdE7declvalIT_EEEES7_, symObjAddr: 0x17D0, symBinAddr: 0x100002D4C, symSize: 0x2C }
  - { offsetInCU: 0x731D, offset: 0x731D, size: 0x8, addend: 0x0, symName: __ZNSt3__112__to_addressB7v160006INS_11__wrap_iterIPxEEvEENS_5decayIDTclsr19__to_address_helperIT_EE6__callclsr3stdE7declvalIRKS5_EEEEE4typeES7_, symObjAddr: 0x1824, symBinAddr: 0x100002DA0, symSize: 0x24 }
  - { offsetInCU: 0x73BE, offset: 0x73BE, size: 0x8, addend: 0x0, symName: __ZNSt3__1neB7v160006IPxEEbRKNS_11__wrap_iterIT_EES6_, symObjAddr: 0x1950, symBinAddr: 0x100002ECC, symSize: 0x34 }
  - { offsetInCU: 0x7401, offset: 0x7401, size: 0x8, addend: 0x0, symName: __ZNSt3__1eqB7v160006IPxEEbRKNS_11__wrap_iterIT_EES6_, symObjAddr: 0x19BC, symBinAddr: 0x100002F38, symSize: 0x48 }
  - { offsetInCU: 0x7444, offset: 0x7444, size: 0x8, addend: 0x0, symName: __ZNSt3__116__pad_and_outputB7v160006IcNS_11char_traitsIcEEEENS_19ostreambuf_iteratorIT_T0_EES6_PKS4_S8_S8_RNS_8ios_baseES4_, symObjAddr: 0x1CB4, symBinAddr: 0x100003230, symSize: 0x240 }
  - { offsetInCU: 0x7513, offset: 0x7513, size: 0x8, addend: 0x0, symName: __ZNSt3__119__debug_db_insert_cB7v160006INS_12basic_stringIcNS_11char_traitsIcEENS_9allocatorIcEEEEEEvPT_, symObjAddr: 0x2168, symBinAddr: 0x1000036E4, symSize: 0x10 }
  - { offsetInCU: 0x7544, offset: 0x7544, size: 0x8, addend: 0x0, symName: __ZNSt3__112__to_addressB7v160006IcEEPT_S2_, symObjAddr: 0x2234, symBinAddr: 0x1000037B0, symSize: 0x14 }
  - { offsetInCU: 0x7579, offset: 0x7579, size: 0x8, addend: 0x0, symName: __ZNSt3__19use_facetB7v160006INS_5ctypeIcEEEERKT_RKNS_6localeE, symObjAddr: 0x24EC, symBinAddr: 0x100003A68, symSize: 0x2C }
  - { offsetInCU: 0x7D91, offset: 0x7D91, size: 0x8, addend: 0x0, symName: __ZSt28__throw_bad_array_new_lengthB7v160006v, symObjAddr: 0xF0C, symBinAddr: 0x100002488, symSize: 0x34 }
  - { offsetInCU: 0xA8F7, offset: 0xA8F7, size: 0x8, addend: 0x0, symName: _main, symObjAddr: 0x0, symBinAddr: 0x10000157C, symSize: 0x288 }
  - { offsetInCU: 0xA9BB, offset: 0xA9BB, size: 0x8, addend: 0x0, symName: __ZNSt3__19basic_iosIcNS_11char_traitsIcEEE3tieB7v160006EPNS_13basic_ostreamIcS2_EE, symObjAddr: 0x288, symBinAddr: 0x100001804, symSize: 0x2C }
  - { offsetInCU: 0xAA01, offset: 0xAA01, size: 0x8, addend: 0x0, symName: __ZNSt3__16vectorIxNS_9allocatorIxEEEC1Em, symObjAddr: 0x2B4, symBinAddr: 0x100001830, symSize: 0x34 }
  - { offsetInCU: 0xAA3C, offset: 0xAA3C, size: 0x8, addend: 0x0, symName: __ZNSt3__16vectorIxNS_9allocatorIxEEEixB7v160006Em, symObjAddr: 0x2E8, symBinAddr: 0x100001864, symSize: 0x24 }
  - { offsetInCU: 0xAA73, offset: 0xAA73, size: 0x8, addend: 0x0, symName: __ZNSt3__16vectorIxNS_9allocatorIxEEE5beginB7v160006Ev, symObjAddr: 0x348, symBinAddr: 0x1000018C4, symSize: 0x30 }
  - { offsetInCU: 0xAA9B, offset: 0xAA9B, size: 0x8, addend: 0x0, symName: __ZNSt3__16vectorIxNS_9allocatorIxEEE3endB7v160006Ev, symObjAddr: 0x378, symBinAddr: 0x1000018F4, symSize: 0x30 }
  - { offsetInCU: 0xAAC3, offset: 0xAAC3, size: 0x8, addend: 0x0, symName: __ZNSt3__16vectorIxNS_9allocatorIxEEED1B7v160006Ev, symObjAddr: 0x558, symBinAddr: 0x100001AD4, symSize: 0x2C }
  - { offsetInCU: 0xAAED, offset: 0xAAED, size: 0x8, addend: 0x0, symName: __ZNSt3__16vectorIxNS_9allocatorIxEEEC2Em, symObjAddr: 0x584, symBinAddr: 0x100001B00, symSize: 0xE0 }
  - { offsetInCU: 0xAB47, offset: 0xAB47, size: 0x8, addend: 0x0, symName: __ZNSt3__117__compressed_pairIPxNS_9allocatorIxEEEC1B7v160006IDnNS_18__default_init_tagEEEOT_OT0_, symObjAddr: 0x664, symBinAddr: 0x100001BE0, symSize: 0x3C }
  - { offsetInCU: 0xAB9F, offset: 0xAB9F, size: 0x8, addend: 0x0, symName: __ZNSt3__16vectorIxNS_9allocatorIxEEE16__destroy_vectorC1ERS3_, symObjAddr: 0x6E0, symBinAddr: 0x100001C5C, symSize: 0x34 }
  - { offsetInCU: 0xABD8, offset: 0xABD8, size: 0x8, addend: 0x0, symName: __ZNSt3__16vectorIxNS_9allocatorIxEEE11__vallocateB7v160006Em, symObjAddr: 0x724, symBinAddr: 0x100001CA0, symSize: 0xAC }
  - { offsetInCU: 0xAC1C, offset: 0xAC1C, size: 0x8, addend: 0x0, symName: __ZNSt3__16vectorIxNS_9allocatorIxEEE18__construct_at_endEm, symObjAddr: 0x7D0, symBinAddr: 0x100001D4C, symSize: 0xC8 }
  - { offsetInCU: 0xAC8E, offset: 0xAC8E, size: 0x8, addend: 0x0, symName: __ZNSt3__128__exception_guard_exceptionsINS_6vectorIxNS_9allocatorIxEEE16__destroy_vectorEE10__completeB7v160006Ev, symObjAddr: 0x898, symBinAddr: 0x100001E14, symSize: 0x1C }
  - { offsetInCU: 0xACB4, offset: 0xACB4, size: 0x8, addend: 0x0, symName: __ZNSt3__128__exception_guard_exceptionsINS_6vectorIxNS_9allocatorIxEEE16__destroy_vectorEED1B7v160006Ev, symObjAddr: 0x8B4, symBinAddr: 0x100001E30, symSize: 0x2C }
  - { offsetInCU: 0xACDE, offset: 0xACDE, size: 0x8, addend: 0x0, symName: __ZNSt3__117__compressed_pairIPxNS_9allocatorIxEEEC2B7v160006IDnNS_18__default_init_tagEEEOT_OT0_, symObjAddr: 0x8E0, symBinAddr: 0x100001E5C, symSize: 0x40 }
  - { offsetInCU: 0xAD36, offset: 0xAD36, size: 0x8, addend: 0x0, symName: __ZNSt3__122__compressed_pair_elemIPxLi0ELb0EEC2B7v160006IDnvEEOT_, symObjAddr: 0x920, symBinAddr: 0x100001E9C, symSize: 0x1C }
  - { offsetInCU: 0xAD78, offset: 0xAD78, size: 0x8, addend: 0x0, symName: __ZNSt3__122__compressed_pair_elemINS_9allocatorIxEELi1ELb1EEC2B7v160006ENS_18__default_init_tagE, symObjAddr: 0x93C, symBinAddr: 0x100001EB8, symSize: 0x2C }
  - { offsetInCU: 0xADAD, offset: 0xADAD, size: 0x8, addend: 0x0, symName: __ZNSt3__19allocatorIxEC2B7v160006Ev, symObjAddr: 0x968, symBinAddr: 0x100001EE4, symSize: 0x2C }
  - { offsetInCU: 0xADD7, offset: 0xADD7, size: 0x8, addend: 0x0, symName: __ZNSt3__116__non_trivial_ifILb1ENS_9allocatorIxEEEC2B7v160006Ev, symObjAddr: 0x994, symBinAddr: 0x100001F10, symSize: 0x14 }
  - { offsetInCU: 0xAE01, offset: 0xAE01, size: 0x8, addend: 0x0, symName: __ZNSt3__128__exception_guard_exceptionsINS_6vectorIxNS_9allocatorIxEEE16__destroy_vectorEEC1B7v160006ES5_, symObjAddr: 0x9A8, symBinAddr: 0x100001F24, symSize: 0x34 }
  - { offsetInCU: 0xAE39, offset: 0xAE39, size: 0x8, addend: 0x0, symName: __ZNSt3__128__exception_guard_exceptionsINS_6vectorIxNS_9allocatorIxEEE16__destroy_vectorEEC2B7v160006ES5_, symObjAddr: 0x9DC, symBinAddr: 0x100001F58, symSize: 0x24 }
  - { offsetInCU: 0xAE71, offset: 0xAE71, size: 0x8, addend: 0x0, symName: __ZNSt3__16vectorIxNS_9allocatorIxEEE16__destroy_vectorC2ERS3_, symObjAddr: 0xA00, symBinAddr: 0x100001F7C, symSize: 0x20 }
  - { offsetInCU: 0xAEAA, offset: 0xAEAA, size: 0x8, addend: 0x0, symName: __ZNKSt3__16vectorIxNS_9allocatorIxEEE8max_sizeEv, symObjAddr: 0xA20, symBinAddr: 0x100001F9C, symSize: 0x60 }
  - { offsetInCU: 0xAED2, offset: 0xAED2, size: 0x8, addend: 0x0, symName: __ZNKSt3__16vectorIxNS_9allocatorIxEEE20__throw_length_errorB7v160006Ev, symObjAddr: 0xA80, symBinAddr: 0x100001FFC, symSize: 0x1C }
  - { offsetInCU: 0xAEF8, offset: 0xAEF8, size: 0x8, addend: 0x0, symName: __ZNSt3__16vectorIxNS_9allocatorIxEEE7__allocB7v160006Ev, symObjAddr: 0xAD8, symBinAddr: 0x100002054, symSize: 0x28 }
  - { offsetInCU: 0xAF1E, offset: 0xAF1E, size: 0x8, addend: 0x0, symName: __ZNSt3__16vectorIxNS_9allocatorIxEEE9__end_capB7v160006Ev, symObjAddr: 0xB00, symBinAddr: 0x10000207C, symSize: 0x28 }
  - { offsetInCU: 0xAF44, offset: 0xAF44, size: 0x8, addend: 0x0, symName: __ZNKSt3__16vectorIxNS_9allocatorIxEEE14__annotate_newB7v160006Em, symObjAddr: 0xB28, symBinAddr: 0x1000020A4, symSize: 0xAC }
  - { offsetInCU: 0xAF83, offset: 0xAF83, size: 0x8, addend: 0x0, symName: __ZNSt3__116allocator_traitsINS_9allocatorIxEEE8max_sizeB7v160006IS2_vvEEmRKS2_, symObjAddr: 0xC00, symBinAddr: 0x10000217C, symSize: 0x28 }
  - { offsetInCU: 0xAFAF, offset: 0xAFAF, size: 0x8, addend: 0x0, symName: __ZNKSt3__16vectorIxNS_9allocatorIxEEE7__allocB7v160006Ev, symObjAddr: 0xC28, symBinAddr: 0x1000021A4, symSize: 0x28 }
  - { offsetInCU: 0xAFD5, offset: 0xAFD5, size: 0x8, addend: 0x0, symName: __ZNSt3__114numeric_limitsIlE3maxB7v160006Ev, symObjAddr: 0xC50, symBinAddr: 0x1000021CC, symSize: 0x14 }
  - { offsetInCU: 0xAFFD, offset: 0xAFFD, size: 0x8, addend: 0x0, symName: __ZNKSt3__16__lessImmEclB7v160006ERKmS3_, symObjAddr: 0xCC4, symBinAddr: 0x100002240, symSize: 0x34 }
  - { offsetInCU: 0xB03F, offset: 0xB03F, size: 0x8, addend: 0x0, symName: __ZNSt3__114numeric_limitsImE3maxB7v160006Ev, symObjAddr: 0xCF8, symBinAddr: 0x100002274, symSize: 0x14 }
  - { offsetInCU: 0xB053, offset: 0xB053, size: 0x8, addend: 0x0, symName: __ZNSt3__123__libcpp_numeric_limitsImLb1EE3maxB7v160006Ev, symObjAddr: 0xD0C, symBinAddr: 0x100002288, symSize: 0x8 }
  - { offsetInCU: 0xB067, offset: 0xB067, size: 0x8, addend: 0x0, symName: __ZNKSt3__117__compressed_pairIPxNS_9allocatorIxEEE6secondB7v160006Ev, symObjAddr: 0xD14, symBinAddr: 0x100002290, symSize: 0x24 }
  - { offsetInCU: 0xB08D, offset: 0xB08D, size: 0x8, addend: 0x0, symName: __ZNKSt3__122__compressed_pair_elemINS_9allocatorIxEELi1ELb1EE5__getB7v160006Ev, symObjAddr: 0xD38, symBinAddr: 0x1000022B4, symSize: 0x14 }
  - { offsetInCU: 0xB0B3, offset: 0xB0B3, size: 0x8, addend: 0x0, symName: __ZNSt3__123__libcpp_numeric_limitsIlLb1EE3maxB7v160006Ev, symObjAddr: 0xD4C, symBinAddr: 0x1000022C8, symSize: 0x8 }
  - { offsetInCU: 0xB0C7, offset: 0xB0C7, size: 0x8, addend: 0x0, symName: __ZNSt12length_errorC1B7v160006EPKc, symObjAddr: 0xDB8, symBinAddr: 0x100002334, symSize: 0x34 }
  - { offsetInCU: 0xB0FF, offset: 0xB0FF, size: 0x8, addend: 0x0, symName: __ZNSt12length_errorC2B7v160006EPKc, symObjAddr: 0xDEC, symBinAddr: 0x100002368, symSize: 0x4C }
  - { offsetInCU: 0xB137, offset: 0xB137, size: 0x8, addend: 0x0, symName: __ZNSt3__19allocatorIxE17allocate_at_leastB7v160006Em, symObjAddr: 0xE74, symBinAddr: 0x1000023F0, symSize: 0x40 }
  - { offsetInCU: 0xB16B, offset: 0xB16B, size: 0x8, addend: 0x0, symName: __ZNSt3__19allocatorIxE8allocateB7v160006Em, symObjAddr: 0xEB4, symBinAddr: 0x100002430, symSize: 0x58 }
  - { offsetInCU: 0xB19F, offset: 0xB19F, size: 0x8, addend: 0x0, symName: __ZNSt3__117__compressed_pairIPxNS_9allocatorIxEEE6secondB7v160006Ev, symObjAddr: 0x1010, symBinAddr: 0x10000258C, symSize: 0x24 }
  - { offsetInCU: 0xB1C5, offset: 0xB1C5, size: 0x8, addend: 0x0, symName: __ZNSt3__122__compressed_pair_elemINS_9allocatorIxEELi1ELb1EE5__getB7v160006Ev, symObjAddr: 0x1034, symBinAddr: 0x1000025B0, symSize: 0x14 }
  - { offsetInCU: 0xB1EB, offset: 0xB1EB, size: 0x8, addend: 0x0, symName: __ZNSt3__117__compressed_pairIPxNS_9allocatorIxEEE5firstB7v160006Ev, symObjAddr: 0x1048, symBinAddr: 0x1000025C4, symSize: 0x24 }
  - { offsetInCU: 0xB211, offset: 0xB211, size: 0x8, addend: 0x0, symName: __ZNSt3__122__compressed_pair_elemIPxLi0ELb0EE5__getB7v160006Ev, symObjAddr: 0x106C, symBinAddr: 0x1000025E8, symSize: 0x14 }
  - { offsetInCU: 0xB237, offset: 0xB237, size: 0x8, addend: 0x0, symName: __ZNKSt3__16vectorIxNS_9allocatorIxEEE31__annotate_contiguous_containerB7v160006EPKvS5_S5_S5_, symObjAddr: 0x1080, symBinAddr: 0x1000025FC, symSize: 0x20 }
  - { offsetInCU: 0xB28D, offset: 0xB28D, size: 0x8, addend: 0x0, symName: __ZNKSt3__16vectorIxNS_9allocatorIxEEE4dataB7v160006Ev, symObjAddr: 0x10A0, symBinAddr: 0x10000261C, symSize: 0x28 }
  - { offsetInCU: 0xB2B3, offset: 0xB2B3, size: 0x8, addend: 0x0, symName: __ZNKSt3__16vectorIxNS_9allocatorIxEEE8capacityB7v160006Ev, symObjAddr: 0x10C8, symBinAddr: 0x100002644, symSize: 0x40 }
  - { offsetInCU: 0xB2D9, offset: 0xB2D9, size: 0x8, addend: 0x0, symName: __ZNKSt3__16vectorIxNS_9allocatorIxEEE9__end_capB7v160006Ev, symObjAddr: 0x111C, symBinAddr: 0x100002698, symSize: 0x28 }
  - { offsetInCU: 0xB2FF, offset: 0xB2FF, size: 0x8, addend: 0x0, symName: __ZNKSt3__117__compressed_pairIPxNS_9allocatorIxEEE5firstB7v160006Ev, symObjAddr: 0x1144, symBinAddr: 0x1000026C0, symSize: 0x24 }
  - { offsetInCU: 0xB325, offset: 0xB325, size: 0x8, addend: 0x0, symName: __ZNKSt3__122__compressed_pair_elemIPxLi0ELb0EE5__getB7v160006Ev, symObjAddr: 0x1168, symBinAddr: 0x1000026E4, symSize: 0x14 }
  - { offsetInCU: 0xB364, offset: 0xB364, size: 0x8, addend: 0x0, symName: __ZNSt3__16vectorIxNS_9allocatorIxEEE21_ConstructTransactionC1B7v160006ERS3_m, symObjAddr: 0x117C, symBinAddr: 0x1000026F8, symSize: 0x3C }
  - { offsetInCU: 0xB3AC, offset: 0xB3AC, size: 0x8, addend: 0x0, symName: __ZNSt3__116allocator_traitsINS_9allocatorIxEEE9constructB7v160006IxJEvvEEvRS2_PT_DpOT0_, symObjAddr: 0x11B8, symBinAddr: 0x100002734, symSize: 0x28 }
  - { offsetInCU: 0xB3EC, offset: 0xB3EC, size: 0x8, addend: 0x0, symName: __ZNSt3__16vectorIxNS_9allocatorIxEEE21_ConstructTransactionD1B7v160006Ev, symObjAddr: 0x11E0, symBinAddr: 0x10000275C, symSize: 0x2C }
  - { offsetInCU: 0xB416, offset: 0xB416, size: 0x8, addend: 0x0, symName: __ZNSt3__16vectorIxNS_9allocatorIxEEE21_ConstructTransactionC2B7v160006ERS3_m, symObjAddr: 0x120C, symBinAddr: 0x100002788, symSize: 0x44 }
  - { offsetInCU: 0xB45E, offset: 0xB45E, size: 0x8, addend: 0x0, symName: __ZNSt3__16vectorIxNS_9allocatorIxEEE21_ConstructTransactionD2B7v160006Ev, symObjAddr: 0x1270, symBinAddr: 0x1000027EC, symSize: 0x20 }
  - { offsetInCU: 0xB488, offset: 0xB488, size: 0x8, addend: 0x0, symName: __ZNSt3__128__exception_guard_exceptionsINS_6vectorIxNS_9allocatorIxEEE16__destroy_vectorEED2B7v160006Ev, symObjAddr: 0x1290, symBinAddr: 0x10000280C, symSize: 0x50 }
  - { offsetInCU: 0xB4B2, offset: 0xB4B2, size: 0x8, addend: 0x0, symName: __ZNSt3__16vectorIxNS_9allocatorIxEEE16__destroy_vectorclB7v160006Ev, symObjAddr: 0x12E0, symBinAddr: 0x10000285C, symSize: 0x9C }
  - { offsetInCU: 0xB4D8, offset: 0xB4D8, size: 0x8, addend: 0x0, symName: __ZNKSt3__16vectorIxNS_9allocatorIxEEE17__annotate_deleteB7v160006Ev, symObjAddr: 0x137C, symBinAddr: 0x1000028F8, symSize: 0xB8 }
  - { offsetInCU: 0xB4FE, offset: 0xB4FE, size: 0x8, addend: 0x0, symName: __ZNSt3__16vectorIxNS_9allocatorIxEEE7__clearB7v160006Ev, symObjAddr: 0x1444, symBinAddr: 0x1000029C0, symSize: 0x28 }
  - { offsetInCU: 0xB524, offset: 0xB524, size: 0x8, addend: 0x0, symName: __ZNSt3__116allocator_traitsINS_9allocatorIxEEE10deallocateB7v160006ERS2_Pxm, symObjAddr: 0x146C, symBinAddr: 0x1000029E8, symSize: 0x34 }
  - { offsetInCU: 0xB566, offset: 0xB566, size: 0x8, addend: 0x0, symName: __ZNKSt3__16vectorIxNS_9allocatorIxEEE4sizeB7v160006Ev, symObjAddr: 0x14A0, symBinAddr: 0x100002A1C, symSize: 0x28 }
  - { offsetInCU: 0xB58C, offset: 0xB58C, size: 0x8, addend: 0x0, symName: __ZNSt3__16vectorIxNS_9allocatorIxEEE22__base_destruct_at_endB7v160006EPx, symObjAddr: 0x14C8, symBinAddr: 0x100002A44, symSize: 0x8C }
  - { offsetInCU: 0xB5D0, offset: 0xB5D0, size: 0x8, addend: 0x0, symName: __ZNSt3__116allocator_traitsINS_9allocatorIxEEE7destroyB7v160006IxvvEEvRS2_PT_, symObjAddr: 0x1554, symBinAddr: 0x100002AD0, symSize: 0x28 }
  - { offsetInCU: 0xB60B, offset: 0xB60B, size: 0x8, addend: 0x0, symName: __ZNSt3__19allocatorIxE10deallocateB7v160006EPxm, symObjAddr: 0x15B0, symBinAddr: 0x100002B2C, symSize: 0x40 }
  - { offsetInCU: 0xB64D, offset: 0xB64D, size: 0x8, addend: 0x0, symName: __ZNSt3__118__unwrap_iter_implINS_11__wrap_iterIPxEELb1EE8__unwrapB7v160006ES3_, symObjAddr: 0x17FC, symBinAddr: 0x100002D78, symSize: 0x28 }
  - { offsetInCU: 0xB67A, offset: 0xB67A, size: 0x8, addend: 0x0, symName: __ZNSt3__119__to_address_helperINS_11__wrap_iterIPxEEvE6__callB7v160006ERKS3_, symObjAddr: 0x1848, symBinAddr: 0x100002DC4, symSize: 0x30 }
  - { offsetInCU: 0xB69D, offset: 0xB69D, size: 0x8, addend: 0x0, symName: __ZNSt3__114pointer_traitsINS_11__wrap_iterIPxEEE10to_addressB7v160006ES3_, symObjAddr: 0x1878, symBinAddr: 0x100002DF4, symSize: 0x2C }
  - { offsetInCU: 0xB6C1, offset: 0xB6C1, size: 0x8, addend: 0x0, symName: __ZNKSt3__111__wrap_iterIPxE4baseB7v160006Ev, symObjAddr: 0x18A4, symBinAddr: 0x100002E20, symSize: 0x18 }
  - { offsetInCU: 0xB6E7, offset: 0xB6E7, size: 0x8, addend: 0x0, symName: __ZNSt3__16vectorIxNS_9allocatorIxEEE11__make_iterB7v160006EPx, symObjAddr: 0x18BC, symBinAddr: 0x100002E38, symSize: 0x34 }
  - { offsetInCU: 0xB71C, offset: 0xB71C, size: 0x8, addend: 0x0, symName: __ZNSt3__111__wrap_iterIPxEC1B7v160006EPKvS1_, symObjAddr: 0x18F0, symBinAddr: 0x100002E6C, symSize: 0x3C }
  - { offsetInCU: 0xB762, offset: 0xB762, size: 0x8, addend: 0x0, symName: __ZNSt3__111__wrap_iterIPxEC2B7v160006EPKvS1_, symObjAddr: 0x192C, symBinAddr: 0x100002EA8, symSize: 0x24 }
  - { offsetInCU: 0xB7A8, offset: 0xB7A8, size: 0x8, addend: 0x0, symName: __ZNKSt3__111__wrap_iterIPxEdeB7v160006Ev, symObjAddr: 0x1984, symBinAddr: 0x100002F00, symSize: 0x18 }
  - { offsetInCU: 0xB7CE, offset: 0xB7CE, size: 0x8, addend: 0x0, symName: __ZNSt3__111__wrap_iterIPxEppB7v160006Ev, symObjAddr: 0x199C, symBinAddr: 0x100002F18, symSize: 0x20 }
  - { offsetInCU: 0xB80E, offset: 0xB80E, size: 0x8, addend: 0x0, symName: '__ZZ4mainENK3$_0clExx', symObjAddr: 0x1A04, symBinAddr: 0x100002F80, symSize: 0x64 }
  - { offsetInCU: 0xB854, offset: 0xB854, size: 0x8, addend: 0x0, symName: __ZNSt3__16vectorIxNS_9allocatorIxEEED2B7v160006Ev, symObjAddr: 0x1A68, symBinAddr: 0x100002FE4, symSize: 0x44 }
  - { offsetInCU: 0xB897, offset: 0xB897, size: 0x8, addend: 0x0, symName: __ZNKSt3__113basic_ostreamIcNS_11char_traitsIcEEE6sentrycvbB7v160006Ev, symObjAddr: 0x1C98, symBinAddr: 0x100003214, symSize: 0x1C }
  - { offsetInCU: 0xB8BD, offset: 0xB8BD, size: 0x8, addend: 0x0, symName: __ZNSt3__119ostreambuf_iteratorIcNS_11char_traitsIcEEEC1B7v160006ERNS_13basic_ostreamIcS2_EE, symObjAddr: 0x1EF4, symBinAddr: 0x100003470, symSize: 0x34 }
  - { offsetInCU: 0xB8F5, offset: 0xB8F5, size: 0x8, addend: 0x0, symName: __ZNKSt3__18ios_base5flagsB7v160006Ev, symObjAddr: 0x1F28, symBinAddr: 0x1000034A4, symSize: 0x18 }
  - { offsetInCU: 0xB91D, offset: 0xB91D, size: 0x8, addend: 0x0, symName: __ZNKSt3__19basic_iosIcNS_11char_traitsIcEEE4fillB7v160006Ev, symObjAddr: 0x1F40, symBinAddr: 0x1000034BC, symSize: 0x64 }
  - { offsetInCU: 0xB945, offset: 0xB945, size: 0x8, addend: 0x0, symName: __ZNKSt3__119ostreambuf_iteratorIcNS_11char_traitsIcEEE6failedB7v160006Ev, symObjAddr: 0x1FA4, symBinAddr: 0x100003520, symSize: 0x24 }
  - { offsetInCU: 0xB96B, offset: 0xB96B, size: 0x8, addend: 0x0, symName: __ZNSt3__19basic_iosIcNS_11char_traitsIcEEE8setstateB7v160006Ej, symObjAddr: 0x1FC8, symBinAddr: 0x100003544, symSize: 0x2C }
  - { offsetInCU: 0xB9A0, offset: 0xB9A0, size: 0x8, addend: 0x0, symName: __ZNKSt3__18ios_base5widthB7v160006Ev, symObjAddr: 0x1FF4, symBinAddr: 0x100003570, symSize: 0x18 }
  - { offsetInCU: 0xB9C8, offset: 0xB9C8, size: 0x8, addend: 0x0, symName: __ZNSt3__115basic_streambufIcNS_11char_traitsIcEEE5sputnB7v160006EPKcl, symObjAddr: 0x200C, symBinAddr: 0x100003588, symSize: 0x3C }
  - { offsetInCU: 0xBA0A, offset: 0xBA0A, size: 0x8, addend: 0x0, symName: __ZNSt3__112basic_stringIcNS_11char_traitsIcEENS_9allocatorIcEEEC1B7v160006Emc, symObjAddr: 0x2048, symBinAddr: 0x1000035C4, symSize: 0x3C }
  - { offsetInCU: 0xBA52, offset: 0xBA52, size: 0x8, addend: 0x0, symName: __ZNSt3__112basic_stringIcNS_11char_traitsIcEENS_9allocatorIcEEE4dataB7v160006Ev, symObjAddr: 0x2084, symBinAddr: 0x100003600, symSize: 0x28 }
  - { offsetInCU: 0xBA78, offset: 0xBA78, size: 0x8, addend: 0x0, symName: __ZNSt3__18ios_base5widthB7v160006El, symObjAddr: 0x20AC, symBinAddr: 0x100003628, symSize: 0x2C }
  - { offsetInCU: 0xBABE, offset: 0xBABE, size: 0x8, addend: 0x0, symName: __ZNSt3__112basic_stringIcNS_11char_traitsIcEENS_9allocatorIcEEEC2B7v160006Emc, symObjAddr: 0x20D8, symBinAddr: 0x100003654, symSize: 0x54 }
  - { offsetInCU: 0xBB06, offset: 0xBB06, size: 0x8, addend: 0x0, symName: __ZNSt3__117__compressed_pairINS_12basic_stringIcNS_11char_traitsIcEENS_9allocatorIcEEE5__repES5_EC1B7v160006INS_18__default_init_tagESA_EEOT_OT0_, symObjAddr: 0x212C, symBinAddr: 0x1000036A8, symSize: 0x3C }
  - { offsetInCU: 0xBB5E, offset: 0xBB5E, size: 0x8, addend: 0x0, symName: __ZNSt3__117__compressed_pairINS_12basic_stringIcNS_11char_traitsIcEENS_9allocatorIcEEE5__repES5_EC2B7v160006INS_18__default_init_tagESA_EEOT_OT0_, symObjAddr: 0x2178, symBinAddr: 0x1000036F4, symSize: 0x3C }
  - { offsetInCU: 0xBBB6, offset: 0xBBB6, size: 0x8, addend: 0x0, symName: __ZNSt3__122__compressed_pair_elemINS_12basic_stringIcNS_11char_traitsIcEENS_9allocatorIcEEE5__repELi0ELb0EEC2B7v160006ENS_18__default_init_tagE, symObjAddr: 0x21B4, symBinAddr: 0x100003730, symSize: 0x14 }
  - { offsetInCU: 0xBBEB, offset: 0xBBEB, size: 0x8, addend: 0x0, symName: __ZNSt3__122__compressed_pair_elemINS_9allocatorIcEELi1ELb1EEC2B7v160006ENS_18__default_init_tagE, symObjAddr: 0x21C8, symBinAddr: 0x100003744, symSize: 0x2C }
  - { offsetInCU: 0xBC20, offset: 0xBC20, size: 0x8, addend: 0x0, symName: __ZNSt3__19allocatorIcEC2B7v160006Ev, symObjAddr: 0x21F4, symBinAddr: 0x100003770, symSize: 0x2C }
  - { offsetInCU: 0xBC4A, offset: 0xBC4A, size: 0x8, addend: 0x0, symName: __ZNSt3__116__non_trivial_ifILb1ENS_9allocatorIcEEEC2B7v160006Ev, symObjAddr: 0x2220, symBinAddr: 0x10000379C, symSize: 0x14 }
  - { offsetInCU: 0xBC74, offset: 0xBC74, size: 0x8, addend: 0x0, symName: __ZNSt3__112basic_stringIcNS_11char_traitsIcEENS_9allocatorIcEEE13__get_pointerB7v160006Ev, symObjAddr: 0x2248, symBinAddr: 0x1000037C4, symSize: 0x54 }
  - { offsetInCU: 0xBC9A, offset: 0xBC9A, size: 0x8, addend: 0x0, symName: __ZNKSt3__112basic_stringIcNS_11char_traitsIcEENS_9allocatorIcEEE9__is_longB7v160006Ev, symObjAddr: 0x229C, symBinAddr: 0x100003818, symSize: 0x38 }
  - { offsetInCU: 0xBCC0, offset: 0xBCC0, size: 0x8, addend: 0x0, symName: __ZNSt3__112basic_stringIcNS_11char_traitsIcEENS_9allocatorIcEEE18__get_long_pointerB7v160006Ev, symObjAddr: 0x22D4, symBinAddr: 0x100003850, symSize: 0x28 }
  - { offsetInCU: 0xBCE6, offset: 0xBCE6, size: 0x8, addend: 0x0, symName: __ZNSt3__112basic_stringIcNS_11char_traitsIcEENS_9allocatorIcEEE19__get_short_pointerB7v160006Ev, symObjAddr: 0x22FC, symBinAddr: 0x100003878, symSize: 0x28 }
  - { offsetInCU: 0xBD0C, offset: 0xBD0C, size: 0x8, addend: 0x0, symName: __ZNKSt3__117__compressed_pairINS_12basic_stringIcNS_11char_traitsIcEENS_9allocatorIcEEE5__repES5_E5firstB7v160006Ev, symObjAddr: 0x2324, symBinAddr: 0x1000038A0, symSize: 0x24 }
  - { offsetInCU: 0xBD32, offset: 0xBD32, size: 0x8, addend: 0x0, symName: __ZNKSt3__122__compressed_pair_elemINS_12basic_stringIcNS_11char_traitsIcEENS_9allocatorIcEEE5__repELi0ELb0EE5__getB7v160006Ev, symObjAddr: 0x2348, symBinAddr: 0x1000038C4, symSize: 0x14 }
  - { offsetInCU: 0xBD58, offset: 0xBD58, size: 0x8, addend: 0x0, symName: __ZNSt3__117__compressed_pairINS_12basic_stringIcNS_11char_traitsIcEENS_9allocatorIcEEE5__repES5_E5firstB7v160006Ev, symObjAddr: 0x235C, symBinAddr: 0x1000038D8, symSize: 0x24 }
  - { offsetInCU: 0xBD7E, offset: 0xBD7E, size: 0x8, addend: 0x0, symName: __ZNSt3__122__compressed_pair_elemINS_12basic_stringIcNS_11char_traitsIcEENS_9allocatorIcEEE5__repELi0ELb0EE5__getB7v160006Ev, symObjAddr: 0x2380, symBinAddr: 0x1000038FC, symSize: 0x14 }
  - { offsetInCU: 0xBDA4, offset: 0xBDA4, size: 0x8, addend: 0x0, symName: __ZNSt3__114pointer_traitsIPcE10pointer_toB7v160006ERc, symObjAddr: 0x2394, symBinAddr: 0x100003910, symSize: 0x14 }
  - { offsetInCU: 0xBDC7, offset: 0xBDC7, size: 0x8, addend: 0x0, symName: __ZNSt3__119ostreambuf_iteratorIcNS_11char_traitsIcEEEC2B7v160006ERNS_13basic_ostreamIcS2_EE, symObjAddr: 0x23A8, symBinAddr: 0x100003924, symSize: 0x54 }
  - { offsetInCU: 0xBDFF, offset: 0xBDFF, size: 0x8, addend: 0x0, symName: __ZNKSt3__19basic_iosIcNS_11char_traitsIcEEE5rdbufB7v160006Ev, symObjAddr: 0x23FC, symBinAddr: 0x100003978, symSize: 0x24 }
  - { offsetInCU: 0xBE27, offset: 0xBE27, size: 0x8, addend: 0x0, symName: __ZNKSt3__18ios_base5rdbufB7v160006Ev, symObjAddr: 0x2420, symBinAddr: 0x10000399C, symSize: 0x18 }
  - { offsetInCU: 0xBE4D, offset: 0xBE4D, size: 0x8, addend: 0x0, symName: __ZNSt3__111char_traitsIcE11eq_int_typeEii, symObjAddr: 0x2438, symBinAddr: 0x1000039B4, symSize: 0x28 }
  - { offsetInCU: 0xBE7E, offset: 0xBE7E, size: 0x8, addend: 0x0, symName: __ZNSt3__111char_traitsIcE3eofEv, symObjAddr: 0x2460, symBinAddr: 0x1000039DC, symSize: 0x8 }
  - { offsetInCU: 0xBE92, offset: 0xBE92, size: 0x8, addend: 0x0, symName: __ZNKSt3__19basic_iosIcNS_11char_traitsIcEEE5widenB7v160006Ec, symObjAddr: 0x2468, symBinAddr: 0x1000039E4, symSize: 0x84 }
  - { offsetInCU: 0xBF00, offset: 0xBF00, size: 0x8, addend: 0x0, symName: __ZNKSt3__15ctypeIcE5widenB7v160006Ec, symObjAddr: 0x2518, symBinAddr: 0x100003A94, symSize: 0x38 }
  - { offsetInCU: 0xBF35, offset: 0xBF35, size: 0x8, addend: 0x0, symName: __ZNSt3__18ios_base8setstateB7v160006Ej, symObjAddr: 0x2550, symBinAddr: 0x100003ACC, symSize: 0x34 }
...
