---
triple:          'arm64-apple-darwin'
binary-path:     '/Users/rohakdebnath/Desktop/Cpp /CodeForces/romanticglasses'
relocations:
  - { offsetInCU: 0xEE, offset: 0xEE, size: 0x8, addend: 0x0, symName: __ZSt23__is_constant_evaluatedv, symObjAddr: 0x0, symBinAddr: 0x10000279C, symSize: 0x8 }
  - { offsetInCU: 0xF6, offset: 0xF6, size: 0x8, addend: 0x0, symName: __ZSt19piecewise_construct, symObjAddr: 0x2D68, symBinAddr: 0x100005D3C, symSize: 0x0 }
  - { offsetInCU: 0x1F08, offset: 0x1F08, size: 0x8, addend: 0x0, symName: __ZSt19piecewise_construct, symObjAddr: 0x2D68, symBinAddr: 0x100005D3C, symSize: 0x0 }
  - { offsetInCU: 0x27018, offset: 0x27018, size: 0x8, addend: 0x0, symName: __ZStL8__ioinit, symObjAddr: 0xD8740, symBinAddr: 0x10000C0CC, symSize: 0x0 }
  - { offsetInCU: 0x35F03, offset: 0x35F03, size: 0x8, addend: 0x0, symName: __ZNSt8__detail14__destructibleISt13_Bit_iteratorEE, symObjAddr: 0x2D69, symBinAddr: 0x100005D3D, symSize: 0x0 }
  - { offsetInCU: 0x35F1D, offset: 0x35F1D, size: 0x8, addend: 0x0, symName: __ZNSt8__detail19__destructible_implISt13_Bit_iteratorEE, symObjAddr: 0x2D6A, symBinAddr: 0x100005D3E, symSize: 0x0 }
  - { offsetInCU: 0x362CF, offset: 0x362CF, size: 0x8, addend: 0x0, symName: __ZNSt8__detail14__destructibleISt19_Bit_const_iteratorEE, symObjAddr: 0x2D6B, symBinAddr: 0x100005D3F, symSize: 0x0 }
  - { offsetInCU: 0x362E9, offset: 0x362E9, size: 0x8, addend: 0x0, symName: __ZNSt8__detail19__destructible_implISt19_Bit_const_iteratorEE, symObjAddr: 0x2D6C, symBinAddr: 0x100005D40, symSize: 0x0 }
  - { offsetInCU: 0x36A53, offset: 0x36A53, size: 0x8, addend: 0x0, symName: __ZNSt8__detail14__destructibleIN9__gnu_cxx17__normal_iteratorIPcSt4spanIcLm18446744073709551615EEEEEE, symObjAddr: 0x2D6D, symBinAddr: 0x100005D41, symSize: 0x0 }
  - { offsetInCU: 0x36A6D, offset: 0x36A6D, size: 0x8, addend: 0x0, symName: __ZNSt8__detail19__destructible_implIN9__gnu_cxx17__normal_iteratorIPcSt4spanIcLm18446744073709551615EEEEEE, symObjAddr: 0x2D6E, symBinAddr: 0x100005D42, symSize: 0x0 }
  - { offsetInCU: 0x36E1F, offset: 0x36E1F, size: 0x8, addend: 0x0, symName: __ZNSt8__detail14__destructibleISt16reverse_iteratorIN9__gnu_cxx17__normal_iteratorIPcSt4spanIcLm18446744073709551615EEEEEEE, symObjAddr: 0x2D6F, symBinAddr: 0x100005D43, symSize: 0x0 }
  - { offsetInCU: 0x36E39, offset: 0x36E39, size: 0x8, addend: 0x0, symName: __ZNSt8__detail19__destructible_implISt16reverse_iteratorIN9__gnu_cxx17__normal_iteratorIPcSt4spanIcLm18446744073709551615EEEEEEE, symObjAddr: 0x2D70, symBinAddr: 0x100005D44, symSize: 0x0 }
  - { offsetInCU: 0x36FAC, offset: 0x36FAC, size: 0x8, addend: 0x0, symName: __ZNSt8__detail14__destructibleINSt8__format10_Sink_iterIcEEEE, symObjAddr: 0x2D71, symBinAddr: 0x100005D45, symSize: 0x0 }
  - { offsetInCU: 0x36FC6, offset: 0x36FC6, size: 0x8, addend: 0x0, symName: __ZNSt8__detail19__destructible_implINSt8__format10_Sink_iterIcEEEE, symObjAddr: 0x2D72, symBinAddr: 0x100005D46, symSize: 0x0 }
  - { offsetInCU: 0x370F4, offset: 0x370F4, size: 0x8, addend: 0x0, symName: __ZNSt8__detail14__destructibleIN9__gnu_cxx17__normal_iteratorIPwSt4spanIwLm18446744073709551615EEEEEE, symObjAddr: 0x2D73, symBinAddr: 0x100005D47, symSize: 0x0 }
  - { offsetInCU: 0x3710E, offset: 0x3710E, size: 0x8, addend: 0x0, symName: __ZNSt8__detail19__destructible_implIN9__gnu_cxx17__normal_iteratorIPwSt4spanIwLm18446744073709551615EEEEEE, symObjAddr: 0x2D74, symBinAddr: 0x100005D48, symSize: 0x0 }
  - { offsetInCU: 0x37464, offset: 0x37464, size: 0x8, addend: 0x0, symName: __ZNSt8__detail14__destructibleISt16reverse_iteratorIN9__gnu_cxx17__normal_iteratorIPwSt4spanIwLm18446744073709551615EEEEEEE, symObjAddr: 0x2D75, symBinAddr: 0x100005D49, symSize: 0x0 }
  - { offsetInCU: 0x3747E, offset: 0x3747E, size: 0x8, addend: 0x0, symName: __ZNSt8__detail19__destructible_implISt16reverse_iteratorIN9__gnu_cxx17__normal_iteratorIPwSt4spanIwLm18446744073709551615EEEEEEE, symObjAddr: 0x2D76, symBinAddr: 0x100005D4A, symSize: 0x0 }
  - { offsetInCU: 0x375F1, offset: 0x375F1, size: 0x8, addend: 0x0, symName: __ZNSt8__detail14__destructibleINSt8__format10_Sink_iterIwEEEE, symObjAddr: 0x2D77, symBinAddr: 0x100005D4B, symSize: 0x0 }
  - { offsetInCU: 0x3760B, offset: 0x3760B, size: 0x8, addend: 0x0, symName: __ZNSt8__detail19__destructible_implINSt8__format10_Sink_iterIwEEEE, symObjAddr: 0x2D78, symBinAddr: 0x100005D4C, symSize: 0x0 }
  - { offsetInCU: 0x37722, offset: 0x37722, size: 0x8, addend: 0x0, symName: __ZNSt8__detail14__destructibleIPcEE, symObjAddr: 0x2D79, symBinAddr: 0x100005D4D, symSize: 0x0 }
  - { offsetInCU: 0x3773C, offset: 0x3773C, size: 0x8, addend: 0x0, symName: __ZNSt8__detail19__destructible_implIPcEE, symObjAddr: 0x2D7A, symBinAddr: 0x100005D4E, symSize: 0x0 }
  - { offsetInCU: 0x37967, offset: 0x37967, size: 0x8, addend: 0x0, symName: __ZNSt8__detail14__destructibleIPwEE, symObjAddr: 0x2D7B, symBinAddr: 0x100005D4F, symSize: 0x0 }
  - { offsetInCU: 0x37981, offset: 0x37981, size: 0x8, addend: 0x0, symName: __ZNSt8__detail19__destructible_implIPwEE, symObjAddr: 0x2D7C, symBinAddr: 0x100005D50, symSize: 0x0 }
  - { offsetInCU: 0x37FE3, offset: 0x37FE3, size: 0x8, addend: 0x0, symName: __ZNSt8__detail14__destructibleIiEE, symObjAddr: 0x2D7D, symBinAddr: 0x100005D51, symSize: 0x0 }
  - { offsetInCU: 0x37FFD, offset: 0x37FFD, size: 0x8, addend: 0x0, symName: __ZNSt8__detail19__destructible_implIiEE, symObjAddr: 0x2D7E, symBinAddr: 0x100005D52, symSize: 0x0 }
  - { offsetInCU: 0x3823F, offset: 0x3823F, size: 0x8, addend: 0x0, symName: __ZNSt8__detail14__destructibleIN9__gnu_cxx17__normal_iteratorIPKcNSt7__cxx1112basic_stringIcSt11char_traitsIcESaIcEEEEEEE, symObjAddr: 0x2D7F, symBinAddr: 0x100005D53, symSize: 0x0 }
  - { offsetInCU: 0x38259, offset: 0x38259, size: 0x8, addend: 0x0, symName: __ZNSt8__detail19__destructible_implIN9__gnu_cxx17__normal_iteratorIPKcNSt7__cxx1112basic_stringIcSt11char_traitsIcESaIcEEEEEEE, symObjAddr: 0x2D80, symBinAddr: 0x100005D54, symSize: 0x0 }
  - { offsetInCU: 0x38704, offset: 0x38704, size: 0x8, addend: 0x0, symName: __ZNSt8__detail30__integer_to_chars_is_unsignedIjEE, symObjAddr: 0x2D81, symBinAddr: 0x100005D55, symSize: 0x0 }
  - { offsetInCU: 0x3871E, offset: 0x3871E, size: 0x8, addend: 0x0, symName: __ZNSt8__detail30__integer_to_chars_is_unsignedImEE, symObjAddr: 0x2D82, symBinAddr: 0x100005D56, symSize: 0x0 }
  - { offsetInCU: 0x38738, offset: 0x38738, size: 0x8, addend: 0x0, symName: __ZNSt8__detail30__integer_to_chars_is_unsignedIyEE, symObjAddr: 0x2D83, symBinAddr: 0x100005D57, symSize: 0x0 }
  - { offsetInCU: 0x38A18, offset: 0x38A18, size: 0x8, addend: 0x0, symName: __ZSt22__is_specialization_ofINSt7__cxx1112basic_stringIcSt11char_traitsIcESaIcEEES1_E, symObjAddr: 0x2D84, symBinAddr: 0x100005D58, symSize: 0x0 }
  - { offsetInCU: 0x38AA4, offset: 0x38AA4, size: 0x8, addend: 0x0, symName: __ZSt22__is_specialization_ofINSt7__cxx1112basic_stringIwSt11char_traitsIwESaIwEEES1_E, symObjAddr: 0x2D85, symBinAddr: 0x100005D59, symSize: 0x0 }
  - { offsetInCU: 0x38C88, offset: 0x38C88, size: 0x8, addend: 0x0, symName: __ZNSt8__detail14__destructibleImEE, symObjAddr: 0x2D86, symBinAddr: 0x100005D5A, symSize: 0x0 }
  - { offsetInCU: 0x38CA2, offset: 0x38CA2, size: 0x8, addend: 0x0, symName: __ZNSt8__detail19__destructible_implImEE, symObjAddr: 0x2D87, symBinAddr: 0x100005D5B, symSize: 0x0 }
  - { offsetInCU: 0x38F99, offset: 0x38F99, size: 0x8, addend: 0x0, symName: __ZNSt8__detail14__destructibleIPKcEE, symObjAddr: 0x2D88, symBinAddr: 0x100005D5C, symSize: 0x0 }
  - { offsetInCU: 0x38FB3, offset: 0x38FB3, size: 0x8, addend: 0x0, symName: __ZNSt8__detail19__destructible_implIPKcEE, symObjAddr: 0x2D89, symBinAddr: 0x100005D5D, symSize: 0x0 }
  - { offsetInCU: 0x391B0, offset: 0x391B0, size: 0x8, addend: 0x0, symName: __ZNSt8__detail14__destructibleIPKwEE, symObjAddr: 0x2D8A, symBinAddr: 0x100005D5E, symSize: 0x0 }
  - { offsetInCU: 0x391CA, offset: 0x391CA, size: 0x8, addend: 0x0, symName: __ZNSt8__detail19__destructible_implIPKwEE, symObjAddr: 0x2D8B, symBinAddr: 0x100005D5F, symSize: 0x0 }
  - { offsetInCU: 0x3A1C6, offset: 0x3A1C6, size: 0x8, addend: 0x0, symName: __ZNSt8__detail14__destructibleIjEE, symObjAddr: 0x2D8C, symBinAddr: 0x100005D60, symSize: 0x0 }
  - { offsetInCU: 0x3A1E0, offset: 0x3A1E0, size: 0x8, addend: 0x0, symName: __ZNSt8__detail19__destructible_implIjEE, symObjAddr: 0x2D8D, symBinAddr: 0x100005D61, symSize: 0x0 }
  - { offsetInCU: 0x3A3AF, offset: 0x3A3AF, size: 0x8, addend: 0x0, symName: __ZNSt8__detail14__destructibleIlEE, symObjAddr: 0x2D8E, symBinAddr: 0x100005D62, symSize: 0x0 }
  - { offsetInCU: 0x3A3C9, offset: 0x3A3C9, size: 0x8, addend: 0x0, symName: __ZNSt8__detail19__destructible_implIlEE, symObjAddr: 0x2D8F, symBinAddr: 0x100005D63, symSize: 0x0 }
  - { offsetInCU: 0x3AA45, offset: 0x3AA45, size: 0x8, addend: 0x0, symName: __ZNSt8__detail30__integer_to_chars_is_unsignedIoEE, symObjAddr: 0x2D90, symBinAddr: 0x100005D64, symSize: 0x0 }
  - { offsetInCU: 0x3AA77, offset: 0x3AA77, size: 0x8, addend: 0x0, symName: __GLOBAL__sub_I_romanticglasses.cpp, symObjAddr: 0x2D54, symBinAddr: 0x1000054F0, symSize: 0x14 }
  - { offsetInCU: 0x3AA7F, offset: 0x3AA7F, size: 0x8, addend: 0x0, symName: __ZSt19piecewise_construct, symObjAddr: 0x2D68, symBinAddr: 0x100005D3C, symSize: 0x0 }
  - { offsetInCU: 0x3AA98, offset: 0x3AA98, size: 0x8, addend: 0x0, symName: __Z41__static_initialization_and_destruction_0v, symObjAddr: 0x2D18, symBinAddr: 0x1000054B4, symSize: 0x3C }
  - { offsetInCU: 0x3AAA0, offset: 0x3AAA0, size: 0x8, addend: 0x0, symName: __GLOBAL__sub_I_romanticglasses.cpp, symObjAddr: 0x2D54, symBinAddr: 0x1000054F0, symSize: 0x14 }
  - { offsetInCU: 0x3AA8A, offset: 0x3AA8A, size: 0x8, addend: 0x0, symName: __ZNSt10_Head_baseILm0ERKxLb0EE7_M_headERS2_, symObjAddr: 0x2D00, symBinAddr: 0x10000549C, symSize: 0x18 }
  - { offsetInCU: 0x3AA92, offset: 0x3AA92, size: 0x8, addend: 0x0, symName: __Z41__static_initialization_and_destruction_0v, symObjAddr: 0x2D18, symBinAddr: 0x1000054B4, symSize: 0x3C }
  - { offsetInCU: 0x3AABD, offset: 0x3AABD, size: 0x8, addend: 0x0, symName: __ZNSt10_Head_baseILm0EOxLb0EE7_M_headERS1_, symObjAddr: 0x2CE8, symBinAddr: 0x100005484, symSize: 0x18 }
  - { offsetInCU: 0x3AAC5, offset: 0x3AAC5, size: 0x8, addend: 0x0, symName: __ZNSt10_Head_baseILm0ERKxLb0EE7_M_headERS2_, symObjAddr: 0x2D00, symBinAddr: 0x10000549C, symSize: 0x18 }
  - { offsetInCU: 0x3AAF0, offset: 0x3AAF0, size: 0x8, addend: 0x0, symName: __ZNSt11_Tuple_implILm0EJRKxEE7_M_headERS2_, symObjAddr: 0x2CCC, symBinAddr: 0x100005468, symSize: 0x1C }
  - { offsetInCU: 0x3AAF8, offset: 0x3AAF8, size: 0x8, addend: 0x0, symName: __ZNSt10_Head_baseILm0EOxLb0EE7_M_headERS1_, symObjAddr: 0x2CE8, symBinAddr: 0x100005484, symSize: 0x18 }
  - { offsetInCU: 0x3AB24, offset: 0x3AB24, size: 0x8, addend: 0x0, symName: __ZNSt11_Tuple_implILm0EJOxEE7_M_headERS1_, symObjAddr: 0x2CB0, symBinAddr: 0x10000544C, symSize: 0x1C }
  - { offsetInCU: 0x3AB2C, offset: 0x3AB2C, size: 0x8, addend: 0x0, symName: __ZNSt11_Tuple_implILm0EJRKxEE7_M_headERS2_, symObjAddr: 0x2CCC, symBinAddr: 0x100005468, symSize: 0x1C }
  - { offsetInCU: 0x3ABC5, offset: 0x3ABC5, size: 0x8, addend: 0x0, symName: __ZSt12__get_helperILm0ERKxJEERT0_RSt11_Tuple_implIXT_EJS2_DpT1_EE, symObjAddr: 0x2C94, symBinAddr: 0x100005430, symSize: 0x1C }
  - { offsetInCU: 0x3ABCD, offset: 0x3ABCD, size: 0x8, addend: 0x0, symName: __ZNSt11_Tuple_implILm0EJOxEE7_M_headERS1_, symObjAddr: 0x2CB0, symBinAddr: 0x10000544C, symSize: 0x1C }
  - { offsetInCU: 0x3AC20, offset: 0x3AC20, size: 0x8, addend: 0x0, symName: __ZSt12__get_helperILm0EOxJEERT0_RSt11_Tuple_implIXT_EJS1_DpT1_EE, symObjAddr: 0x2C78, symBinAddr: 0x100005414, symSize: 0x1C }
  - { offsetInCU: 0x3AC28, offset: 0x3AC28, size: 0x8, addend: 0x0, symName: __ZSt12__get_helperILm0ERKxJEERT0_RSt11_Tuple_implIXT_EJS2_DpT1_EE, symObjAddr: 0x2C94, symBinAddr: 0x100005430, symSize: 0x1C }
  - { offsetInCU: 0x3AC72, offset: 0x3AC72, size: 0x8, addend: 0x0, symName: __ZSt7forwardIRKxEOT_RNSt16remove_referenceIS2_E4typeE, symObjAddr: 0x2C64, symBinAddr: 0x100005400, symSize: 0x14 }
  - { offsetInCU: 0x3AC7A, offset: 0x3AC7A, size: 0x8, addend: 0x0, symName: __ZSt12__get_helperILm0EOxJEERT0_RSt11_Tuple_implIXT_EJS1_DpT1_EE, symObjAddr: 0x2C78, symBinAddr: 0x100005414, symSize: 0x1C }
  - { offsetInCU: 0x3ACDA, offset: 0x3ACDA, size: 0x8, addend: 0x0, symName: __ZSt3getILm0EJRKxEERNSt13tuple_elementIXT_ESt5tupleIJDpT0_EEE4typeERS6_, symObjAddr: 0x2C48, symBinAddr: 0x1000053E4, symSize: 0x1C }
  - { offsetInCU: 0x3ACE2, offset: 0x3ACE2, size: 0x8, addend: 0x0, symName: __ZSt7forwardIRKxEOT_RNSt16remove_referenceIS2_E4typeE, symObjAddr: 0x2C64, symBinAddr: 0x100005400, symSize: 0x14 }
  - { offsetInCU: 0x3AD20, offset: 0x3AD20, size: 0x8, addend: 0x0, symName: __ZSt7forwardIOxEOT_RNSt16remove_referenceIS1_E4typeE, symObjAddr: 0x2C34, symBinAddr: 0x1000053D0, symSize: 0x14 }
  - { offsetInCU: 0x3AD28, offset: 0x3AD28, size: 0x8, addend: 0x0, symName: __ZSt3getILm0EJRKxEERNSt13tuple_elementIXT_ESt5tupleIJDpT0_EEE4typeERS6_, symObjAddr: 0x2C48, symBinAddr: 0x1000053E4, symSize: 0x1C }
  - { offsetInCU: 0x3AD88, offset: 0x3AD88, size: 0x8, addend: 0x0, symName: __ZSt3getILm0EJOxEERNSt13tuple_elementIXT_ESt5tupleIJDpT0_EEE4typeERS5_, symObjAddr: 0x2C18, symBinAddr: 0x1000053B4, symSize: 0x1C }
  - { offsetInCU: 0x3AD90, offset: 0x3AD90, size: 0x8, addend: 0x0, symName: __ZSt7forwardIOxEOT_RNSt16remove_referenceIS1_E4typeE, symObjAddr: 0x2C34, symBinAddr: 0x1000053D0, symSize: 0x14 }
  - { offsetInCU: 0x3AE6E, offset: 0x3AE6E, size: 0x8, addend: 0x0, symName: __ZNSt4pairIKxiEC1IJRS0_EJLm0EEJEJEEERSt5tupleIJDpT_EERS4_IJDpT1_EESt12_Index_tupleIJXspT0_EEESD_IJXspT2_EEE, symObjAddr: 0x2BD0, symBinAddr: 0x10000536C, symSize: 0x48 }
  - { offsetInCU: 0x3AE76, offset: 0x3AE76, size: 0x8, addend: 0x0, symName: __ZSt3getILm0EJOxEERNSt13tuple_elementIXT_ESt5tupleIJDpT0_EEE4typeERS5_, symObjAddr: 0x2C18, symBinAddr: 0x1000053B4, symSize: 0x1C }
  - { offsetInCU: 0x3AF7F, offset: 0x3AF7F, size: 0x8, addend: 0x0, symName: __ZNSt4pairIKxiEC1IJOxEJLm0EEJEJEEERSt5tupleIJDpT_EERS4_IJDpT1_EESt12_Index_tupleIJXspT0_EEESD_IJXspT2_EEE, symObjAddr: 0x2B88, symBinAddr: 0x100005324, symSize: 0x48 }
  - { offsetInCU: 0x3AF87, offset: 0x3AF87, size: 0x8, addend: 0x0, symName: __ZNSt4pairIKxiEC1IJRS0_EJLm0EEJEJEEERSt5tupleIJDpT_EERS4_IJDpT1_EESt12_Index_tupleIJXspT0_EEESD_IJXspT2_EEE, symObjAddr: 0x2BD0, symBinAddr: 0x10000536C, symSize: 0x48 }
  - { offsetInCU: 0x3B04F, offset: 0x3B04F, size: 0x8, addend: 0x0, symName: __ZSt9__fill_a1IPxxEN9__gnu_cxx11__enable_ifIXsrSt11__is_scalarIT0_E7__valueEvE6__typeET_S8_RKS4_, symObjAddr: 0x2B30, symBinAddr: 0x1000052CC, symSize: 0x58 }
  - { offsetInCU: 0x3B057, offset: 0x3B057, size: 0x8, addend: 0x0, symName: __ZNSt4pairIKxiEC1IJOxEJLm0EEJEJEEERSt5tupleIJDpT_EERS4_IJDpT1_EESt12_Index_tupleIJXspT0_EEESD_IJXspT2_EEE, symObjAddr: 0x2B88, symBinAddr: 0x100005324, symSize: 0x48 }
  - { offsetInCU: 0x3B102, offset: 0x3B102, size: 0x8, addend: 0x0, symName: __ZNSt4pairIKxiEC1IJRS0_EJEEESt21piecewise_construct_tSt5tupleIJDpT_EES5_IJDpT0_EE, symObjAddr: 0x2AF4, symBinAddr: 0x100005290, symSize: 0x3C }
  - { offsetInCU: 0x3B10A, offset: 0x3B10A, size: 0x8, addend: 0x0, symName: __ZSt9__fill_a1IPxxEN9__gnu_cxx11__enable_ifIXsrSt11__is_scalarIT0_E7__valueEvE6__typeET_S8_RKS4_, symObjAddr: 0x2B30, symBinAddr: 0x1000052CC, symSize: 0x58 }
  - { offsetInCU: 0x3B16E, offset: 0x3B16E, size: 0x8, addend: 0x0, symName: __ZNSt11_Tuple_implILm0EJRKxEEC2EOS2_, symObjAddr: 0x2ACC, symBinAddr: 0x100005268, symSize: 0x28 }
  - { offsetInCU: 0x3B176, offset: 0x3B176, size: 0x8, addend: 0x0, symName: __ZNSt4pairIKxiEC1IJRS0_EJEEESt21piecewise_construct_tSt5tupleIJDpT_EES5_IJDpT0_EE, symObjAddr: 0x2AF4, symBinAddr: 0x100005290, symSize: 0x3C }
  - { offsetInCU: 0x3B232, offset: 0x3B232, size: 0x8, addend: 0x0, symName: __ZNSt4pairIKxiEC1IJOxEJEEESt21piecewise_construct_tSt5tupleIJDpT_EES5_IJDpT0_EE, symObjAddr: 0x2A90, symBinAddr: 0x10000522C, symSize: 0x3C }
  - { offsetInCU: 0x3B23A, offset: 0x3B23A, size: 0x8, addend: 0x0, symName: __ZNSt11_Tuple_implILm0EJRKxEEC2EOS2_, symObjAddr: 0x2ACC, symBinAddr: 0x100005268, symSize: 0x28 }
  - { offsetInCU: 0x3B29F, offset: 0x3B29F, size: 0x8, addend: 0x0, symName: __ZNSt11_Tuple_implILm0EJOxEEC2EOS1_, symObjAddr: 0x2A68, symBinAddr: 0x100005204, symSize: 0x28 }
  - { offsetInCU: 0x3B2A7, offset: 0x3B2A7, size: 0x8, addend: 0x0, symName: __ZNSt4pairIKxiEC1IJOxEJEEESt21piecewise_construct_tSt5tupleIJDpT_EES5_IJDpT0_EE, symObjAddr: 0x2A90, symBinAddr: 0x10000522C, symSize: 0x3C }
  - { offsetInCU: 0x3B2B8, offset: 0x3B2B8, size: 0x8, addend: 0x0, symName: __ZNSt15__new_allocatorISt13_Rb_tree_nodeISt4pairIKxiEEE8allocateEmPKv, symObjAddr: 0x29D8, symBinAddr: 0x100005174, symSize: 0x90 }
  - { offsetInCU: 0x3B2C0, offset: 0x3B2C0, size: 0x8, addend: 0x0, symName: __ZNSt11_Tuple_implILm0EJOxEEC2EOS1_, symObjAddr: 0x2A68, symBinAddr: 0x100005204, symSize: 0x28 }
  - { offsetInCU: 0x3B38E, offset: 0x3B38E, size: 0x8, addend: 0x0, symName: __ZSt8__fill_aIPxxEvT_S1_RKT0_, symObjAddr: 0x29A8, symBinAddr: 0x100005144, symSize: 0x30 }
  - { offsetInCU: 0x3B396, offset: 0x3B396, size: 0x8, addend: 0x0, symName: __ZNSt15__new_allocatorISt13_Rb_tree_nodeISt4pairIKxiEEE8allocateEmPKv, symObjAddr: 0x29D8, symBinAddr: 0x100005174, symSize: 0x90 }
  - { offsetInCU: 0x3B4EE, offset: 0x3B4EE, size: 0x8, addend: 0x0, symName: __ZSt12construct_atISt4pairIKxiEJRKSt21piecewise_construct_tSt5tupleIJRS1_EES6_IJEEEEDTgsnwcvPvLi0E_T_pispcl7declvalIT0_EEEEPSB_DpOSC_, symObjAddr: 0x28F0, symBinAddr: 0x10000508C, symSize: 0xB8 }
  - { offsetInCU: 0x3B4F6, offset: 0x3B4F6, size: 0x8, addend: 0x0, symName: __ZSt8__fill_aIPxxEvT_S1_RKT0_, symObjAddr: 0x29A8, symBinAddr: 0x100005144, symSize: 0x30 }
  - { offsetInCU: 0x3B4CA, offset: 0x3B4CA, size: 0x8, addend: 0x0, symName: __ZNSt5tupleIJRKxEEC1EOS2_, symObjAddr: 0x28C8, symBinAddr: 0x100005064, symSize: 0x28 }
  - { offsetInCU: 0x3B4D2, offset: 0x3B4D2, size: 0x8, addend: 0x0, symName: __ZSt12construct_atISt4pairIKxiEJRKSt21piecewise_construct_tSt5tupleIJRS1_EES6_IJEEEEDTgsnwcvPvLi0E_T_pispcl7declvalIT0_EEEEPSB_DpOSC_, symObjAddr: 0x28F0, symBinAddr: 0x10000508C, symSize: 0xB8 }
  - { offsetInCU: 0x3B4ED, offset: 0x3B4ED, size: 0x8, addend: 0x0, symName: __ZNK9__gnu_cxx16__aligned_membufISt4pairIKxiEE7_M_addrEv, symObjAddr: 0x28B4, symBinAddr: 0x100005050, symSize: 0x14 }
  - { offsetInCU: 0x3B4F5, offset: 0x3B4F5, size: 0x8, addend: 0x0, symName: __ZNSt5tupleIJRKxEEC1EOS2_, symObjAddr: 0x28C8, symBinAddr: 0x100005064, symSize: 0x28 }
  - { offsetInCU: 0x3B627, offset: 0x3B627, size: 0x8, addend: 0x0, symName: __ZSt12construct_atISt4pairIKxiEJRKSt21piecewise_construct_tSt5tupleIJOxEES6_IJEEEEDTgsnwcvPvLi0E_T_pispcl7declvalIT0_EEEEPSB_DpOSC_, symObjAddr: 0x27FC, symBinAddr: 0x100004F98, symSize: 0xB8 }
  - { offsetInCU: 0x3B62F, offset: 0x3B62F, size: 0x8, addend: 0x0, symName: __ZNK9__gnu_cxx16__aligned_membufISt4pairIKxiEE7_M_addrEv, symObjAddr: 0x28B4, symBinAddr: 0x100005050, symSize: 0x14 }
  - { offsetInCU: 0x3B5F5, offset: 0x3B5F5, size: 0x8, addend: 0x0, symName: __ZNSt5tupleIJOxEEC1EOS1_, symObjAddr: 0x27D4, symBinAddr: 0x100004F70, symSize: 0x28 }
  - { offsetInCU: 0x3B5FD, offset: 0x3B5FD, size: 0x8, addend: 0x0, symName: __ZSt12construct_atISt4pairIKxiEJRKSt21piecewise_construct_tSt5tupleIJOxEES6_IJEEEEDTgsnwcvPvLi0E_T_pispcl7declvalIT0_EEEEPSB_DpOSC_, symObjAddr: 0x27FC, symBinAddr: 0x100004F98, symSize: 0xB8 }
  - { offsetInCU: 0x3B645, offset: 0x3B645, size: 0x8, addend: 0x0, symName: __ZNSt15__new_allocatorISt13_Rb_tree_nodeISt4pairIKxiEEE10deallocateEPS4_m, symObjAddr: 0x2798, symBinAddr: 0x100004F34, symSize: 0x3C }
  - { offsetInCU: 0x3B64D, offset: 0x3B64D, size: 0x8, addend: 0x0, symName: __ZNSt5tupleIJOxEEC1EOS1_, symObjAddr: 0x27D4, symBinAddr: 0x100004F70, symSize: 0x28 }
  - { offsetInCU: 0x3B722, offset: 0x3B722, size: 0x8, addend: 0x0, symName: __ZSt10__fill_n_aIPxmxET_S1_T0_RKT1_St26random_access_iterator_tag, symObjAddr: 0x2734, symBinAddr: 0x100004ED0, symSize: 0x64 }
  - { offsetInCU: 0x3B72A, offset: 0x3B72A, size: 0x8, addend: 0x0, symName: __ZNSt15__new_allocatorISt13_Rb_tree_nodeISt4pairIKxiEEE10deallocateEPS4_m, symObjAddr: 0x2798, symBinAddr: 0x100004F34, symSize: 0x3C }
  - { offsetInCU: 0x3B7DE, offset: 0x3B7DE, size: 0x8, addend: 0x0, symName: __ZSt12construct_atIxJEEDTgsnwcvPvLi0E_T_pispcl7declvalIT0_EEEEPS1_DpOS2_, symObjAddr: 0x270C, symBinAddr: 0x100004EA8, symSize: 0x28 }
  - { offsetInCU: 0x3B7E6, offset: 0x3B7E6, size: 0x8, addend: 0x0, symName: __ZSt10__fill_n_aIPxmxET_S1_T0_RKT1_St26random_access_iterator_tag, symObjAddr: 0x2734, symBinAddr: 0x100004ED0, symSize: 0x64 }
  - { offsetInCU: 0x3B7CB, offset: 0x3B7CB, size: 0x8, addend: 0x0, symName: __ZNSt15__new_allocatorIxE8allocateEmPKv, symObjAddr: 0x2690, symBinAddr: 0x100004E2C, symSize: 0x7C }
  - { offsetInCU: 0x3B7D3, offset: 0x3B7D3, size: 0x8, addend: 0x0, symName: __ZSt12construct_atIxJEEDTgsnwcvPvLi0E_T_pispcl7declvalIT0_EEEEPS1_DpOS2_, symObjAddr: 0x270C, symBinAddr: 0x100004EA8, symSize: 0x28 }
  - { offsetInCU: 0x3B8D9, offset: 0x3B8D9, size: 0x8, addend: 0x0, symName: __ZNK9__gnu_cxx16__aligned_membufISt4pairIKxiEE6_M_ptrEv, symObjAddr: 0x2674, symBinAddr: 0x100004E10, symSize: 0x1C }
  - { offsetInCU: 0x3B8E1, offset: 0x3B8E1, size: 0x8, addend: 0x0, symName: __ZNSt15__new_allocatorIxE8allocateEmPKv, symObjAddr: 0x2690, symBinAddr: 0x100004E2C, symSize: 0x7C }
  - { offsetInCU: 0x3B9A6, offset: 0x3B9A6, size: 0x8, addend: 0x0, symName: __ZSt7forwardIRPSt13_Rb_tree_nodeISt4pairIKxiEEEOT_RNSt16remove_referenceIS7_E4typeE, symObjAddr: 0x2660, symBinAddr: 0x100004DFC, symSize: 0x14 }
  - { offsetInCU: 0x3B9AE, offset: 0x3B9AE, size: 0x8, addend: 0x0, symName: __ZNK9__gnu_cxx16__aligned_membufISt4pairIKxiEE6_M_ptrEv, symObjAddr: 0x2674, symBinAddr: 0x100004E10, symSize: 0x1C }
  - { offsetInCU: 0x3BAAC, offset: 0x3BAAC, size: 0x8, addend: 0x0, symName: __ZSt10destroy_atISt4pairIKxiEEvPT_, symObjAddr: 0x264C, symBinAddr: 0x100004DE8, symSize: 0x14 }
  - { offsetInCU: 0x3BAB4, offset: 0x3BAB4, size: 0x8, addend: 0x0, symName: __ZSt7forwardIRPSt13_Rb_tree_nodeISt4pairIKxiEEEOT_RNSt16remove_referenceIS7_E4typeE, symObjAddr: 0x2660, symBinAddr: 0x100004DFC, symSize: 0x14 }
  - { offsetInCU: 0x3BACE, offset: 0x3BACE, size: 0x8, addend: 0x0, symName: __ZSt10destroy_atIxEvPT_, symObjAddr: 0x2638, symBinAddr: 0x100004DD4, symSize: 0x14 }
  - { offsetInCU: 0x3BAD6, offset: 0x3BAD6, size: 0x8, addend: 0x0, symName: __ZSt10destroy_atISt4pairIKxiEEvPT_, symObjAddr: 0x264C, symBinAddr: 0x100004DE8, symSize: 0x14 }
  - { offsetInCU: 0x3BB3C, offset: 0x3BB3C, size: 0x8, addend: 0x0, symName: __ZSt6fill_nIPxmxET_S1_T0_RKT1_, symObjAddr: 0x25F0, symBinAddr: 0x100004D8C, symSize: 0x48 }
  - { offsetInCU: 0x3BB44, offset: 0x3BB44, size: 0x8, addend: 0x0, symName: __ZSt10destroy_atIxEvPT_, symObjAddr: 0x2638, symBinAddr: 0x100004DD4, symSize: 0x14 }
  - { offsetInCU: 0x3BBD1, offset: 0x3BBD1, size: 0x8, addend: 0x0, symName: __ZSt10_ConstructIxJEEvPT_DpOT0_, symObjAddr: 0x25A8, symBinAddr: 0x100004D44, symSize: 0x48 }
  - { offsetInCU: 0x3BBD9, offset: 0x3BBD9, size: 0x8, addend: 0x0, symName: __ZSt6fill_nIPxmxET_S1_T0_RKT1_, symObjAddr: 0x25F0, symBinAddr: 0x100004D8C, symSize: 0x48 }
  - { offsetInCU: 0x3BBE4, offset: 0x3BBE4, size: 0x8, addend: 0x0, symName: __ZNSt15__new_allocatorIxE10deallocateEPxm, symObjAddr: 0x2578, symBinAddr: 0x100004D14, symSize: 0x30 }
  - { offsetInCU: 0x3BBEC, offset: 0x3BBEC, size: 0x8, addend: 0x0, symName: __ZSt10_ConstructIxJEEvPT_DpOT0_, symObjAddr: 0x25A8, symBinAddr: 0x100004D44, symSize: 0x48 }
  - { offsetInCU: 0x3BC69, offset: 0x3BC69, size: 0x8, addend: 0x0, symName: __ZNSt8_Rb_treeIxSt4pairIKxiESt10_Select1stIS2_ESt4lessIxESaIS2_EE17_M_construct_nodeIJRKSt21piecewise_construct_tSt5tupleIJRS1_EESD_IJEEEEEvPSt13_Rb_tree_nodeIS2_EDpOT_, symObjAddr: 0x2488, symBinAddr: 0x100004C24, symSize: 0xF0 }
  - { offsetInCU: 0x3BC71, offset: 0x3BC71, size: 0x8, addend: 0x0, symName: __ZNSt15__new_allocatorIxE10deallocateEPxm, symObjAddr: 0x2578, symBinAddr: 0x100004D14, symSize: 0x30 }
  - { offsetInCU: 0x3BD5D, offset: 0x3BD5D, size: 0x8, addend: 0x0, symName: __ZNKSt10_Select1stISt4pairIKxiEEclERKS2_, symObjAddr: 0x2470, symBinAddr: 0x100004C0C, symSize: 0x18 }
  - { offsetInCU: 0x3BD65, offset: 0x3BD65, size: 0x8, addend: 0x0, symName: __ZNSt8_Rb_treeIxSt4pairIKxiESt10_Select1stIS2_ESt4lessIxESaIS2_EE17_M_construct_nodeIJRKSt21piecewise_construct_tSt5tupleIJRS1_EESD_IJEEEEEvPSt13_Rb_tree_nodeIS2_EDpOT_, symObjAddr: 0x2488, symBinAddr: 0x100004C24, symSize: 0xF0 }
  - { offsetInCU: 0x3BDA3, offset: 0x3BDA3, size: 0x8, addend: 0x0, symName: __ZNKSt13_Rb_tree_nodeISt4pairIKxiEE9_M_valptrEv, symObjAddr: 0x2450, symBinAddr: 0x100004BEC, symSize: 0x20 }
  - { offsetInCU: 0x3BDAB, offset: 0x3BDAB, size: 0x8, addend: 0x0, symName: __ZNKSt10_Select1stISt4pairIKxiEEclERKS2_, symObjAddr: 0x2470, symBinAddr: 0x100004C0C, symSize: 0x18 }
  - { offsetInCU: 0x3BE46, offset: 0x3BE46, size: 0x8, addend: 0x0, symName: __ZSt7forwardIRPSt18_Rb_tree_node_baseEOT_RNSt16remove_referenceIS3_E4typeE, symObjAddr: 0x243C, symBinAddr: 0x100004BD8, symSize: 0x14 }
  - { offsetInCU: 0x3BE4E, offset: 0x3BE4E, size: 0x8, addend: 0x0, symName: __ZNKSt13_Rb_tree_nodeISt4pairIKxiEE9_M_valptrEv, symObjAddr: 0x2450, symBinAddr: 0x100004BEC, symSize: 0x20 }
  - { offsetInCU: 0x3BEE0, offset: 0x3BEE0, size: 0x8, addend: 0x0, symName: __ZNSt4pairIPSt18_Rb_tree_node_baseS1_EC1IRPSt13_Rb_tree_nodeIS_IKxiEERS1_EEOT_OT0_, symObjAddr: 0x23F4, symBinAddr: 0x100004B90, symSize: 0x48 }
  - { offsetInCU: 0x3BEE8, offset: 0x3BEE8, size: 0x8, addend: 0x0, symName: __ZSt7forwardIRPSt18_Rb_tree_node_baseEOT_RNSt16remove_referenceIS3_E4typeE, symObjAddr: 0x243C, symBinAddr: 0x100004BD8, symSize: 0x14 }
  - { offsetInCU: 0x3BEF1, offset: 0x3BEF1, size: 0x8, addend: 0x0, symName: __ZNSt8_Rb_treeIxSt4pairIKxiESt10_Select1stIS2_ESt4lessIxESaIS2_EE5beginEv, symObjAddr: 0x23CC, symBinAddr: 0x100004B68, symSize: 0x28 }
  - { offsetInCU: 0x3BEF9, offset: 0x3BEF9, size: 0x8, addend: 0x0, symName: __ZNSt4pairIPSt18_Rb_tree_node_baseS1_EC1IRPSt13_Rb_tree_nodeIS_IKxiEERS1_EEOT_OT0_, symObjAddr: 0x23F4, symBinAddr: 0x100004B90, symSize: 0x48 }
  - { offsetInCU: 0x3BF22, offset: 0x3BF22, size: 0x8, addend: 0x0, symName: __ZNSt8_Rb_treeIxSt4pairIKxiESt10_Select1stIS2_ESt4lessIxESaIS2_EE17_M_construct_nodeIJRKSt21piecewise_construct_tSt5tupleIJOxEESD_IJEEEEEvPSt13_Rb_tree_nodeIS2_EDpOT_, symObjAddr: 0x22DC, symBinAddr: 0x100004A78, symSize: 0xF0 }
  - { offsetInCU: 0x3BF2A, offset: 0x3BF2A, size: 0x8, addend: 0x0, symName: __ZNSt8_Rb_treeIxSt4pairIKxiESt10_Select1stIS2_ESt4lessIxESaIS2_EE5beginEv, symObjAddr: 0x23CC, symBinAddr: 0x100004B68, symSize: 0x28 }
  - { offsetInCU: 0x3C016, offset: 0x3C016, size: 0x8, addend: 0x0, symName: __ZNSt8_Rb_treeIxSt4pairIKxiESt10_Select1stIS2_ESt4lessIxESaIS2_EE11_M_get_nodeEv, symObjAddr: 0x2204, symBinAddr: 0x1000049A0, symSize: 0xD8 }
  - { offsetInCU: 0x3C01E, offset: 0x3C01E, size: 0x8, addend: 0x0, symName: __ZNSt8_Rb_treeIxSt4pairIKxiESt10_Select1stIS2_ESt4lessIxESaIS2_EE17_M_construct_nodeIJRKSt21piecewise_construct_tSt5tupleIJOxEESD_IJEEEEEvPSt13_Rb_tree_nodeIS2_EDpOT_, symObjAddr: 0x22DC, symBinAddr: 0x100004A78, symSize: 0xF0 }
  - { offsetInCU: 0x3C111, offset: 0x3C111, size: 0x8, addend: 0x0, symName: __ZNSt10_Head_baseILm0EOxLb0EEC2IxEEOT_, symObjAddr: 0x21D4, symBinAddr: 0x100004970, symSize: 0x30 }
  - { offsetInCU: 0x3C119, offset: 0x3C119, size: 0x8, addend: 0x0, symName: __ZNSt8_Rb_treeIxSt4pairIKxiESt10_Select1stIS2_ESt4lessIxESaIS2_EE11_M_get_nodeEv, symObjAddr: 0x2204, symBinAddr: 0x1000049A0, symSize: 0xD8 }
  - { offsetInCU: 0x3C134, offset: 0x3C134, size: 0x8, addend: 0x0, symName: __ZN9__gnu_cxx16__aligned_membufISt4pairIKxiEE7_M_addrEv, symObjAddr: 0x21C0, symBinAddr: 0x10000495C, symSize: 0x14 }
  - { offsetInCU: 0x3C13C, offset: 0x3C13C, size: 0x8, addend: 0x0, symName: __ZNSt10_Head_baseILm0EOxLb0EEC2IxEEOT_, symObjAddr: 0x21D4, symBinAddr: 0x100004970, symSize: 0x30 }
  - { offsetInCU: 0x3C1E4, offset: 0x3C1E4, size: 0x8, addend: 0x0, symName: __ZNSt8_Rb_treeIxSt4pairIKxiESt10_Select1stIS2_ESt4lessIxESaIS2_EE21_M_get_Node_allocatorEv, symObjAddr: 0x21AC, symBinAddr: 0x100004948, symSize: 0x14 }
  - { offsetInCU: 0x3C1EC, offset: 0x3C1EC, size: 0x8, addend: 0x0, symName: __ZN9__gnu_cxx16__aligned_membufISt4pairIKxiEE7_M_addrEv, symObjAddr: 0x21C0, symBinAddr: 0x10000495C, symSize: 0x14 }
  - { offsetInCU: 0x3C243, offset: 0x3C243, size: 0x8, addend: 0x0, symName: __ZSt8_DestroyIxEvPT_, symObjAddr: 0x218C, symBinAddr: 0x100004928, symSize: 0x20 }
  - { offsetInCU: 0x3C24B, offset: 0x3C24B, size: 0x8, addend: 0x0, symName: __ZNSt8_Rb_treeIxSt4pairIKxiESt10_Select1stIS2_ESt4lessIxESaIS2_EE21_M_get_Node_allocatorEv, symObjAddr: 0x21AC, symBinAddr: 0x100004948, symSize: 0x14 }
  - { offsetInCU: 0x3C294, offset: 0x3C294, size: 0x8, addend: 0x0, symName: __ZSt11__addressofIxEPT_RS0_, symObjAddr: 0x2178, symBinAddr: 0x100004914, symSize: 0x14 }
  - { offsetInCU: 0x3C29C, offset: 0x3C29C, size: 0x8, addend: 0x0, symName: __ZSt8_DestroyIxEvPT_, symObjAddr: 0x218C, symBinAddr: 0x100004928, symSize: 0x20 }
  - { offsetInCU: 0x3C2A5, offset: 0x3C2A5, size: 0x8, addend: 0x0, symName: __ZNSt27__uninitialized_default_n_1ILb1EE18__uninit_default_nIPxmEET_S3_T0_, symObjAddr: 0x2114, symBinAddr: 0x1000048B0, symSize: 0x64 }
  - { offsetInCU: 0x3C2AD, offset: 0x3C2AD, size: 0x8, addend: 0x0, symName: __ZSt11__addressofIxEPT_RS0_, symObjAddr: 0x2178, symBinAddr: 0x100004914, symSize: 0x14 }
  - { offsetInCU: 0x3C339, offset: 0x3C339, size: 0x8, addend: 0x0, symName: __ZNSt27__uninitialized_default_n_1ILb0EE18__uninit_default_nIPxmEET_S3_T0_, symObjAddr: 0x20BC, symBinAddr: 0x100004858, symSize: 0x58 }
  - { offsetInCU: 0x3C341, offset: 0x3C341, size: 0x8, addend: 0x0, symName: __ZNSt27__uninitialized_default_n_1ILb1EE18__uninit_default_nIPxmEET_S3_T0_, symObjAddr: 0x2114, symBinAddr: 0x1000048B0, symSize: 0x64 }
  - { offsetInCU: 0x3C41D, offset: 0x3C41D, size: 0x8, addend: 0x0, symName: __ZNSt8_Rb_treeIxSt4pairIKxiESt10_Select1stIS2_ESt4lessIxESaIS2_EE14_M_create_nodeIJRKSt21piecewise_construct_tSt5tupleIJRS1_EESD_IJEEEEEPSt13_Rb_tree_nodeIS2_EDpOT_, symObjAddr: 0x204C, symBinAddr: 0x1000047E8, symSize: 0x70 }
  - { offsetInCU: 0x3C425, offset: 0x3C425, size: 0x8, addend: 0x0, symName: __ZNSt27__uninitialized_default_n_1ILb0EE18__uninit_default_nIPxmEET_S3_T0_, symObjAddr: 0x20BC, symBinAddr: 0x100004858, symSize: 0x58 }
  - { offsetInCU: 0x3C502, offset: 0x3C502, size: 0x8, addend: 0x0, symName: __ZNSt10_Head_baseILm0ERKxLb0EEC2ES1_, symObjAddr: 0x2028, symBinAddr: 0x1000047C4, symSize: 0x24 }
  - { offsetInCU: 0x3C50A, offset: 0x3C50A, size: 0x8, addend: 0x0, symName: __ZNSt8_Rb_treeIxSt4pairIKxiESt10_Select1stIS2_ESt4lessIxESaIS2_EE14_M_create_nodeIJRKSt21piecewise_construct_tSt5tupleIJRS1_EESD_IJEEEEEPSt13_Rb_tree_nodeIS2_EDpOT_, symObjAddr: 0x204C, symBinAddr: 0x1000047E8, symSize: 0x70 }
  - { offsetInCU: 0x3C51A, offset: 0x3C51A, size: 0x8, addend: 0x0, symName: __ZNSt8_Rb_treeIxSt4pairIKxiESt10_Select1stIS2_ESt4lessIxESaIS2_EE8_S_rightEPKSt18_Rb_tree_node_base, symObjAddr: 0x2010, symBinAddr: 0x1000047AC, symSize: 0x18 }
  - { offsetInCU: 0x3C522, offset: 0x3C522, size: 0x8, addend: 0x0, symName: __ZNSt10_Head_baseILm0ERKxLb0EEC2ES1_, symObjAddr: 0x2028, symBinAddr: 0x1000047C4, symSize: 0x24 }
  - { offsetInCU: 0x3C54E, offset: 0x3C54E, size: 0x8, addend: 0x0, symName: __ZNSt8_Rb_treeIxSt4pairIKxiESt10_Select1stIS2_ESt4lessIxESaIS2_EE7_S_leftEPKSt18_Rb_tree_node_base, symObjAddr: 0x1FF8, symBinAddr: 0x100004794, symSize: 0x18 }
  - { offsetInCU: 0x3C556, offset: 0x3C556, size: 0x8, addend: 0x0, symName: __ZNSt8_Rb_treeIxSt4pairIKxiESt10_Select1stIS2_ESt4lessIxESaIS2_EE8_S_rightEPKSt18_Rb_tree_node_base, symObjAddr: 0x2010, symBinAddr: 0x1000047AC, symSize: 0x18 }
  - { offsetInCU: 0x3C582, offset: 0x3C582, size: 0x8, addend: 0x0, symName: __ZNSt8_Rb_treeIxSt4pairIKxiESt10_Select1stIS2_ESt4lessIxESaIS2_EE14_M_insert_nodeEPSt18_Rb_tree_node_baseSA_PSt13_Rb_tree_nodeIS2_E, symObjAddr: 0x1F24, symBinAddr: 0x1000046C0, symSize: 0xD4 }
  - { offsetInCU: 0x3C58A, offset: 0x3C58A, size: 0x8, addend: 0x0, symName: __ZNSt8_Rb_treeIxSt4pairIKxiESt10_Select1stIS2_ESt4lessIxESaIS2_EE7_S_leftEPKSt18_Rb_tree_node_base, symObjAddr: 0x1FF8, symBinAddr: 0x100004794, symSize: 0x18 }
  - { offsetInCU: 0x3C606, offset: 0x3C606, size: 0x8, addend: 0x0, symName: __ZNSt8_Rb_treeIxSt4pairIKxiESt10_Select1stIS2_ESt4lessIxESaIS2_EE6_S_keyEPKSt13_Rb_tree_nodeIS2_E, symObjAddr: 0x1EFC, symBinAddr: 0x100004698, symSize: 0x28 }
  - { offsetInCU: 0x3C60E, offset: 0x3C60E, size: 0x8, addend: 0x0, symName: __ZNSt8_Rb_treeIxSt4pairIKxiESt10_Select1stIS2_ESt4lessIxESaIS2_EE14_M_insert_nodeEPSt18_Rb_tree_node_baseSA_PSt13_Rb_tree_nodeIS2_E, symObjAddr: 0x1F24, symBinAddr: 0x1000046C0, symSize: 0xD4 }
  - { offsetInCU: 0x3C63A, offset: 0x3C63A, size: 0x8, addend: 0x0, symName: __ZNSt17_Rb_tree_iteratorISt4pairIKxiEEppEv, symObjAddr: 0x1ECC, symBinAddr: 0x100004668, symSize: 0x30 }
  - { offsetInCU: 0x3C642, offset: 0x3C642, size: 0x8, addend: 0x0, symName: __ZNSt8_Rb_treeIxSt4pairIKxiESt10_Select1stIS2_ESt4lessIxESaIS2_EE6_S_keyEPKSt13_Rb_tree_nodeIS2_E, symObjAddr: 0x1EFC, symBinAddr: 0x100004698, symSize: 0x28 }
  - { offsetInCU: 0x3C66B, offset: 0x3C66B, size: 0x8, addend: 0x0, symName: __ZNSt17_Rb_tree_iteratorISt4pairIKxiEEmmEv, symObjAddr: 0x1E9C, symBinAddr: 0x100004638, symSize: 0x30 }
  - { offsetInCU: 0x3C673, offset: 0x3C673, size: 0x8, addend: 0x0, symName: __ZNSt17_Rb_tree_iteratorISt4pairIKxiEEppEv, symObjAddr: 0x1ECC, symBinAddr: 0x100004668, symSize: 0x30 }
  - { offsetInCU: 0x3C72F, offset: 0x3C72F, size: 0x8, addend: 0x0, symName: __ZNSt4pairIPSt18_Rb_tree_node_baseS1_EC1IRS1_S4_EEOT_OT0_, symObjAddr: 0x1E54, symBinAddr: 0x1000045F0, symSize: 0x48 }
  - { offsetInCU: 0x3C737, offset: 0x3C737, size: 0x8, addend: 0x0, symName: __ZNSt17_Rb_tree_iteratorISt4pairIKxiEEmmEv, symObjAddr: 0x1E9C, symBinAddr: 0x100004638, symSize: 0x30 }
  - { offsetInCU: 0x3C759, offset: 0x3C759, size: 0x8, addend: 0x0, symName: __ZNSt8_Rb_treeIxSt4pairIKxiESt10_Select1stIS2_ESt4lessIxESaIS2_EE11_M_leftmostEv, symObjAddr: 0x1E3C, symBinAddr: 0x1000045D8, symSize: 0x18 }
  - { offsetInCU: 0x3C761, offset: 0x3C761, size: 0x8, addend: 0x0, symName: __ZNSt4pairIPSt18_Rb_tree_node_baseS1_EC1IRS1_S4_EEOT_OT0_, symObjAddr: 0x1E54, symBinAddr: 0x1000045F0, symSize: 0x48 }
  - { offsetInCU: 0x3C78A, offset: 0x3C78A, size: 0x8, addend: 0x0, symName: __ZNSt8_Rb_treeIxSt4pairIKxiESt10_Select1stIS2_ESt4lessIxESaIS2_EE24_M_get_insert_unique_posERS1_, symObjAddr: 0x1CDC, symBinAddr: 0x100004478, symSize: 0x160 }
  - { offsetInCU: 0x3C792, offset: 0x3C792, size: 0x8, addend: 0x0, symName: __ZNSt8_Rb_treeIxSt4pairIKxiESt10_Select1stIS2_ESt4lessIxESaIS2_EE11_M_leftmostEv, symObjAddr: 0x1E3C, symBinAddr: 0x1000045D8, symSize: 0x18 }
  - { offsetInCU: 0x3C896, offset: 0x3C896, size: 0x8, addend: 0x0, symName: __ZNSt4pairIPSt18_Rb_tree_node_baseS1_EC1ERKS1_S4_, symObjAddr: 0x1CA0, symBinAddr: 0x10000443C, symSize: 0x3C }
  - { offsetInCU: 0x3C89E, offset: 0x3C89E, size: 0x8, addend: 0x0, symName: __ZNSt8_Rb_treeIxSt4pairIKxiESt10_Select1stIS2_ESt4lessIxESaIS2_EE24_M_get_insert_unique_posERS1_, symObjAddr: 0x1CDC, symBinAddr: 0x100004478, symSize: 0x160 }
  - { offsetInCU: 0x3C8AE, offset: 0x3C8AE, size: 0x8, addend: 0x0, symName: __ZNSt8_Rb_treeIxSt4pairIKxiESt10_Select1stIS2_ESt4lessIxESaIS2_EE12_M_rightmostEv, symObjAddr: 0x1C88, symBinAddr: 0x100004424, symSize: 0x18 }
  - { offsetInCU: 0x3C8B6, offset: 0x3C8B6, size: 0x8, addend: 0x0, symName: __ZNSt4pairIPSt18_Rb_tree_node_baseS1_EC1ERKS1_S4_, symObjAddr: 0x1CA0, symBinAddr: 0x10000443C, symSize: 0x3C }
  - { offsetInCU: 0x3C8DF, offset: 0x3C8DF, size: 0x8, addend: 0x0, symName: __ZNKSt8_Rb_treeIxSt4pairIKxiESt10_Select1stIS2_ESt4lessIxESaIS2_EE4sizeEv, symObjAddr: 0x1C70, symBinAddr: 0x10000440C, symSize: 0x18 }
  - { offsetInCU: 0x3C8E7, offset: 0x3C8E7, size: 0x8, addend: 0x0, symName: __ZNSt8_Rb_treeIxSt4pairIKxiESt10_Select1stIS2_ESt4lessIxESaIS2_EE12_M_rightmostEv, symObjAddr: 0x1C88, symBinAddr: 0x100004424, symSize: 0x18 }
  - { offsetInCU: 0x3C910, offset: 0x3C910, size: 0x8, addend: 0x0, symName: __ZNKSt23_Rb_tree_const_iteratorISt4pairIKxiEE13_M_const_castEv, symObjAddr: 0x1C48, symBinAddr: 0x1000043E4, symSize: 0x28 }
  - { offsetInCU: 0x3C918, offset: 0x3C918, size: 0x8, addend: 0x0, symName: __ZNKSt8_Rb_treeIxSt4pairIKxiESt10_Select1stIS2_ESt4lessIxESaIS2_EE4sizeEv, symObjAddr: 0x1C70, symBinAddr: 0x10000440C, symSize: 0x18 }
  - { offsetInCU: 0x3C941, offset: 0x3C941, size: 0x8, addend: 0x0, symName: __ZNSt8_Rb_treeIxSt4pairIKxiESt10_Select1stIS2_ESt4lessIxESaIS2_EE14_M_create_nodeIJRKSt21piecewise_construct_tSt5tupleIJOxEESD_IJEEEEEPSt13_Rb_tree_nodeIS2_EDpOT_, symObjAddr: 0x1BD8, symBinAddr: 0x100004374, symSize: 0x70 }
  - { offsetInCU: 0x3C949, offset: 0x3C949, size: 0x8, addend: 0x0, symName: __ZNKSt23_Rb_tree_const_iteratorISt4pairIKxiEE13_M_const_castEv, symObjAddr: 0x1C48, symBinAddr: 0x1000043E4, symSize: 0x28 }
  - { offsetInCU: 0x3CA35, offset: 0x3CA35, size: 0x8, addend: 0x0, symName: __ZNSt11_Tuple_implILm0EJOxEEC2IxEEOT_, symObjAddr: 0x1B9C, symBinAddr: 0x100004338, symSize: 0x3C }
  - { offsetInCU: 0x3CA3D, offset: 0x3CA3D, size: 0x8, addend: 0x0, symName: __ZNSt8_Rb_treeIxSt4pairIKxiESt10_Select1stIS2_ESt4lessIxESaIS2_EE14_M_create_nodeIJRKSt21piecewise_construct_tSt5tupleIJOxEESD_IJEEEEEPSt13_Rb_tree_nodeIS2_EDpOT_, symObjAddr: 0x1BD8, symBinAddr: 0x100004374, symSize: 0x70 }
  - { offsetInCU: 0x3CA59, offset: 0x3CA59, size: 0x8, addend: 0x0, symName: __ZN9__gnu_cxx16__aligned_membufISt4pairIKxiEE6_M_ptrEv, symObjAddr: 0x1B80, symBinAddr: 0x10000431C, symSize: 0x1C }
  - { offsetInCU: 0x3CA61, offset: 0x3CA61, size: 0x8, addend: 0x0, symName: __ZNSt11_Tuple_implILm0EJOxEEC2IxEEOT_, symObjAddr: 0x1B9C, symBinAddr: 0x100004338, symSize: 0x3C }
  - { offsetInCU: 0x3CA8A, offset: 0x3CA8A, size: 0x8, addend: 0x0, symName: __ZNSt8_Rb_treeIxSt4pairIKxiESt10_Select1stIS2_ESt4lessIxESaIS2_EE14_M_lower_boundEPSt13_Rb_tree_nodeIS2_EPSt18_Rb_tree_node_baseRS1_, symObjAddr: 0x1AE0, symBinAddr: 0x10000427C, symSize: 0xA0 }
  - { offsetInCU: 0x3CA92, offset: 0x3CA92, size: 0x8, addend: 0x0, symName: __ZN9__gnu_cxx16__aligned_membufISt4pairIKxiEE6_M_ptrEv, symObjAddr: 0x1B80, symBinAddr: 0x10000431C, symSize: 0x1C }
  - { offsetInCU: 0x3CAFA, offset: 0x3CAFA, size: 0x8, addend: 0x0, symName: __ZNSt8_Rb_treeIxSt4pairIKxiESt10_Select1stIS2_ESt4lessIxESaIS2_EE6_M_endEv, symObjAddr: 0x1AC8, symBinAddr: 0x100004264, symSize: 0x18 }
  - { offsetInCU: 0x3CB02, offset: 0x3CB02, size: 0x8, addend: 0x0, symName: __ZNSt8_Rb_treeIxSt4pairIKxiESt10_Select1stIS2_ESt4lessIxESaIS2_EE14_M_lower_boundEPSt13_Rb_tree_nodeIS2_EPSt18_Rb_tree_node_baseRS1_, symObjAddr: 0x1AE0, symBinAddr: 0x10000427C, symSize: 0xA0 }
  - { offsetInCU: 0x3CB2B, offset: 0x3CB2B, size: 0x8, addend: 0x0, symName: __ZNSt8_Rb_treeIxSt4pairIKxiESt10_Select1stIS2_ESt4lessIxESaIS2_EE11_M_put_nodeEPSt13_Rb_tree_nodeIS2_E, symObjAddr: 0x1A44, symBinAddr: 0x1000041E0, symSize: 0x84 }
  - { offsetInCU: 0x3CB33, offset: 0x3CB33, size: 0x8, addend: 0x0, symName: __ZNSt8_Rb_treeIxSt4pairIKxiESt10_Select1stIS2_ESt4lessIxESaIS2_EE6_M_endEv, symObjAddr: 0x1AC8, symBinAddr: 0x100004264, symSize: 0x18 }
  - { offsetInCU: 0x3CBF5, offset: 0x3CBF5, size: 0x8, addend: 0x0, symName: __ZNSt8_Rb_treeIxSt4pairIKxiESt10_Select1stIS2_ESt4lessIxESaIS2_EE15_M_destroy_nodeEPSt13_Rb_tree_nodeIS2_E, symObjAddr: 0x19F8, symBinAddr: 0x100004194, symSize: 0x4C }
  - { offsetInCU: 0x3CBFD, offset: 0x3CBFD, size: 0x8, addend: 0x0, symName: __ZNSt8_Rb_treeIxSt4pairIKxiESt10_Select1stIS2_ESt4lessIxESaIS2_EE11_M_put_nodeEPSt13_Rb_tree_nodeIS2_E, symObjAddr: 0x1A44, symBinAddr: 0x1000041E0, symSize: 0x84 }
  - { offsetInCU: 0x3CC70, offset: 0x3CC70, size: 0x8, addend: 0x0, symName: __ZNSt12_Destroy_auxILb1EE9__destroyIPxEEvT_S3_, symObjAddr: 0x19E0, symBinAddr: 0x10000417C, symSize: 0x18 }
  - { offsetInCU: 0x3CC78, offset: 0x3CC78, size: 0x8, addend: 0x0, symName: __ZNSt8_Rb_treeIxSt4pairIKxiESt10_Select1stIS2_ESt4lessIxESaIS2_EE15_M_destroy_nodeEPSt13_Rb_tree_nodeIS2_E, symObjAddr: 0x19F8, symBinAddr: 0x100004194, symSize: 0x4C }
  - { offsetInCU: 0x3CCB6, offset: 0x3CCB6, size: 0x8, addend: 0x0, symName: __ZNSt12_Destroy_auxILb0EE9__destroyIPxEEvT_S3_, symObjAddr: 0x1994, symBinAddr: 0x100004130, symSize: 0x4C }
  - { offsetInCU: 0x3CCBE, offset: 0x3CCBE, size: 0x8, addend: 0x0, symName: __ZNSt12_Destroy_auxILb1EE9__destroyIPxEEvT_S3_, symObjAddr: 0x19E0, symBinAddr: 0x10000417C, symSize: 0x18 }
  - { offsetInCU: 0x3CD79, offset: 0x3CD79, size: 0x8, addend: 0x0, symName: __ZSt25__uninitialized_default_nIPxmET_S1_T0_, symObjAddr: 0x1940, symBinAddr: 0x1000040DC, symSize: 0x54 }
  - { offsetInCU: 0x3CD81, offset: 0x3CD81, size: 0x8, addend: 0x0, symName: __ZNSt12_Destroy_auxILb0EE9__destroyIPxEEvT_S3_, symObjAddr: 0x1994, symBinAddr: 0x100004130, symSize: 0x4C }
  - { offsetInCU: 0x3CDD0, offset: 0x3CDD0, size: 0x8, addend: 0x0, symName: __ZNSt12_Vector_baseIxSaIxEE11_M_allocateEm, symObjAddr: 0x1878, symBinAddr: 0x100004014, symSize: 0xC8 }
  - { offsetInCU: 0x3CDD8, offset: 0x3CDD8, size: 0x8, addend: 0x0, symName: __ZSt25__uninitialized_default_nIPxmET_S1_T0_, symObjAddr: 0x1940, symBinAddr: 0x1000040DC, symSize: 0x54 }
  - { offsetInCU: 0x3CECE, offset: 0x3CECE, size: 0x8, addend: 0x0, symName: __ZNSt12_Vector_baseIxSaIxEE17_Vector_impl_dataC2Ev, symObjAddr: 0x184C, symBinAddr: 0x100003FE8, symSize: 0x2C }
  - { offsetInCU: 0x3CED6, offset: 0x3CED6, size: 0x8, addend: 0x0, symName: __ZNSt12_Vector_baseIxSaIxEE11_M_allocateEm, symObjAddr: 0x1878, symBinAddr: 0x100004014, symSize: 0xC8 }
  - { offsetInCU: 0x3CFEF, offset: 0x3CFEF, size: 0x8, addend: 0x0, symName: __ZNSt8_Rb_treeIxSt4pairIKxiESt10_Select1stIS2_ESt4lessIxESaIS2_EE10_Auto_nodeC1IJRKSt21piecewise_construct_tSt5tupleIJRS1_EESE_IJEEEEERS8_DpOT_, symObjAddr: 0x17D0, symBinAddr: 0x100003F6C, symSize: 0x7C }
  - { offsetInCU: 0x3CFF7, offset: 0x3CFF7, size: 0x8, addend: 0x0, symName: __ZNSt12_Vector_baseIxSaIxEE17_Vector_impl_dataC2Ev, symObjAddr: 0x184C, symBinAddr: 0x100003FE8, symSize: 0x2C }
  - { offsetInCU: 0x3D05C, offset: 0x3D05C, size: 0x8, addend: 0x0, symName: __ZSt7forwardISt5tupleIJRKxEEEOT_RNSt16remove_referenceIS4_E4typeE, symObjAddr: 0x17BC, symBinAddr: 0x100003F58, symSize: 0x14 }
  - { offsetInCU: 0x3D064, offset: 0x3D064, size: 0x8, addend: 0x0, symName: __ZNSt8_Rb_treeIxSt4pairIKxiESt10_Select1stIS2_ESt4lessIxESaIS2_EE10_Auto_nodeC1IJRKSt21piecewise_construct_tSt5tupleIJRS1_EESE_IJEEEEERS8_DpOT_, symObjAddr: 0x17D0, symBinAddr: 0x100003F6C, symSize: 0x7C }
  - { offsetInCU: 0x3D092, offset: 0x3D092, size: 0x8, addend: 0x0, symName: __ZNSt11_Tuple_implILm0EJRKxEEC2ES1_, symObjAddr: 0x1794, symBinAddr: 0x100003F30, symSize: 0x28 }
  - { offsetInCU: 0x3D09A, offset: 0x3D09A, size: 0x8, addend: 0x0, symName: __ZSt7forwardISt5tupleIJRKxEEEOT_RNSt16remove_referenceIS4_E4typeE, symObjAddr: 0x17BC, symBinAddr: 0x100003F58, symSize: 0x14 }
  - { offsetInCU: 0x3D120, offset: 0x3D120, size: 0x8, addend: 0x0, symName: __ZNSt23_Rb_tree_const_iteratorISt4pairIKxiEEC1EPKSt18_Rb_tree_node_base, symObjAddr: 0x1770, symBinAddr: 0x100003F0C, symSize: 0x24 }
  - { offsetInCU: 0x3D128, offset: 0x3D128, size: 0x8, addend: 0x0, symName: __ZNSt11_Tuple_implILm0EJRKxEEC2ES1_, symObjAddr: 0x1794, symBinAddr: 0x100003F30, symSize: 0x28 }
  - { offsetInCU: 0x3D115, offset: 0x3D115, size: 0x8, addend: 0x0, symName: __ZNSt8_Rb_treeIxSt4pairIKxiESt10_Select1stIS2_ESt4lessIxESaIS2_EE6_S_keyEPKSt18_Rb_tree_node_base, symObjAddr: 0x1754, symBinAddr: 0x100003EF0, symSize: 0x1C }
  - { offsetInCU: 0x3D11D, offset: 0x3D11D, size: 0x8, addend: 0x0, symName: __ZNSt23_Rb_tree_const_iteratorISt4pairIKxiEEC1EPKSt18_Rb_tree_node_base, symObjAddr: 0x1770, symBinAddr: 0x100003F0C, symSize: 0x24 }
  - { offsetInCU: 0x3D149, offset: 0x3D149, size: 0x8, addend: 0x0, symName: __ZNKSt8_Rb_treeIxSt4pairIKxiESt10_Select1stIS2_ESt4lessIxESaIS2_EE14_M_lower_boundEPKSt13_Rb_tree_nodeIS2_EPKSt18_Rb_tree_node_baseRS1_, symObjAddr: 0x16B4, symBinAddr: 0x100003E50, symSize: 0xA0 }
  - { offsetInCU: 0x3D151, offset: 0x3D151, size: 0x8, addend: 0x0, symName: __ZNSt8_Rb_treeIxSt4pairIKxiESt10_Select1stIS2_ESt4lessIxESaIS2_EE6_S_keyEPKSt18_Rb_tree_node_base, symObjAddr: 0x1754, symBinAddr: 0x100003EF0, symSize: 0x1C }
  - { offsetInCU: 0x3D1B9, offset: 0x3D1B9, size: 0x8, addend: 0x0, symName: __ZNKSt8_Rb_treeIxSt4pairIKxiESt10_Select1stIS2_ESt4lessIxESaIS2_EE6_M_endEv, symObjAddr: 0x169C, symBinAddr: 0x100003E38, symSize: 0x18 }
  - { offsetInCU: 0x3D1C1, offset: 0x3D1C1, size: 0x8, addend: 0x0, symName: __ZNKSt8_Rb_treeIxSt4pairIKxiESt10_Select1stIS2_ESt4lessIxESaIS2_EE14_M_lower_boundEPKSt13_Rb_tree_nodeIS2_EPKSt18_Rb_tree_node_baseRS1_, symObjAddr: 0x16B4, symBinAddr: 0x100003E50, symSize: 0xA0 }
  - { offsetInCU: 0x3D1EA, offset: 0x3D1EA, size: 0x8, addend: 0x0, symName: __ZNKSt8_Rb_treeIxSt4pairIKxiESt10_Select1stIS2_ESt4lessIxESaIS2_EE8_M_beginEv, symObjAddr: 0x1684, symBinAddr: 0x100003E20, symSize: 0x18 }
  - { offsetInCU: 0x3D1F2, offset: 0x3D1F2, size: 0x8, addend: 0x0, symName: __ZNKSt8_Rb_treeIxSt4pairIKxiESt10_Select1stIS2_ESt4lessIxESaIS2_EE6_M_endEv, symObjAddr: 0x169C, symBinAddr: 0x100003E38, symSize: 0x18 }
  - { offsetInCU: 0x3D289, offset: 0x3D289, size: 0x8, addend: 0x0, symName: __ZNSt17_Rb_tree_iteratorISt4pairIKxiEEC1EPSt18_Rb_tree_node_base, symObjAddr: 0x1660, symBinAddr: 0x100003DFC, symSize: 0x24 }
  - { offsetInCU: 0x3D291, offset: 0x3D291, size: 0x8, addend: 0x0, symName: __ZNKSt8_Rb_treeIxSt4pairIKxiESt10_Select1stIS2_ESt4lessIxESaIS2_EE8_M_beginEv, symObjAddr: 0x1684, symBinAddr: 0x100003E20, symSize: 0x18 }
  - { offsetInCU: 0x3D285, offset: 0x3D285, size: 0x8, addend: 0x0, symName: __ZNSt8_Rb_treeIxSt4pairIKxiESt10_Select1stIS2_ESt4lessIxESaIS2_EE10_Auto_node9_M_insertES0_IPSt18_Rb_tree_node_baseSB_E, symObjAddr: 0x1614, symBinAddr: 0x100003DB0, symSize: 0x4C }
  - { offsetInCU: 0x3D28D, offset: 0x3D28D, size: 0x8, addend: 0x0, symName: __ZNSt17_Rb_tree_iteratorISt4pairIKxiEEC1EPSt18_Rb_tree_node_base, symObjAddr: 0x1660, symBinAddr: 0x100003DFC, symSize: 0x24 }
  - { offsetInCU: 0x3D362, offset: 0x3D362, size: 0x8, addend: 0x0, symName: __ZNSt4pairIPSt18_Rb_tree_node_baseS1_EC1IS1_S1_EERS_IT_T0_E, symObjAddr: 0x15DC, symBinAddr: 0x100003D78, symSize: 0x38 }
  - { offsetInCU: 0x3D36A, offset: 0x3D36A, size: 0x8, addend: 0x0, symName: __ZNSt8_Rb_treeIxSt4pairIKxiESt10_Select1stIS2_ESt4lessIxESaIS2_EE10_Auto_node9_M_insertES0_IPSt18_Rb_tree_node_baseSB_E, symObjAddr: 0x1614, symBinAddr: 0x100003DB0, symSize: 0x4C }
  - { offsetInCU: 0x3D37D, offset: 0x3D37D, size: 0x8, addend: 0x0, symName: __ZNKSt8_Rb_treeIxSt4pairIKxiESt10_Select1stIS2_ESt4lessIxESaIS2_EE10_Auto_node6_M_keyEv, symObjAddr: 0x15BC, symBinAddr: 0x100003D58, symSize: 0x20 }
  - { offsetInCU: 0x3D385, offset: 0x3D385, size: 0x8, addend: 0x0, symName: __ZNSt4pairIPSt18_Rb_tree_node_baseS1_EC1IS1_S1_EERS_IT_T0_E, symObjAddr: 0x15DC, symBinAddr: 0x100003D78, symSize: 0x38 }
  - { offsetInCU: 0x3D3AE, offset: 0x3D3AE, size: 0x8, addend: 0x0, symName: __ZNSt8_Rb_treeIxSt4pairIKxiESt10_Select1stIS2_ESt4lessIxESaIS2_EE29_M_get_insert_hint_unique_posESt23_Rb_tree_const_iteratorIS2_ERS1_, symObjAddr: 0x1284, symBinAddr: 0x100003A20, symSize: 0x338 }
  - { offsetInCU: 0x3D3B6, offset: 0x3D3B6, size: 0x8, addend: 0x0, symName: __ZNKSt8_Rb_treeIxSt4pairIKxiESt10_Select1stIS2_ESt4lessIxESaIS2_EE10_Auto_node6_M_keyEv, symObjAddr: 0x15BC, symBinAddr: 0x100003D58, symSize: 0x20 }
  - { offsetInCU: 0x3D4ED, offset: 0x3D4ED, size: 0x8, addend: 0x0, symName: __ZNSt8_Rb_treeIxSt4pairIKxiESt10_Select1stIS2_ESt4lessIxESaIS2_EE10_Auto_nodeD1Ev, symObjAddr: 0x1240, symBinAddr: 0x1000039DC, symSize: 0x44 }
  - { offsetInCU: 0x3D4F5, offset: 0x3D4F5, size: 0x8, addend: 0x0, symName: __ZNSt8_Rb_treeIxSt4pairIKxiESt10_Select1stIS2_ESt4lessIxESaIS2_EE29_M_get_insert_hint_unique_posESt23_Rb_tree_const_iteratorIS2_ERS1_, symObjAddr: 0x1284, symBinAddr: 0x100003A20, symSize: 0x338 }
  - { offsetInCU: 0x3D5C9, offset: 0x3D5C9, size: 0x8, addend: 0x0, symName: __ZNSt8_Rb_treeIxSt4pairIKxiESt10_Select1stIS2_ESt4lessIxESaIS2_EE10_Auto_nodeC1IJRKSt21piecewise_construct_tSt5tupleIJOxEESE_IJEEEEERS8_DpOT_, symObjAddr: 0x11C4, symBinAddr: 0x100003960, symSize: 0x7C }
  - { offsetInCU: 0x3D5D1, offset: 0x3D5D1, size: 0x8, addend: 0x0, symName: __ZNSt8_Rb_treeIxSt4pairIKxiESt10_Select1stIS2_ESt4lessIxESaIS2_EE10_Auto_nodeD1Ev, symObjAddr: 0x1240, symBinAddr: 0x1000039DC, symSize: 0x44 }
  - { offsetInCU: 0x3D621, offset: 0x3D621, size: 0x8, addend: 0x0, symName: __ZSt7forwardISt5tupleIJEEEOT_RNSt16remove_referenceIS2_E4typeE, symObjAddr: 0x11B0, symBinAddr: 0x10000394C, symSize: 0x14 }
  - { offsetInCU: 0x3D629, offset: 0x3D629, size: 0x8, addend: 0x0, symName: __ZNSt8_Rb_treeIxSt4pairIKxiESt10_Select1stIS2_ESt4lessIxESaIS2_EE10_Auto_nodeC1IJRKSt21piecewise_construct_tSt5tupleIJOxEESE_IJEEEEERS8_DpOT_, symObjAddr: 0x11C4, symBinAddr: 0x100003960, symSize: 0x7C }
  - { offsetInCU: 0x3D688, offset: 0x3D688, size: 0x8, addend: 0x0, symName: __ZSt7forwardISt5tupleIJOxEEEOT_RNSt16remove_referenceIS3_E4typeE, symObjAddr: 0x119C, symBinAddr: 0x100003938, symSize: 0x14 }
  - { offsetInCU: 0x3D690, offset: 0x3D690, size: 0x8, addend: 0x0, symName: __ZSt7forwardISt5tupleIJEEEOT_RNSt16remove_referenceIS2_E4typeE, symObjAddr: 0x11B0, symBinAddr: 0x10000394C, symSize: 0x14 }
  - { offsetInCU: 0x3D6F0, offset: 0x3D6F0, size: 0x8, addend: 0x0, symName: __ZSt7forwardIRKSt21piecewise_construct_tEOT_RNSt16remove_referenceIS3_E4typeE, symObjAddr: 0x1188, symBinAddr: 0x100003924, symSize: 0x14 }
  - { offsetInCU: 0x3D6F8, offset: 0x3D6F8, size: 0x8, addend: 0x0, symName: __ZSt7forwardISt5tupleIJOxEEEOT_RNSt16remove_referenceIS3_E4typeE, symObjAddr: 0x119C, symBinAddr: 0x100003938, symSize: 0x14 }
  - { offsetInCU: 0x3D739, offset: 0x3D739, size: 0x8, addend: 0x0, symName: __ZNSt5tupleIJOxEEC1IJxELb1ELb1EEEDpOT_, symObjAddr: 0x114C, symBinAddr: 0x1000038E8, symSize: 0x3C }
  - { offsetInCU: 0x3D741, offset: 0x3D741, size: 0x8, addend: 0x0, symName: __ZSt7forwardIRKSt21piecewise_construct_tEOT_RNSt16remove_referenceIS3_E4typeE, symObjAddr: 0x1188, symBinAddr: 0x100003924, symSize: 0x14 }
  - { offsetInCU: 0x3D7C3, offset: 0x3D7C3, size: 0x8, addend: 0x0, symName: __ZSt7forwardIxEOT_RNSt16remove_referenceIS0_E4typeE, symObjAddr: 0x1138, symBinAddr: 0x1000038D4, symSize: 0x14 }
  - { offsetInCU: 0x3D7CB, offset: 0x3D7CB, size: 0x8, addend: 0x0, symName: __ZNSt5tupleIJOxEEC1IJxELb1ELb1EEEDpOT_, symObjAddr: 0x114C, symBinAddr: 0x1000038E8, symSize: 0x3C }
  - { offsetInCU: 0x3D7CA, offset: 0x3D7CA, size: 0x8, addend: 0x0, symName: __ZNSt13_Rb_tree_nodeISt4pairIKxiEE9_M_valptrEv, symObjAddr: 0x1118, symBinAddr: 0x1000038B4, symSize: 0x20 }
  - { offsetInCU: 0x3D7D2, offset: 0x3D7D2, size: 0x8, addend: 0x0, symName: __ZSt7forwardIxEOT_RNSt16remove_referenceIS0_E4typeE, symObjAddr: 0x1138, symBinAddr: 0x1000038D4, symSize: 0x14 }
  - { offsetInCU: 0x3D7FB, offset: 0x3D7FB, size: 0x8, addend: 0x0, symName: __ZNKSt8_Rb_treeIxSt4pairIKxiESt10_Select1stIS2_ESt4lessIxESaIS2_EE8key_compEv, symObjAddr: 0x1100, symBinAddr: 0x10000389C, symSize: 0x18 }
  - { offsetInCU: 0x3D803, offset: 0x3D803, size: 0x8, addend: 0x0, symName: __ZNSt13_Rb_tree_nodeISt4pairIKxiEE9_M_valptrEv, symObjAddr: 0x1118, symBinAddr: 0x1000038B4, symSize: 0x20 }
  - { offsetInCU: 0x3D82C, offset: 0x3D82C, size: 0x8, addend: 0x0, symName: __ZNSt8_Rb_treeIxSt4pairIKxiESt10_Select1stIS2_ESt4lessIxESaIS2_EE3endEv, symObjAddr: 0x10D8, symBinAddr: 0x100003874, symSize: 0x28 }
  - { offsetInCU: 0x3D834, offset: 0x3D834, size: 0x8, addend: 0x0, symName: __ZNKSt8_Rb_treeIxSt4pairIKxiESt10_Select1stIS2_ESt4lessIxESaIS2_EE8key_compEv, symObjAddr: 0x1100, symBinAddr: 0x10000389C, symSize: 0x18 }
  - { offsetInCU: 0x3D85D, offset: 0x3D85D, size: 0x8, addend: 0x0, symName: __ZNSt8_Rb_treeIxSt4pairIKxiESt10_Select1stIS2_ESt4lessIxESaIS2_EE11lower_boundERS1_, symObjAddr: 0x1090, symBinAddr: 0x10000382C, symSize: 0x48 }
  - { offsetInCU: 0x3D865, offset: 0x3D865, size: 0x8, addend: 0x0, symName: __ZNSt8_Rb_treeIxSt4pairIKxiESt10_Select1stIS2_ESt4lessIxESaIS2_EE3endEv, symObjAddr: 0x10D8, symBinAddr: 0x100003874, symSize: 0x28 }
  - { offsetInCU: 0x3D8A3, offset: 0x3D8A3, size: 0x8, addend: 0x0, symName: __ZNKSt8_Rb_treeIxSt4pairIKxiESt10_Select1stIS2_ESt4lessIxESaIS2_EE9_M_mbeginEv, symObjAddr: 0x1078, symBinAddr: 0x100003814, symSize: 0x18 }
  - { offsetInCU: 0x3D8AB, offset: 0x3D8AB, size: 0x8, addend: 0x0, symName: __ZNSt8_Rb_treeIxSt4pairIKxiESt10_Select1stIS2_ESt4lessIxESaIS2_EE11lower_boundERS1_, symObjAddr: 0x1090, symBinAddr: 0x10000382C, symSize: 0x48 }
  - { offsetInCU: 0x3D8D4, offset: 0x3D8D4, size: 0x8, addend: 0x0, symName: __ZNSt8_Rb_treeIxSt4pairIKxiESt10_Select1stIS2_ESt4lessIxESaIS2_EE12_M_drop_nodeEPSt13_Rb_tree_nodeIS2_E, symObjAddr: 0x1044, symBinAddr: 0x1000037E0, symSize: 0x34 }
  - { offsetInCU: 0x3D8DC, offset: 0x3D8DC, size: 0x8, addend: 0x0, symName: __ZNKSt8_Rb_treeIxSt4pairIKxiESt10_Select1stIS2_ESt4lessIxESaIS2_EE9_M_mbeginEv, symObjAddr: 0x1078, symBinAddr: 0x100003814, symSize: 0x18 }
  - { offsetInCU: 0x3D91A, offset: 0x3D91A, size: 0x8, addend: 0x0, symName: __ZNSt8_Rb_treeIxSt4pairIKxiESt10_Select1stIS2_ESt4lessIxESaIS2_EE7_S_leftEPSt18_Rb_tree_node_base, symObjAddr: 0x102C, symBinAddr: 0x1000037C8, symSize: 0x18 }
  - { offsetInCU: 0x3D922, offset: 0x3D922, size: 0x8, addend: 0x0, symName: __ZNSt8_Rb_treeIxSt4pairIKxiESt10_Select1stIS2_ESt4lessIxESaIS2_EE12_M_drop_nodeEPSt13_Rb_tree_nodeIS2_E, symObjAddr: 0x1044, symBinAddr: 0x1000037E0, symSize: 0x34 }
  - { offsetInCU: 0x3D94E, offset: 0x3D94E, size: 0x8, addend: 0x0, symName: __ZNSt8_Rb_treeIxSt4pairIKxiESt10_Select1stIS2_ESt4lessIxESaIS2_EE8_S_rightEPSt18_Rb_tree_node_base, symObjAddr: 0x1014, symBinAddr: 0x1000037B0, symSize: 0x18 }
  - { offsetInCU: 0x3D956, offset: 0x3D956, size: 0x8, addend: 0x0, symName: __ZNSt8_Rb_treeIxSt4pairIKxiESt10_Select1stIS2_ESt4lessIxESaIS2_EE7_S_leftEPSt18_Rb_tree_node_base, symObjAddr: 0x102C, symBinAddr: 0x1000037C8, symSize: 0x18 }
  - { offsetInCU: 0x3D9CF, offset: 0x3D9CF, size: 0x8, addend: 0x0, symName: __ZSt8_DestroyIPxEvT_S1_, symObjAddr: 0xFCC, symBinAddr: 0x100003768, symSize: 0x48 }
  - { offsetInCU: 0x3D9D7, offset: 0x3D9D7, size: 0x8, addend: 0x0, symName: __ZNSt8_Rb_treeIxSt4pairIKxiESt10_Select1stIS2_ESt4lessIxESaIS2_EE8_S_rightEPSt18_Rb_tree_node_base, symObjAddr: 0x1014, symBinAddr: 0x1000037B0, symSize: 0x18 }
  - { offsetInCU: 0x3DA80, offset: 0x3DA80, size: 0x8, addend: 0x0, symName: __ZSt27__uninitialized_default_n_aIPxmxET_S1_T0_RSaIT1_E, symObjAddr: 0xFA4, symBinAddr: 0x100003740, symSize: 0x28 }
  - { offsetInCU: 0x3DA88, offset: 0x3DA88, size: 0x8, addend: 0x0, symName: __ZSt8_DestroyIPxEvT_S1_, symObjAddr: 0xFCC, symBinAddr: 0x100003768, symSize: 0x48 }
  - { offsetInCU: 0x3DA7F, offset: 0x3DA7F, size: 0x8, addend: 0x0, symName: __ZNSt12_Vector_baseIxSaIxEE13_M_deallocateEPxm, symObjAddr: 0xF14, symBinAddr: 0x1000036B0, symSize: 0x90 }
  - { offsetInCU: 0x3DA87, offset: 0x3DA87, size: 0x8, addend: 0x0, symName: __ZSt27__uninitialized_default_n_aIPxmxET_S1_T0_RSaIT1_E, symObjAddr: 0xFA4, symBinAddr: 0x100003740, symSize: 0x28 }
  - { offsetInCU: 0x3DB5F, offset: 0x3DB5F, size: 0x8, addend: 0x0, symName: __ZNSt12_Vector_baseIxSaIxEE17_M_create_storageEm, symObjAddr: 0xEB4, symBinAddr: 0x100003650, symSize: 0x60 }
  - { offsetInCU: 0x3DB67, offset: 0x3DB67, size: 0x8, addend: 0x0, symName: __ZNSt12_Vector_baseIxSaIxEE13_M_deallocateEPxm, symObjAddr: 0xF14, symBinAddr: 0x1000036B0, symSize: 0x90 }
  - { offsetInCU: 0x3DC03, offset: 0x3DC03, size: 0x8, addend: 0x0, symName: __ZNSt12_Vector_baseIxSaIxEE12_Vector_implC1ERKS0_, symObjAddr: 0xE68, symBinAddr: 0x100003604, symSize: 0x4C }
  - { offsetInCU: 0x3DC0B, offset: 0x3DC0B, size: 0x8, addend: 0x0, symName: __ZNSt12_Vector_baseIxSaIxEE17_M_create_storageEm, symObjAddr: 0xEB4, symBinAddr: 0x100003650, symSize: 0x60 }
  - { offsetInCU: 0x3DCA4, offset: 0x3DCA4, size: 0x8, addend: 0x0, symName: __ZNSt6vectorIxSaIxEE11_S_max_sizeERKS0_, symObjAddr: 0xE2C, symBinAddr: 0x1000035C8, symSize: 0x3C }
  - { offsetInCU: 0x3DCAC, offset: 0x3DCAC, size: 0x8, addend: 0x0, symName: __ZNSt12_Vector_baseIxSaIxEE12_Vector_implC1ERKS0_, symObjAddr: 0xE68, symBinAddr: 0x100003604, symSize: 0x4C }
  - { offsetInCU: 0x3DD46, offset: 0x3DD46, size: 0x8, addend: 0x0, symName: __ZNSt8_Rb_treeIxSt4pairIKxiESt10_Select1stIS2_ESt4lessIxESaIS2_EE22_M_emplace_hint_uniqueIJRKSt21piecewise_construct_tSt5tupleIJRS1_EESD_IJEEEEESt17_Rb_tree_iteratorIS2_ESt23_Rb_tree_const_iteratorIS2_EDpOT_, symObjAddr: 0xD48, symBinAddr: 0x1000034E4, symSize: 0xE4 }
  - { offsetInCU: 0x3DD4E, offset: 0x3DD4E, size: 0x8, addend: 0x0, symName: __ZNSt6vectorIxSaIxEE11_S_max_sizeERKS0_, symObjAddr: 0xE2C, symBinAddr: 0x1000035C8, symSize: 0x3C }
  - { offsetInCU: 0x3DE67, offset: 0x3DE67, size: 0x8, addend: 0x0, symName: __ZNSt5tupleIJRKxEEC1ILb1ELb1EEES1_, symObjAddr: 0xD20, symBinAddr: 0x1000034BC, symSize: 0x28 }
  - { offsetInCU: 0x3DE6F, offset: 0x3DE6F, size: 0x8, addend: 0x0, symName: __ZNSt8_Rb_treeIxSt4pairIKxiESt10_Select1stIS2_ESt4lessIxESaIS2_EE22_M_emplace_hint_uniqueIJRKSt21piecewise_construct_tSt5tupleIJRS1_EESD_IJEEEEESt17_Rb_tree_iteratorIS2_ESt23_Rb_tree_const_iteratorIS2_EDpOT_, symObjAddr: 0xD48, symBinAddr: 0x1000034E4, symSize: 0xE4 }
  - { offsetInCU: 0x3DECF, offset: 0x3DECF, size: 0x8, addend: 0x0, symName: __ZSteqRKSt23_Rb_tree_const_iteratorISt4pairIKxiEES5_, symObjAddr: 0xCF0, symBinAddr: 0x10000348C, symSize: 0x30 }
  - { offsetInCU: 0x3DED7, offset: 0x3DED7, size: 0x8, addend: 0x0, symName: __ZNSt5tupleIJRKxEEC1ILb1ELb1EEES1_, symObjAddr: 0xD20, symBinAddr: 0x1000034BC, symSize: 0x28 }
  - { offsetInCU: 0x3DEF0, offset: 0x3DEF0, size: 0x8, addend: 0x0, symName: __ZNKSt8_Rb_treeIxSt4pairIKxiESt10_Select1stIS2_ESt4lessIxESaIS2_EE3endEv, symObjAddr: 0xCC8, symBinAddr: 0x100003464, symSize: 0x28 }
  - { offsetInCU: 0x3DEF8, offset: 0x3DEF8, size: 0x8, addend: 0x0, symName: __ZSteqRKSt23_Rb_tree_const_iteratorISt4pairIKxiEES5_, symObjAddr: 0xCF0, symBinAddr: 0x10000348C, symSize: 0x30 }
  - { offsetInCU: 0x3DF21, offset: 0x3DF21, size: 0x8, addend: 0x0, symName: __ZNKSt8_Rb_treeIxSt4pairIKxiESt10_Select1stIS2_ESt4lessIxESaIS2_EE4findERS1_, symObjAddr: 0xC18, symBinAddr: 0x1000033B4, symSize: 0xB0 }
  - { offsetInCU: 0x3DF29, offset: 0x3DF29, size: 0x8, addend: 0x0, symName: __ZNKSt8_Rb_treeIxSt4pairIKxiESt10_Select1stIS2_ESt4lessIxESaIS2_EE3endEv, symObjAddr: 0xCC8, symBinAddr: 0x100003464, symSize: 0x28 }
  - { offsetInCU: 0x3DF7B, offset: 0x3DF7B, size: 0x8, addend: 0x0, symName: __ZNSt8_Rb_treeIxSt4pairIKxiESt10_Select1stIS2_ESt4lessIxESaIS2_EE22_M_emplace_hint_uniqueIJRKSt21piecewise_construct_tSt5tupleIJOxEESD_IJEEEEESt17_Rb_tree_iteratorIS2_ESt23_Rb_tree_const_iteratorIS2_EDpOT_, symObjAddr: 0xB34, symBinAddr: 0x1000032D0, symSize: 0xE4 }
  - { offsetInCU: 0x3DF83, offset: 0x3DF83, size: 0x8, addend: 0x0, symName: __ZNKSt8_Rb_treeIxSt4pairIKxiESt10_Select1stIS2_ESt4lessIxESaIS2_EE4findERS1_, symObjAddr: 0xC18, symBinAddr: 0x1000033B4, symSize: 0xB0 }
  - { offsetInCU: 0x3E0B6, offset: 0x3E0B6, size: 0x8, addend: 0x0, symName: __ZNSt23_Rb_tree_const_iteratorISt4pairIKxiEEC1ERKSt17_Rb_tree_iteratorIS2_E, symObjAddr: 0xB0C, symBinAddr: 0x1000032A8, symSize: 0x28 }
  - { offsetInCU: 0x3E0BE, offset: 0x3E0BE, size: 0x8, addend: 0x0, symName: __ZNSt8_Rb_treeIxSt4pairIKxiESt10_Select1stIS2_ESt4lessIxESaIS2_EE22_M_emplace_hint_uniqueIJRKSt21piecewise_construct_tSt5tupleIJOxEESD_IJEEEEESt17_Rb_tree_iteratorIS2_ESt23_Rb_tree_const_iteratorIS2_EDpOT_, symObjAddr: 0xB34, symBinAddr: 0x1000032D0, symSize: 0xE4 }
  - { offsetInCU: 0x3E0FC, offset: 0x3E0FC, size: 0x8, addend: 0x0, symName: __ZSt16forward_as_tupleIJxEESt5tupleIJDpOT_EES3_, symObjAddr: 0xAD4, symBinAddr: 0x100003270, symSize: 0x38 }
  - { offsetInCU: 0x3E104, offset: 0x3E104, size: 0x8, addend: 0x0, symName: __ZNSt23_Rb_tree_const_iteratorISt4pairIKxiEEC1ERKSt17_Rb_tree_iteratorIS2_E, symObjAddr: 0xB0C, symBinAddr: 0x1000032A8, symSize: 0x28 }
  - { offsetInCU: 0x3E141, offset: 0x3E141, size: 0x8, addend: 0x0, symName: __ZSt4moveIRxEONSt16remove_referenceIT_E4typeEOS2_, symObjAddr: 0xAC0, symBinAddr: 0x10000325C, symSize: 0x14 }
  - { offsetInCU: 0x3E149, offset: 0x3E149, size: 0x8, addend: 0x0, symName: __ZSt16forward_as_tupleIJxEESt5tupleIJDpOT_EES3_, symObjAddr: 0xAD4, symBinAddr: 0x100003270, symSize: 0x38 }
  - { offsetInCU: 0x3E14C, offset: 0x3E14C, size: 0x8, addend: 0x0, symName: __ZNKSt4lessIxEclERKxS2_, symObjAddr: 0xA8C, symBinAddr: 0x100003228, symSize: 0x34 }
  - { offsetInCU: 0x3E154, offset: 0x3E154, size: 0x8, addend: 0x0, symName: __ZSt4moveIRxEONSt16remove_referenceIT_E4typeEOS2_, symObjAddr: 0xAC0, symBinAddr: 0x10000325C, symSize: 0x14 }
  - { offsetInCU: 0x3E1A7, offset: 0x3E1A7, size: 0x8, addend: 0x0, symName: __ZNKSt17_Rb_tree_iteratorISt4pairIKxiEEdeEv, symObjAddr: 0xA6C, symBinAddr: 0x100003208, symSize: 0x20 }
  - { offsetInCU: 0x3E1AF, offset: 0x3E1AF, size: 0x8, addend: 0x0, symName: __ZNKSt4lessIxEclERKxS2_, symObjAddr: 0xA8C, symBinAddr: 0x100003228, symSize: 0x34 }
  - { offsetInCU: 0x3E1D8, offset: 0x3E1D8, size: 0x8, addend: 0x0, symName: __ZNKSt3mapIxiSt4lessIxESaISt4pairIKxiEEE8key_compEv, symObjAddr: 0xA40, symBinAddr: 0x1000031DC, symSize: 0x2C }
  - { offsetInCU: 0x3E1E0, offset: 0x3E1E0, size: 0x8, addend: 0x0, symName: __ZNKSt17_Rb_tree_iteratorISt4pairIKxiEEdeEv, symObjAddr: 0xA6C, symBinAddr: 0x100003208, symSize: 0x20 }
  - { offsetInCU: 0x3E242, offset: 0x3E242, size: 0x8, addend: 0x0, symName: __ZSteqRKSt17_Rb_tree_iteratorISt4pairIKxiEES5_, symObjAddr: 0xA10, symBinAddr: 0x1000031AC, symSize: 0x30 }
  - { offsetInCU: 0x3E24A, offset: 0x3E24A, size: 0x8, addend: 0x0, symName: __ZNKSt3mapIxiSt4lessIxESaISt4pairIKxiEEE8key_compEv, symObjAddr: 0xA40, symBinAddr: 0x1000031DC, symSize: 0x2C }
  - { offsetInCU: 0x3E269, offset: 0x3E269, size: 0x8, addend: 0x0, symName: __ZNSt3mapIxiSt4lessIxESaISt4pairIKxiEEE3endEv, symObjAddr: 0x9F4, symBinAddr: 0x100003190, symSize: 0x1C }
  - { offsetInCU: 0x3E271, offset: 0x3E271, size: 0x8, addend: 0x0, symName: __ZSteqRKSt17_Rb_tree_iteratorISt4pairIKxiEES5_, symObjAddr: 0xA10, symBinAddr: 0x1000031AC, symSize: 0x30 }
  - { offsetInCU: 0x3E29A, offset: 0x3E29A, size: 0x8, addend: 0x0, symName: __ZNSt3mapIxiSt4lessIxESaISt4pairIKxiEEE11lower_boundERS3_, symObjAddr: 0x9D0, symBinAddr: 0x10000316C, symSize: 0x24 }
  - { offsetInCU: 0x3E2A2, offset: 0x3E2A2, size: 0x8, addend: 0x0, symName: __ZNSt3mapIxiSt4lessIxESaISt4pairIKxiEEE3endEv, symObjAddr: 0x9F4, symBinAddr: 0x100003190, symSize: 0x1C }
  - { offsetInCU: 0x3E2E0, offset: 0x3E2E0, size: 0x8, addend: 0x0, symName: __ZNSt8_Rb_treeIxSt4pairIKxiESt10_Select1stIS2_ESt4lessIxESaIS2_EE8_M_beginEv, symObjAddr: 0x9B4, symBinAddr: 0x100003150, symSize: 0x1C }
  - { offsetInCU: 0x3E2E8, offset: 0x3E2E8, size: 0x8, addend: 0x0, symName: __ZNSt3mapIxiSt4lessIxESaISt4pairIKxiEEE11lower_boundERS3_, symObjAddr: 0x9D0, symBinAddr: 0x10000316C, symSize: 0x24 }
  - { offsetInCU: 0x3E311, offset: 0x3E311, size: 0x8, addend: 0x0, symName: __ZNSt8_Rb_treeIxSt4pairIKxiESt10_Select1stIS2_ESt4lessIxESaIS2_EE8_M_eraseEPSt13_Rb_tree_nodeIS2_E, symObjAddr: 0x950, symBinAddr: 0x1000030EC, symSize: 0x64 }
  - { offsetInCU: 0x3E319, offset: 0x3E319, size: 0x8, addend: 0x0, symName: __ZNSt8_Rb_treeIxSt4pairIKxiESt10_Select1stIS2_ESt4lessIxESaIS2_EE8_M_beginEv, symObjAddr: 0x9B4, symBinAddr: 0x100003150, symSize: 0x1C }
  - { offsetInCU: 0x3E3C5, offset: 0x3E3C5, size: 0x8, addend: 0x0, symName: __ZNSt20_Rb_tree_key_compareISt4lessIxEEC2Ev, symObjAddr: 0x93C, symBinAddr: 0x1000030D8, symSize: 0x14 }
  - { offsetInCU: 0x3E3CD, offset: 0x3E3CD, size: 0x8, addend: 0x0, symName: __ZNSt8_Rb_treeIxSt4pairIKxiESt10_Select1stIS2_ESt4lessIxESaIS2_EE8_M_eraseEPSt13_Rb_tree_nodeIS2_E, symObjAddr: 0x950, symBinAddr: 0x1000030EC, symSize: 0x64 }
  - { offsetInCU: 0x3E43C, offset: 0x3E43C, size: 0x8, addend: 0x0, symName: __ZNSt12_Vector_baseIxSaIxEE19_M_get_Tp_allocatorEv, symObjAddr: 0x928, symBinAddr: 0x1000030C4, symSize: 0x14 }
  - { offsetInCU: 0x3E444, offset: 0x3E444, size: 0x8, addend: 0x0, symName: __ZNSt20_Rb_tree_key_compareISt4lessIxEEC2Ev, symObjAddr: 0x93C, symBinAddr: 0x1000030D8, symSize: 0x14 }
  - { offsetInCU: 0x3E46D, offset: 0x3E46D, size: 0x8, addend: 0x0, symName: __ZNSt6vectorIxSaIxEE21_M_default_initializeEm, symObjAddr: 0x8D8, symBinAddr: 0x100003074, symSize: 0x50 }
  - { offsetInCU: 0x3E475, offset: 0x3E475, size: 0x8, addend: 0x0, symName: __ZNSt12_Vector_baseIxSaIxEE19_M_get_Tp_allocatorEv, symObjAddr: 0x928, symBinAddr: 0x1000030C4, symSize: 0x14 }
  - { offsetInCU: 0x3E4FD, offset: 0x3E4FD, size: 0x8, addend: 0x0, symName: __ZNSt12_Vector_baseIxSaIxEED2Ev, symObjAddr: 0x888, symBinAddr: 0x100003024, symSize: 0x50 }
  - { offsetInCU: 0x3E505, offset: 0x3E505, size: 0x8, addend: 0x0, symName: __ZNSt6vectorIxSaIxEE21_M_default_initializeEm, symObjAddr: 0x8D8, symBinAddr: 0x100003074, symSize: 0x50 }
  - { offsetInCU: 0x3E571, offset: 0x3E571, size: 0x8, addend: 0x0, symName: __ZNSt12_Vector_baseIxSaIxEEC2EmRKS0_, symObjAddr: 0x834, symBinAddr: 0x100002FD0, symSize: 0x54 }
  - { offsetInCU: 0x3E579, offset: 0x3E579, size: 0x8, addend: 0x0, symName: __ZNSt12_Vector_baseIxSaIxEED2Ev, symObjAddr: 0x888, symBinAddr: 0x100003024, symSize: 0x50 }
  - { offsetInCU: 0x3E5F1, offset: 0x3E5F1, size: 0x8, addend: 0x0, symName: __ZNSt12_Vector_baseIxSaIxEE12_Vector_implD1Ev, symObjAddr: 0x814, symBinAddr: 0x100002FB0, symSize: 0x20 }
  - { offsetInCU: 0x3E5F9, offset: 0x3E5F9, size: 0x8, addend: 0x0, symName: __ZNSt12_Vector_baseIxSaIxEEC2EmRKS0_, symObjAddr: 0x834, symBinAddr: 0x100002FD0, symSize: 0x54 }
  - { offsetInCU: 0x3E61B, offset: 0x3E61B, size: 0x8, addend: 0x0, symName: __ZNSt6vectorIxSaIxEE17_S_check_init_lenEmRKS0_, symObjAddr: 0x7A0, symBinAddr: 0x100002F3C, symSize: 0x74 }
  - { offsetInCU: 0x3E623, offset: 0x3E623, size: 0x8, addend: 0x0, symName: __ZNSt12_Vector_baseIxSaIxEE12_Vector_implD1Ev, symObjAddr: 0x814, symBinAddr: 0x100002FB0, symSize: 0x20 }
  - { offsetInCU: 0x3E70B, offset: 0x3E70B, size: 0x8, addend: 0x0, symName: __ZNSt3mapIxiSt4lessIxESaISt4pairIKxiEEEixERS3_, symObjAddr: 0x6AC, symBinAddr: 0x100002E48, symSize: 0xF4 }
  - { offsetInCU: 0x3E713, offset: 0x3E713, size: 0x8, addend: 0x0, symName: __ZNSt6vectorIxSaIxEE17_S_check_init_lenEmRKS0_, symObjAddr: 0x7A0, symBinAddr: 0x100002F3C, symSize: 0x74 }
  - { offsetInCU: 0x3E765, offset: 0x3E765, size: 0x8, addend: 0x0, symName: __ZNKSt3mapIxiSt4lessIxESaISt4pairIKxiEEE5countERS3_, symObjAddr: 0x650, symBinAddr: 0x100002DEC, symSize: 0x5C }
  - { offsetInCU: 0x3E76D, offset: 0x3E76D, size: 0x8, addend: 0x0, symName: __ZNSt3mapIxiSt4lessIxESaISt4pairIKxiEEEixERS3_, symObjAddr: 0x6AC, symBinAddr: 0x100002E48, symSize: 0xF4 }
  - { offsetInCU: 0x3E7AB, offset: 0x3E7AB, size: 0x8, addend: 0x0, symName: __ZNSt3mapIxiSt4lessIxESaISt4pairIKxiEEEixEOx, symObjAddr: 0x54C, symBinAddr: 0x100002CE8, symSize: 0x104 }
  - { offsetInCU: 0x3E7B3, offset: 0x3E7B3, size: 0x8, addend: 0x0, symName: __ZNKSt3mapIxiSt4lessIxESaISt4pairIKxiEEE5countERS3_, symObjAddr: 0x650, symBinAddr: 0x100002DEC, symSize: 0x5C }
  - { offsetInCU: 0x3E875, offset: 0x3E875, size: 0x8, addend: 0x0, symName: __ZNSt8_Rb_treeIxSt4pairIKxiESt10_Select1stIS2_ESt4lessIxESaIS2_EED1Ev, symObjAddr: 0x518, symBinAddr: 0x100002CB4, symSize: 0x34 }
  - { offsetInCU: 0x3E87D, offset: 0x3E87D, size: 0x8, addend: 0x0, symName: __ZNSt3mapIxiSt4lessIxESaISt4pairIKxiEEEixEOx, symObjAddr: 0x54C, symBinAddr: 0x100002CE8, symSize: 0x104 }
  - { offsetInCU: 0x3E902, offset: 0x3E902, size: 0x8, addend: 0x0, symName: __ZNSt8_Rb_treeIxSt4pairIKxiESt10_Select1stIS2_ESt4lessIxESaIS2_EE13_Rb_tree_implIS6_Lb1EEC1Ev, symObjAddr: 0x4D4, symBinAddr: 0x100002C70, symSize: 0x44 }
  - { offsetInCU: 0x3E90A, offset: 0x3E90A, size: 0x8, addend: 0x0, symName: __ZNSt8_Rb_treeIxSt4pairIKxiESt10_Select1stIS2_ESt4lessIxESaIS2_EED1Ev, symObjAddr: 0x518, symBinAddr: 0x100002CB4, symSize: 0x34 }
  - { offsetInCU: 0x3E924, offset: 0x3E924, size: 0x8, addend: 0x0, symName: __ZNSt6vectorIxSaIxEEixEm, symObjAddr: 0x4AC, symBinAddr: 0x100002C48, symSize: 0x28 }
  - { offsetInCU: 0x3E92C, offset: 0x3E92C, size: 0x8, addend: 0x0, symName: __ZNSt8_Rb_treeIxSt4pairIKxiESt10_Select1stIS2_ESt4lessIxESaIS2_EE13_Rb_tree_implIS6_Lb1EEC1Ev, symObjAddr: 0x4D4, symBinAddr: 0x100002C70, symSize: 0x44 }
  - { offsetInCU: 0x3E9AD, offset: 0x3E9AD, size: 0x8, addend: 0x0, symName: __ZNSt6vectorIxSaIxEED1Ev, symObjAddr: 0x450, symBinAddr: 0x100002BEC, symSize: 0x5C }
  - { offsetInCU: 0x3E9B5, offset: 0x3E9B5, size: 0x8, addend: 0x0, symName: __ZNSt6vectorIxSaIxEEixEm, symObjAddr: 0x4AC, symBinAddr: 0x100002C48, symSize: 0x28 }
  - { offsetInCU: 0x3EA63, offset: 0x3EA63, size: 0x8, addend: 0x0, symName: __ZNSt6vectorIxSaIxEEC1EmRKS0_, symObjAddr: 0x3E8, symBinAddr: 0x100002B84, symSize: 0x68 }
  - { offsetInCU: 0x3EA6B, offset: 0x3EA6B, size: 0x8, addend: 0x0, symName: __ZNSt6vectorIxSaIxEED1Ev, symObjAddr: 0x450, symBinAddr: 0x100002BEC, symSize: 0x5C }
  - { offsetInCU: 0x3EADE, offset: 0x3EADE, size: 0x8, addend: 0x0, symName: _main, symObjAddr: 0x378, symBinAddr: 0x100002B14, symSize: 0x70 }
  - { offsetInCU: 0x3EAE6, offset: 0x3EAE6, size: 0x8, addend: 0x0, symName: __ZNSt6vectorIxSaIxEEC1EmRKS0_, symObjAddr: 0x3E8, symBinAddr: 0x100002B84, symSize: 0x68 }
  - { offsetInCU: 0x3EB1F, offset: 0x3EB1F, size: 0x8, addend: 0x0, symName: __Z5solvev, symObjAddr: 0x170, symBinAddr: 0x10000290C, symSize: 0x208 }
  - { offsetInCU: 0x3EB27, offset: 0x3EB27, size: 0x8, addend: 0x0, symName: _main, symObjAddr: 0x378, symBinAddr: 0x100002B14, symSize: 0x70 }
  - { offsetInCU: 0x3ECBA, offset: 0x3ECBA, size: 0x8, addend: 0x0, symName: __ZNSt3mapIxiSt4lessIxESaISt4pairIKxiEEED1Ev, symObjAddr: 0x150, symBinAddr: 0x1000028EC, symSize: 0x20 }
  - { offsetInCU: 0x3ECC2, offset: 0x3ECC2, size: 0x8, addend: 0x0, symName: __Z5solvev, symObjAddr: 0x170, symBinAddr: 0x10000290C, symSize: 0x208 }
  - { offsetInCU: 0x3ED05, offset: 0x3ED05, size: 0x8, addend: 0x0, symName: __ZNSt3mapIxiSt4lessIxESaISt4pairIKxiEEEC1Ev, symObjAddr: 0x130, symBinAddr: 0x1000028CC, symSize: 0x20 }
  - { offsetInCU: 0x3ED0D, offset: 0x3ED0D, size: 0x8, addend: 0x0, symName: __ZNSt3mapIxiSt4lessIxESaISt4pairIKxiEEED1Ev, symObjAddr: 0x150, symBinAddr: 0x1000028EC, symSize: 0x20 }
  - { offsetInCU: 0x3ED6A, offset: 0x3ED6A, size: 0x8, addend: 0x0, symName: __ZNSt8_Rb_treeIxSt4pairIKxiESt10_Select1stIS2_ESt4lessIxESaIS2_EEC1Ev, symObjAddr: 0x110, symBinAddr: 0x1000028AC, symSize: 0x20 }
  - { offsetInCU: 0x3ED72, offset: 0x3ED72, size: 0x8, addend: 0x0, symName: __ZNSt3mapIxiSt4lessIxESaISt4pairIKxiEEEC1Ev, symObjAddr: 0x130, symBinAddr: 0x1000028CC, symSize: 0x20 }
  - { offsetInCU: 0x3EDE0, offset: 0x3EDE0, size: 0x8, addend: 0x0, symName: __ZNSt8_Rb_treeIxSt4pairIKxiESt10_Select1stIS2_ESt4lessIxESaIS2_EE13_Rb_tree_implIS6_Lb1EED1Ev, symObjAddr: 0xF0, symBinAddr: 0x10000288C, symSize: 0x20 }
  - { offsetInCU: 0x3EDE8, offset: 0x3EDE8, size: 0x8, addend: 0x0, symName: __ZNSt8_Rb_treeIxSt4pairIKxiESt10_Select1stIS2_ESt4lessIxESaIS2_EEC1Ev, symObjAddr: 0x110, symBinAddr: 0x1000028AC, symSize: 0x20 }
  - { offsetInCU: 0x3EDDA, offset: 0x3EDDA, size: 0x8, addend: 0x0, symName: __ZNSt15_Rb_tree_header8_M_resetEv, symObjAddr: 0xB4, symBinAddr: 0x100002850, symSize: 0x3C }
  - { offsetInCU: 0x3EDE2, offset: 0x3EDE2, size: 0x8, addend: 0x0, symName: __ZNSt8_Rb_treeIxSt4pairIKxiESt10_Select1stIS2_ESt4lessIxESaIS2_EE13_Rb_tree_implIS6_Lb1EED1Ev, symObjAddr: 0xF0, symBinAddr: 0x10000288C, symSize: 0x20 }
  - { offsetInCU: 0x3EE41, offset: 0x3EE41, size: 0x8, addend: 0x0, symName: __ZNSt15_Rb_tree_headerC2Ev, symObjAddr: 0x8C, symBinAddr: 0x100002828, symSize: 0x28 }
  - { offsetInCU: 0x3EE49, offset: 0x3EE49, size: 0x8, addend: 0x0, symName: __ZNSt15_Rb_tree_header8_M_resetEv, symObjAddr: 0xB4, symBinAddr: 0x100002850, symSize: 0x3C }
  - { offsetInCU: 0x3EE87, offset: 0x3EE87, size: 0x8, addend: 0x0, symName: __ZSt3minImERKT_S2_S2_, symObjAddr: 0x54, symBinAddr: 0x1000027F0, symSize: 0x38 }
  - { offsetInCU: 0x3EE8F, offset: 0x3EE8F, size: 0x8, addend: 0x0, symName: __ZNSt15_Rb_tree_headerC2Ev, symObjAddr: 0x8C, symBinAddr: 0x100002828, symSize: 0x28 }
  - { offsetInCU: 0x3EEE6, offset: 0x3EEE6, size: 0x8, addend: 0x0, symName: __ZSt17__size_to_integerm, symObjAddr: 0x40, symBinAddr: 0x1000027DC, symSize: 0x14 }
  - { offsetInCU: 0x3EEEE, offset: 0x3EEEE, size: 0x8, addend: 0x0, symName: __ZSt3minImERKT_S2_S2_, symObjAddr: 0x54, symBinAddr: 0x1000027F0, symSize: 0x38 }
  - { offsetInCU: 0x3EF05, offset: 0x3EF05, size: 0x8, addend: 0x0, symName: __ZdlPvS_, symObjAddr: 0x28, symBinAddr: 0x1000027C4, symSize: 0x18 }
  - { offsetInCU: 0x3EF0D, offset: 0x3EF0D, size: 0x8, addend: 0x0, symName: __ZSt17__size_to_integerm, symObjAddr: 0x40, symBinAddr: 0x1000027DC, symSize: 0x14 }
  - { offsetInCU: 0x3EF45, offset: 0x3EF45, size: 0x8, addend: 0x0, symName: __ZnwmPv, symObjAddr: 0x10, symBinAddr: 0x1000027AC, symSize: 0x18 }
  - { offsetInCU: 0x3EF4D, offset: 0x3EF4D, size: 0x8, addend: 0x0, symName: __ZdlPvS_, symObjAddr: 0x28, symBinAddr: 0x1000027C4, symSize: 0x18 }
  - { offsetInCU: 0x3EFB9, offset: 0x3EFB9, size: 0x8, addend: 0x0, symName: __ZSt21is_constant_evaluatedv, symObjAddr: 0x8, symBinAddr: 0x1000027A4, symSize: 0x8 }
  - { offsetInCU: 0x3EFC1, offset: 0x3EFC1, size: 0x8, addend: 0x0, symName: __ZnwmPv, symObjAddr: 0x10, symBinAddr: 0x1000027AC, symSize: 0x18 }
  - { offsetInCU: 0x3EFE7, offset: 0x3EFE7, size: 0x8, addend: 0x0, symName: __ZSt23__is_constant_evaluatedv, symObjAddr: 0x0, symBinAddr: 0x10000279C, symSize: 0x8 }
  - { offsetInCU: 0x3EFEF, offset: 0x3EFEF, size: 0x8, addend: 0x0, symName: __ZSt21is_constant_evaluatedv, symObjAddr: 0x8, symBinAddr: 0x1000027A4, symSize: 0x8 }
...
