---
triple:          'arm64-apple-darwin'
binary-path:     '/Users/rohakdebnath/Desktop/Cpp /CodeForces/H.1'
relocations:
  - { offsetInCU: 0x54, offset: 0x54, size: 0x8, addend: 0x0, symName: __ZNSt3__1L19piecewise_constructE, symObjAddr: 0x90A5, symBinAddr: 0x10000B911, symSize: 0x0 }
  - { offsetInCU: 0x638A, offset: 0x638A, size: 0x8, addend: 0x0, symName: __ZNSt3__17advanceB7v160006IPillvEEvRT_T0_, symObjAddr: 0x2DF8, symBinAddr: 0x1000054E0, symSize: 0x50 }
  - { offsetInCU: 0x774C, offset: 0x774C, size: 0x8, addend: 0x0, symName: __ZNSt3__113__fill_n_trueB7v160006INS_6vectorIbNS_9allocatorIbEEEEEEvNS_14__bit_iteratorIT_Lb0EXLi0EEEENS6_9size_typeE, symObjAddr: 0x3D78, symBinAddr: 0x100006460, symSize: 0x160 }
  - { offsetInCU: 0x7811, offset: 0x7811, size: 0x8, addend: 0x0, symName: __ZNSt3__114__fill_n_falseB7v160006INS_6vectorIbNS_9allocatorIbEEEEEEvNS_14__bit_iteratorIT_Lb0EXLi0EEEENS6_9size_typeE, symObjAddr: 0x3F0C, symBinAddr: 0x1000065F4, symSize: 0x15C }
  - { offsetInCU: 0x8063, offset: 0x8063, size: 0x8, addend: 0x0, symName: __ZNSt3__110__function10__not_nullB7v160006IZN6TwoSat11satisfiableEvEUliE_EEbRKT_, symObjAddr: 0x587C, symBinAddr: 0x100007F64, symSize: 0x18 }
  - { offsetInCU: 0x90CD, offset: 0x90CD, size: 0x8, addend: 0x0, symName: __ZNSt3__124__put_character_sequenceB7v160006IcNS_11char_traitsIcEEEERNS_13basic_ostreamIT_T0_EES7_PKS4_m, symObjAddr: 0x8018, symBinAddr: 0x10000A700, symSize: 0x1EC }
  - { offsetInCU: 0xAF16, offset: 0xAF16, size: 0x8, addend: 0x0, symName: __ZNSt3__1lsB7v160006INS_11char_traitsIcEEEERNS_13basic_ostreamIcT_EES6_PKc, symObjAddr: 0x4E0, symBinAddr: 0x100002BC8, symSize: 0x48 }
  - { offsetInCU: 0xAF5C, offset: 0xAF5C, size: 0x8, addend: 0x0, symName: __ZNSt3__122__make_exception_guardB7v160006INS_6vectorIiNS_9allocatorIiEEE16__destroy_vectorEEENS_28__exception_guard_exceptionsIT_EES7_, symObjAddr: 0xB40, symBinAddr: 0x100003228, symSize: 0x40 }
  - { offsetInCU: 0xAF91, offset: 0xAF91, size: 0x8, addend: 0x0, symName: __ZNSt3__119__debug_db_insert_cB7v160006INS_6vectorIiNS_9allocatorIiEEEEEEvPT_, symObjAddr: 0xBB4, symBinAddr: 0x10000329C, symSize: 0x10 }
  - { offsetInCU: 0xAFC2, offset: 0xAFC2, size: 0x8, addend: 0x0, symName: __ZNSt3__119__allocate_at_leastB7v160006INS_9allocatorIiEEEEDaRT_m, symObjAddr: 0xF3C, symBinAddr: 0x100003624, symSize: 0x3C }
  - { offsetInCU: 0xB005, offset: 0xB005, size: 0x8, addend: 0x0, symName: __ZNSt3__13minB7v160006ImEERKT_S3_S3_, symObjAddr: 0x1074, symBinAddr: 0x10000375C, symSize: 0x2C }
  - { offsetInCU: 0xB232, offset: 0xB232, size: 0x8, addend: 0x0, symName: __ZNSt3__13minB7v160006ImNS_6__lessImmEEEERKT_S5_S5_T0_, symObjAddr: 0x1110, symBinAddr: 0x1000037F8, symSize: 0x54 }
  - { offsetInCU: 0xB4B3, offset: 0xB4B3, size: 0x8, addend: 0x0, symName: __ZNSt3__120__throw_length_errorB7v160006EPKc, symObjAddr: 0x11F4, symBinAddr: 0x1000038DC, symSize: 0x64 }
  - { offsetInCU: 0xB4DB, offset: 0xB4DB, size: 0x8, addend: 0x0, symName: __ZNSt3__117allocate_at_leastB7v160006INS_9allocatorIiEEEENS_17allocation_resultINS_16allocator_traitsIT_E7pointerEEERS5_m, symObjAddr: 0x12D8, symBinAddr: 0x1000039C0, symSize: 0x3C }
  - { offsetInCU: 0xB51E, offset: 0xB51E, size: 0x8, addend: 0x0, symName: __ZNSt3__117__libcpp_allocateB7v160006Emm, symObjAddr: 0x13E0, symBinAddr: 0x100003AC8, symSize: 0x60 }
  - { offsetInCU: 0xB578, offset: 0xB578, size: 0x8, addend: 0x0, symName: __ZNSt3__124__is_overaligned_for_newB7v160006Em, symObjAddr: 0x1440, symBinAddr: 0x100003B28, symSize: 0x20 }
  - { offsetInCU: 0xB5A6, offset: 0xB5A6, size: 0x8, addend: 0x0, symName: __ZNSt3__121__libcpp_operator_newB7v160006IJmSt11align_val_tEEEPvDpT_, symObjAddr: 0x1460, symBinAddr: 0x100003B48, symSize: 0x2C }
  - { offsetInCU: 0xB5F3, offset: 0xB5F3, size: 0x8, addend: 0x0, symName: __ZNSt3__121__libcpp_operator_newB7v160006IJmEEEPvDpT_, symObjAddr: 0x148C, symBinAddr: 0x100003B74, symSize: 0x24 }
  - { offsetInCU: 0xB62C, offset: 0xB62C, size: 0x8, addend: 0x0, symName: __ZNSt3__112__to_addressB7v160006IiEEPT_S2_, symObjAddr: 0x15A8, symBinAddr: 0x100003C90, symSize: 0x14 }
  - { offsetInCU: 0xB686, offset: 0xB686, size: 0x8, addend: 0x0, symName: __ZNSt3__112construct_atB7v160006IiJEPiEEPT_S3_DpOT0_, symObjAddr: 0x16F0, symBinAddr: 0x100003DD8, symSize: 0x20 }
  - { offsetInCU: 0xB6E2, offset: 0xB6E2, size: 0x8, addend: 0x0, symName: __ZNSt3__118__debug_db_erase_cB7v160006INS_6vectorIiNS_9allocatorIiEEEEEEvPT_, symObjAddr: 0x18D4, symBinAddr: 0x100003FBC, symSize: 0x10 }
  - { offsetInCU: 0xB713, offset: 0xB713, size: 0x8, addend: 0x0, symName: __ZNSt3__110destroy_atB7v160006IiLi0EEEvPT_, symObjAddr: 0x1A1C, symBinAddr: 0x100004104, symSize: 0x24 }
  - { offsetInCU: 0xB74A, offset: 0xB74A, size: 0x8, addend: 0x0, symName: __ZNSt3__112__destroy_atB7v160006IiLi0EEEvPT_, symObjAddr: 0x1A40, symBinAddr: 0x100004128, symSize: 0x10 }
  - { offsetInCU: 0xB781, offset: 0xB781, size: 0x8, addend: 0x0, symName: __ZNSt3__119__libcpp_deallocateB7v160006EPvmm, symObjAddr: 0x1A90, symBinAddr: 0x100004178, symSize: 0x60 }
  - { offsetInCU: 0xB7E6, offset: 0xB7E6, size: 0x8, addend: 0x0, symName: __ZNSt3__127__do_deallocate_handle_sizeB7v160006IJSt11align_val_tEEEvPvmDpT_, symObjAddr: 0x1AF0, symBinAddr: 0x1000041D8, symSize: 0x30 }
  - { offsetInCU: 0xB839, offset: 0xB839, size: 0x8, addend: 0x0, symName: __ZNSt3__127__do_deallocate_handle_sizeB7v160006IJEEEvPvmDpT_, symObjAddr: 0x1B20, symBinAddr: 0x100004208, symSize: 0x28 }
  - { offsetInCU: 0xB877, offset: 0xB877, size: 0x8, addend: 0x0, symName: __ZNSt3__124__libcpp_operator_deleteB7v160006IJPvSt11align_val_tEEEvDpT_, symObjAddr: 0x1B48, symBinAddr: 0x100004230, symSize: 0x2C }
  - { offsetInCU: 0xB8C0, offset: 0xB8C0, size: 0x8, addend: 0x0, symName: __ZNSt3__124__libcpp_operator_deleteB7v160006IJPvEEEvDpT_, symObjAddr: 0x1B74, symBinAddr: 0x10000425C, symSize: 0x24 }
  - { offsetInCU: 0xB8F5, offset: 0xB8F5, size: 0x8, addend: 0x0, symName: __ZNSt3__122__make_exception_guardB7v160006INS_6vectorINS1_IiNS_9allocatorIiEEEENS2_IS4_EEE16__destroy_vectorEEENS_28__exception_guard_exceptionsIT_EES9_, symObjAddr: 0x1CBC, symBinAddr: 0x1000043A4, symSize: 0x40 }
  - { offsetInCU: 0xB92A, offset: 0xB92A, size: 0x8, addend: 0x0, symName: __ZNSt3__119__debug_db_insert_cB7v160006INS_6vectorINS1_IiNS_9allocatorIiEEEENS2_IS4_EEEEEEvPT_, symObjAddr: 0x1D30, symBinAddr: 0x100004418, symSize: 0x10 }
  - { offsetInCU: 0xB95B, offset: 0xB95B, size: 0x8, addend: 0x0, symName: __ZNSt3__119__allocate_at_leastB7v160006INS_9allocatorINS_6vectorIiNS1_IiEEEEEEEEDaRT_m, symObjAddr: 0x20C8, symBinAddr: 0x1000047B0, symSize: 0x3C }
  - { offsetInCU: 0xB99E, offset: 0xB99E, size: 0x8, addend: 0x0, symName: __ZNSt3__117allocate_at_leastB7v160006INS_9allocatorINS_6vectorIiNS1_IiEEEEEEEENS_17allocation_resultINS_16allocator_traitsIT_E7pointerEEERS8_m, symObjAddr: 0x22A4, symBinAddr: 0x10000498C, symSize: 0x3C }
  - { offsetInCU: 0xB9E1, offset: 0xB9E1, size: 0x8, addend: 0x0, symName: __ZNSt3__112__to_addressB7v160006INS_6vectorIiNS_9allocatorIiEEEEEEPT_S6_, symObjAddr: 0x2474, symBinAddr: 0x100004B5C, symSize: 0x14 }
  - { offsetInCU: 0xBA3B, offset: 0xBA3B, size: 0x8, addend: 0x0, symName: __ZNSt3__112construct_atB7v160006INS_6vectorIiNS_9allocatorIiEEEEJRKS4_EPS4_EEPT_S9_DpOT0_, symObjAddr: 0x25CC, symBinAddr: 0x100004CB4, symSize: 0x3C }
  - { offsetInCU: 0xBAAB, offset: 0xBAAB, size: 0x8, addend: 0x0, symName: __ZNSt3__130__uninitialized_allocator_copyB7v160006INS_9allocatorIiEEPiS3_S3_EET2_RT_T0_T1_S4_, symObjAddr: 0x2880, symBinAddr: 0x100004F68, symSize: 0xF4 }
  - { offsetInCU: 0xBB49, offset: 0xBB49, size: 0x8, addend: 0x0, symName: __ZNSt3__122__make_exception_guardB7v160006INS_29_AllocatorDestroyRangeReverseINS_9allocatorIiEEPiEEEENS_28__exception_guard_exceptionsIT_EES7_, symObjAddr: 0x2974, symBinAddr: 0x10000505C, symSize: 0x4C }
  - { offsetInCU: 0xBB7F, offset: 0xBB7F, size: 0x8, addend: 0x0, symName: __ZNSt3__112construct_atB7v160006IiJRiEPiEEPT_S4_DpOT0_, symObjAddr: 0x2B18, symBinAddr: 0x100005200, symSize: 0x2C }
  - { offsetInCU: 0xBBEF, offset: 0xBBEF, size: 0x8, addend: 0x0, symName: __ZNSt3__119__allocator_destroyB7v160006INS_9allocatorIiEENS_16reverse_iteratorIPiEES5_EEvRT_T0_T1_, symObjAddr: 0x2BFC, symBinAddr: 0x1000052E4, symSize: 0x70 }
  - { offsetInCU: 0xBC52, offset: 0xBC52, size: 0x8, addend: 0x0, symName: __ZNSt3__1neB7v160006IPiS1_EEbRKNS_16reverse_iteratorIT_EERKNS2_IT0_EE, symObjAddr: 0x2CA0, symBinAddr: 0x100005388, symSize: 0x48 }
  - { offsetInCU: 0xBC9E, offset: 0xBC9E, size: 0x8, addend: 0x0, symName: __ZNSt3__112__to_addressB7v160006INS_16reverse_iteratorIPiEEvEENS_5decayIDTclsr19__to_address_helperIT_EE6__callclsr3stdE7declvalIRKS5_EEEEE4typeES7_, symObjAddr: 0x2CE8, symBinAddr: 0x1000053D0, symSize: 0x24 }
  - { offsetInCU: 0xBCFD, offset: 0xBCFD, size: 0x8, addend: 0x0, symName: __ZNSt3__14prevB7v160006IPiEENS_9enable_ifIXsr25__is_cpp17_input_iteratorIT_EE5valueES3_E4typeES3_NS_15iterator_traitsIS3_E15difference_typeE, symObjAddr: 0x2DA8, symBinAddr: 0x100005490, symSize: 0x50 }
  - { offsetInCU: 0xBD40, offset: 0xBD40, size: 0x8, addend: 0x0, symName: __ZNSt3__121__convert_to_integralB7v160006El, symObjAddr: 0x2E48, symBinAddr: 0x100005530, symSize: 0x14 }
  - { offsetInCU: 0xBD6C, offset: 0xBD6C, size: 0x8, addend: 0x0, symName: __ZNSt3__19__advanceB7v160006IPiEEvRT_NS_15iterator_traitsIS2_E15difference_typeENS_26random_access_iterator_tagE, symObjAddr: 0x2E5C, symBinAddr: 0x100005544, symSize: 0x28 }
  - { offsetInCU: 0xBDB5, offset: 0xBDB5, size: 0x8, addend: 0x0, symName: __ZNSt3__118__debug_db_erase_cB7v160006INS_6vectorINS1_IiNS_9allocatorIiEEEENS2_IS4_EEEEEEvPT_, symObjAddr: 0x308C, symBinAddr: 0x100005774, symSize: 0x10 }
  - { offsetInCU: 0xBDE6, offset: 0xBDE6, size: 0x8, addend: 0x0, symName: __ZNSt3__110destroy_atB7v160006INS_6vectorIiNS_9allocatorIiEEEELi0EEEvPT_, symObjAddr: 0x31D4, symBinAddr: 0x1000058BC, symSize: 0x24 }
  - { offsetInCU: 0xBE1D, offset: 0xBE1D, size: 0x8, addend: 0x0, symName: __ZNSt3__112__destroy_atB7v160006INS_6vectorIiNS_9allocatorIiEEEELi0EEEvPT_, symObjAddr: 0x31F8, symBinAddr: 0x1000058E0, symSize: 0x24 }
  - { offsetInCU: 0xBE54, offset: 0xBE54, size: 0x8, addend: 0x0, symName: __ZNSt3__112construct_atB7v160006INS_6vectorIiNS_9allocatorIiEEEEJEPS4_EEPT_S7_DpOT0_, symObjAddr: 0x3564, symBinAddr: 0x100005C4C, symSize: 0x34 }
  - { offsetInCU: 0xBEB0, offset: 0xBEB0, size: 0x8, addend: 0x0, symName: __ZNSt3__119__allocate_at_leastB7v160006INS_9allocatorImEEEEDaRT_m, symObjAddr: 0x39EC, symBinAddr: 0x1000060D4, symSize: 0x3C }
  - { offsetInCU: 0xBEF3, offset: 0xBEF3, size: 0x8, addend: 0x0, symName: __ZNSt3__117allocate_at_leastB7v160006INS_9allocatorImEEEENS_17allocation_resultINS_16allocator_traitsIT_E7pointerEEERS5_m, symObjAddr: 0x3B3C, symBinAddr: 0x100006224, symSize: 0x3C }
  - { offsetInCU: 0xBF36, offset: 0xBF36, size: 0x8, addend: 0x0, symName: __ZNSt3__16fill_nB7v160006INS_6vectorIbNS_9allocatorIbEEEEEEvNS_14__bit_iteratorIT_Lb0EXLi0EEEENS6_9size_typeEb, symObjAddr: 0x3C80, symBinAddr: 0x100006368, symSize: 0x94 }
  - { offsetInCU: 0xBF88, offset: 0xBF88, size: 0x8, addend: 0x0, symName: __ZNSt3__16fill_nB7v160006IPmmmEET_S2_T0_RKT1_, symObjAddr: 0x4068, symBinAddr: 0x100006750, symSize: 0x44 }
  - { offsetInCU: 0xBFEB, offset: 0xBFEB, size: 0x8, addend: 0x0, symName: __ZNSt3__112__to_addressB7v160006ImEEPT_S2_, symObjAddr: 0x40AC, symBinAddr: 0x100006794, symSize: 0x14 }
  - { offsetInCU: 0xC020, offset: 0xC020, size: 0x8, addend: 0x0, symName: __ZNSt3__18__fill_nB7v160006IPmmmEET_S2_T0_RKT1_, symObjAddr: 0x40C0, symBinAddr: 0x1000067A8, symSize: 0x64 }
  - { offsetInCU: 0xC083, offset: 0xC083, size: 0x8, addend: 0x0, symName: __ZNSt3__121__convert_to_integralB7v160006Em, symObjAddr: 0x4124, symBinAddr: 0x10000680C, symSize: 0x14 }
  - { offsetInCU: 0xC0AF, offset: 0xC0AF, size: 0x8, addend: 0x0, symName: __ZNSt3__16fill_nB7v160006IPmmiEET_S2_T0_RKT1_, symObjAddr: 0x4168, symBinAddr: 0x100006850, symSize: 0x44 }
  - { offsetInCU: 0xC112, offset: 0xC112, size: 0x8, addend: 0x0, symName: __ZNSt3__18__fill_nB7v160006IPmmiEET_S2_T0_RKT1_, symObjAddr: 0x41AC, symBinAddr: 0x100006894, symSize: 0x64 }
  - { offsetInCU: 0xC175, offset: 0xC175, size: 0x8, addend: 0x0, symName: __ZNSt3__112construct_atB7v160006IiJiEPiEEPT_S3_DpOT0_, symObjAddr: 0x447C, symBinAddr: 0x100006B64, symSize: 0x2C }
  - { offsetInCU: 0xC1E5, offset: 0xC1E5, size: 0x8, addend: 0x0, symName: __ZNSt3__13maxB7v160006ImEERKT_S3_S3_, symObjAddr: 0x46E4, symBinAddr: 0x100006DCC, symSize: 0x2C }
  - { offsetInCU: 0xC228, offset: 0xC228, size: 0x8, addend: 0x0, symName: __ZNSt3__13maxB7v160006ImNS_6__lessImmEEEERKT_S5_S5_T0_, symObjAddr: 0x4710, symBinAddr: 0x100006DF8, symSize: 0x54 }
  - { offsetInCU: 0xC282, offset: 0xC282, size: 0x8, addend: 0x0, symName: __ZNSt3__142__uninitialized_allocator_move_if_noexceptB7v160006INS_9allocatorIiEENS_16reverse_iteratorIPiEES5_ivEET1_RT_T0_S9_S6_, symObjAddr: 0x4990, symBinAddr: 0x100007078, symSize: 0x78 }
  - { offsetInCU: 0xC2FF, offset: 0xC2FF, size: 0x8, addend: 0x0, symName: __ZNSt3__14swapB7v160006IPiEENS_9enable_ifIXaasr21is_move_constructibleIT_EE5valuesr18is_move_assignableIS3_EE5valueEvE4typeERS3_S6_, symObjAddr: 0x4A08, symBinAddr: 0x1000070F0, symSize: 0x3C }
  - { offsetInCU: 0xC350, offset: 0xC350, size: 0x8, addend: 0x0, symName: __ZNSt3__125__debug_db_invalidate_allB7v160006INS_6vectorIiNS_9allocatorIiEEEEEEvPT_, symObjAddr: 0x4A44, symBinAddr: 0x10000712C, symSize: 0x10 }
  - { offsetInCU: 0xC381, offset: 0xC381, size: 0x8, addend: 0x0, symName: __ZNSt3__14moveB7v160006INS_16reverse_iteratorIPiEES3_EET0_T_S5_S4_, symObjAddr: 0x4A54, symBinAddr: 0x10000713C, symSize: 0x78 }
  - { offsetInCU: 0xC3DB, offset: 0xC3DB, size: 0x8, addend: 0x0, symName: __ZNSt3__16__moveB7v160006INS_17_ClassicAlgPolicyENS_16reverse_iteratorIPiEES4_S4_EENS_4pairIT0_T2_EES6_T1_S7_, symObjAddr: 0x4ACC, symBinAddr: 0x1000071B4, symSize: 0x64 }
  - { offsetInCU: 0xC447, offset: 0xC447, size: 0x8, addend: 0x0, symName: __ZNSt3__123__dispatch_copy_or_moveB7v160006INS_17_ClassicAlgPolicyENS_11__move_loopIS1_EENS_14__move_trivialENS_16reverse_iteratorIPiEES7_S7_EENS_4pairIT2_T4_EES9_T3_SA_, symObjAddr: 0x4B30, symBinAddr: 0x100007218, symSize: 0x64 }
  - { offsetInCU: 0xC4C5, offset: 0xC4C5, size: 0x8, addend: 0x0, symName: __ZNSt3__121__unwrap_and_dispatchB7v160006INS_10__overloadINS_11__move_loopINS_17_ClassicAlgPolicyEEENS_14__move_trivialEEENS_16reverse_iteratorIPiEES9_S9_Li0EEENS_4pairIT0_T2_EESB_T1_SC_, symObjAddr: 0x4B94, symBinAddr: 0x10000727C, symSize: 0x12C }
  - { offsetInCU: 0xC555, offset: 0xC555, size: 0x8, addend: 0x0, symName: __ZNSt3__114__unwrap_rangeB7v160006INS_16reverse_iteratorIPiEES3_EEDaT_T0_, symObjAddr: 0x4CC0, symBinAddr: 0x1000073A8, symSize: 0x4C }
  - { offsetInCU: 0xC71D, offset: 0xC71D, size: 0x8, addend: 0x0, symName: __ZNSt3__113__unwrap_iterB7v160006INS_16reverse_iteratorIPiEENS_18__unwrap_iter_implIS3_Lb0EEELi0EEEDTclsrT0_8__unwrapclsr3stdE7declvalIT_EEEES7_, symObjAddr: 0x4DAC, symBinAddr: 0x100007494, symSize: 0x44 }
  - { offsetInCU: 0xC761, offset: 0xC761, size: 0x8, addend: 0x0, symName: __ZNSt3__19make_pairB7v160006INS_16reverse_iteratorIPiEES3_EENS_4pairINS_18__unwrap_ref_decayIT_E4typeENS5_IT0_E4typeEEEOS6_OS9_, symObjAddr: 0x4DF0, symBinAddr: 0x1000074D8, symSize: 0x38 }
  - { offsetInCU: 0xC7B0, offset: 0xC7B0, size: 0x8, addend: 0x0, symName: __ZNSt3__114__rewrap_rangeB7v160006INS_16reverse_iteratorIPiEES3_S3_EET0_S4_T1_, symObjAddr: 0x4E28, symBinAddr: 0x100007510, symSize: 0x5C }
  - { offsetInCU: 0xC805, offset: 0xC805, size: 0x8, addend: 0x0, symName: __ZNSt3__113__rewrap_iterB7v160006INS_16reverse_iteratorIPiEES3_NS_18__unwrap_iter_implIS3_Lb0EEEEET_S6_T0_, symObjAddr: 0x4E84, symBinAddr: 0x10000756C, symSize: 0x74 }
  - { offsetInCU: 0xC95C, offset: 0xC95C, size: 0x8, addend: 0x0, symName: __ZNSt3__112construct_atB7v160006IiJRKiEPiEEPT_S5_DpOT0_, symObjAddr: 0x5630, symBinAddr: 0x100007D18, symSize: 0x2C }
  - { offsetInCU: 0xCF81, offset: 0xCF81, size: 0x8, addend: 0x0, symName: __ZNSt3__116forward_as_tupleB7v160006IJZN6TwoSat11satisfiableEvEUliE_EEENS_5tupleIJDpOT_EEES6_, symObjAddr: 0x60A4, symBinAddr: 0x10000878C, symSize: 0x2C }
  - { offsetInCU: 0xCFBA, offset: 0xCFBA, size: 0x8, addend: 0x0, symName: __ZNSt3__116forward_as_tupleB7v160006IJNS_9allocatorIZN6TwoSat11satisfiableEvEUliE_EEEEENS_5tupleIJDpOT_EEES8_, symObjAddr: 0x60D0, symBinAddr: 0x1000087B8, symSize: 0x2C }
  - { offsetInCU: 0xD037, offset: 0xD037, size: 0x8, addend: 0x0, symName: __ZNSt3__13getB7v160006ILm0EJOZN6TwoSat11satisfiableEvEUliE_EEERNS_13tuple_elementIXT_ENS_5tupleIJDpT0_EEEE4typeERS8_, symObjAddr: 0x63EC, symBinAddr: 0x100008AD4, symSize: 0x24 }
  - { offsetInCU: 0xD079, offset: 0xD079, size: 0x8, addend: 0x0, symName: __ZNSt3__13getB7v160006ILm0EJONS_9allocatorIZN6TwoSat11satisfiableEvEUliE_EEEEERNS_13tuple_elementIXT_ENS_5tupleIJDpT0_EEEE4typeERSA_, symObjAddr: 0x6428, symBinAddr: 0x100008B10, symSize: 0x24 }
  - { offsetInCU: 0xD247, offset: 0xD247, size: 0x8, addend: 0x0, symName: __ZNSt3__116forward_as_tupleB7v160006IJRKZN6TwoSat11satisfiableEvEUliE_EEENS_5tupleIJDpOT_EEES8_, symObjAddr: 0x6824, symBinAddr: 0x100008F0C, symSize: 0x2C }
  - { offsetInCU: 0xD295, offset: 0xD295, size: 0x8, addend: 0x0, symName: __ZNSt3__13getB7v160006ILm0EJRKZN6TwoSat11satisfiableEvEUliE_EEERNS_13tuple_elementIXT_ENS_5tupleIJDpT0_EEEE4typeERS9_, symObjAddr: 0x6A18, symBinAddr: 0x100009100, symSize: 0x24 }
  - { offsetInCU: 0xD2D7, offset: 0xD2D7, size: 0x8, addend: 0x0, symName: __ZNSt3__116forward_as_tupleB7v160006IJRKNS_9allocatorIZN6TwoSat11satisfiableEvEUliE_EEEEENS_5tupleIJDpOT_EEESA_, symObjAddr: 0x6D78, symBinAddr: 0x100009460, symSize: 0x2C }
  - { offsetInCU: 0xD325, offset: 0xD325, size: 0x8, addend: 0x0, symName: __ZNSt3__13getB7v160006ILm0EJRKNS_9allocatorIZN6TwoSat11satisfiableEvEUliE_EEEEERNS_13tuple_elementIXT_ENS_5tupleIJDpT0_EEEE4typeERSB_, symObjAddr: 0x6F5C, symBinAddr: 0x100009644, symSize: 0x24 }
  - { offsetInCU: 0xD3A4, offset: 0xD3A4, size: 0x8, addend: 0x0, symName: __ZNSt3__18__invokeB7v160006IRZN6TwoSat11satisfiableEvEUliE_JiEEEDTclclsr3stdE7declvalIT_EEspclsr3stdE7declvalIT0_EEEEOS4_DpOS5_, symObjAddr: 0x7028, symBinAddr: 0x100009710, symSize: 0x30 }
  - { offsetInCU: 0xD3F1, offset: 0xD3F1, size: 0x8, addend: 0x0, symName: __ZNSt3__1neB7v160006IPiEEbRKNS_11__wrap_iterIT_EES6_, symObjAddr: 0x73CC, symBinAddr: 0x100009AB4, symSize: 0x34 }
  - { offsetInCU: 0xD434, offset: 0xD434, size: 0x8, addend: 0x0, symName: __ZNSt3__13minB7v160006IiEERKT_S3_S3_, symObjAddr: 0x7418, symBinAddr: 0x100009B00, symSize: 0x2C }
  - { offsetInCU: 0xD477, offset: 0xD477, size: 0x8, addend: 0x0, symName: __ZNSt3__1eqB7v160006IPiEEbRKNS_11__wrap_iterIT_EES6_, symObjAddr: 0x76A8, symBinAddr: 0x100009D90, symSize: 0x48 }
  - { offsetInCU: 0xD4BA, offset: 0xD4BA, size: 0x8, addend: 0x0, symName: __ZNSt3__13minB7v160006IiNS_6__lessIiiEEEERKT_S5_S5_T0_, symObjAddr: 0x7708, symBinAddr: 0x100009DF0, symSize: 0x54 }
  - { offsetInCU: 0xD550, offset: 0xD550, size: 0x8, addend: 0x0, symName: __ZNSt3__125__throw_bad_function_callB7v160006Ev, symObjAddr: 0x7AC8, symBinAddr: 0x10000A1B0, symSize: 0x38 }
  - { offsetInCU: 0xD59F, offset: 0xD59F, size: 0x8, addend: 0x0, symName: __ZNSt3__125__debug_db_invalidate_allB7v160006INS_6vectorIbNS_9allocatorIbEEE16__destroy_vectorEEEvPT_, symObjAddr: 0x7F84, symBinAddr: 0x10000A66C, symSize: 0x10 }
  - { offsetInCU: 0xD5D0, offset: 0xD5D0, size: 0x8, addend: 0x0, symName: __ZNSt3__116__pad_and_outputB7v160006IcNS_11char_traitsIcEEEENS_19ostreambuf_iteratorIT_T0_EES6_PKS4_S8_S8_RNS_8ios_baseES4_, symObjAddr: 0x8254, symBinAddr: 0x10000A93C, symSize: 0x240 }
  - { offsetInCU: 0xD69F, offset: 0xD69F, size: 0x8, addend: 0x0, symName: __ZNSt3__119__debug_db_insert_cB7v160006INS_12basic_stringIcNS_11char_traitsIcEENS_9allocatorIcEEEEEEvPT_, symObjAddr: 0x8708, symBinAddr: 0x10000ADF0, symSize: 0x10 }
  - { offsetInCU: 0xD6D0, offset: 0xD6D0, size: 0x8, addend: 0x0, symName: __ZNSt3__112__to_addressB7v160006IcEEPT_S2_, symObjAddr: 0x87D4, symBinAddr: 0x10000AEBC, symSize: 0x14 }
  - { offsetInCU: 0xD705, offset: 0xD705, size: 0x8, addend: 0x0, symName: __ZNSt3__19use_facetB7v160006INS_5ctypeIcEEEERKT_RKNS_6localeE, symObjAddr: 0x8A8C, symBinAddr: 0x10000B174, symSize: 0x2C }
  - { offsetInCU: 0xDBD4, offset: 0xDBD4, size: 0x8, addend: 0x0, symName: __ZNSt3__118__constexpr_strlenB7v160006EPKc, symObjAddr: 0x8B24, symBinAddr: 0x10000B20C, symSize: 0x24 }
  - { offsetInCU: 0xE261, offset: 0xE261, size: 0x8, addend: 0x0, symName: __ZSt28__throw_bad_array_new_lengthB7v160006v, symObjAddr: 0x13AC, symBinAddr: 0x100003A94, symSize: 0x34 }
  - { offsetInCU: 0xEB2A, offset: 0xEB2A, size: 0x8, addend: 0x0, symName: __ZNSt3__16vectorIiNS_9allocatorIiEEE26__swap_out_circular_bufferERNS_14__split_bufferIiRS2_EE, symObjAddr: 0x45A0, symBinAddr: 0x100006C88, symSize: 0x118 }
  - { offsetInCU: 0xEC0E, offset: 0xEC0E, size: 0x8, addend: 0x0, symName: __ZN6TwoSat11satisfiableEv, symObjAddr: 0x528, symBinAddr: 0x100002C10, symSize: 0x3F4 }
  - { offsetInCU: 0x1177C, offset: 0x1177C, size: 0x8, addend: 0x0, symName: __Z5solvev, symObjAddr: 0x0, symBinAddr: 0x1000026E8, symSize: 0x2D0 }
  - { offsetInCU: 0x1182F, offset: 0x1182F, size: 0x8, addend: 0x0, symName: __ZNSt3__16vectorIiNS_9allocatorIiEEEC1Em, symObjAddr: 0x2D0, symBinAddr: 0x1000029B8, symSize: 0x34 }
  - { offsetInCU: 0x1186A, offset: 0x1186A, size: 0x8, addend: 0x0, symName: __ZNSt3__16vectorINS0_IiNS_9allocatorIiEEEENS1_IS3_EEEC1EmRKS3_, symObjAddr: 0x304, symBinAddr: 0x1000029EC, symSize: 0x3C }
  - { offsetInCU: 0x118B4, offset: 0x118B4, size: 0x8, addend: 0x0, symName: __ZNSt3__16vectorIiNS_9allocatorIiEEED1B7v160006Ev, symObjAddr: 0x340, symBinAddr: 0x100002A28, symSize: 0x2C }
  - { offsetInCU: 0x118DE, offset: 0x118DE, size: 0x8, addend: 0x0, symName: __ZNSt3__16vectorINS0_IiNS_9allocatorIiEEEENS1_IS3_EEEixB7v160006Em, symObjAddr: 0x36C, symBinAddr: 0x100002A54, symSize: 0x2C }
  - { offsetInCU: 0x11915, offset: 0x11915, size: 0x8, addend: 0x0, symName: __ZNSt3__16vectorIiNS_9allocatorIiEEEixB7v160006Em, symObjAddr: 0x398, symBinAddr: 0x100002A80, symSize: 0x24 }
  - { offsetInCU: 0x1194C, offset: 0x1194C, size: 0x8, addend: 0x0, symName: __ZN6TwoSatC1Ei, symObjAddr: 0x3BC, symBinAddr: 0x100002AA4, symSize: 0x34 }
  - { offsetInCU: 0x11984, offset: 0x11984, size: 0x8, addend: 0x0, symName: __ZN6TwoSat9addClauseEibib, symObjAddr: 0x3F0, symBinAddr: 0x100002AD8, symSize: 0xF0 }
  - { offsetInCU: 0x119E2, offset: 0x119E2, size: 0x8, addend: 0x0, symName: __ZN6TwoSatD1Ev, symObjAddr: 0x91C, symBinAddr: 0x100003004, symSize: 0x2C }
  - { offsetInCU: 0x11A0E, offset: 0x11A0E, size: 0x8, addend: 0x0, symName: __ZNSt3__16vectorINS0_IiNS_9allocatorIiEEEENS1_IS3_EEED1B7v160006Ev, symObjAddr: 0x948, symBinAddr: 0x100003030, symSize: 0x2C }
  - { offsetInCU: 0x11A38, offset: 0x11A38, size: 0x8, addend: 0x0, symName: _main, symObjAddr: 0x974, symBinAddr: 0x10000305C, symSize: 0x84 }
  - { offsetInCU: 0x11A61, offset: 0x11A61, size: 0x8, addend: 0x0, symName: __ZNSt3__19basic_iosIcNS_11char_traitsIcEEE3tieB7v160006EPNS_13basic_ostreamIcS2_EE, symObjAddr: 0x9F8, symBinAddr: 0x1000030E0, symSize: 0x2C }
  - { offsetInCU: 0x11AA7, offset: 0x11AA7, size: 0x8, addend: 0x0, symName: __ZNSt3__16vectorIiNS_9allocatorIiEEEC2Em, symObjAddr: 0xA24, symBinAddr: 0x10000310C, symSize: 0xE0 }
  - { offsetInCU: 0x11B03, offset: 0x11B03, size: 0x8, addend: 0x0, symName: __ZNSt3__117__compressed_pairIPiNS_9allocatorIiEEEC1B7v160006IDnNS_18__default_init_tagEEEOT_OT0_, symObjAddr: 0xB04, symBinAddr: 0x1000031EC, symSize: 0x3C }
  - { offsetInCU: 0x11B5B, offset: 0x11B5B, size: 0x8, addend: 0x0, symName: __ZNSt3__16vectorIiNS_9allocatorIiEEE16__destroy_vectorC1ERS3_, symObjAddr: 0xB80, symBinAddr: 0x100003268, symSize: 0x34 }
  - { offsetInCU: 0x11B94, offset: 0x11B94, size: 0x8, addend: 0x0, symName: __ZNSt3__16vectorIiNS_9allocatorIiEEE11__vallocateB7v160006Em, symObjAddr: 0xBC4, symBinAddr: 0x1000032AC, symSize: 0xAC }
  - { offsetInCU: 0x11BD8, offset: 0x11BD8, size: 0x8, addend: 0x0, symName: __ZNSt3__16vectorIiNS_9allocatorIiEEE18__construct_at_endEm, symObjAddr: 0xC70, symBinAddr: 0x100003358, symSize: 0xC8 }
  - { offsetInCU: 0x11C4A, offset: 0x11C4A, size: 0x8, addend: 0x0, symName: __ZNSt3__128__exception_guard_exceptionsINS_6vectorIiNS_9allocatorIiEEE16__destroy_vectorEE10__completeB7v160006Ev, symObjAddr: 0xD38, symBinAddr: 0x100003420, symSize: 0x1C }
  - { offsetInCU: 0x11C70, offset: 0x11C70, size: 0x8, addend: 0x0, symName: __ZNSt3__128__exception_guard_exceptionsINS_6vectorIiNS_9allocatorIiEEE16__destroy_vectorEED1B7v160006Ev, symObjAddr: 0xD54, symBinAddr: 0x10000343C, symSize: 0x2C }
  - { offsetInCU: 0x11C9A, offset: 0x11C9A, size: 0x8, addend: 0x0, symName: __ZNSt3__117__compressed_pairIPiNS_9allocatorIiEEEC2B7v160006IDnNS_18__default_init_tagEEEOT_OT0_, symObjAddr: 0xD80, symBinAddr: 0x100003468, symSize: 0x40 }
  - { offsetInCU: 0x11CF2, offset: 0x11CF2, size: 0x8, addend: 0x0, symName: __ZNSt3__122__compressed_pair_elemIPiLi0ELb0EEC2B7v160006IDnvEEOT_, symObjAddr: 0xDC0, symBinAddr: 0x1000034A8, symSize: 0x1C }
  - { offsetInCU: 0x11D34, offset: 0x11D34, size: 0x8, addend: 0x0, symName: __ZNSt3__122__compressed_pair_elemINS_9allocatorIiEELi1ELb1EEC2B7v160006ENS_18__default_init_tagE, symObjAddr: 0xDDC, symBinAddr: 0x1000034C4, symSize: 0x2C }
  - { offsetInCU: 0x11D68, offset: 0x11D68, size: 0x8, addend: 0x0, symName: __ZNSt3__19allocatorIiEC2B7v160006Ev, symObjAddr: 0xE08, symBinAddr: 0x1000034F0, symSize: 0x2C }
  - { offsetInCU: 0x11D92, offset: 0x11D92, size: 0x8, addend: 0x0, symName: __ZNSt3__116__non_trivial_ifILb1ENS_9allocatorIiEEEC2B7v160006Ev, symObjAddr: 0xE34, symBinAddr: 0x10000351C, symSize: 0x14 }
  - { offsetInCU: 0x11DBC, offset: 0x11DBC, size: 0x8, addend: 0x0, symName: __ZNSt3__128__exception_guard_exceptionsINS_6vectorIiNS_9allocatorIiEEE16__destroy_vectorEEC1B7v160006ES5_, symObjAddr: 0xE48, symBinAddr: 0x100003530, symSize: 0x34 }
  - { offsetInCU: 0x11DF4, offset: 0x11DF4, size: 0x8, addend: 0x0, symName: __ZNSt3__128__exception_guard_exceptionsINS_6vectorIiNS_9allocatorIiEEE16__destroy_vectorEEC2B7v160006ES5_, symObjAddr: 0xE7C, symBinAddr: 0x100003564, symSize: 0x24 }
  - { offsetInCU: 0x11E2C, offset: 0x11E2C, size: 0x8, addend: 0x0, symName: __ZNSt3__16vectorIiNS_9allocatorIiEEE16__destroy_vectorC2ERS3_, symObjAddr: 0xEA0, symBinAddr: 0x100003588, symSize: 0x20 }
  - { offsetInCU: 0x11E65, offset: 0x11E65, size: 0x8, addend: 0x0, symName: __ZNKSt3__16vectorIiNS_9allocatorIiEEE8max_sizeEv, symObjAddr: 0xEC0, symBinAddr: 0x1000035A8, symSize: 0x60 }
  - { offsetInCU: 0x11E8D, offset: 0x11E8D, size: 0x8, addend: 0x0, symName: __ZNKSt3__16vectorIiNS_9allocatorIiEEE20__throw_length_errorB7v160006Ev, symObjAddr: 0xF20, symBinAddr: 0x100003608, symSize: 0x1C }
  - { offsetInCU: 0x11EB3, offset: 0x11EB3, size: 0x8, addend: 0x0, symName: __ZNSt3__16vectorIiNS_9allocatorIiEEE7__allocB7v160006Ev, symObjAddr: 0xF78, symBinAddr: 0x100003660, symSize: 0x28 }
  - { offsetInCU: 0x11ED9, offset: 0x11ED9, size: 0x8, addend: 0x0, symName: __ZNSt3__16vectorIiNS_9allocatorIiEEE9__end_capB7v160006Ev, symObjAddr: 0xFA0, symBinAddr: 0x100003688, symSize: 0x28 }
  - { offsetInCU: 0x11EFF, offset: 0x11EFF, size: 0x8, addend: 0x0, symName: __ZNKSt3__16vectorIiNS_9allocatorIiEEE14__annotate_newB7v160006Em, symObjAddr: 0xFC8, symBinAddr: 0x1000036B0, symSize: 0xAC }
  - { offsetInCU: 0x11F3F, offset: 0x11F3F, size: 0x8, addend: 0x0, symName: __ZNSt3__116allocator_traitsINS_9allocatorIiEEE8max_sizeB7v160006IS2_vvEEmRKS2_, symObjAddr: 0x10A0, symBinAddr: 0x100003788, symSize: 0x28 }
  - { offsetInCU: 0x11F6A, offset: 0x11F6A, size: 0x8, addend: 0x0, symName: __ZNKSt3__16vectorIiNS_9allocatorIiEEE7__allocB7v160006Ev, symObjAddr: 0x10C8, symBinAddr: 0x1000037B0, symSize: 0x28 }
  - { offsetInCU: 0x11F90, offset: 0x11F90, size: 0x8, addend: 0x0, symName: __ZNSt3__114numeric_limitsIlE3maxB7v160006Ev, symObjAddr: 0x10F0, symBinAddr: 0x1000037D8, symSize: 0x14 }
  - { offsetInCU: 0x11FAF, offset: 0x11FAF, size: 0x8, addend: 0x0, symName: __ZNKSt3__16__lessImmEclB7v160006ERKmS3_, symObjAddr: 0x1164, symBinAddr: 0x10000384C, symSize: 0x34 }
  - { offsetInCU: 0x11FF1, offset: 0x11FF1, size: 0x8, addend: 0x0, symName: __ZNSt3__114numeric_limitsImE3maxB7v160006Ev, symObjAddr: 0x1198, symBinAddr: 0x100003880, symSize: 0x14 }
  - { offsetInCU: 0x12005, offset: 0x12005, size: 0x8, addend: 0x0, symName: __ZNSt3__123__libcpp_numeric_limitsImLb1EE3maxB7v160006Ev, symObjAddr: 0x11AC, symBinAddr: 0x100003894, symSize: 0x8 }
  - { offsetInCU: 0x12019, offset: 0x12019, size: 0x8, addend: 0x0, symName: __ZNKSt3__117__compressed_pairIPiNS_9allocatorIiEEE6secondB7v160006Ev, symObjAddr: 0x11B4, symBinAddr: 0x10000389C, symSize: 0x24 }
  - { offsetInCU: 0x1203F, offset: 0x1203F, size: 0x8, addend: 0x0, symName: __ZNKSt3__122__compressed_pair_elemINS_9allocatorIiEELi1ELb1EE5__getB7v160006Ev, symObjAddr: 0x11D8, symBinAddr: 0x1000038C0, symSize: 0x14 }
  - { offsetInCU: 0x12065, offset: 0x12065, size: 0x8, addend: 0x0, symName: __ZNSt3__123__libcpp_numeric_limitsIlLb1EE3maxB7v160006Ev, symObjAddr: 0x11EC, symBinAddr: 0x1000038D4, symSize: 0x8 }
  - { offsetInCU: 0x12079, offset: 0x12079, size: 0x8, addend: 0x0, symName: __ZNSt12length_errorC1B7v160006EPKc, symObjAddr: 0x1258, symBinAddr: 0x100003940, symSize: 0x34 }
  - { offsetInCU: 0x120B1, offset: 0x120B1, size: 0x8, addend: 0x0, symName: __ZNSt12length_errorC2B7v160006EPKc, symObjAddr: 0x128C, symBinAddr: 0x100003974, symSize: 0x4C }
  - { offsetInCU: 0x120E9, offset: 0x120E9, size: 0x8, addend: 0x0, symName: __ZNSt3__19allocatorIiE17allocate_at_leastB7v160006Em, symObjAddr: 0x1314, symBinAddr: 0x1000039FC, symSize: 0x40 }
  - { offsetInCU: 0x1211D, offset: 0x1211D, size: 0x8, addend: 0x0, symName: __ZNSt3__19allocatorIiE8allocateB7v160006Em, symObjAddr: 0x1354, symBinAddr: 0x100003A3C, symSize: 0x58 }
  - { offsetInCU: 0x12151, offset: 0x12151, size: 0x8, addend: 0x0, symName: __ZNSt3__117__compressed_pairIPiNS_9allocatorIiEEE6secondB7v160006Ev, symObjAddr: 0x14B0, symBinAddr: 0x100003B98, symSize: 0x24 }
  - { offsetInCU: 0x12177, offset: 0x12177, size: 0x8, addend: 0x0, symName: __ZNSt3__122__compressed_pair_elemINS_9allocatorIiEELi1ELb1EE5__getB7v160006Ev, symObjAddr: 0x14D4, symBinAddr: 0x100003BBC, symSize: 0x14 }
  - { offsetInCU: 0x1219D, offset: 0x1219D, size: 0x8, addend: 0x0, symName: __ZNSt3__117__compressed_pairIPiNS_9allocatorIiEEE5firstB7v160006Ev, symObjAddr: 0x14E8, symBinAddr: 0x100003BD0, symSize: 0x24 }
  - { offsetInCU: 0x121C3, offset: 0x121C3, size: 0x8, addend: 0x0, symName: __ZNSt3__122__compressed_pair_elemIPiLi0ELb0EE5__getB7v160006Ev, symObjAddr: 0x150C, symBinAddr: 0x100003BF4, symSize: 0x14 }
  - { offsetInCU: 0x121E9, offset: 0x121E9, size: 0x8, addend: 0x0, symName: __ZNKSt3__16vectorIiNS_9allocatorIiEEE31__annotate_contiguous_containerB7v160006EPKvS5_S5_S5_, symObjAddr: 0x1520, symBinAddr: 0x100003C08, symSize: 0x20 }
  - { offsetInCU: 0x1223B, offset: 0x1223B, size: 0x8, addend: 0x0, symName: __ZNKSt3__16vectorIiNS_9allocatorIiEEE4dataB7v160006Ev, symObjAddr: 0x1540, symBinAddr: 0x100003C28, symSize: 0x28 }
  - { offsetInCU: 0x12261, offset: 0x12261, size: 0x8, addend: 0x0, symName: __ZNKSt3__16vectorIiNS_9allocatorIiEEE8capacityB7v160006Ev, symObjAddr: 0x1568, symBinAddr: 0x100003C50, symSize: 0x40 }
  - { offsetInCU: 0x12287, offset: 0x12287, size: 0x8, addend: 0x0, symName: __ZNKSt3__16vectorIiNS_9allocatorIiEEE9__end_capB7v160006Ev, symObjAddr: 0x15BC, symBinAddr: 0x100003CA4, symSize: 0x28 }
  - { offsetInCU: 0x122AD, offset: 0x122AD, size: 0x8, addend: 0x0, symName: __ZNKSt3__117__compressed_pairIPiNS_9allocatorIiEEE5firstB7v160006Ev, symObjAddr: 0x15E4, symBinAddr: 0x100003CCC, symSize: 0x24 }
  - { offsetInCU: 0x122D3, offset: 0x122D3, size: 0x8, addend: 0x0, symName: __ZNKSt3__122__compressed_pair_elemIPiLi0ELb0EE5__getB7v160006Ev, symObjAddr: 0x1608, symBinAddr: 0x100003CF0, symSize: 0x14 }
  - { offsetInCU: 0x12315, offset: 0x12315, size: 0x8, addend: 0x0, symName: __ZNSt3__16vectorIiNS_9allocatorIiEEE21_ConstructTransactionC1B7v160006ERS3_m, symObjAddr: 0x161C, symBinAddr: 0x100003D04, symSize: 0x3C }
  - { offsetInCU: 0x1235D, offset: 0x1235D, size: 0x8, addend: 0x0, symName: __ZNSt3__116allocator_traitsINS_9allocatorIiEEE9constructB7v160006IiJEvvEEvRS2_PT_DpOT0_, symObjAddr: 0x1658, symBinAddr: 0x100003D40, symSize: 0x28 }
  - { offsetInCU: 0x1239C, offset: 0x1239C, size: 0x8, addend: 0x0, symName: __ZNSt3__16vectorIiNS_9allocatorIiEEE21_ConstructTransactionD1B7v160006Ev, symObjAddr: 0x1680, symBinAddr: 0x100003D68, symSize: 0x2C }
  - { offsetInCU: 0x123C6, offset: 0x123C6, size: 0x8, addend: 0x0, symName: __ZNSt3__16vectorIiNS_9allocatorIiEEE21_ConstructTransactionC2B7v160006ERS3_m, symObjAddr: 0x16AC, symBinAddr: 0x100003D94, symSize: 0x44 }
  - { offsetInCU: 0x1240E, offset: 0x1240E, size: 0x8, addend: 0x0, symName: __ZNSt3__16vectorIiNS_9allocatorIiEEE21_ConstructTransactionD2B7v160006Ev, symObjAddr: 0x1710, symBinAddr: 0x100003DF8, symSize: 0x20 }
  - { offsetInCU: 0x12438, offset: 0x12438, size: 0x8, addend: 0x0, symName: __ZNSt3__128__exception_guard_exceptionsINS_6vectorIiNS_9allocatorIiEEE16__destroy_vectorEED2B7v160006Ev, symObjAddr: 0x1730, symBinAddr: 0x100003E18, symSize: 0x50 }
  - { offsetInCU: 0x12462, offset: 0x12462, size: 0x8, addend: 0x0, symName: __ZNSt3__16vectorIiNS_9allocatorIiEEE16__destroy_vectorclB7v160006Ev, symObjAddr: 0x1780, symBinAddr: 0x100003E68, symSize: 0x9C }
  - { offsetInCU: 0x12488, offset: 0x12488, size: 0x8, addend: 0x0, symName: __ZNKSt3__16vectorIiNS_9allocatorIiEEE17__annotate_deleteB7v160006Ev, symObjAddr: 0x181C, symBinAddr: 0x100003F04, symSize: 0xB8 }
  - { offsetInCU: 0x124AE, offset: 0x124AE, size: 0x8, addend: 0x0, symName: __ZNSt3__16vectorIiNS_9allocatorIiEEE7__clearB7v160006Ev, symObjAddr: 0x18E4, symBinAddr: 0x100003FCC, symSize: 0x28 }
  - { offsetInCU: 0x124D4, offset: 0x124D4, size: 0x8, addend: 0x0, symName: __ZNSt3__116allocator_traitsINS_9allocatorIiEEE10deallocateB7v160006ERS2_Pim, symObjAddr: 0x190C, symBinAddr: 0x100003FF4, symSize: 0x34 }
  - { offsetInCU: 0x12516, offset: 0x12516, size: 0x8, addend: 0x0, symName: __ZNKSt3__16vectorIiNS_9allocatorIiEEE4sizeB7v160006Ev, symObjAddr: 0x1940, symBinAddr: 0x100004028, symSize: 0x28 }
  - { offsetInCU: 0x1253C, offset: 0x1253C, size: 0x8, addend: 0x0, symName: __ZNSt3__16vectorIiNS_9allocatorIiEEE22__base_destruct_at_endB7v160006EPi, symObjAddr: 0x1968, symBinAddr: 0x100004050, symSize: 0x8C }
  - { offsetInCU: 0x12580, offset: 0x12580, size: 0x8, addend: 0x0, symName: __ZNSt3__116allocator_traitsINS_9allocatorIiEEE7destroyB7v160006IivvEEvRS2_PT_, symObjAddr: 0x19F4, symBinAddr: 0x1000040DC, symSize: 0x28 }
  - { offsetInCU: 0x125BA, offset: 0x125BA, size: 0x8, addend: 0x0, symName: __ZNSt3__19allocatorIiE10deallocateB7v160006EPim, symObjAddr: 0x1A50, symBinAddr: 0x100004138, symSize: 0x40 }
  - { offsetInCU: 0x125FC, offset: 0x125FC, size: 0x8, addend: 0x0, symName: __ZNSt3__16vectorINS0_IiNS_9allocatorIiEEEENS1_IS3_EEEC2EmRKS3_, symObjAddr: 0x1B98, symBinAddr: 0x100004280, symSize: 0xE8 }
  - { offsetInCU: 0x1265B, offset: 0x1265B, size: 0x8, addend: 0x0, symName: __ZNSt3__117__compressed_pairIPNS_6vectorIiNS_9allocatorIiEEEENS2_IS4_EEEC1B7v160006IDnNS_18__default_init_tagEEEOT_OT0_, symObjAddr: 0x1C80, symBinAddr: 0x100004368, symSize: 0x3C }
  - { offsetInCU: 0x126B3, offset: 0x126B3, size: 0x8, addend: 0x0, symName: __ZNSt3__16vectorINS0_IiNS_9allocatorIiEEEENS1_IS3_EEE16__destroy_vectorC1ERS5_, symObjAddr: 0x1CFC, symBinAddr: 0x1000043E4, symSize: 0x34 }
  - { offsetInCU: 0x126EC, offset: 0x126EC, size: 0x8, addend: 0x0, symName: __ZNSt3__16vectorINS0_IiNS_9allocatorIiEEEENS1_IS3_EEE11__vallocateB7v160006Em, symObjAddr: 0x1D40, symBinAddr: 0x100004428, symSize: 0xB4 }
  - { offsetInCU: 0x12730, offset: 0x12730, size: 0x8, addend: 0x0, symName: __ZNSt3__16vectorINS0_IiNS_9allocatorIiEEEENS1_IS3_EEE18__construct_at_endEmRKS3_, symObjAddr: 0x1DF4, symBinAddr: 0x1000044DC, symSize: 0xD0 }
  - { offsetInCU: 0x127B1, offset: 0x127B1, size: 0x8, addend: 0x0, symName: __ZNSt3__128__exception_guard_exceptionsINS_6vectorINS1_IiNS_9allocatorIiEEEENS2_IS4_EEE16__destroy_vectorEE10__completeB7v160006Ev, symObjAddr: 0x1EC4, symBinAddr: 0x1000045AC, symSize: 0x1C }
  - { offsetInCU: 0x127D7, offset: 0x127D7, size: 0x8, addend: 0x0, symName: __ZNSt3__128__exception_guard_exceptionsINS_6vectorINS1_IiNS_9allocatorIiEEEENS2_IS4_EEE16__destroy_vectorEED1B7v160006Ev, symObjAddr: 0x1EE0, symBinAddr: 0x1000045C8, symSize: 0x2C }
  - { offsetInCU: 0x12801, offset: 0x12801, size: 0x8, addend: 0x0, symName: __ZNSt3__117__compressed_pairIPNS_6vectorIiNS_9allocatorIiEEEENS2_IS4_EEEC2B7v160006IDnNS_18__default_init_tagEEEOT_OT0_, symObjAddr: 0x1F0C, symBinAddr: 0x1000045F4, symSize: 0x40 }
  - { offsetInCU: 0x12859, offset: 0x12859, size: 0x8, addend: 0x0, symName: __ZNSt3__122__compressed_pair_elemIPNS_6vectorIiNS_9allocatorIiEEEELi0ELb0EEC2B7v160006IDnvEEOT_, symObjAddr: 0x1F4C, symBinAddr: 0x100004634, symSize: 0x1C }
  - { offsetInCU: 0x1289B, offset: 0x1289B, size: 0x8, addend: 0x0, symName: __ZNSt3__122__compressed_pair_elemINS_9allocatorINS_6vectorIiNS1_IiEEEEEELi1ELb1EEC2B7v160006ENS_18__default_init_tagE, symObjAddr: 0x1F68, symBinAddr: 0x100004650, symSize: 0x2C }
  - { offsetInCU: 0x128CF, offset: 0x128CF, size: 0x8, addend: 0x0, symName: __ZNSt3__19allocatorINS_6vectorIiNS0_IiEEEEEC2B7v160006Ev, symObjAddr: 0x1F94, symBinAddr: 0x10000467C, symSize: 0x2C }
  - { offsetInCU: 0x128F9, offset: 0x128F9, size: 0x8, addend: 0x0, symName: __ZNSt3__116__non_trivial_ifILb1ENS_9allocatorINS_6vectorIiNS1_IiEEEEEEEC2B7v160006Ev, symObjAddr: 0x1FC0, symBinAddr: 0x1000046A8, symSize: 0x14 }
  - { offsetInCU: 0x12923, offset: 0x12923, size: 0x8, addend: 0x0, symName: __ZNSt3__128__exception_guard_exceptionsINS_6vectorINS1_IiNS_9allocatorIiEEEENS2_IS4_EEE16__destroy_vectorEEC1B7v160006ES7_, symObjAddr: 0x1FD4, symBinAddr: 0x1000046BC, symSize: 0x34 }
  - { offsetInCU: 0x1295B, offset: 0x1295B, size: 0x8, addend: 0x0, symName: __ZNSt3__128__exception_guard_exceptionsINS_6vectorINS1_IiNS_9allocatorIiEEEENS2_IS4_EEE16__destroy_vectorEEC2B7v160006ES7_, symObjAddr: 0x2008, symBinAddr: 0x1000046F0, symSize: 0x24 }
  - { offsetInCU: 0x12993, offset: 0x12993, size: 0x8, addend: 0x0, symName: __ZNSt3__16vectorINS0_IiNS_9allocatorIiEEEENS1_IS3_EEE16__destroy_vectorC2ERS5_, symObjAddr: 0x202C, symBinAddr: 0x100004714, symSize: 0x20 }
  - { offsetInCU: 0x129CC, offset: 0x129CC, size: 0x8, addend: 0x0, symName: __ZNKSt3__16vectorINS0_IiNS_9allocatorIiEEEENS1_IS3_EEE8max_sizeEv, symObjAddr: 0x204C, symBinAddr: 0x100004734, symSize: 0x60 }
  - { offsetInCU: 0x129F4, offset: 0x129F4, size: 0x8, addend: 0x0, symName: __ZNKSt3__16vectorINS0_IiNS_9allocatorIiEEEENS1_IS3_EEE20__throw_length_errorB7v160006Ev, symObjAddr: 0x20AC, symBinAddr: 0x100004794, symSize: 0x1C }
  - { offsetInCU: 0x12A1A, offset: 0x12A1A, size: 0x8, addend: 0x0, symName: __ZNSt3__16vectorINS0_IiNS_9allocatorIiEEEENS1_IS3_EEE7__allocB7v160006Ev, symObjAddr: 0x2104, symBinAddr: 0x1000047EC, symSize: 0x28 }
  - { offsetInCU: 0x12A40, offset: 0x12A40, size: 0x8, addend: 0x0, symName: __ZNSt3__16vectorINS0_IiNS_9allocatorIiEEEENS1_IS3_EEE9__end_capB7v160006Ev, symObjAddr: 0x212C, symBinAddr: 0x100004814, symSize: 0x28 }
  - { offsetInCU: 0x12A66, offset: 0x12A66, size: 0x8, addend: 0x0, symName: __ZNKSt3__16vectorINS0_IiNS_9allocatorIiEEEENS1_IS3_EEE14__annotate_newB7v160006Em, symObjAddr: 0x2154, symBinAddr: 0x10000483C, symSize: 0xC8 }
  - { offsetInCU: 0x12AA6, offset: 0x12AA6, size: 0x8, addend: 0x0, symName: __ZNSt3__116allocator_traitsINS_9allocatorINS_6vectorIiNS1_IiEEEEEEE8max_sizeB7v160006IS5_vvEEmRKS5_, symObjAddr: 0x221C, symBinAddr: 0x100004904, symSize: 0x28 }
  - { offsetInCU: 0x12AD1, offset: 0x12AD1, size: 0x8, addend: 0x0, symName: __ZNKSt3__16vectorINS0_IiNS_9allocatorIiEEEENS1_IS3_EEE7__allocB7v160006Ev, symObjAddr: 0x2244, symBinAddr: 0x10000492C, symSize: 0x28 }
  - { offsetInCU: 0x12AF7, offset: 0x12AF7, size: 0x8, addend: 0x0, symName: __ZNKSt3__117__compressed_pairIPNS_6vectorIiNS_9allocatorIiEEEENS2_IS4_EEE6secondB7v160006Ev, symObjAddr: 0x226C, symBinAddr: 0x100004954, symSize: 0x24 }
  - { offsetInCU: 0x12B1D, offset: 0x12B1D, size: 0x8, addend: 0x0, symName: __ZNKSt3__122__compressed_pair_elemINS_9allocatorINS_6vectorIiNS1_IiEEEEEELi1ELb1EE5__getB7v160006Ev, symObjAddr: 0x2290, symBinAddr: 0x100004978, symSize: 0x14 }
  - { offsetInCU: 0x12B43, offset: 0x12B43, size: 0x8, addend: 0x0, symName: __ZNSt3__19allocatorINS_6vectorIiNS0_IiEEEEE17allocate_at_leastB7v160006Em, symObjAddr: 0x22E0, symBinAddr: 0x1000049C8, symSize: 0x40 }
  - { offsetInCU: 0x12B77, offset: 0x12B77, size: 0x8, addend: 0x0, symName: __ZNSt3__19allocatorINS_6vectorIiNS0_IiEEEEE8allocateB7v160006Em, symObjAddr: 0x2320, symBinAddr: 0x100004A08, symSize: 0x5C }
  - { offsetInCU: 0x12BAB, offset: 0x12BAB, size: 0x8, addend: 0x0, symName: __ZNSt3__117__compressed_pairIPNS_6vectorIiNS_9allocatorIiEEEENS2_IS4_EEE6secondB7v160006Ev, symObjAddr: 0x237C, symBinAddr: 0x100004A64, symSize: 0x24 }
  - { offsetInCU: 0x12BD1, offset: 0x12BD1, size: 0x8, addend: 0x0, symName: __ZNSt3__122__compressed_pair_elemINS_9allocatorINS_6vectorIiNS1_IiEEEEEELi1ELb1EE5__getB7v160006Ev, symObjAddr: 0x23A0, symBinAddr: 0x100004A88, symSize: 0x14 }
  - { offsetInCU: 0x12BF7, offset: 0x12BF7, size: 0x8, addend: 0x0, symName: __ZNSt3__117__compressed_pairIPNS_6vectorIiNS_9allocatorIiEEEENS2_IS4_EEE5firstB7v160006Ev, symObjAddr: 0x23B4, symBinAddr: 0x100004A9C, symSize: 0x24 }
  - { offsetInCU: 0x12C1D, offset: 0x12C1D, size: 0x8, addend: 0x0, symName: __ZNSt3__122__compressed_pair_elemIPNS_6vectorIiNS_9allocatorIiEEEELi0ELb0EE5__getB7v160006Ev, symObjAddr: 0x23D8, symBinAddr: 0x100004AC0, symSize: 0x14 }
  - { offsetInCU: 0x12C43, offset: 0x12C43, size: 0x8, addend: 0x0, symName: __ZNKSt3__16vectorINS0_IiNS_9allocatorIiEEEENS1_IS3_EEE31__annotate_contiguous_containerB7v160006EPKvS7_S7_S7_, symObjAddr: 0x23EC, symBinAddr: 0x100004AD4, symSize: 0x20 }
  - { offsetInCU: 0x12C95, offset: 0x12C95, size: 0x8, addend: 0x0, symName: __ZNKSt3__16vectorINS0_IiNS_9allocatorIiEEEENS1_IS3_EEE4dataB7v160006Ev, symObjAddr: 0x240C, symBinAddr: 0x100004AF4, symSize: 0x28 }
  - { offsetInCU: 0x12CBB, offset: 0x12CBB, size: 0x8, addend: 0x0, symName: __ZNKSt3__16vectorINS0_IiNS_9allocatorIiEEEENS1_IS3_EEE8capacityB7v160006Ev, symObjAddr: 0x2434, symBinAddr: 0x100004B1C, symSize: 0x40 }
  - { offsetInCU: 0x12CE1, offset: 0x12CE1, size: 0x8, addend: 0x0, symName: __ZNKSt3__16vectorINS0_IiNS_9allocatorIiEEEENS1_IS3_EEE9__end_capB7v160006Ev, symObjAddr: 0x2488, symBinAddr: 0x100004B70, symSize: 0x28 }
  - { offsetInCU: 0x12D07, offset: 0x12D07, size: 0x8, addend: 0x0, symName: __ZNKSt3__117__compressed_pairIPNS_6vectorIiNS_9allocatorIiEEEENS2_IS4_EEE5firstB7v160006Ev, symObjAddr: 0x24B0, symBinAddr: 0x100004B98, symSize: 0x24 }
  - { offsetInCU: 0x12D2D, offset: 0x12D2D, size: 0x8, addend: 0x0, symName: __ZNKSt3__122__compressed_pair_elemIPNS_6vectorIiNS_9allocatorIiEEEELi0ELb0EE5__getB7v160006Ev, symObjAddr: 0x24D4, symBinAddr: 0x100004BBC, symSize: 0x14 }
  - { offsetInCU: 0x12D6F, offset: 0x12D6F, size: 0x8, addend: 0x0, symName: __ZNSt3__16vectorINS0_IiNS_9allocatorIiEEEENS1_IS3_EEE21_ConstructTransactionC1B7v160006ERS5_m, symObjAddr: 0x24E8, symBinAddr: 0x100004BD0, symSize: 0x3C }
  - { offsetInCU: 0x12DB7, offset: 0x12DB7, size: 0x8, addend: 0x0, symName: __ZNSt3__116allocator_traitsINS_9allocatorINS_6vectorIiNS1_IiEEEEEEE9constructB7v160006IS4_JRKS4_EvvEEvRS5_PT_DpOT0_, symObjAddr: 0x2524, symBinAddr: 0x100004C0C, symSize: 0x30 }
  - { offsetInCU: 0x12E0B, offset: 0x12E0B, size: 0x8, addend: 0x0, symName: __ZNSt3__16vectorINS0_IiNS_9allocatorIiEEEENS1_IS3_EEE21_ConstructTransactionD1B7v160006Ev, symObjAddr: 0x2554, symBinAddr: 0x100004C3C, symSize: 0x2C }
  - { offsetInCU: 0x12E35, offset: 0x12E35, size: 0x8, addend: 0x0, symName: __ZNSt3__16vectorINS0_IiNS_9allocatorIiEEEENS1_IS3_EEE21_ConstructTransactionC2B7v160006ERS5_m, symObjAddr: 0x2580, symBinAddr: 0x100004C68, symSize: 0x4C }
  - { offsetInCU: 0x12E7D, offset: 0x12E7D, size: 0x8, addend: 0x0, symName: __ZNSt3__16vectorIiNS_9allocatorIiEEEC1ERKS3_, symObjAddr: 0x2608, symBinAddr: 0x100004CF0, symSize: 0x34 }
  - { offsetInCU: 0x12EB8, offset: 0x12EB8, size: 0x8, addend: 0x0, symName: __ZNSt3__16vectorIiNS_9allocatorIiEEEC2ERKS3_, symObjAddr: 0x263C, symBinAddr: 0x100004D24, symSize: 0x110 }
  - { offsetInCU: 0x12F17, offset: 0x12F17, size: 0x8, addend: 0x0, symName: __ZNSt3__116allocator_traitsINS_9allocatorIiEEE37select_on_container_copy_constructionB7v160006IS2_vvEES2_RKS2_, symObjAddr: 0x274C, symBinAddr: 0x100004E34, symSize: 0x10 }
  - { offsetInCU: 0x12F4C, offset: 0x12F4C, size: 0x8, addend: 0x0, symName: __ZNSt3__117__compressed_pairIPiNS_9allocatorIiEEEC1B7v160006IDnS3_EEOT_OT0_, symObjAddr: 0x275C, symBinAddr: 0x100004E44, symSize: 0x3C }
  - { offsetInCU: 0x12FA4, offset: 0x12FA4, size: 0x8, addend: 0x0, symName: __ZNSt3__16vectorIiNS_9allocatorIiEEE18__construct_at_endIPiLi0EEEvT_S6_m, symObjAddr: 0x2798, symBinAddr: 0x100004E80, symSize: 0x8C }
  - { offsetInCU: 0x13017, offset: 0x13017, size: 0x8, addend: 0x0, symName: __ZNSt3__117__compressed_pairIPiNS_9allocatorIiEEEC2B7v160006IDnS3_EEOT_OT0_, symObjAddr: 0x2824, symBinAddr: 0x100004F0C, symSize: 0x44 }
  - { offsetInCU: 0x1306F, offset: 0x1306F, size: 0x8, addend: 0x0, symName: __ZNSt3__122__compressed_pair_elemINS_9allocatorIiEELi1ELb1EEC2B7v160006IS2_vEEOT_, symObjAddr: 0x2868, symBinAddr: 0x100004F50, symSize: 0x18 }
  - { offsetInCU: 0x130B1, offset: 0x130B1, size: 0x8, addend: 0x0, symName: __ZNSt3__129_AllocatorDestroyRangeReverseINS_9allocatorIiEEPiEC1B7v160006ERS2_RS3_S6_, symObjAddr: 0x29C0, symBinAddr: 0x1000050A8, symSize: 0x44 }
  - { offsetInCU: 0x13108, offset: 0x13108, size: 0x8, addend: 0x0, symName: __ZNSt3__116allocator_traitsINS_9allocatorIiEEE9constructB7v160006IiJRiEvvEEvRS2_PT_DpOT0_, symObjAddr: 0x2A04, symBinAddr: 0x1000050EC, symSize: 0x30 }
  - { offsetInCU: 0x1315C, offset: 0x1315C, size: 0x8, addend: 0x0, symName: __ZNSt3__128__exception_guard_exceptionsINS_29_AllocatorDestroyRangeReverseINS_9allocatorIiEEPiEEE10__completeB7v160006Ev, symObjAddr: 0x2A34, symBinAddr: 0x10000511C, symSize: 0x1C }
  - { offsetInCU: 0x13182, offset: 0x13182, size: 0x8, addend: 0x0, symName: __ZNSt3__128__exception_guard_exceptionsINS_29_AllocatorDestroyRangeReverseINS_9allocatorIiEEPiEEED1B7v160006Ev, symObjAddr: 0x2A50, symBinAddr: 0x100005138, symSize: 0x2C }
  - { offsetInCU: 0x131AC, offset: 0x131AC, size: 0x8, addend: 0x0, symName: __ZNSt3__128__exception_guard_exceptionsINS_29_AllocatorDestroyRangeReverseINS_9allocatorIiEEPiEEEC1B7v160006ES5_, symObjAddr: 0x2A7C, symBinAddr: 0x100005164, symSize: 0x34 }
  - { offsetInCU: 0x131E5, offset: 0x131E5, size: 0x8, addend: 0x0, symName: __ZNSt3__128__exception_guard_exceptionsINS_29_AllocatorDestroyRangeReverseINS_9allocatorIiEEPiEEEC2B7v160006ES5_, symObjAddr: 0x2AB0, symBinAddr: 0x100005198, symSize: 0x30 }
  - { offsetInCU: 0x1321E, offset: 0x1321E, size: 0x8, addend: 0x0, symName: __ZNSt3__129_AllocatorDestroyRangeReverseINS_9allocatorIiEEPiEC2B7v160006ERS2_RS3_S6_, symObjAddr: 0x2AE0, symBinAddr: 0x1000051C8, symSize: 0x38 }
  - { offsetInCU: 0x13275, offset: 0x13275, size: 0x8, addend: 0x0, symName: __ZNSt3__128__exception_guard_exceptionsINS_29_AllocatorDestroyRangeReverseINS_9allocatorIiEEPiEEED2B7v160006Ev, symObjAddr: 0x2B44, symBinAddr: 0x10000522C, symSize: 0x50 }
  - { offsetInCU: 0x1329F, offset: 0x1329F, size: 0x8, addend: 0x0, symName: __ZNKSt3__129_AllocatorDestroyRangeReverseINS_9allocatorIiEEPiEclB7v160006Ev, symObjAddr: 0x2B94, symBinAddr: 0x10000527C, symSize: 0x68 }
  - { offsetInCU: 0x132C5, offset: 0x132C5, size: 0x8, addend: 0x0, symName: __ZNSt3__116reverse_iteratorIPiEC1B7v160006ES1_, symObjAddr: 0x2C6C, symBinAddr: 0x100005354, symSize: 0x34 }
  - { offsetInCU: 0x132FD, offset: 0x132FD, size: 0x8, addend: 0x0, symName: __ZNSt3__116reverse_iteratorIPiEppB7v160006Ev, symObjAddr: 0x2D0C, symBinAddr: 0x1000053F4, symSize: 0x20 }
  - { offsetInCU: 0x13323, offset: 0x13323, size: 0x8, addend: 0x0, symName: __ZNKSt3__116reverse_iteratorIPiE4baseB7v160006Ev, symObjAddr: 0x2D2C, symBinAddr: 0x100005414, symSize: 0x18 }
  - { offsetInCU: 0x1334F, offset: 0x1334F, size: 0x8, addend: 0x0, symName: __ZNSt3__119__to_address_helperINS_16reverse_iteratorIPiEEvE6__callB7v160006ERKS3_, symObjAddr: 0x2D44, symBinAddr: 0x10000542C, symSize: 0x38 }
  - { offsetInCU: 0x13372, offset: 0x13372, size: 0x8, addend: 0x0, symName: __ZNKSt3__116reverse_iteratorIPiEptB7v160006Ev, symObjAddr: 0x2D7C, symBinAddr: 0x100005464, symSize: 0x2C }
  - { offsetInCU: 0x13398, offset: 0x13398, size: 0x8, addend: 0x0, symName: __ZNSt3__116reverse_iteratorIPiEC2B7v160006ES1_, symObjAddr: 0x2E84, symBinAddr: 0x10000556C, symSize: 0x28 }
  - { offsetInCU: 0x133D0, offset: 0x133D0, size: 0x8, addend: 0x0, symName: __ZNSt3__16vectorINS0_IiNS_9allocatorIiEEEENS1_IS3_EEE21_ConstructTransactionD2B7v160006Ev, symObjAddr: 0x2EAC, symBinAddr: 0x100005594, symSize: 0x20 }
  - { offsetInCU: 0x133FA, offset: 0x133FA, size: 0x8, addend: 0x0, symName: __ZNSt3__128__exception_guard_exceptionsINS_6vectorINS1_IiNS_9allocatorIiEEEENS2_IS4_EEE16__destroy_vectorEED2B7v160006Ev, symObjAddr: 0x2ECC, symBinAddr: 0x1000055B4, symSize: 0x50 }
  - { offsetInCU: 0x13424, offset: 0x13424, size: 0x8, addend: 0x0, symName: __ZNSt3__16vectorINS0_IiNS_9allocatorIiEEEENS1_IS3_EEE16__destroy_vectorclB7v160006Ev, symObjAddr: 0x2F1C, symBinAddr: 0x100005604, symSize: 0x9C }
  - { offsetInCU: 0x1344A, offset: 0x1344A, size: 0x8, addend: 0x0, symName: __ZNKSt3__16vectorINS0_IiNS_9allocatorIiEEEENS1_IS3_EEE17__annotate_deleteB7v160006Ev, symObjAddr: 0x2FB8, symBinAddr: 0x1000056A0, symSize: 0xD4 }
  - { offsetInCU: 0x13470, offset: 0x13470, size: 0x8, addend: 0x0, symName: __ZNSt3__16vectorINS0_IiNS_9allocatorIiEEEENS1_IS3_EEE7__clearB7v160006Ev, symObjAddr: 0x309C, symBinAddr: 0x100005784, symSize: 0x28 }
  - { offsetInCU: 0x13496, offset: 0x13496, size: 0x8, addend: 0x0, symName: __ZNSt3__116allocator_traitsINS_9allocatorINS_6vectorIiNS1_IiEEEEEEE10deallocateB7v160006ERS5_PS4_m, symObjAddr: 0x30C4, symBinAddr: 0x1000057AC, symSize: 0x34 }
  - { offsetInCU: 0x134D8, offset: 0x134D8, size: 0x8, addend: 0x0, symName: __ZNKSt3__16vectorINS0_IiNS_9allocatorIiEEEENS1_IS3_EEE4sizeB7v160006Ev, symObjAddr: 0x30F8, symBinAddr: 0x1000057E0, symSize: 0x28 }
  - { offsetInCU: 0x134FE, offset: 0x134FE, size: 0x8, addend: 0x0, symName: __ZNSt3__16vectorINS0_IiNS_9allocatorIiEEEENS1_IS3_EEE22__base_destruct_at_endB7v160006EPS3_, symObjAddr: 0x3120, symBinAddr: 0x100005808, symSize: 0x8C }
  - { offsetInCU: 0x13542, offset: 0x13542, size: 0x8, addend: 0x0, symName: __ZNSt3__116allocator_traitsINS_9allocatorINS_6vectorIiNS1_IiEEEEEEE7destroyB7v160006IS4_vvEEvRS5_PT_, symObjAddr: 0x31AC, symBinAddr: 0x100005894, symSize: 0x28 }
  - { offsetInCU: 0x1357C, offset: 0x1357C, size: 0x8, addend: 0x0, symName: __ZNSt3__19allocatorINS_6vectorIiNS0_IiEEEEE10deallocateB7v160006EPS3_m, symObjAddr: 0x321C, symBinAddr: 0x100005904, symSize: 0x44 }
  - { offsetInCU: 0x135BE, offset: 0x135BE, size: 0x8, addend: 0x0, symName: __ZNSt3__16vectorIiNS_9allocatorIiEEED2B7v160006Ev, symObjAddr: 0x3260, symBinAddr: 0x100005948, symSize: 0x44 }
  - { offsetInCU: 0x135E8, offset: 0x135E8, size: 0x8, addend: 0x0, symName: __ZN6TwoSatC2Ei, symObjAddr: 0x32A4, symBinAddr: 0x10000598C, symSize: 0x8C }
  - { offsetInCU: 0x13620, offset: 0x13620, size: 0x8, addend: 0x0, symName: __ZNSt3__16vectorINS0_IiNS_9allocatorIiEEEENS1_IS3_EEEC1Em, symObjAddr: 0x3330, symBinAddr: 0x100005A18, symSize: 0x34 }
  - { offsetInCU: 0x1365B, offset: 0x1365B, size: 0x8, addend: 0x0, symName: __ZNSt3__16vectorIbNS_9allocatorIbEEEC1Em, symObjAddr: 0x3364, symBinAddr: 0x100005A4C, symSize: 0x34 }
  - { offsetInCU: 0x13696, offset: 0x13696, size: 0x8, addend: 0x0, symName: __ZNSt3__16vectorINS0_IiNS_9allocatorIiEEEENS1_IS3_EEEC2Em, symObjAddr: 0x3398, symBinAddr: 0x100005A80, symSize: 0xDC }
  - { offsetInCU: 0x136E6, offset: 0x136E6, size: 0x8, addend: 0x0, symName: __ZNSt3__16vectorINS0_IiNS_9allocatorIiEEEENS1_IS3_EEE18__construct_at_endEm, symObjAddr: 0x3474, symBinAddr: 0x100005B5C, symSize: 0xC8 }
  - { offsetInCU: 0x13758, offset: 0x13758, size: 0x8, addend: 0x0, symName: __ZNSt3__116allocator_traitsINS_9allocatorINS_6vectorIiNS1_IiEEEEEEE9constructB7v160006IS4_JEvvEEvRS5_PT_DpOT0_, symObjAddr: 0x353C, symBinAddr: 0x100005C24, symSize: 0x28 }
  - { offsetInCU: 0x13797, offset: 0x13797, size: 0x8, addend: 0x0, symName: __ZNSt3__16vectorIiNS_9allocatorIiEEEC1B7v160006Ev, symObjAddr: 0x3598, symBinAddr: 0x100005C80, symSize: 0x2C }
  - { offsetInCU: 0x137C1, offset: 0x137C1, size: 0x8, addend: 0x0, symName: __ZNSt3__16vectorIiNS_9allocatorIiEEEC2B7v160006Ev, symObjAddr: 0x35C4, symBinAddr: 0x100005CAC, symSize: 0x54 }
  - { offsetInCU: 0x137EB, offset: 0x137EB, size: 0x8, addend: 0x0, symName: __ZNSt3__16vectorIbNS_9allocatorIbEEEC2Em, symObjAddr: 0x3618, symBinAddr: 0x100005D00, symSize: 0x88 }
  - { offsetInCU: 0x13826, offset: 0x13826, size: 0x8, addend: 0x0, symName: __ZNSt3__117__compressed_pairImNS_9allocatorImEEEC1B7v160006IiNS_18__default_init_tagEEEOT_OT0_, symObjAddr: 0x36A0, symBinAddr: 0x100005D88, symSize: 0x3C }
  - { offsetInCU: 0x1387E, offset: 0x1387E, size: 0x8, addend: 0x0, symName: __ZNSt3__16vectorIbNS_9allocatorIbEEE11__vallocateB7v160006Em, symObjAddr: 0x36DC, symBinAddr: 0x100005DC4, symSize: 0xA0 }
  - { offsetInCU: 0x138C2, offset: 0x138C2, size: 0x8, addend: 0x0, symName: __ZNSt3__16vectorIbNS_9allocatorIbEEE18__construct_at_endB7v160006Emb, symObjAddr: 0x377C, symBinAddr: 0x100005E64, symSize: 0x108 }
  - { offsetInCU: 0x13917, offset: 0x13917, size: 0x8, addend: 0x0, symName: __ZNSt3__117__compressed_pairImNS_9allocatorImEEEC2B7v160006IiNS_18__default_init_tagEEEOT_OT0_, symObjAddr: 0x3884, symBinAddr: 0x100005F6C, symSize: 0x40 }
  - { offsetInCU: 0x1396F, offset: 0x1396F, size: 0x8, addend: 0x0, symName: __ZNSt3__122__compressed_pair_elemImLi0ELb0EEC2B7v160006IivEEOT_, symObjAddr: 0x38C4, symBinAddr: 0x100005FAC, symSize: 0x24 }
  - { offsetInCU: 0x139B1, offset: 0x139B1, size: 0x8, addend: 0x0, symName: __ZNSt3__122__compressed_pair_elemINS_9allocatorImEELi1ELb1EEC2B7v160006ENS_18__default_init_tagE, symObjAddr: 0x38E8, symBinAddr: 0x100005FD0, symSize: 0x2C }
  - { offsetInCU: 0x139E5, offset: 0x139E5, size: 0x8, addend: 0x0, symName: __ZNSt3__19allocatorImEC2B7v160006Ev, symObjAddr: 0x3914, symBinAddr: 0x100005FFC, symSize: 0x2C }
  - { offsetInCU: 0x13A0F, offset: 0x13A0F, size: 0x8, addend: 0x0, symName: __ZNSt3__116__non_trivial_ifILb1ENS_9allocatorImEEEC2B7v160006Ev, symObjAddr: 0x3940, symBinAddr: 0x100006028, symSize: 0x14 }
  - { offsetInCU: 0x13A39, offset: 0x13A39, size: 0x8, addend: 0x0, symName: __ZNKSt3__16vectorIbNS_9allocatorIbEEE8max_sizeEv, symObjAddr: 0x3954, symBinAddr: 0x10000603C, symSize: 0x7C }
  - { offsetInCU: 0x13A7F, offset: 0x13A7F, size: 0x8, addend: 0x0, symName: __ZNKSt3__16vectorIbNS_9allocatorIbEEE20__throw_length_errorB7v160006Ev, symObjAddr: 0x39D0, symBinAddr: 0x1000060B8, symSize: 0x1C }
  - { offsetInCU: 0x13AA5, offset: 0x13AA5, size: 0x8, addend: 0x0, symName: __ZNSt3__16vectorIbNS_9allocatorIbEEE7__allocB7v160006Ev, symObjAddr: 0x3A28, symBinAddr: 0x100006110, symSize: 0x28 }
  - { offsetInCU: 0x13ACB, offset: 0x13ACB, size: 0x8, addend: 0x0, symName: __ZNSt3__16vectorIbNS_9allocatorIbEEE26__external_cap_to_internalB7v160006Em, symObjAddr: 0x3A50, symBinAddr: 0x100006138, symSize: 0x24 }
  - { offsetInCU: 0x13AEF, offset: 0x13AEF, size: 0x8, addend: 0x0, symName: __ZNSt3__16vectorIbNS_9allocatorIbEEE5__capB7v160006Ev, symObjAddr: 0x3A74, symBinAddr: 0x10000615C, symSize: 0x28 }
  - { offsetInCU: 0x13B20, offset: 0x13B20, size: 0x8, addend: 0x0, symName: __ZNSt3__116allocator_traitsINS_9allocatorImEEE8max_sizeB7v160006IS2_vvEEmRKS2_, symObjAddr: 0x3A9C, symBinAddr: 0x100006184, symSize: 0x28 }
  - { offsetInCU: 0x13B4B, offset: 0x13B4B, size: 0x8, addend: 0x0, symName: __ZNKSt3__16vectorIbNS_9allocatorIbEEE7__allocB7v160006Ev, symObjAddr: 0x3AC4, symBinAddr: 0x1000061AC, symSize: 0x28 }
  - { offsetInCU: 0x13B71, offset: 0x13B71, size: 0x8, addend: 0x0, symName: __ZNSt3__16vectorIbNS_9allocatorIbEEE26__internal_cap_to_externalB7v160006Em, symObjAddr: 0x3AEC, symBinAddr: 0x1000061D4, symSize: 0x18 }
  - { offsetInCU: 0x13B95, offset: 0x13B95, size: 0x8, addend: 0x0, symName: __ZNKSt3__117__compressed_pairImNS_9allocatorImEEE6secondB7v160006Ev, symObjAddr: 0x3B04, symBinAddr: 0x1000061EC, symSize: 0x24 }
  - { offsetInCU: 0x13BBB, offset: 0x13BBB, size: 0x8, addend: 0x0, symName: __ZNKSt3__122__compressed_pair_elemINS_9allocatorImEELi1ELb1EE5__getB7v160006Ev, symObjAddr: 0x3B28, symBinAddr: 0x100006210, symSize: 0x14 }
  - { offsetInCU: 0x13BE1, offset: 0x13BE1, size: 0x8, addend: 0x0, symName: __ZNSt3__19allocatorImE17allocate_at_leastB7v160006Em, symObjAddr: 0x3B78, symBinAddr: 0x100006260, symSize: 0x40 }
  - { offsetInCU: 0x13C15, offset: 0x13C15, size: 0x8, addend: 0x0, symName: __ZNSt3__19allocatorImE8allocateB7v160006Em, symObjAddr: 0x3BB8, symBinAddr: 0x1000062A0, symSize: 0x58 }
  - { offsetInCU: 0x13C49, offset: 0x13C49, size: 0x8, addend: 0x0, symName: __ZNSt3__117__compressed_pairImNS_9allocatorImEEE6secondB7v160006Ev, symObjAddr: 0x3C10, symBinAddr: 0x1000062F8, symSize: 0x24 }
  - { offsetInCU: 0x13C6F, offset: 0x13C6F, size: 0x8, addend: 0x0, symName: __ZNSt3__122__compressed_pair_elemINS_9allocatorImEELi1ELb1EE5__getB7v160006Ev, symObjAddr: 0x3C34, symBinAddr: 0x10000631C, symSize: 0x14 }
  - { offsetInCU: 0x13C95, offset: 0x13C95, size: 0x8, addend: 0x0, symName: __ZNSt3__117__compressed_pairImNS_9allocatorImEEE5firstB7v160006Ev, symObjAddr: 0x3C48, symBinAddr: 0x100006330, symSize: 0x24 }
  - { offsetInCU: 0x13CBB, offset: 0x13CBB, size: 0x8, addend: 0x0, symName: __ZNSt3__122__compressed_pair_elemImLi0ELb0EE5__getB7v160006Ev, symObjAddr: 0x3C6C, symBinAddr: 0x100006354, symSize: 0x14 }
  - { offsetInCU: 0x13CE1, offset: 0x13CE1, size: 0x8, addend: 0x0, symName: __ZNSt3__16vectorIbNS_9allocatorIbEEE11__make_iterB7v160006Em, symObjAddr: 0x3D14, symBinAddr: 0x1000063FC, symSize: 0x64 }
  - { offsetInCU: 0x13D16, offset: 0x13D16, size: 0x8, addend: 0x0, symName: __ZNSt3__114__bit_iteratorINS_6vectorIbNS_9allocatorIbEEEELb0ELm0EEC1B7v160006ERKS5_, symObjAddr: 0x3ED8, symBinAddr: 0x1000065C0, symSize: 0x34 }
  - { offsetInCU: 0x13D4F, offset: 0x13D4F, size: 0x8, addend: 0x0, symName: __ZNSt3__114__bit_iteratorINS_6vectorIbNS_9allocatorIbEEEELb0ELm0EEC2B7v160006ERKS5_, symObjAddr: 0x4138, symBinAddr: 0x100006820, symSize: 0x30 }
  - { offsetInCU: 0x13D88, offset: 0x13D88, size: 0x8, addend: 0x0, symName: __ZNSt3__114__bit_iteratorINS_6vectorIbNS_9allocatorIbEEEELb0ELm0EEC1B7v160006EPmj, symObjAddr: 0x4210, symBinAddr: 0x1000068F8, symSize: 0x3C }
  - { offsetInCU: 0x13DD0, offset: 0x13DD0, size: 0x8, addend: 0x0, symName: __ZNSt3__114__bit_iteratorINS_6vectorIbNS_9allocatorIbEEEELb0ELm0EEC2B7v160006EPmj, symObjAddr: 0x424C, symBinAddr: 0x100006934, symSize: 0x2C }
  - { offsetInCU: 0x13E18, offset: 0x13E18, size: 0x8, addend: 0x0, symName: __ZNSt3__16vectorIiNS_9allocatorIiEEE9push_backB7v160006EOi, symObjAddr: 0x4278, symBinAddr: 0x100006960, symSize: 0x6C }
  - { offsetInCU: 0x13E4F, offset: 0x13E4F, size: 0x8, addend: 0x0, symName: __ZNSt3__16vectorIiNS_9allocatorIiEEE22__construct_one_at_endB7v160006IJiEEEvDpOT_, symObjAddr: 0x42E4, symBinAddr: 0x1000069CC, symSize: 0x90 }
  - { offsetInCU: 0x13E9E, offset: 0x13E9E, size: 0x8, addend: 0x0, symName: __ZNSt3__16vectorIiNS_9allocatorIiEEE21__push_back_slow_pathIiEEvOT_, symObjAddr: 0x4374, symBinAddr: 0x100006A5C, symSize: 0xD8 }
  - { offsetInCU: 0x13EFC, offset: 0x13EFC, size: 0x8, addend: 0x0, symName: __ZNSt3__116allocator_traitsINS_9allocatorIiEEE9constructB7v160006IiJiEvvEEvRS2_PT_DpOT0_, symObjAddr: 0x444C, symBinAddr: 0x100006B34, symSize: 0x30 }
  - { offsetInCU: 0x13F50, offset: 0x13F50, size: 0x8, addend: 0x0, symName: __ZNKSt3__16vectorIiNS_9allocatorIiEEE11__recommendB7v160006Em, symObjAddr: 0x44A8, symBinAddr: 0x100006B90, symSize: 0xB4 }
  - { offsetInCU: 0x13FA5, offset: 0x13FA5, size: 0x8, addend: 0x0, symName: __ZNSt3__114__split_bufferIiRNS_9allocatorIiEEEC1EmmS3_, symObjAddr: 0x455C, symBinAddr: 0x100006C44, symSize: 0x44 }
  - { offsetInCU: 0x13FFB, offset: 0x13FFB, size: 0x8, addend: 0x0, symName: __ZNSt3__114__split_bufferIiRNS_9allocatorIiEEED1Ev, symObjAddr: 0x46B8, symBinAddr: 0x100006DA0, symSize: 0x2C }
  - { offsetInCU: 0x14027, offset: 0x14027, size: 0x8, addend: 0x0, symName: __ZNSt3__114__split_bufferIiRNS_9allocatorIiEEEC2EmmS3_, symObjAddr: 0x4764, symBinAddr: 0x100006E4C, symSize: 0xD4 }
  - { offsetInCU: 0x1409A, offset: 0x1409A, size: 0x8, addend: 0x0, symName: __ZNSt3__117__compressed_pairIPiRNS_9allocatorIiEEEC1B7v160006IDnS4_EEOT_OT0_, symObjAddr: 0x4838, symBinAddr: 0x100006F20, symSize: 0x3C }
  - { offsetInCU: 0x140F2, offset: 0x140F2, size: 0x8, addend: 0x0, symName: __ZNSt3__114__split_bufferIiRNS_9allocatorIiEEE7__allocB7v160006Ev, symObjAddr: 0x4874, symBinAddr: 0x100006F5C, symSize: 0x28 }
  - { offsetInCU: 0x14118, offset: 0x14118, size: 0x8, addend: 0x0, symName: __ZNSt3__114__split_bufferIiRNS_9allocatorIiEEE9__end_capB7v160006Ev, symObjAddr: 0x489C, symBinAddr: 0x100006F84, symSize: 0x28 }
  - { offsetInCU: 0x1413E, offset: 0x1413E, size: 0x8, addend: 0x0, symName: __ZNSt3__117__compressed_pairIPiRNS_9allocatorIiEEEC2B7v160006IDnS4_EEOT_OT0_, symObjAddr: 0x48C4, symBinAddr: 0x100006FAC, symSize: 0x48 }
  - { offsetInCU: 0x14196, offset: 0x14196, size: 0x8, addend: 0x0, symName: __ZNSt3__122__compressed_pair_elemIRNS_9allocatorIiEELi1ELb0EEC2B7v160006IS3_vEEOT_, symObjAddr: 0x490C, symBinAddr: 0x100006FF4, symSize: 0x20 }
  - { offsetInCU: 0x141D8, offset: 0x141D8, size: 0x8, addend: 0x0, symName: __ZNSt3__117__compressed_pairIPiRNS_9allocatorIiEEE6secondB7v160006Ev, symObjAddr: 0x492C, symBinAddr: 0x100007014, symSize: 0x28 }
  - { offsetInCU: 0x141FE, offset: 0x141FE, size: 0x8, addend: 0x0, symName: __ZNSt3__122__compressed_pair_elemIRNS_9allocatorIiEELi1ELb0EE5__getB7v160006Ev, symObjAddr: 0x4954, symBinAddr: 0x10000703C, symSize: 0x18 }
  - { offsetInCU: 0x14224, offset: 0x14224, size: 0x8, addend: 0x0, symName: __ZNSt3__117__compressed_pairIPiRNS_9allocatorIiEEE5firstB7v160006Ev, symObjAddr: 0x496C, symBinAddr: 0x100007054, symSize: 0x24 }
  - { offsetInCU: 0x14278, offset: 0x14278, size: 0x8, addend: 0x0, symName: __ZNKSt3__111__move_loopINS_17_ClassicAlgPolicyEEclB7v160006INS_16reverse_iteratorIPiEES6_S6_EENS_4pairIT_T1_EES8_T0_S9_, symObjAddr: 0x4D0C, symBinAddr: 0x1000073F4, symSize: 0xA0 }
  - { offsetInCU: 0x142E3, offset: 0x142E3, size: 0x8, addend: 0x0, symName: __ZNSt3__119__unwrap_range_implINS_16reverse_iteratorIPiEES3_E8__unwrapB7v160006ES3_S3_, symObjAddr: 0x4EF8, symBinAddr: 0x1000075E0, symSize: 0x84 }
  - { offsetInCU: 0x1431A, offset: 0x1431A, size: 0x8, addend: 0x0, symName: __ZNSt3__14pairINS_16reverse_iteratorIPiEES3_EC1B7v160006IS3_S3_LPv0EEEOT_OT0_, symObjAddr: 0x4F7C, symBinAddr: 0x100007664, symSize: 0x3C }
  - { offsetInCU: 0x14378, offset: 0x14378, size: 0x8, addend: 0x0, symName: __ZNSt3__14pairINS_16reverse_iteratorIPiEES3_EC2B7v160006IS3_S3_LPv0EEEOT_OT0_, symObjAddr: 0x4FB8, symBinAddr: 0x1000076A0, symSize: 0x34 }
  - { offsetInCU: 0x143D6, offset: 0x143D6, size: 0x8, addend: 0x0, symName: __ZNSt3__18_IterOpsINS_17_ClassicAlgPolicyEE11__iter_moveB7v160006IRNS_16reverse_iteratorIPiEEEENS_9enable_ifIXsr12is_referenceIDTdeclsr3stdE7declvalIRT_EEEEE5valueEDTclsr3stdE4movedeclsr3stdE7declvalISA_EEEEE4typeEOS9_, symObjAddr: 0x4FEC, symBinAddr: 0x1000076D4, symSize: 0x28 }
  - { offsetInCU: 0x14402, offset: 0x14402, size: 0x8, addend: 0x0, symName: __ZNKSt3__116reverse_iteratorIPiEdeB7v160006Ev, symObjAddr: 0x5014, symBinAddr: 0x1000076FC, symSize: 0x28 }
  - { offsetInCU: 0x14436, offset: 0x14436, size: 0x8, addend: 0x0, symName: __ZNSt3__18_IterOpsINS_17_ClassicAlgPolicyEE25__validate_iter_referenceB7v160006IRNS_16reverse_iteratorIPiEEEEvv, symObjAddr: 0x503C, symBinAddr: 0x100007724, symSize: 0x4 }
  - { offsetInCU: 0x14454, offset: 0x14454, size: 0x8, addend: 0x0, symName: __ZNSt3__118__unwrap_iter_implINS_16reverse_iteratorIPiEELb0EE8__unwrapB7v160006ES3_, symObjAddr: 0x5040, symBinAddr: 0x100007728, symSize: 0x24 }
  - { offsetInCU: 0x14477, offset: 0x14477, size: 0x8, addend: 0x0, symName: __ZNSt3__119__unwrap_range_implINS_16reverse_iteratorIPiEES3_E8__rewrapB7v160006ES3_S3_, symObjAddr: 0x5064, symBinAddr: 0x10000774C, symSize: 0x5C }
  - { offsetInCU: 0x144A8, offset: 0x144A8, size: 0x8, addend: 0x0, symName: __ZNSt3__118__unwrap_iter_implINS_16reverse_iteratorIPiEELb0EE8__rewrapB7v160006ES3_S3_, symObjAddr: 0x50C0, symBinAddr: 0x1000077A8, symSize: 0x2C }
  - { offsetInCU: 0x144D5, offset: 0x144D5, size: 0x8, addend: 0x0, symName: __ZNSt3__114__split_bufferIiRNS_9allocatorIiEEED2Ev, symObjAddr: 0x50EC, symBinAddr: 0x1000077D4, symSize: 0x8C }
  - { offsetInCU: 0x14501, offset: 0x14501, size: 0x8, addend: 0x0, symName: __ZNSt3__114__split_bufferIiRNS_9allocatorIiEEE5clearB7v160006Ev, symObjAddr: 0x5178, symBinAddr: 0x100007860, symSize: 0x28 }
  - { offsetInCU: 0x14527, offset: 0x14527, size: 0x8, addend: 0x0, symName: __ZNKSt3__114__split_bufferIiRNS_9allocatorIiEEE8capacityB7v160006Ev, symObjAddr: 0x51A0, symBinAddr: 0x100007888, symSize: 0x40 }
  - { offsetInCU: 0x1454D, offset: 0x1454D, size: 0x8, addend: 0x0, symName: __ZNSt3__114__split_bufferIiRNS_9allocatorIiEEE17__destruct_at_endB7v160006EPi, symObjAddr: 0x51E0, symBinAddr: 0x1000078C8, symSize: 0x2C }
  - { offsetInCU: 0x14581, offset: 0x14581, size: 0x8, addend: 0x0, symName: __ZNSt3__114__split_bufferIiRNS_9allocatorIiEEE17__destruct_at_endB7v160006EPiNS_17integral_constantIbLb0EEE, symObjAddr: 0x520C, symBinAddr: 0x1000078F4, symSize: 0x80 }
  - { offsetInCU: 0x145C1, offset: 0x145C1, size: 0x8, addend: 0x0, symName: __ZNKSt3__114__split_bufferIiRNS_9allocatorIiEEE9__end_capB7v160006Ev, symObjAddr: 0x528C, symBinAddr: 0x100007974, symSize: 0x28 }
  - { offsetInCU: 0x145E7, offset: 0x145E7, size: 0x8, addend: 0x0, symName: __ZNKSt3__117__compressed_pairIPiRNS_9allocatorIiEEE5firstB7v160006Ev, symObjAddr: 0x52B4, symBinAddr: 0x10000799C, symSize: 0x24 }
  - { offsetInCU: 0x1460D, offset: 0x1460D, size: 0x8, addend: 0x0, symName: __ZNSt3__16vectorIiNS_9allocatorIiEEEC1EmRKi, symObjAddr: 0x52D8, symBinAddr: 0x1000079C0, symSize: 0x3C }
  - { offsetInCU: 0x14657, offset: 0x14657, size: 0x8, addend: 0x0, symName: __ZNSt3__18functionIFviEEC1IZN6TwoSat11satisfiableEvEUliE_vEET_, symObjAddr: 0x5314, symBinAddr: 0x1000079FC, symSize: 0x34 }
  - { offsetInCU: 0x1469D, offset: 0x1469D, size: 0x8, addend: 0x0, symName: __ZNKSt3__18functionIFviEEclEi, symObjAddr: 0x5348, symBinAddr: 0x100007A30, symSize: 0x30 }
  - { offsetInCU: 0x146D4, offset: 0x146D4, size: 0x8, addend: 0x0, symName: __ZNSt3__16vectorIbNS_9allocatorIbEEEixB7v160006Em, symObjAddr: 0x5378, symBinAddr: 0x100007A60, symSize: 0x3C }
  - { offsetInCU: 0x14709, offset: 0x14709, size: 0x8, addend: 0x0, symName: __ZNSt3__115__bit_referenceINS_6vectorIbNS_9allocatorIbEEEELb1EEaSB7v160006Eb, symObjAddr: 0x53B4, symBinAddr: 0x100007A9C, symSize: 0x6C }
  - { offsetInCU: 0x1473D, offset: 0x1473D, size: 0x8, addend: 0x0, symName: __ZNSt3__18functionIFviEED1Ev, symObjAddr: 0x5420, symBinAddr: 0x100007B08, symSize: 0x2C }
  - { offsetInCU: 0x14769, offset: 0x14769, size: 0x8, addend: 0x0, symName: __ZNSt3__16vectorIiNS_9allocatorIiEEEC2EmRKi, symObjAddr: 0x544C, symBinAddr: 0x100007B34, symSize: 0xE4 }
  - { offsetInCU: 0x147C8, offset: 0x147C8, size: 0x8, addend: 0x0, symName: __ZNSt3__16vectorIiNS_9allocatorIiEEE18__construct_at_endEmRKi, symObjAddr: 0x5530, symBinAddr: 0x100007C18, symSize: 0xD0 }
  - { offsetInCU: 0x1484F, offset: 0x1484F, size: 0x8, addend: 0x0, symName: __ZNSt3__116allocator_traitsINS_9allocatorIiEEE9constructB7v160006IiJRKiEvvEEvRS2_PT_DpOT0_, symObjAddr: 0x5600, symBinAddr: 0x100007CE8, symSize: 0x30 }
  - { offsetInCU: 0x148A3, offset: 0x148A3, size: 0x8, addend: 0x0, symName: __ZNSt3__18functionIFviEEC2IZN6TwoSat11satisfiableEvEUliE_vEET_, symObjAddr: 0x565C, symBinAddr: 0x100007D44, symSize: 0x34 }
  - { offsetInCU: 0x148E9, offset: 0x148E9, size: 0x8, addend: 0x0, symName: __ZNSt3__110__function12__value_funcIFviEEC1B7v160006IZN6TwoSat11satisfiableEvEUliE_vEEOT_, symObjAddr: 0x5690, symBinAddr: 0x100007D78, symSize: 0x50 }
  - { offsetInCU: 0x1492C, offset: 0x1492C, size: 0x8, addend: 0x0, symName: __ZNSt3__19allocatorIZN6TwoSat11satisfiableEvEUliE_EC1B7v160006Ev, symObjAddr: 0x56E0, symBinAddr: 0x100007DC8, symSize: 0x2C }
  - { offsetInCU: 0x14956, offset: 0x14956, size: 0x8, addend: 0x0, symName: __ZNSt3__110__function12__value_funcIFviEEC1B7v160006IZN6TwoSat11satisfiableEvEUliE_NS_9allocatorIS6_EEEEOT_RKT0_, symObjAddr: 0x570C, symBinAddr: 0x100007DF4, symSize: 0x3C }
  - { offsetInCU: 0x149B0, offset: 0x149B0, size: 0x8, addend: 0x0, symName: __ZNSt3__19allocatorIZN6TwoSat11satisfiableEvEUliE_EC2B7v160006Ev, symObjAddr: 0x5748, symBinAddr: 0x100007E30, symSize: 0x2C }
  - { offsetInCU: 0x149DA, offset: 0x149DA, size: 0x8, addend: 0x0, symName: __ZNSt3__116__non_trivial_ifILb1ENS_9allocatorIZN6TwoSat11satisfiableEvEUliE_EEEC2B7v160006Ev, symObjAddr: 0x5774, symBinAddr: 0x100007E5C, symSize: 0x14 }
  - { offsetInCU: 0x14A04, offset: 0x14A04, size: 0x8, addend: 0x0, symName: __ZNSt3__110__function12__value_funcIFviEEC2B7v160006IZN6TwoSat11satisfiableEvEUliE_NS_9allocatorIS6_EEEEOT_RKT0_, symObjAddr: 0x5788, symBinAddr: 0x100007E70, symSize: 0xF4 }
  - { offsetInCU: 0x14AA0, offset: 0x14AA0, size: 0x8, addend: 0x0, symName: __ZNSt3__19allocatorINS_10__function6__funcIZN6TwoSat11satisfiableEvEUliE_NS0_IS4_EEFviEEEEC1B7v160006IS4_EERKNS0_IT_EE, symObjAddr: 0x5894, symBinAddr: 0x100007F7C, symSize: 0x34 }
  - { offsetInCU: 0x14ADD, offset: 0x14ADD, size: 0x8, addend: 0x0, symName: __ZNSt3__19allocatorINS_10__function6__funcIZN6TwoSat11satisfiableEvEUliE_NS0_IS4_EEFviEEEE8allocateB7v160006Em, symObjAddr: 0x58C8, symBinAddr: 0x100007FB0, symSize: 0x5C }
  - { offsetInCU: 0x14B23, offset: 0x14B23, size: 0x8, addend: 0x0, symName: __ZNSt3__122__allocator_destructorINS_9allocatorINS_10__function6__funcIZN6TwoSat11satisfiableEvEUliE_NS1_IS5_EEFviEEEEEEC1B7v160006ERS9_m, symObjAddr: 0x5924, symBinAddr: 0x10000800C, symSize: 0x3C }
  - { offsetInCU: 0x14C0A, offset: 0x14C0A, size: 0x8, addend: 0x0, symName: __ZNSt3__110unique_ptrINS_10__function6__baseIFviEEENS_22__allocator_destructorINS_9allocatorINS1_6__funcIZN6TwoSat11satisfiableEvEUliE_NS6_IS9_EES3_EEEEEEEC1B7v160006ILb1EvEEPSB_NS_16__dependent_typeINS_27__unique_ptr_deleter_sfinaeISD_EEXT_EE20__good_rval_ref_typeE, symObjAddr: 0x5960, symBinAddr: 0x100008048, symSize: 0x3C }
  - { offsetInCU: 0x14C5B, offset: 0x14C5B, size: 0x8, addend: 0x0, symName: __ZNKSt3__110unique_ptrINS_10__function6__baseIFviEEENS_22__allocator_destructorINS_9allocatorINS1_6__funcIZN6TwoSat11satisfiableEvEUliE_NS6_IS9_EES3_EEEEEEE3getB7v160006Ev, symObjAddr: 0x599C, symBinAddr: 0x100008084, symSize: 0x28 }
  - { offsetInCU: 0x14C81, offset: 0x14C81, size: 0x8, addend: 0x0, symName: __ZNSt3__110__function6__funcIZN6TwoSat11satisfiableEvEUliE_NS_9allocatorIS3_EEFviEEC1B7v160006EOS3_OS5_, symObjAddr: 0x59C4, symBinAddr: 0x1000080AC, symSize: 0x3C }
  - { offsetInCU: 0x14CC9, offset: 0x14CC9, size: 0x8, addend: 0x0, symName: __ZNSt3__110unique_ptrINS_10__function6__baseIFviEEENS_22__allocator_destructorINS_9allocatorINS1_6__funcIZN6TwoSat11satisfiableEvEUliE_NS6_IS9_EES3_EEEEEEE7releaseB7v160006Ev, symObjAddr: 0x5A00, symBinAddr: 0x1000080E8, symSize: 0x44 }
  - { offsetInCU: 0x14CFE, offset: 0x14CFE, size: 0x8, addend: 0x0, symName: __ZNSt3__110unique_ptrINS_10__function6__baseIFviEEENS_22__allocator_destructorINS_9allocatorINS1_6__funcIZN6TwoSat11satisfiableEvEUliE_NS6_IS9_EES3_EEEEEEED1B7v160006Ev, symObjAddr: 0x5A44, symBinAddr: 0x10000812C, symSize: 0x2C }
  - { offsetInCU: 0x14D28, offset: 0x14D28, size: 0x8, addend: 0x0, symName: __ZNSt3__19allocatorINS_10__function6__funcIZN6TwoSat11satisfiableEvEUliE_NS0_IS4_EEFviEEEEC2B7v160006IS4_EERKNS0_IT_EE, symObjAddr: 0x5A70, symBinAddr: 0x100008158, symSize: 0x30 }
  - { offsetInCU: 0x14D65, offset: 0x14D65, size: 0x8, addend: 0x0, symName: __ZNSt3__116__non_trivial_ifILb1ENS_9allocatorINS_10__function6__funcIZN6TwoSat11satisfiableEvEUliE_NS1_IS5_EEFviEEEEEEC2B7v160006Ev, symObjAddr: 0x5AA0, symBinAddr: 0x100008188, symSize: 0x14 }
  - { offsetInCU: 0x14D9A, offset: 0x14D9A, size: 0x8, addend: 0x0, symName: __ZNSt3__116allocator_traitsINS_9allocatorINS_10__function6__funcIZN6TwoSat11satisfiableEvEUliE_NS1_IS5_EEFviEEEEEE8max_sizeB7v160006IS9_vvEEmRKS9_, symObjAddr: 0x5AB4, symBinAddr: 0x10000819C, symSize: 0x28 }
  - { offsetInCU: 0x14DC5, offset: 0x14DC5, size: 0x8, addend: 0x0, symName: __ZNSt3__122__allocator_destructorINS_9allocatorINS_10__function6__funcIZN6TwoSat11satisfiableEvEUliE_NS1_IS5_EEFviEEEEEEC2B7v160006ERS9_m, symObjAddr: 0x5ADC, symBinAddr: 0x1000081C4, symSize: 0x2C }
  - { offsetInCU: 0x14E0B, offset: 0x14E0B, size: 0x8, addend: 0x0, symName: __ZNSt3__110unique_ptrINS_10__function6__baseIFviEEENS_22__allocator_destructorINS_9allocatorINS1_6__funcIZN6TwoSat11satisfiableEvEUliE_NS6_IS9_EES3_EEEEEEEC2B7v160006ILb1EvEEPSB_NS_16__dependent_typeINS_27__unique_ptr_deleter_sfinaeISD_EEXT_EE20__good_rval_ref_typeE, symObjAddr: 0x5B08, symBinAddr: 0x1000081F0, symSize: 0x48 }
  - { offsetInCU: 0x14E5C, offset: 0x14E5C, size: 0x8, addend: 0x0, symName: __ZNSt3__117__compressed_pairIPNS_10__function6__funcIZN6TwoSat11satisfiableEvEUliE_NS_9allocatorIS4_EEFviEEENS_22__allocator_destructorINS5_IS8_EEEEEC1B7v160006IRS9_SC_EEOT_OT0_, symObjAddr: 0x5B50, symBinAddr: 0x100008238, symSize: 0x3C }
  - { offsetInCU: 0x14EB4, offset: 0x14EB4, size: 0x8, addend: 0x0, symName: __ZNSt3__117__compressed_pairIPNS_10__function6__funcIZN6TwoSat11satisfiableEvEUliE_NS_9allocatorIS4_EEFviEEENS_22__allocator_destructorINS5_IS8_EEEEEC2B7v160006IRS9_SC_EEOT_OT0_, symObjAddr: 0x5B8C, symBinAddr: 0x100008274, symSize: 0x48 }
  - { offsetInCU: 0x14F0C, offset: 0x14F0C, size: 0x8, addend: 0x0, symName: __ZNSt3__122__compressed_pair_elemIPNS_10__function6__funcIZN6TwoSat11satisfiableEvEUliE_NS_9allocatorIS4_EEFviEEELi0ELb0EEC2B7v160006IRS9_vEEOT_, symObjAddr: 0x5BD4, symBinAddr: 0x1000082BC, symSize: 0x24 }
  - { offsetInCU: 0x14F4E, offset: 0x14F4E, size: 0x8, addend: 0x0, symName: __ZNSt3__122__compressed_pair_elemINS_22__allocator_destructorINS_9allocatorINS_10__function6__funcIZN6TwoSat11satisfiableEvEUliE_NS2_IS6_EEFviEEEEEEELi1ELb0EEC2B7v160006ISB_vEEOT_, symObjAddr: 0x5BF8, symBinAddr: 0x1000082E0, symSize: 0x24 }
  - { offsetInCU: 0x14F90, offset: 0x14F90, size: 0x8, addend: 0x0, symName: __ZNKSt3__117__compressed_pairIPNS_10__function6__funcIZN6TwoSat11satisfiableEvEUliE_NS_9allocatorIS4_EEFviEEENS_22__allocator_destructorINS5_IS8_EEEEE5firstB7v160006Ev, symObjAddr: 0x5C1C, symBinAddr: 0x100008304, symSize: 0x24 }
  - { offsetInCU: 0x14FB6, offset: 0x14FB6, size: 0x8, addend: 0x0, symName: __ZNKSt3__122__compressed_pair_elemIPNS_10__function6__funcIZN6TwoSat11satisfiableEvEUliE_NS_9allocatorIS4_EEFviEEELi0ELb0EE5__getB7v160006Ev, symObjAddr: 0x5C40, symBinAddr: 0x100008328, symSize: 0x14 }
  - { offsetInCU: 0x14FDC, offset: 0x14FDC, size: 0x8, addend: 0x0, symName: __ZNSt3__110__function6__funcIZN6TwoSat11satisfiableEvEUliE_NS_9allocatorIS3_EEFviEEC2B7v160006EOS3_OS5_, symObjAddr: 0x5C54, symBinAddr: 0x10000833C, symSize: 0x88 }
  - { offsetInCU: 0x15024, offset: 0x15024, size: 0x8, addend: 0x0, symName: __ZNSt3__110__function6__baseIFviEEC2B7v160006Ev, symObjAddr: 0x5CDC, symBinAddr: 0x1000083C4, symSize: 0x24 }
  - { offsetInCU: 0x1504E, offset: 0x1504E, size: 0x8, addend: 0x0, symName: __ZNSt3__110__function12__alloc_funcIZN6TwoSat11satisfiableEvEUliE_NS_9allocatorIS3_EEFviEEC1B7v160006EOS3_OS5_, symObjAddr: 0x5D00, symBinAddr: 0x1000083E8, symSize: 0x3C }
  - { offsetInCU: 0x15094, offset: 0x15094, size: 0x8, addend: 0x0, symName: __ZNSt3__110__function6__baseIFviEED2Ev, symObjAddr: 0x5D3C, symBinAddr: 0x100008424, symSize: 0x14 }
  - { offsetInCU: 0x150BE, offset: 0x150BE, size: 0x8, addend: 0x0, symName: __ZNSt3__110__function6__funcIZN6TwoSat11satisfiableEvEUliE_NS_9allocatorIS3_EEFviEED1Ev, symObjAddr: 0x5D50, symBinAddr: 0x100008438, symSize: 0x2C }
  - { offsetInCU: 0x150EB, offset: 0x150EB, size: 0x8, addend: 0x0, symName: __ZNSt3__110__function6__funcIZN6TwoSat11satisfiableEvEUliE_NS_9allocatorIS3_EEFviEED0Ev, symObjAddr: 0x5D7C, symBinAddr: 0x100008464, symSize: 0x30 }
  - { offsetInCU: 0x15118, offset: 0x15118, size: 0x8, addend: 0x0, symName: __ZNKSt3__110__function6__funcIZN6TwoSat11satisfiableEvEUliE_NS_9allocatorIS3_EEFviEE7__cloneEv, symObjAddr: 0x5DAC, symBinAddr: 0x100008494, symSize: 0xFC }
  - { offsetInCU: 0x1516A, offset: 0x1516A, size: 0x8, addend: 0x0, symName: __ZNKSt3__110__function6__funcIZN6TwoSat11satisfiableEvEUliE_NS_9allocatorIS3_EEFviEE7__cloneEPNS0_6__baseIS6_EE, symObjAddr: 0x5EA8, symBinAddr: 0x100008590, symSize: 0x58 }
  - { offsetInCU: 0x151A1, offset: 0x151A1, size: 0x8, addend: 0x0, symName: __ZNSt3__110__function6__funcIZN6TwoSat11satisfiableEvEUliE_NS_9allocatorIS3_EEFviEE7destroyEv, symObjAddr: 0x5F00, symBinAddr: 0x1000085E8, symSize: 0x28 }
  - { offsetInCU: 0x151C9, offset: 0x151C9, size: 0x8, addend: 0x0, symName: __ZNSt3__110__function6__funcIZN6TwoSat11satisfiableEvEUliE_NS_9allocatorIS3_EEFviEE18destroy_deallocateEv, symObjAddr: 0x5F28, symBinAddr: 0x100008610, symSize: 0x58 }
  - { offsetInCU: 0x1520C, offset: 0x1520C, size: 0x8, addend: 0x0, symName: __ZNSt3__110__function6__funcIZN6TwoSat11satisfiableEvEUliE_NS_9allocatorIS3_EEFviEEclEOi, symObjAddr: 0x5F80, symBinAddr: 0x100008668, symSize: 0x30 }
  - { offsetInCU: 0x15243, offset: 0x15243, size: 0x8, addend: 0x0, symName: __ZNKSt3__110__function6__funcIZN6TwoSat11satisfiableEvEUliE_NS_9allocatorIS3_EEFviEE6targetERKSt9type_info, symObjAddr: 0x5FB0, symBinAddr: 0x100008698, symSize: 0x60 }
  - { offsetInCU: 0x1527A, offset: 0x1527A, size: 0x8, addend: 0x0, symName: __ZNKSt3__110__function6__funcIZN6TwoSat11satisfiableEvEUliE_NS_9allocatorIS3_EEFviEE11target_typeEv, symObjAddr: 0x6010, symBinAddr: 0x1000086F8, symSize: 0x18 }
  - { offsetInCU: 0x152A2, offset: 0x152A2, size: 0x8, addend: 0x0, symName: __ZNSt3__110__function6__baseIFviEED1Ev, symObjAddr: 0x6028, symBinAddr: 0x100008710, symSize: 0x14 }
  - { offsetInCU: 0x152CC, offset: 0x152CC, size: 0x8, addend: 0x0, symName: __ZNSt3__110__function6__baseIFviEED0Ev, symObjAddr: 0x603C, symBinAddr: 0x100008724, symSize: 0xC }
  - { offsetInCU: 0x152F6, offset: 0x152F6, size: 0x8, addend: 0x0, symName: __ZNSt3__110__function12__alloc_funcIZN6TwoSat11satisfiableEvEUliE_NS_9allocatorIS3_EEFviEEC2B7v160006EOS3_OS5_, symObjAddr: 0x6048, symBinAddr: 0x100008730, symSize: 0x5C }
  - { offsetInCU: 0x1533C, offset: 0x1533C, size: 0x8, addend: 0x0, symName: __ZNSt3__117__compressed_pairIZN6TwoSat11satisfiableEvEUliE_NS_9allocatorIS2_EEEC1B7v160006IJOS2_EJOS4_EEENS_21piecewise_construct_tENS_5tupleIJDpT_EEENSA_IJDpT0_EEE, symObjAddr: 0x60FC, symBinAddr: 0x1000087E4, symSize: 0x3C }
  - { offsetInCU: 0x153A6, offset: 0x153A6, size: 0x8, addend: 0x0, symName: __ZNSt3__15tupleIJOZN6TwoSat11satisfiableEvEUliE_EEC1B7v160006IJS2_ELi0EEEDpOT_, symObjAddr: 0x6138, symBinAddr: 0x100008820, symSize: 0x34 }
  - { offsetInCU: 0x153F0, offset: 0x153F0, size: 0x8, addend: 0x0, symName: __ZNSt3__15tupleIJOZN6TwoSat11satisfiableEvEUliE_EEC2B7v160006IJS2_ELi0EEEDpOT_, symObjAddr: 0x616C, symBinAddr: 0x100008854, symSize: 0x34 }
  - { offsetInCU: 0x1543A, offset: 0x1543A, size: 0x8, addend: 0x0, symName: __ZNSt3__112__tuple_implINS_15__tuple_indicesIJLm0EEEEJOZN6TwoSat11satisfiableEvEUliE_EEC1B7v160006IJLm0EEJS5_EJEJEJS4_EEENS1_IJXspT_EEEENS_13__tuple_typesIJDpT0_EEENS1_IJXspT1_EEEENS9_IJDpT2_EEEDpOT3_, symObjAddr: 0x61A0, symBinAddr: 0x100008888, symSize: 0x34 }
  - { offsetInCU: 0x154CB, offset: 0x154CB, size: 0x8, addend: 0x0, symName: __ZNSt3__112__tuple_implINS_15__tuple_indicesIJLm0EEEEJOZN6TwoSat11satisfiableEvEUliE_EEC2B7v160006IJLm0EEJS5_EJEJEJS4_EEENS1_IJXspT_EEEENS_13__tuple_typesIJDpT0_EEENS1_IJXspT1_EEEENS9_IJDpT2_EEEDpOT3_, symObjAddr: 0x61D4, symBinAddr: 0x1000088BC, symSize: 0x34 }
  - { offsetInCU: 0x1555C, offset: 0x1555C, size: 0x8, addend: 0x0, symName: __ZNSt3__112__tuple_leafILm0EOZN6TwoSat11satisfiableEvEUliE_Lb0EEC2B7v160006IS2_vEEOT_, symObjAddr: 0x6208, symBinAddr: 0x1000088F0, symSize: 0x20 }
  - { offsetInCU: 0x1559F, offset: 0x1559F, size: 0x8, addend: 0x0, symName: __ZNSt3__15tupleIJONS_9allocatorIZN6TwoSat11satisfiableEvEUliE_EEEEC1B7v160006IJS4_ELi0EEEDpOT_, symObjAddr: 0x6228, symBinAddr: 0x100008910, symSize: 0x34 }
  - { offsetInCU: 0x155E9, offset: 0x155E9, size: 0x8, addend: 0x0, symName: __ZNSt3__15tupleIJONS_9allocatorIZN6TwoSat11satisfiableEvEUliE_EEEEC2B7v160006IJS4_ELi0EEEDpOT_, symObjAddr: 0x625C, symBinAddr: 0x100008944, symSize: 0x34 }
  - { offsetInCU: 0x15633, offset: 0x15633, size: 0x8, addend: 0x0, symName: __ZNSt3__112__tuple_implINS_15__tuple_indicesIJLm0EEEEJONS_9allocatorIZN6TwoSat11satisfiableEvEUliE_EEEEC1B7v160006IJLm0EEJS7_EJEJEJS6_EEENS1_IJXspT_EEEENS_13__tuple_typesIJDpT0_EEENS1_IJXspT1_EEEENSB_IJDpT2_EEEDpOT3_, symObjAddr: 0x6290, symBinAddr: 0x100008978, symSize: 0x34 }
  - { offsetInCU: 0x156C4, offset: 0x156C4, size: 0x8, addend: 0x0, symName: __ZNSt3__112__tuple_implINS_15__tuple_indicesIJLm0EEEEJONS_9allocatorIZN6TwoSat11satisfiableEvEUliE_EEEEC2B7v160006IJLm0EEJS7_EJEJEJS6_EEENS1_IJXspT_EEEENS_13__tuple_typesIJDpT0_EEENS1_IJXspT1_EEEENSB_IJDpT2_EEEDpOT3_, symObjAddr: 0x62C4, symBinAddr: 0x1000089AC, symSize: 0x34 }
  - { offsetInCU: 0x15755, offset: 0x15755, size: 0x8, addend: 0x0, symName: __ZNSt3__112__tuple_leafILm0EONS_9allocatorIZN6TwoSat11satisfiableEvEUliE_EELb0EEC2B7v160006IS4_vEEOT_, symObjAddr: 0x62F8, symBinAddr: 0x1000089E0, symSize: 0x20 }
  - { offsetInCU: 0x15798, offset: 0x15798, size: 0x8, addend: 0x0, symName: __ZNSt3__117__compressed_pairIZN6TwoSat11satisfiableEvEUliE_NS_9allocatorIS2_EEEC2B7v160006IJOS2_EJOS4_EEENS_21piecewise_construct_tENS_5tupleIJDpT_EEENSA_IJDpT0_EEE, symObjAddr: 0x6318, symBinAddr: 0x100008A00, symSize: 0x54 }
  - { offsetInCU: 0x15802, offset: 0x15802, size: 0x8, addend: 0x0, symName: __ZNSt3__122__compressed_pair_elemIZN6TwoSat11satisfiableEvEUliE_Li0ELb0EEC2B7v160006IJOS2_EJLm0EEEENS_21piecewise_construct_tENS_5tupleIJDpT_EEENS_15__tuple_indicesIJXspT0_EEEE, symObjAddr: 0x636C, symBinAddr: 0x100008A54, symSize: 0x48 }
  - { offsetInCU: 0x15865, offset: 0x15865, size: 0x8, addend: 0x0, symName: __ZNSt3__122__compressed_pair_elemINS_9allocatorIZN6TwoSat11satisfiableEvEUliE_EELi1ELb1EEC2B7v160006IJOS4_EJLm0EEEENS_21piecewise_construct_tENS_5tupleIJDpT_EEENS_15__tuple_indicesIJXspT0_EEEE, symObjAddr: 0x63B4, symBinAddr: 0x100008A9C, symSize: 0x38 }
  - { offsetInCU: 0x158C8, offset: 0x158C8, size: 0x8, addend: 0x0, symName: __ZNSt3__112__tuple_leafILm0EOZN6TwoSat11satisfiableEvEUliE_Lb0EE3getB7v160006Ev, symObjAddr: 0x6410, symBinAddr: 0x100008AF8, symSize: 0x18 }
  - { offsetInCU: 0x158EE, offset: 0x158EE, size: 0x8, addend: 0x0, symName: __ZNSt3__112__tuple_leafILm0EONS_9allocatorIZN6TwoSat11satisfiableEvEUliE_EELb0EE3getB7v160006Ev, symObjAddr: 0x644C, symBinAddr: 0x100008B34, symSize: 0x18 }
  - { offsetInCU: 0x15914, offset: 0x15914, size: 0x8, addend: 0x0, symName: __ZNSt3__110__function6__funcIZN6TwoSat11satisfiableEvEUliE_NS_9allocatorIS3_EEFviEED2Ev, symObjAddr: 0x6464, symBinAddr: 0x100008B4C, symSize: 0x2C }
  - { offsetInCU: 0x15941, offset: 0x15941, size: 0x8, addend: 0x0, symName: __ZNKSt3__110__function12__alloc_funcIZN6TwoSat11satisfiableEvEUliE_NS_9allocatorIS3_EEFviEE15__get_allocatorB7v160006Ev, symObjAddr: 0x6490, symBinAddr: 0x100008B78, symSize: 0x24 }
  - { offsetInCU: 0x1599B, offset: 0x1599B, size: 0x8, addend: 0x0, symName: __ZNSt3__110unique_ptrINS_10__function6__funcIZN6TwoSat11satisfiableEvEUliE_NS_9allocatorIS4_EEFviEEENS_22__allocator_destructorINS5_IS8_EEEEEC1B7v160006ILb1EvEEPS8_NS_16__dependent_typeINS_27__unique_ptr_deleter_sfinaeISB_EEXT_EE20__good_rval_ref_typeE, symObjAddr: 0x64B4, symBinAddr: 0x100008B9C, symSize: 0x3C }
  - { offsetInCU: 0x159EC, offset: 0x159EC, size: 0x8, addend: 0x0, symName: __ZNKSt3__110unique_ptrINS_10__function6__funcIZN6TwoSat11satisfiableEvEUliE_NS_9allocatorIS4_EEFviEEENS_22__allocator_destructorINS5_IS8_EEEEE3getB7v160006Ev, symObjAddr: 0x64F0, symBinAddr: 0x100008BD8, symSize: 0x28 }
  - { offsetInCU: 0x15A12, offset: 0x15A12, size: 0x8, addend: 0x0, symName: __ZNKSt3__110__function12__alloc_funcIZN6TwoSat11satisfiableEvEUliE_NS_9allocatorIS3_EEFviEE8__targetB7v160006Ev, symObjAddr: 0x6518, symBinAddr: 0x100008C00, symSize: 0x24 }
  - { offsetInCU: 0x15A43, offset: 0x15A43, size: 0x8, addend: 0x0, symName: __ZNSt3__19allocatorIZN6TwoSat11satisfiableEvEUliE_EC1B7v160006INS_10__function6__funcIS2_S3_FviEEEEERKNS0_IT_EE, symObjAddr: 0x653C, symBinAddr: 0x100008C24, symSize: 0x34 }
  - { offsetInCU: 0x15A80, offset: 0x15A80, size: 0x8, addend: 0x0, symName: __ZNSt3__110__function6__funcIZN6TwoSat11satisfiableEvEUliE_NS_9allocatorIS3_EEFviEEC1B7v160006ERKS3_OS5_, symObjAddr: 0x6570, symBinAddr: 0x100008C58, symSize: 0x3C }
  - { offsetInCU: 0x15AC8, offset: 0x15AC8, size: 0x8, addend: 0x0, symName: __ZNSt3__110unique_ptrINS_10__function6__funcIZN6TwoSat11satisfiableEvEUliE_NS_9allocatorIS4_EEFviEEENS_22__allocator_destructorINS5_IS8_EEEEE7releaseB7v160006Ev, symObjAddr: 0x65AC, symBinAddr: 0x100008C94, symSize: 0x44 }
  - { offsetInCU: 0x15AFD, offset: 0x15AFD, size: 0x8, addend: 0x0, symName: __ZNSt3__110unique_ptrINS_10__function6__funcIZN6TwoSat11satisfiableEvEUliE_NS_9allocatorIS4_EEFviEEENS_22__allocator_destructorINS5_IS8_EEEEED1B7v160006Ev, symObjAddr: 0x65F0, symBinAddr: 0x100008CD8, symSize: 0x2C }
  - { offsetInCU: 0x15B27, offset: 0x15B27, size: 0x8, addend: 0x0, symName: __ZNKSt3__117__compressed_pairIZN6TwoSat11satisfiableEvEUliE_NS_9allocatorIS2_EEE6secondB7v160006Ev, symObjAddr: 0x661C, symBinAddr: 0x100008D04, symSize: 0x24 }
  - { offsetInCU: 0x15B4D, offset: 0x15B4D, size: 0x8, addend: 0x0, symName: __ZNKSt3__122__compressed_pair_elemINS_9allocatorIZN6TwoSat11satisfiableEvEUliE_EELi1ELb1EE5__getB7v160006Ev, symObjAddr: 0x6640, symBinAddr: 0x100008D28, symSize: 0x14 }
  - { offsetInCU: 0x15B73, offset: 0x15B73, size: 0x8, addend: 0x0, symName: __ZNSt3__110unique_ptrINS_10__function6__funcIZN6TwoSat11satisfiableEvEUliE_NS_9allocatorIS4_EEFviEEENS_22__allocator_destructorINS5_IS8_EEEEEC2B7v160006ILb1EvEEPS8_NS_16__dependent_typeINS_27__unique_ptr_deleter_sfinaeISB_EEXT_EE20__good_rval_ref_typeE, symObjAddr: 0x6654, symBinAddr: 0x100008D3C, symSize: 0x48 }
  - { offsetInCU: 0x15BC4, offset: 0x15BC4, size: 0x8, addend: 0x0, symName: __ZNKSt3__117__compressed_pairIZN6TwoSat11satisfiableEvEUliE_NS_9allocatorIS2_EEE5firstB7v160006Ev, symObjAddr: 0x669C, symBinAddr: 0x100008D84, symSize: 0x24 }
  - { offsetInCU: 0x15BEA, offset: 0x15BEA, size: 0x8, addend: 0x0, symName: __ZNKSt3__122__compressed_pair_elemIZN6TwoSat11satisfiableEvEUliE_Li0ELb0EE5__getB7v160006Ev, symObjAddr: 0x66C0, symBinAddr: 0x100008DA8, symSize: 0x14 }
  - { offsetInCU: 0x15C10, offset: 0x15C10, size: 0x8, addend: 0x0, symName: __ZNSt3__19allocatorIZN6TwoSat11satisfiableEvEUliE_EC2B7v160006INS_10__function6__funcIS2_S3_FviEEEEERKNS0_IT_EE, symObjAddr: 0x66D4, symBinAddr: 0x100008DBC, symSize: 0x30 }
  - { offsetInCU: 0x15C4D, offset: 0x15C4D, size: 0x8, addend: 0x0, symName: __ZNSt3__110__function6__funcIZN6TwoSat11satisfiableEvEUliE_NS_9allocatorIS3_EEFviEEC2B7v160006ERKS3_OS5_, symObjAddr: 0x6704, symBinAddr: 0x100008DEC, symSize: 0x88 }
  - { offsetInCU: 0x15C95, offset: 0x15C95, size: 0x8, addend: 0x0, symName: __ZNSt3__110__function12__alloc_funcIZN6TwoSat11satisfiableEvEUliE_NS_9allocatorIS3_EEFviEEC1B7v160006ERKS3_OS5_, symObjAddr: 0x678C, symBinAddr: 0x100008E74, symSize: 0x3C }
  - { offsetInCU: 0x15CDB, offset: 0x15CDB, size: 0x8, addend: 0x0, symName: __ZNSt3__110__function12__alloc_funcIZN6TwoSat11satisfiableEvEUliE_NS_9allocatorIS3_EEFviEEC2B7v160006ERKS3_OS5_, symObjAddr: 0x67C8, symBinAddr: 0x100008EB0, symSize: 0x5C }
  - { offsetInCU: 0x15D21, offset: 0x15D21, size: 0x8, addend: 0x0, symName: __ZNSt3__117__compressed_pairIZN6TwoSat11satisfiableEvEUliE_NS_9allocatorIS2_EEEC1B7v160006IJRKS2_EJOS4_EEENS_21piecewise_construct_tENS_5tupleIJDpT_EEENSB_IJDpT0_EEE, symObjAddr: 0x6850, symBinAddr: 0x100008F38, symSize: 0x3C }
  - { offsetInCU: 0x15D8B, offset: 0x15D8B, size: 0x8, addend: 0x0, symName: __ZNSt3__15tupleIJRKZN6TwoSat11satisfiableEvEUliE_EEC1B7v160006INS_4_AndELi0EEES4_, symObjAddr: 0x688C, symBinAddr: 0x100008F74, symSize: 0x34 }
  - { offsetInCU: 0x15DD3, offset: 0x15DD3, size: 0x8, addend: 0x0, symName: __ZNSt3__15tupleIJRKZN6TwoSat11satisfiableEvEUliE_EEC2B7v160006INS_4_AndELi0EEES4_, symObjAddr: 0x68C0, symBinAddr: 0x100008FA8, symSize: 0x34 }
  - { offsetInCU: 0x15E1B, offset: 0x15E1B, size: 0x8, addend: 0x0, symName: __ZNSt3__112__tuple_implINS_15__tuple_indicesIJLm0EEEEJRKZN6TwoSat11satisfiableEvEUliE_EEC1B7v160006IJLm0EEJS6_EJEJEJS6_EEENS1_IJXspT_EEEENS_13__tuple_typesIJDpT0_EEENS1_IJXspT1_EEEENSA_IJDpT2_EEEDpOT3_, symObjAddr: 0x68F4, symBinAddr: 0x100008FDC, symSize: 0x34 }
  - { offsetInCU: 0x15EAC, offset: 0x15EAC, size: 0x8, addend: 0x0, symName: __ZNSt3__112__tuple_implINS_15__tuple_indicesIJLm0EEEEJRKZN6TwoSat11satisfiableEvEUliE_EEC2B7v160006IJLm0EEJS6_EJEJEJS6_EEENS1_IJXspT_EEEENS_13__tuple_typesIJDpT0_EEENS1_IJXspT1_EEEENSA_IJDpT2_EEEDpOT3_, symObjAddr: 0x6928, symBinAddr: 0x100009010, symSize: 0x34 }
  - { offsetInCU: 0x15F3D, offset: 0x15F3D, size: 0x8, addend: 0x0, symName: __ZNSt3__112__tuple_leafILm0ERKZN6TwoSat11satisfiableEvEUliE_Lb0EEC2B7v160006IS4_vEEOT_, symObjAddr: 0x695C, symBinAddr: 0x100009044, symSize: 0x20 }
  - { offsetInCU: 0x15F80, offset: 0x15F80, size: 0x8, addend: 0x0, symName: __ZNSt3__117__compressed_pairIZN6TwoSat11satisfiableEvEUliE_NS_9allocatorIS2_EEEC2B7v160006IJRKS2_EJOS4_EEENS_21piecewise_construct_tENS_5tupleIJDpT_EEENSB_IJDpT0_EEE, symObjAddr: 0x697C, symBinAddr: 0x100009064, symSize: 0x54 }
  - { offsetInCU: 0x15FEA, offset: 0x15FEA, size: 0x8, addend: 0x0, symName: __ZNSt3__122__compressed_pair_elemIZN6TwoSat11satisfiableEvEUliE_Li0ELb0EEC2B7v160006IJRKS2_EJLm0EEEENS_21piecewise_construct_tENS_5tupleIJDpT_EEENS_15__tuple_indicesIJXspT0_EEEE, symObjAddr: 0x69D0, symBinAddr: 0x1000090B8, symSize: 0x48 }
  - { offsetInCU: 0x1604D, offset: 0x1604D, size: 0x8, addend: 0x0, symName: __ZNSt3__112__tuple_leafILm0ERKZN6TwoSat11satisfiableEvEUliE_Lb0EE3getB7v160006Ev, symObjAddr: 0x6A3C, symBinAddr: 0x100009124, symSize: 0x18 }
  - { offsetInCU: 0x16073, offset: 0x16073, size: 0x8, addend: 0x0, symName: __ZNSt3__117__compressed_pairIPNS_10__function6__funcIZN6TwoSat11satisfiableEvEUliE_NS_9allocatorIS4_EEFviEEENS_22__allocator_destructorINS5_IS8_EEEEE5firstB7v160006Ev, symObjAddr: 0x6A54, symBinAddr: 0x10000913C, symSize: 0x24 }
  - { offsetInCU: 0x16099, offset: 0x16099, size: 0x8, addend: 0x0, symName: __ZNSt3__122__compressed_pair_elemIPNS_10__function6__funcIZN6TwoSat11satisfiableEvEUliE_NS_9allocatorIS4_EEFviEEELi0ELb0EE5__getB7v160006Ev, symObjAddr: 0x6A78, symBinAddr: 0x100009160, symSize: 0x14 }
  - { offsetInCU: 0x160BF, offset: 0x160BF, size: 0x8, addend: 0x0, symName: __ZNSt3__110unique_ptrINS_10__function6__funcIZN6TwoSat11satisfiableEvEUliE_NS_9allocatorIS4_EEFviEEENS_22__allocator_destructorINS5_IS8_EEEEED2B7v160006Ev, symObjAddr: 0x6A8C, symBinAddr: 0x100009174, symSize: 0x30 }
  - { offsetInCU: 0x160E9, offset: 0x160E9, size: 0x8, addend: 0x0, symName: __ZNSt3__110unique_ptrINS_10__function6__funcIZN6TwoSat11satisfiableEvEUliE_NS_9allocatorIS4_EEFviEEENS_22__allocator_destructorINS5_IS8_EEEEE5resetB7v160006EPS8_, symObjAddr: 0x6ABC, symBinAddr: 0x1000091A4, symSize: 0x78 }
  - { offsetInCU: 0x1612D, offset: 0x1612D, size: 0x8, addend: 0x0, symName: __ZNSt3__117__compressed_pairIPNS_10__function6__funcIZN6TwoSat11satisfiableEvEUliE_NS_9allocatorIS4_EEFviEEENS_22__allocator_destructorINS5_IS8_EEEEE6secondB7v160006Ev, symObjAddr: 0x6B34, symBinAddr: 0x10000921C, symSize: 0x28 }
  - { offsetInCU: 0x16153, offset: 0x16153, size: 0x8, addend: 0x0, symName: __ZNSt3__122__allocator_destructorINS_9allocatorINS_10__function6__funcIZN6TwoSat11satisfiableEvEUliE_NS1_IS5_EEFviEEEEEEclB7v160006EPS8_, symObjAddr: 0x6B5C, symBinAddr: 0x100009244, symSize: 0x34 }
  - { offsetInCU: 0x16187, offset: 0x16187, size: 0x8, addend: 0x0, symName: __ZNSt3__122__compressed_pair_elemINS_22__allocator_destructorINS_9allocatorINS_10__function6__funcIZN6TwoSat11satisfiableEvEUliE_NS2_IS6_EEFviEEEEEEELi1ELb0EE5__getB7v160006Ev, symObjAddr: 0x6B90, symBinAddr: 0x100009278, symSize: 0x14 }
  - { offsetInCU: 0x161AD, offset: 0x161AD, size: 0x8, addend: 0x0, symName: __ZNSt3__116allocator_traitsINS_9allocatorINS_10__function6__funcIZN6TwoSat11satisfiableEvEUliE_NS1_IS5_EEFviEEEEEE10deallocateB7v160006ERS9_PS8_m, symObjAddr: 0x6BA4, symBinAddr: 0x10000928C, symSize: 0x34 }
  - { offsetInCU: 0x161EF, offset: 0x161EF, size: 0x8, addend: 0x0, symName: __ZNSt3__19allocatorINS_10__function6__funcIZN6TwoSat11satisfiableEvEUliE_NS0_IS4_EEFviEEEE10deallocateB7v160006EPS7_m, symObjAddr: 0x6BD8, symBinAddr: 0x1000092C0, symSize: 0x44 }
  - { offsetInCU: 0x16231, offset: 0x16231, size: 0x8, addend: 0x0, symName: __ZNSt3__110__function6__funcIZN6TwoSat11satisfiableEvEUliE_NS_9allocatorIS3_EEFviEEC1B7v160006ERKS3_RKS5_, symObjAddr: 0x6C1C, symBinAddr: 0x100009304, symSize: 0x3C }
  - { offsetInCU: 0x16279, offset: 0x16279, size: 0x8, addend: 0x0, symName: __ZNSt3__110__function6__funcIZN6TwoSat11satisfiableEvEUliE_NS_9allocatorIS3_EEFviEEC2B7v160006ERKS3_RKS5_, symObjAddr: 0x6C58, symBinAddr: 0x100009340, symSize: 0x88 }
  - { offsetInCU: 0x162C1, offset: 0x162C1, size: 0x8, addend: 0x0, symName: __ZNSt3__110__function12__alloc_funcIZN6TwoSat11satisfiableEvEUliE_NS_9allocatorIS3_EEFviEEC1B7v160006ERKS3_RKS5_, symObjAddr: 0x6CE0, symBinAddr: 0x1000093C8, symSize: 0x3C }
  - { offsetInCU: 0x16307, offset: 0x16307, size: 0x8, addend: 0x0, symName: __ZNSt3__110__function12__alloc_funcIZN6TwoSat11satisfiableEvEUliE_NS_9allocatorIS3_EEFviEEC2B7v160006ERKS3_RKS5_, symObjAddr: 0x6D1C, symBinAddr: 0x100009404, symSize: 0x5C }
  - { offsetInCU: 0x1634D, offset: 0x1634D, size: 0x8, addend: 0x0, symName: __ZNSt3__117__compressed_pairIZN6TwoSat11satisfiableEvEUliE_NS_9allocatorIS2_EEEC1B7v160006IJRKS2_EJRKS4_EEENS_21piecewise_construct_tENS_5tupleIJDpT_EEENSC_IJDpT0_EEE, symObjAddr: 0x6DA4, symBinAddr: 0x10000948C, symSize: 0x3C }
  - { offsetInCU: 0x163B7, offset: 0x163B7, size: 0x8, addend: 0x0, symName: __ZNSt3__15tupleIJRKNS_9allocatorIZN6TwoSat11satisfiableEvEUliE_EEEEC1B7v160006INS_4_AndELi0EEES6_, symObjAddr: 0x6DE0, symBinAddr: 0x1000094C8, symSize: 0x34 }
  - { offsetInCU: 0x163FF, offset: 0x163FF, size: 0x8, addend: 0x0, symName: __ZNSt3__15tupleIJRKNS_9allocatorIZN6TwoSat11satisfiableEvEUliE_EEEEC2B7v160006INS_4_AndELi0EEES6_, symObjAddr: 0x6E14, symBinAddr: 0x1000094FC, symSize: 0x34 }
  - { offsetInCU: 0x16447, offset: 0x16447, size: 0x8, addend: 0x0, symName: __ZNSt3__112__tuple_implINS_15__tuple_indicesIJLm0EEEEJRKNS_9allocatorIZN6TwoSat11satisfiableEvEUliE_EEEEC1B7v160006IJLm0EEJS8_EJEJEJS8_EEENS1_IJXspT_EEEENS_13__tuple_typesIJDpT0_EEENS1_IJXspT1_EEEENSC_IJDpT2_EEEDpOT3_, symObjAddr: 0x6E48, symBinAddr: 0x100009530, symSize: 0x34 }
  - { offsetInCU: 0x164D8, offset: 0x164D8, size: 0x8, addend: 0x0, symName: __ZNSt3__112__tuple_implINS_15__tuple_indicesIJLm0EEEEJRKNS_9allocatorIZN6TwoSat11satisfiableEvEUliE_EEEEC2B7v160006IJLm0EEJS8_EJEJEJS8_EEENS1_IJXspT_EEEENS_13__tuple_typesIJDpT0_EEENS1_IJXspT1_EEEENSC_IJDpT2_EEEDpOT3_, symObjAddr: 0x6E7C, symBinAddr: 0x100009564, symSize: 0x34 }
  - { offsetInCU: 0x16569, offset: 0x16569, size: 0x8, addend: 0x0, symName: __ZNSt3__112__tuple_leafILm0ERKNS_9allocatorIZN6TwoSat11satisfiableEvEUliE_EELb0EEC2B7v160006IS6_vEEOT_, symObjAddr: 0x6EB0, symBinAddr: 0x100009598, symSize: 0x20 }
  - { offsetInCU: 0x165AC, offset: 0x165AC, size: 0x8, addend: 0x0, symName: __ZNSt3__117__compressed_pairIZN6TwoSat11satisfiableEvEUliE_NS_9allocatorIS2_EEEC2B7v160006IJRKS2_EJRKS4_EEENS_21piecewise_construct_tENS_5tupleIJDpT_EEENSC_IJDpT0_EEE, symObjAddr: 0x6ED0, symBinAddr: 0x1000095B8, symSize: 0x54 }
  - { offsetInCU: 0x16616, offset: 0x16616, size: 0x8, addend: 0x0, symName: __ZNSt3__122__compressed_pair_elemINS_9allocatorIZN6TwoSat11satisfiableEvEUliE_EELi1ELb1EEC2B7v160006IJRKS4_EJLm0EEEENS_21piecewise_construct_tENS_5tupleIJDpT_EEENS_15__tuple_indicesIJXspT0_EEEE, symObjAddr: 0x6F24, symBinAddr: 0x10000960C, symSize: 0x38 }
  - { offsetInCU: 0x16679, offset: 0x16679, size: 0x8, addend: 0x0, symName: __ZNSt3__112__tuple_leafILm0ERKNS_9allocatorIZN6TwoSat11satisfiableEvEUliE_EELb0EE3getB7v160006Ev, symObjAddr: 0x6F80, symBinAddr: 0x100009668, symSize: 0x18 }
  - { offsetInCU: 0x1669F, offset: 0x1669F, size: 0x8, addend: 0x0, symName: __ZNSt3__110__function12__alloc_funcIZN6TwoSat11satisfiableEvEUliE_NS_9allocatorIS3_EEFviEE7destroyB7v160006Ev, symObjAddr: 0x6F98, symBinAddr: 0x100009680, symSize: 0x10 }
  - { offsetInCU: 0x166C5, offset: 0x166C5, size: 0x8, addend: 0x0, symName: __ZNSt3__110__function12__alloc_funcIZN6TwoSat11satisfiableEvEUliE_NS_9allocatorIS3_EEFviEEclB7v160006EOi, symObjAddr: 0x6FA8, symBinAddr: 0x100009690, symSize: 0x30 }
  - { offsetInCU: 0x166F9, offset: 0x166F9, size: 0x8, addend: 0x0, symName: __ZNSt3__128__invoke_void_return_wrapperIvLb1EE6__callIJRZN6TwoSat11satisfiableEvEUliE_iEEEvDpOT_, symObjAddr: 0x6FD8, symBinAddr: 0x1000096C0, symSize: 0x2C }
  - { offsetInCU: 0x1673C, offset: 0x1673C, size: 0x8, addend: 0x0, symName: __ZNSt3__117__compressed_pairIZN6TwoSat11satisfiableEvEUliE_NS_9allocatorIS2_EEE5firstB7v160006Ev, symObjAddr: 0x7004, symBinAddr: 0x1000096EC, symSize: 0x24 }
  - { offsetInCU: 0x16768, offset: 0x16768, size: 0x8, addend: 0x0, symName: __ZZN6TwoSat11satisfiableEvENKUliE_clEi, symObjAddr: 0x7058, symBinAddr: 0x100009740, symSize: 0x2A8 }
  - { offsetInCU: 0x1680D, offset: 0x1680D, size: 0x8, addend: 0x0, symName: __ZNSt3__16vectorIiNS_9allocatorIiEEE9push_backB7v160006ERKi, symObjAddr: 0x7300, symBinAddr: 0x1000099E8, symSize: 0x6C }
  - { offsetInCU: 0x16844, offset: 0x16844, size: 0x8, addend: 0x0, symName: __ZNSt3__16vectorIiNS_9allocatorIiEEE5beginB7v160006Ev, symObjAddr: 0x736C, symBinAddr: 0x100009A54, symSize: 0x30 }
  - { offsetInCU: 0x1686C, offset: 0x1686C, size: 0x8, addend: 0x0, symName: __ZNSt3__16vectorIiNS_9allocatorIiEEE3endB7v160006Ev, symObjAddr: 0x739C, symBinAddr: 0x100009A84, symSize: 0x30 }
  - { offsetInCU: 0x16894, offset: 0x16894, size: 0x8, addend: 0x0, symName: __ZNKSt3__111__wrap_iterIPiEdeB7v160006Ev, symObjAddr: 0x7400, symBinAddr: 0x100009AE8, symSize: 0x18 }
  - { offsetInCU: 0x168BA, offset: 0x168BA, size: 0x8, addend: 0x0, symName: __ZNSt3__111__wrap_iterIPiEppB7v160006Ev, symObjAddr: 0x7444, symBinAddr: 0x100009B2C, symSize: 0x20 }
  - { offsetInCU: 0x168E0, offset: 0x168E0, size: 0x8, addend: 0x0, symName: __ZNSt3__16vectorIiNS_9allocatorIiEEE4backB7v160006Ev, symObjAddr: 0x7464, symBinAddr: 0x100009B4C, symSize: 0x1C }
  - { offsetInCU: 0x16906, offset: 0x16906, size: 0x8, addend: 0x0, symName: __ZNSt3__16vectorIiNS_9allocatorIiEEE8pop_backEv, symObjAddr: 0x7480, symBinAddr: 0x100009B68, symSize: 0x2C }
  - { offsetInCU: 0x1692E, offset: 0x1692E, size: 0x8, addend: 0x0, symName: __ZNSt3__16vectorIiNS_9allocatorIiEEE22__construct_one_at_endB7v160006IJRKiEEEvDpOT_, symObjAddr: 0x74AC, symBinAddr: 0x100009B94, symSize: 0x90 }
  - { offsetInCU: 0x1697D, offset: 0x1697D, size: 0x8, addend: 0x0, symName: __ZNSt3__16vectorIiNS_9allocatorIiEEE21__push_back_slow_pathIRKiEEvOT_, symObjAddr: 0x753C, symBinAddr: 0x100009C24, symSize: 0xD8 }
  - { offsetInCU: 0x169DB, offset: 0x169DB, size: 0x8, addend: 0x0, symName: __ZNSt3__16vectorIiNS_9allocatorIiEEE11__make_iterB7v160006EPi, symObjAddr: 0x7614, symBinAddr: 0x100009CFC, symSize: 0x34 }
  - { offsetInCU: 0x16A10, offset: 0x16A10, size: 0x8, addend: 0x0, symName: __ZNSt3__111__wrap_iterIPiEC1B7v160006EPKvS1_, symObjAddr: 0x7648, symBinAddr: 0x100009D30, symSize: 0x3C }
  - { offsetInCU: 0x16A56, offset: 0x16A56, size: 0x8, addend: 0x0, symName: __ZNSt3__111__wrap_iterIPiEC2B7v160006EPKvS1_, symObjAddr: 0x7684, symBinAddr: 0x100009D6C, symSize: 0x24 }
  - { offsetInCU: 0x16A9C, offset: 0x16A9C, size: 0x8, addend: 0x0, symName: __ZNKSt3__111__wrap_iterIPiE4baseB7v160006Ev, symObjAddr: 0x76F0, symBinAddr: 0x100009DD8, symSize: 0x18 }
  - { offsetInCU: 0x16ACD, offset: 0x16ACD, size: 0x8, addend: 0x0, symName: __ZNKSt3__16__lessIiiEclB7v160006ERKiS3_, symObjAddr: 0x775C, symBinAddr: 0x100009E44, symSize: 0x34 }
  - { offsetInCU: 0x16B0F, offset: 0x16B0F, size: 0x8, addend: 0x0, symName: __ZNSt3__16vectorIiNS_9allocatorIiEEE17__destruct_at_endB7v160006EPi, symObjAddr: 0x7790, symBinAddr: 0x100009E78, symSize: 0x60 }
  - { offsetInCU: 0x16B53, offset: 0x16B53, size: 0x8, addend: 0x0, symName: __ZNSt3__16vectorIiNS_9allocatorIiEEE27__invalidate_iterators_pastB7v160006EPi, symObjAddr: 0x77F0, symBinAddr: 0x100009ED8, symSize: 0x14 }
  - { offsetInCU: 0x16B8A, offset: 0x16B8A, size: 0x8, addend: 0x0, symName: __ZNKSt3__16vectorIiNS_9allocatorIiEEE17__annotate_shrinkB7v160006Em, symObjAddr: 0x7804, symBinAddr: 0x100009EEC, symSize: 0xB4 }
  - { offsetInCU: 0x16BBF, offset: 0x16BBF, size: 0x8, addend: 0x0, symName: __ZNSt3__122__compressed_pair_elemIZN6TwoSat11satisfiableEvEUliE_Li0ELb0EE5__getB7v160006Ev, symObjAddr: 0x78B8, symBinAddr: 0x100009FA0, symSize: 0x14 }
  - { offsetInCU: 0x16C1A, offset: 0x16C1A, size: 0x8, addend: 0x0, symName: __ZNKSt9type_infoeqB7v160006ERKS_, symObjAddr: 0x78CC, symBinAddr: 0x100009FB4, symSize: 0xDC }
  - { offsetInCU: 0x16CB4, offset: 0x16CB4, size: 0x8, addend: 0x0, symName: __ZNSt27__type_info_implementations30__non_unique_arm_rtti_bit_impl21__is_type_name_uniqueB7v160006Em, symObjAddr: 0x79A8, symBinAddr: 0x10000A090, symSize: 0x20 }
  - { offsetInCU: 0x16CD8, offset: 0x16CD8, size: 0x8, addend: 0x0, symName: __ZNSt3__110unique_ptrINS_10__function6__baseIFviEEENS_22__allocator_destructorINS_9allocatorINS1_6__funcIZN6TwoSat11satisfiableEvEUliE_NS6_IS9_EES3_EEEEEEED2B7v160006Ev, symObjAddr: 0x79C8, symBinAddr: 0x10000A0B0, symSize: 0x30 }
  - { offsetInCU: 0x16D02, offset: 0x16D02, size: 0x8, addend: 0x0, symName: __ZNSt3__110unique_ptrINS_10__function6__baseIFviEEENS_22__allocator_destructorINS_9allocatorINS1_6__funcIZN6TwoSat11satisfiableEvEUliE_NS6_IS9_EES3_EEEEEEE5resetB7v160006EPSB_, symObjAddr: 0x79F8, symBinAddr: 0x10000A0E0, symSize: 0x78 }
  - { offsetInCU: 0x16D46, offset: 0x16D46, size: 0x8, addend: 0x0, symName: __ZNKSt3__110__function12__value_funcIFviEEclB7v160006EOi, symObjAddr: 0x7A70, symBinAddr: 0x10000A158, symSize: 0x58 }
  - { offsetInCU: 0x16D81, offset: 0x16D81, size: 0x8, addend: 0x0, symName: __ZNSt3__117bad_function_callC1Ev, symObjAddr: 0x7B00, symBinAddr: 0x10000A1E8, symSize: 0x2C }
  - { offsetInCU: 0x16DAD, offset: 0x16DAD, size: 0x8, addend: 0x0, symName: __ZNSt3__117bad_function_callD1Ev, symObjAddr: 0x7B2C, symBinAddr: 0x10000A214, symSize: 0x2C }
  - { offsetInCU: 0x16DD7, offset: 0x16DD7, size: 0x8, addend: 0x0, symName: __ZNSt3__117bad_function_callC2Ev, symObjAddr: 0x7B58, symBinAddr: 0x10000A240, symSize: 0x44 }
  - { offsetInCU: 0x16E03, offset: 0x16E03, size: 0x8, addend: 0x0, symName: __ZNSt9exceptionC2B7v160006Ev, symObjAddr: 0x7B9C, symBinAddr: 0x10000A284, symSize: 0x24 }
  - { offsetInCU: 0x16E2D, offset: 0x16E2D, size: 0x8, addend: 0x0, symName: __ZNSt3__117bad_function_callD0Ev, symObjAddr: 0x7BC0, symBinAddr: 0x10000A2A8, symSize: 0x30 }
  - { offsetInCU: 0x16E57, offset: 0x16E57, size: 0x8, addend: 0x0, symName: __ZNSt3__117bad_function_callD2Ev, symObjAddr: 0x7BF0, symBinAddr: 0x10000A2D8, symSize: 0x2C }
  - { offsetInCU: 0x16E81, offset: 0x16E81, size: 0x8, addend: 0x0, symName: __ZNSt3__16vectorIbNS_9allocatorIbEEE10__make_refB7v160006Em, symObjAddr: 0x7C1C, symBinAddr: 0x10000A304, symSize: 0x60 }
  - { offsetInCU: 0x16EB6, offset: 0x16EB6, size: 0x8, addend: 0x0, symName: __ZNSt3__115__bit_referenceINS_6vectorIbNS_9allocatorIbEEEELb1EEC1B7v160006EPmm, symObjAddr: 0x7C7C, symBinAddr: 0x10000A364, symSize: 0x3C }
  - { offsetInCU: 0x16EFC, offset: 0x16EFC, size: 0x8, addend: 0x0, symName: __ZNSt3__115__bit_referenceINS_6vectorIbNS_9allocatorIbEEEELb1EEC2B7v160006EPmm, symObjAddr: 0x7CB8, symBinAddr: 0x10000A3A0, symSize: 0x2C }
  - { offsetInCU: 0x16F42, offset: 0x16F42, size: 0x8, addend: 0x0, symName: __ZNSt3__18functionIFviEED2Ev, symObjAddr: 0x7CE4, symBinAddr: 0x10000A3CC, symSize: 0x2C }
  - { offsetInCU: 0x16F6E, offset: 0x16F6E, size: 0x8, addend: 0x0, symName: __ZNSt3__110__function12__value_funcIFviEED1B7v160006Ev, symObjAddr: 0x7D10, symBinAddr: 0x10000A3F8, symSize: 0x2C }
  - { offsetInCU: 0x16F98, offset: 0x16F98, size: 0x8, addend: 0x0, symName: __ZNSt3__110__function12__value_funcIFviEED2B7v160006Ev, symObjAddr: 0x7D3C, symBinAddr: 0x10000A424, symSize: 0x90 }
  - { offsetInCU: 0x16FC2, offset: 0x16FC2, size: 0x8, addend: 0x0, symName: __ZN6TwoSatD2Ev, symObjAddr: 0x7DCC, symBinAddr: 0x10000A4B4, symSize: 0x3C }
  - { offsetInCU: 0x16FEE, offset: 0x16FEE, size: 0x8, addend: 0x0, symName: __ZNSt3__16vectorIbNS_9allocatorIbEEED1B7v160006Ev, symObjAddr: 0x7E08, symBinAddr: 0x10000A4F0, symSize: 0x2C }
  - { offsetInCU: 0x17018, offset: 0x17018, size: 0x8, addend: 0x0, symName: __ZNSt3__16vectorIbNS_9allocatorIbEEED2B7v160006Ev, symObjAddr: 0x7E34, symBinAddr: 0x10000A51C, symSize: 0x44 }
  - { offsetInCU: 0x17042, offset: 0x17042, size: 0x8, addend: 0x0, symName: __ZNSt3__16vectorIbNS_9allocatorIbEEE16__destroy_vectorC1ERS3_, symObjAddr: 0x7E78, symBinAddr: 0x10000A560, symSize: 0x34 }
  - { offsetInCU: 0x1707B, offset: 0x1707B, size: 0x8, addend: 0x0, symName: __ZNSt3__16vectorIbNS_9allocatorIbEEE16__destroy_vectorclB7v160006Ev, symObjAddr: 0x7EAC, symBinAddr: 0x10000A594, symSize: 0x84 }
  - { offsetInCU: 0x170A1, offset: 0x170A1, size: 0x8, addend: 0x0, symName: __ZNSt3__16vectorIbNS_9allocatorIbEEE16__destroy_vectorC2ERS3_, symObjAddr: 0x7F30, symBinAddr: 0x10000A618, symSize: 0x20 }
  - { offsetInCU: 0x170DA, offset: 0x170DA, size: 0x8, addend: 0x0, symName: __ZNSt3__116allocator_traitsINS_9allocatorImEEE10deallocateB7v160006ERS2_Pmm, symObjAddr: 0x7F50, symBinAddr: 0x10000A638, symSize: 0x34 }
  - { offsetInCU: 0x1711C, offset: 0x1711C, size: 0x8, addend: 0x0, symName: __ZNSt3__19allocatorImE10deallocateB7v160006EPmm, symObjAddr: 0x7F94, symBinAddr: 0x10000A67C, symSize: 0x40 }
  - { offsetInCU: 0x1715E, offset: 0x1715E, size: 0x8, addend: 0x0, symName: __ZNSt3__16vectorINS0_IiNS_9allocatorIiEEEENS1_IS3_EEED2B7v160006Ev, symObjAddr: 0x7FD4, symBinAddr: 0x10000A6BC, symSize: 0x44 }
  - { offsetInCU: 0x17188, offset: 0x17188, size: 0x8, addend: 0x0, symName: __ZNSt3__111char_traitsIcE6lengthEPKc, symObjAddr: 0x8204, symBinAddr: 0x10000A8EC, symSize: 0x34 }
  - { offsetInCU: 0x171C8, offset: 0x171C8, size: 0x8, addend: 0x0, symName: __ZNKSt3__113basic_ostreamIcNS_11char_traitsIcEEE6sentrycvbB7v160006Ev, symObjAddr: 0x8238, symBinAddr: 0x10000A920, symSize: 0x1C }
  - { offsetInCU: 0x171EE, offset: 0x171EE, size: 0x8, addend: 0x0, symName: __ZNSt3__119ostreambuf_iteratorIcNS_11char_traitsIcEEEC1B7v160006ERNS_13basic_ostreamIcS2_EE, symObjAddr: 0x8494, symBinAddr: 0x10000AB7C, symSize: 0x34 }
  - { offsetInCU: 0x17226, offset: 0x17226, size: 0x8, addend: 0x0, symName: __ZNKSt3__18ios_base5flagsB7v160006Ev, symObjAddr: 0x84C8, symBinAddr: 0x10000ABB0, symSize: 0x18 }
  - { offsetInCU: 0x1724E, offset: 0x1724E, size: 0x8, addend: 0x0, symName: __ZNKSt3__19basic_iosIcNS_11char_traitsIcEEE4fillB7v160006Ev, symObjAddr: 0x84E0, symBinAddr: 0x10000ABC8, symSize: 0x64 }
  - { offsetInCU: 0x17276, offset: 0x17276, size: 0x8, addend: 0x0, symName: __ZNKSt3__119ostreambuf_iteratorIcNS_11char_traitsIcEEE6failedB7v160006Ev, symObjAddr: 0x8544, symBinAddr: 0x10000AC2C, symSize: 0x24 }
  - { offsetInCU: 0x1729C, offset: 0x1729C, size: 0x8, addend: 0x0, symName: __ZNSt3__19basic_iosIcNS_11char_traitsIcEEE8setstateB7v160006Ej, symObjAddr: 0x8568, symBinAddr: 0x10000AC50, symSize: 0x2C }
  - { offsetInCU: 0x172D1, offset: 0x172D1, size: 0x8, addend: 0x0, symName: __ZNKSt3__18ios_base5widthB7v160006Ev, symObjAddr: 0x8594, symBinAddr: 0x10000AC7C, symSize: 0x18 }
  - { offsetInCU: 0x172F9, offset: 0x172F9, size: 0x8, addend: 0x0, symName: __ZNSt3__115basic_streambufIcNS_11char_traitsIcEEE5sputnB7v160006EPKcl, symObjAddr: 0x85AC, symBinAddr: 0x10000AC94, symSize: 0x3C }
  - { offsetInCU: 0x1733B, offset: 0x1733B, size: 0x8, addend: 0x0, symName: __ZNSt3__112basic_stringIcNS_11char_traitsIcEENS_9allocatorIcEEEC1B7v160006Emc, symObjAddr: 0x85E8, symBinAddr: 0x10000ACD0, symSize: 0x3C }
  - { offsetInCU: 0x17383, offset: 0x17383, size: 0x8, addend: 0x0, symName: __ZNSt3__112basic_stringIcNS_11char_traitsIcEENS_9allocatorIcEEE4dataB7v160006Ev, symObjAddr: 0x8624, symBinAddr: 0x10000AD0C, symSize: 0x28 }
  - { offsetInCU: 0x173A9, offset: 0x173A9, size: 0x8, addend: 0x0, symName: __ZNSt3__18ios_base5widthB7v160006El, symObjAddr: 0x864C, symBinAddr: 0x10000AD34, symSize: 0x2C }
  - { offsetInCU: 0x173EF, offset: 0x173EF, size: 0x8, addend: 0x0, symName: __ZNSt3__112basic_stringIcNS_11char_traitsIcEENS_9allocatorIcEEEC2B7v160006Emc, symObjAddr: 0x8678, symBinAddr: 0x10000AD60, symSize: 0x54 }
  - { offsetInCU: 0x17437, offset: 0x17437, size: 0x8, addend: 0x0, symName: __ZNSt3__117__compressed_pairINS_12basic_stringIcNS_11char_traitsIcEENS_9allocatorIcEEE5__repES5_EC1B7v160006INS_18__default_init_tagESA_EEOT_OT0_, symObjAddr: 0x86CC, symBinAddr: 0x10000ADB4, symSize: 0x3C }
  - { offsetInCU: 0x1748F, offset: 0x1748F, size: 0x8, addend: 0x0, symName: __ZNSt3__117__compressed_pairINS_12basic_stringIcNS_11char_traitsIcEENS_9allocatorIcEEE5__repES5_EC2B7v160006INS_18__default_init_tagESA_EEOT_OT0_, symObjAddr: 0x8718, symBinAddr: 0x10000AE00, symSize: 0x3C }
  - { offsetInCU: 0x174E7, offset: 0x174E7, size: 0x8, addend: 0x0, symName: __ZNSt3__122__compressed_pair_elemINS_12basic_stringIcNS_11char_traitsIcEENS_9allocatorIcEEE5__repELi0ELb0EEC2B7v160006ENS_18__default_init_tagE, symObjAddr: 0x8754, symBinAddr: 0x10000AE3C, symSize: 0x14 }
  - { offsetInCU: 0x1751B, offset: 0x1751B, size: 0x8, addend: 0x0, symName: __ZNSt3__122__compressed_pair_elemINS_9allocatorIcEELi1ELb1EEC2B7v160006ENS_18__default_init_tagE, symObjAddr: 0x8768, symBinAddr: 0x10000AE50, symSize: 0x2C }
  - { offsetInCU: 0x1754F, offset: 0x1754F, size: 0x8, addend: 0x0, symName: __ZNSt3__19allocatorIcEC2B7v160006Ev, symObjAddr: 0x8794, symBinAddr: 0x10000AE7C, symSize: 0x2C }
  - { offsetInCU: 0x17579, offset: 0x17579, size: 0x8, addend: 0x0, symName: __ZNSt3__116__non_trivial_ifILb1ENS_9allocatorIcEEEC2B7v160006Ev, symObjAddr: 0x87C0, symBinAddr: 0x10000AEA8, symSize: 0x14 }
  - { offsetInCU: 0x175A3, offset: 0x175A3, size: 0x8, addend: 0x0, symName: __ZNSt3__112basic_stringIcNS_11char_traitsIcEENS_9allocatorIcEEE13__get_pointerB7v160006Ev, symObjAddr: 0x87E8, symBinAddr: 0x10000AED0, symSize: 0x54 }
  - { offsetInCU: 0x175C9, offset: 0x175C9, size: 0x8, addend: 0x0, symName: __ZNKSt3__112basic_stringIcNS_11char_traitsIcEENS_9allocatorIcEEE9__is_longB7v160006Ev, symObjAddr: 0x883C, symBinAddr: 0x10000AF24, symSize: 0x38 }
  - { offsetInCU: 0x175EF, offset: 0x175EF, size: 0x8, addend: 0x0, symName: __ZNSt3__112basic_stringIcNS_11char_traitsIcEENS_9allocatorIcEEE18__get_long_pointerB7v160006Ev, symObjAddr: 0x8874, symBinAddr: 0x10000AF5C, symSize: 0x28 }
  - { offsetInCU: 0x17615, offset: 0x17615, size: 0x8, addend: 0x0, symName: __ZNSt3__112basic_stringIcNS_11char_traitsIcEENS_9allocatorIcEEE19__get_short_pointerB7v160006Ev, symObjAddr: 0x889C, symBinAddr: 0x10000AF84, symSize: 0x28 }
  - { offsetInCU: 0x1763B, offset: 0x1763B, size: 0x8, addend: 0x0, symName: __ZNKSt3__117__compressed_pairINS_12basic_stringIcNS_11char_traitsIcEENS_9allocatorIcEEE5__repES5_E5firstB7v160006Ev, symObjAddr: 0x88C4, symBinAddr: 0x10000AFAC, symSize: 0x24 }
  - { offsetInCU: 0x17661, offset: 0x17661, size: 0x8, addend: 0x0, symName: __ZNKSt3__122__compressed_pair_elemINS_12basic_stringIcNS_11char_traitsIcEENS_9allocatorIcEEE5__repELi0ELb0EE5__getB7v160006Ev, symObjAddr: 0x88E8, symBinAddr: 0x10000AFD0, symSize: 0x14 }
  - { offsetInCU: 0x17687, offset: 0x17687, size: 0x8, addend: 0x0, symName: __ZNSt3__117__compressed_pairINS_12basic_stringIcNS_11char_traitsIcEENS_9allocatorIcEEE5__repES5_E5firstB7v160006Ev, symObjAddr: 0x88FC, symBinAddr: 0x10000AFE4, symSize: 0x24 }
  - { offsetInCU: 0x176AD, offset: 0x176AD, size: 0x8, addend: 0x0, symName: __ZNSt3__122__compressed_pair_elemINS_12basic_stringIcNS_11char_traitsIcEENS_9allocatorIcEEE5__repELi0ELb0EE5__getB7v160006Ev, symObjAddr: 0x8920, symBinAddr: 0x10000B008, symSize: 0x14 }
  - { offsetInCU: 0x176D3, offset: 0x176D3, size: 0x8, addend: 0x0, symName: __ZNSt3__114pointer_traitsIPcE10pointer_toB7v160006ERc, symObjAddr: 0x8934, symBinAddr: 0x10000B01C, symSize: 0x14 }
  - { offsetInCU: 0x176F6, offset: 0x176F6, size: 0x8, addend: 0x0, symName: __ZNSt3__119ostreambuf_iteratorIcNS_11char_traitsIcEEEC2B7v160006ERNS_13basic_ostreamIcS2_EE, symObjAddr: 0x8948, symBinAddr: 0x10000B030, symSize: 0x54 }
  - { offsetInCU: 0x1772E, offset: 0x1772E, size: 0x8, addend: 0x0, symName: __ZNKSt3__19basic_iosIcNS_11char_traitsIcEEE5rdbufB7v160006Ev, symObjAddr: 0x899C, symBinAddr: 0x10000B084, symSize: 0x24 }
  - { offsetInCU: 0x17756, offset: 0x17756, size: 0x8, addend: 0x0, symName: __ZNKSt3__18ios_base5rdbufB7v160006Ev, symObjAddr: 0x89C0, symBinAddr: 0x10000B0A8, symSize: 0x18 }
  - { offsetInCU: 0x1777C, offset: 0x1777C, size: 0x8, addend: 0x0, symName: __ZNSt3__111char_traitsIcE11eq_int_typeEii, symObjAddr: 0x89D8, symBinAddr: 0x10000B0C0, symSize: 0x28 }
  - { offsetInCU: 0x177AD, offset: 0x177AD, size: 0x8, addend: 0x0, symName: __ZNSt3__111char_traitsIcE3eofEv, symObjAddr: 0x8A00, symBinAddr: 0x10000B0E8, symSize: 0x8 }
  - { offsetInCU: 0x177C1, offset: 0x177C1, size: 0x8, addend: 0x0, symName: __ZNKSt3__19basic_iosIcNS_11char_traitsIcEEE5widenB7v160006Ec, symObjAddr: 0x8A08, symBinAddr: 0x10000B0F0, symSize: 0x84 }
  - { offsetInCU: 0x17836, offset: 0x17836, size: 0x8, addend: 0x0, symName: __ZNKSt3__15ctypeIcE5widenB7v160006Ec, symObjAddr: 0x8AB8, symBinAddr: 0x10000B1A0, symSize: 0x38 }
  - { offsetInCU: 0x1786B, offset: 0x1786B, size: 0x8, addend: 0x0, symName: __ZNSt3__18ios_base8setstateB7v160006Ej, symObjAddr: 0x8AF0, symBinAddr: 0x10000B1D8, symSize: 0x34 }
...
