---
triple:          'arm64-apple-darwin'
binary-path:     '/Users/rohakdebnath/Desktop/Cpp /CodeForces/trails'
relocations:
  - { offsetInCU: 0x6BEB, offset: 0x6BEB, size: 0x8, addend: 0x0, symName: __ZNSt3__17advanceB7v160006IP2millvEEvRT_T0_, symObjAddr: 0x3E38, symBinAddr: 0x100006580, symSize: 0x50 }
  - { offsetInCU: 0x6C56, offset: 0x6C56, size: 0x8, addend: 0x0, symName: __ZNSt3__124__put_character_sequenceB7v160006IcNS_11char_traitsIcEEEERNS_13basic_ostreamIT_T0_EES7_PKS4_m, symObjAddr: 0x44CC, symBinAddr: 0x100006C14, symSize: 0x1EC }
  - { offsetInCU: 0x8A9F, offset: 0x8A9F, size: 0x8, addend: 0x0, symName: __ZNSt3__1lsB7v160006INS_11char_traitsIcEEEERNS_13basic_ostreamIcT_EES6_c, symObjAddr: 0x9E0, symBinAddr: 0x100003128, symSize: 0x34 }
  - { offsetInCU: 0x8AE5, offset: 0x8AE5, size: 0x8, addend: 0x0, symName: __ZNSt3__110accumulateB7v160006INS_11__wrap_iterIP2miEES2_EET0_T_S6_S5_, symObjAddr: 0xA14, symBinAddr: 0x10000315C, symSize: 0x94 }
  - { offsetInCU: 0x8B3F, offset: 0x8B3F, size: 0x8, addend: 0x0, symName: __ZNSt3__122__make_exception_guardB7v160006INS_6vectorIiNS_9allocatorIiEEE16__destroy_vectorEEENS_28__exception_guard_exceptionsIT_EES7_, symObjAddr: 0xD9C, symBinAddr: 0x1000034E4, symSize: 0x40 }
  - { offsetInCU: 0x8B74, offset: 0x8B74, size: 0x8, addend: 0x0, symName: __ZNSt3__119__debug_db_insert_cB7v160006INS_6vectorIiNS_9allocatorIiEEEEEEvPT_, symObjAddr: 0xE10, symBinAddr: 0x100003558, symSize: 0x10 }
  - { offsetInCU: 0x8BA5, offset: 0x8BA5, size: 0x8, addend: 0x0, symName: __ZNSt3__119__allocate_at_leastB7v160006INS_9allocatorIiEEEEDaRT_m, symObjAddr: 0x1198, symBinAddr: 0x1000038E0, symSize: 0x3C }
  - { offsetInCU: 0x8BE8, offset: 0x8BE8, size: 0x8, addend: 0x0, symName: __ZNSt3__13minB7v160006ImEERKT_S3_S3_, symObjAddr: 0x12D0, symBinAddr: 0x100003A18, symSize: 0x2C }
  - { offsetInCU: 0x8E15, offset: 0x8E15, size: 0x8, addend: 0x0, symName: __ZNSt3__13minB7v160006ImNS_6__lessImmEEEERKT_S5_S5_T0_, symObjAddr: 0x136C, symBinAddr: 0x100003AB4, symSize: 0x54 }
  - { offsetInCU: 0x9096, offset: 0x9096, size: 0x8, addend: 0x0, symName: __ZNSt3__120__throw_length_errorB7v160006EPKc, symObjAddr: 0x1450, symBinAddr: 0x100003B98, symSize: 0x64 }
  - { offsetInCU: 0x90BE, offset: 0x90BE, size: 0x8, addend: 0x0, symName: __ZNSt3__117allocate_at_leastB7v160006INS_9allocatorIiEEEENS_17allocation_resultINS_16allocator_traitsIT_E7pointerEEERS5_m, symObjAddr: 0x1534, symBinAddr: 0x100003C7C, symSize: 0x3C }
  - { offsetInCU: 0x9101, offset: 0x9101, size: 0x8, addend: 0x0, symName: __ZNSt3__117__libcpp_allocateB7v160006Emm, symObjAddr: 0x163C, symBinAddr: 0x100003D84, symSize: 0x60 }
  - { offsetInCU: 0x915B, offset: 0x915B, size: 0x8, addend: 0x0, symName: __ZNSt3__124__is_overaligned_for_newB7v160006Em, symObjAddr: 0x169C, symBinAddr: 0x100003DE4, symSize: 0x20 }
  - { offsetInCU: 0x9189, offset: 0x9189, size: 0x8, addend: 0x0, symName: __ZNSt3__121__libcpp_operator_newB7v160006IJmSt11align_val_tEEEPvDpT_, symObjAddr: 0x16BC, symBinAddr: 0x100003E04, symSize: 0x2C }
  - { offsetInCU: 0x91D6, offset: 0x91D6, size: 0x8, addend: 0x0, symName: __ZNSt3__121__libcpp_operator_newB7v160006IJmEEEPvDpT_, symObjAddr: 0x16E8, symBinAddr: 0x100003E30, symSize: 0x24 }
  - { offsetInCU: 0x920F, offset: 0x920F, size: 0x8, addend: 0x0, symName: __ZNSt3__112__to_addressB7v160006IiEEPT_S2_, symObjAddr: 0x1804, symBinAddr: 0x100003F4C, symSize: 0x14 }
  - { offsetInCU: 0x9269, offset: 0x9269, size: 0x8, addend: 0x0, symName: __ZNSt3__112construct_atB7v160006IiJEPiEEPT_S3_DpOT0_, symObjAddr: 0x194C, symBinAddr: 0x100004094, symSize: 0x20 }
  - { offsetInCU: 0x92C5, offset: 0x92C5, size: 0x8, addend: 0x0, symName: __ZNSt3__118__debug_db_erase_cB7v160006INS_6vectorIiNS_9allocatorIiEEEEEEvPT_, symObjAddr: 0x1B30, symBinAddr: 0x100004278, symSize: 0x10 }
  - { offsetInCU: 0x92F6, offset: 0x92F6, size: 0x8, addend: 0x0, symName: __ZNSt3__110destroy_atB7v160006IiLi0EEEvPT_, symObjAddr: 0x1C78, symBinAddr: 0x1000043C0, symSize: 0x24 }
  - { offsetInCU: 0x932D, offset: 0x932D, size: 0x8, addend: 0x0, symName: __ZNSt3__112__destroy_atB7v160006IiLi0EEEvPT_, symObjAddr: 0x1C9C, symBinAddr: 0x1000043E4, symSize: 0x10 }
  - { offsetInCU: 0x9364, offset: 0x9364, size: 0x8, addend: 0x0, symName: __ZNSt3__119__libcpp_deallocateB7v160006EPvmm, symObjAddr: 0x1CEC, symBinAddr: 0x100004434, symSize: 0x60 }
  - { offsetInCU: 0x93C9, offset: 0x93C9, size: 0x8, addend: 0x0, symName: __ZNSt3__127__do_deallocate_handle_sizeB7v160006IJSt11align_val_tEEEvPvmDpT_, symObjAddr: 0x1D4C, symBinAddr: 0x100004494, symSize: 0x30 }
  - { offsetInCU: 0x941C, offset: 0x941C, size: 0x8, addend: 0x0, symName: __ZNSt3__127__do_deallocate_handle_sizeB7v160006IJEEEvPvmDpT_, symObjAddr: 0x1D7C, symBinAddr: 0x1000044C4, symSize: 0x28 }
  - { offsetInCU: 0x945A, offset: 0x945A, size: 0x8, addend: 0x0, symName: __ZNSt3__124__libcpp_operator_deleteB7v160006IJPvSt11align_val_tEEEvDpT_, symObjAddr: 0x1DA4, symBinAddr: 0x1000044EC, symSize: 0x2C }
  - { offsetInCU: 0x94A3, offset: 0x94A3, size: 0x8, addend: 0x0, symName: __ZNSt3__124__libcpp_operator_deleteB7v160006IJPvEEEvDpT_, symObjAddr: 0x1DD0, symBinAddr: 0x100004518, symSize: 0x24 }
  - { offsetInCU: 0x94D8, offset: 0x94D8, size: 0x8, addend: 0x0, symName: __ZNSt3__122__make_exception_guardB7v160006INS_6vectorI2miNS_9allocatorIS2_EEE16__destroy_vectorEEENS_28__exception_guard_exceptionsIT_EES8_, symObjAddr: 0x1F10, symBinAddr: 0x100004658, symSize: 0x40 }
  - { offsetInCU: 0x950D, offset: 0x950D, size: 0x8, addend: 0x0, symName: __ZNSt3__119__debug_db_insert_cB7v160006INS_6vectorI2miNS_9allocatorIS2_EEEEEEvPT_, symObjAddr: 0x1F84, symBinAddr: 0x1000046CC, symSize: 0x10 }
  - { offsetInCU: 0x953E, offset: 0x953E, size: 0x8, addend: 0x0, symName: __ZNSt3__119__allocate_at_leastB7v160006INS_9allocatorI2miEEEEDaRT_m, symObjAddr: 0x230C, symBinAddr: 0x100004A54, symSize: 0x3C }
  - { offsetInCU: 0x9581, offset: 0x9581, size: 0x8, addend: 0x0, symName: __ZNSt3__117allocate_at_leastB7v160006INS_9allocatorI2miEEEENS_17allocation_resultINS_16allocator_traitsIT_E7pointerEEERS6_m, symObjAddr: 0x24CC, symBinAddr: 0x100004C14, symSize: 0x3C }
  - { offsetInCU: 0x95C4, offset: 0x95C4, size: 0x8, addend: 0x0, symName: __ZNSt3__112__to_addressB7v160006I2miEEPT_S3_, symObjAddr: 0x2698, symBinAddr: 0x100004DE0, symSize: 0x14 }
  - { offsetInCU: 0x961E, offset: 0x961E, size: 0x8, addend: 0x0, symName: __ZNSt3__112construct_atB7v160006I2miJEPS1_EEPT_S4_DpOT0_, symObjAddr: 0x27E0, symBinAddr: 0x100004F28, symSize: 0x34 }
  - { offsetInCU: 0x967A, offset: 0x967A, size: 0x8, addend: 0x0, symName: __ZNSt3__118__debug_db_erase_cB7v160006INS_6vectorI2miNS_9allocatorIS2_EEEEEEvPT_, symObjAddr: 0x2A1C, symBinAddr: 0x100005164, symSize: 0x10 }
  - { offsetInCU: 0x96AB, offset: 0x96AB, size: 0x8, addend: 0x0, symName: __ZNSt3__110destroy_atB7v160006I2miLi0EEEvPT_, symObjAddr: 0x2B64, symBinAddr: 0x1000052AC, symSize: 0x24 }
  - { offsetInCU: 0x96E2, offset: 0x96E2, size: 0x8, addend: 0x0, symName: __ZNSt3__112__destroy_atB7v160006I2miLi0EEEvPT_, symObjAddr: 0x2B88, symBinAddr: 0x1000052D0, symSize: 0x10 }
  - { offsetInCU: 0x9719, offset: 0x9719, size: 0x8, addend: 0x0, symName: __ZNSt3__122__make_exception_guardB7v160006INS_6vectorINS1_I2miNS_9allocatorIS2_EEEENS3_IS5_EEE16__destroy_vectorEEENS_28__exception_guard_exceptionsIT_EESA_, symObjAddr: 0x2CFC, symBinAddr: 0x100005444, symSize: 0x40 }
  - { offsetInCU: 0x974E, offset: 0x974E, size: 0x8, addend: 0x0, symName: __ZNSt3__119__debug_db_insert_cB7v160006INS_6vectorINS1_I2miNS_9allocatorIS2_EEEENS3_IS5_EEEEEEvPT_, symObjAddr: 0x2D70, symBinAddr: 0x1000054B8, symSize: 0x10 }
  - { offsetInCU: 0x977F, offset: 0x977F, size: 0x8, addend: 0x0, symName: __ZNSt3__119__allocate_at_leastB7v160006INS_9allocatorINS_6vectorI2miNS1_IS3_EEEEEEEEDaRT_m, symObjAddr: 0x3108, symBinAddr: 0x100005850, symSize: 0x3C }
  - { offsetInCU: 0x97C2, offset: 0x97C2, size: 0x8, addend: 0x0, symName: __ZNSt3__117allocate_at_leastB7v160006INS_9allocatorINS_6vectorI2miNS1_IS3_EEEEEEEENS_17allocation_resultINS_16allocator_traitsIT_E7pointerEEERS9_m, symObjAddr: 0x32E4, symBinAddr: 0x100005A2C, symSize: 0x3C }
  - { offsetInCU: 0x9805, offset: 0x9805, size: 0x8, addend: 0x0, symName: __ZNSt3__112__to_addressB7v160006INS_6vectorI2miNS_9allocatorIS2_EEEEEEPT_S7_, symObjAddr: 0x34B4, symBinAddr: 0x100005BFC, symSize: 0x14 }
  - { offsetInCU: 0x985F, offset: 0x985F, size: 0x8, addend: 0x0, symName: __ZNSt3__112construct_atB7v160006INS_6vectorI2miNS_9allocatorIS2_EEEEJRKS5_EPS5_EEPT_SA_DpOT0_, symObjAddr: 0x360C, symBinAddr: 0x100005D54, symSize: 0x3C }
  - { offsetInCU: 0x98CF, offset: 0x98CF, size: 0x8, addend: 0x0, symName: __ZNSt3__130__uninitialized_allocator_copyB7v160006INS_9allocatorI2miEEPS2_S4_S4_EET2_RT_T0_T1_S5_, symObjAddr: 0x38C0, symBinAddr: 0x100006008, symSize: 0xF4 }
  - { offsetInCU: 0x996D, offset: 0x996D, size: 0x8, addend: 0x0, symName: __ZNSt3__122__make_exception_guardB7v160006INS_29_AllocatorDestroyRangeReverseINS_9allocatorI2miEEPS3_EEEENS_28__exception_guard_exceptionsIT_EES8_, symObjAddr: 0x39B4, symBinAddr: 0x1000060FC, symSize: 0x4C }
  - { offsetInCU: 0x99A3, offset: 0x99A3, size: 0x8, addend: 0x0, symName: __ZNSt3__112construct_atB7v160006I2miJRS1_EPS1_EEPT_S5_DpOT0_, symObjAddr: 0x3B58, symBinAddr: 0x1000062A0, symSize: 0x2C }
  - { offsetInCU: 0x9A13, offset: 0x9A13, size: 0x8, addend: 0x0, symName: __ZNSt3__119__allocator_destroyB7v160006INS_9allocatorI2miEENS_16reverse_iteratorIPS2_EES6_EEvRT_T0_T1_, symObjAddr: 0x3C3C, symBinAddr: 0x100006384, symSize: 0x70 }
  - { offsetInCU: 0x9A76, offset: 0x9A76, size: 0x8, addend: 0x0, symName: __ZNSt3__1neB7v160006IP2miS2_EEbRKNS_16reverse_iteratorIT_EERKNS3_IT0_EE, symObjAddr: 0x3CE0, symBinAddr: 0x100006428, symSize: 0x48 }
  - { offsetInCU: 0x9AC2, offset: 0x9AC2, size: 0x8, addend: 0x0, symName: __ZNSt3__112__to_addressB7v160006INS_16reverse_iteratorIP2miEEvEENS_5decayIDTclsr19__to_address_helperIT_EE6__callclsr3stdE7declvalIRKS6_EEEEE4typeES8_, symObjAddr: 0x3D28, symBinAddr: 0x100006470, symSize: 0x24 }
  - { offsetInCU: 0x9B21, offset: 0x9B21, size: 0x8, addend: 0x0, symName: __ZNSt3__14prevB7v160006IP2miEENS_9enable_ifIXsr25__is_cpp17_input_iteratorIT_EE5valueES4_E4typeES4_NS_15iterator_traitsIS4_E15difference_typeE, symObjAddr: 0x3DE8, symBinAddr: 0x100006530, symSize: 0x50 }
  - { offsetInCU: 0x9B64, offset: 0x9B64, size: 0x8, addend: 0x0, symName: __ZNSt3__121__convert_to_integralB7v160006El, symObjAddr: 0x3E88, symBinAddr: 0x1000065D0, symSize: 0x14 }
  - { offsetInCU: 0x9B90, offset: 0x9B90, size: 0x8, addend: 0x0, symName: __ZNSt3__19__advanceB7v160006IP2miEEvRT_NS_15iterator_traitsIS3_E15difference_typeENS_26random_access_iterator_tagE, symObjAddr: 0x3E9C, symBinAddr: 0x1000065E4, symSize: 0x28 }
  - { offsetInCU: 0x9BD9, offset: 0x9BD9, size: 0x8, addend: 0x0, symName: __ZNSt3__118__debug_db_erase_cB7v160006INS_6vectorINS1_I2miNS_9allocatorIS2_EEEENS3_IS5_EEEEEEvPT_, symObjAddr: 0x40CC, symBinAddr: 0x100006814, symSize: 0x10 }
  - { offsetInCU: 0x9C0A, offset: 0x9C0A, size: 0x8, addend: 0x0, symName: __ZNSt3__110destroy_atB7v160006INS_6vectorI2miNS_9allocatorIS2_EEEELi0EEEvPT_, symObjAddr: 0x4214, symBinAddr: 0x10000695C, symSize: 0x24 }
  - { offsetInCU: 0x9C41, offset: 0x9C41, size: 0x8, addend: 0x0, symName: __ZNSt3__112__destroy_atB7v160006INS_6vectorI2miNS_9allocatorIS2_EEEELi0EEEvPT_, symObjAddr: 0x4238, symBinAddr: 0x100006980, symSize: 0x24 }
  - { offsetInCU: 0x9C78, offset: 0x9C78, size: 0x8, addend: 0x0, symName: __ZNSt3__1neB7v160006IP2miEEbRKNS_11__wrap_iterIT_EES7_, symObjAddr: 0x42E4, symBinAddr: 0x100006A2C, symSize: 0x34 }
  - { offsetInCU: 0x9CBB, offset: 0x9CBB, size: 0x8, addend: 0x0, symName: __ZNSt3__1eqB7v160006IP2miEEbRKNS_11__wrap_iterIT_EES7_, symObjAddr: 0x4350, symBinAddr: 0x100006A98, symSize: 0x48 }
  - { offsetInCU: 0x9CFE, offset: 0x9CFE, size: 0x8, addend: 0x0, symName: __ZNSt3__116__pad_and_outputB7v160006IcNS_11char_traitsIcEEEENS_19ostreambuf_iteratorIT_T0_EES6_PKS4_S8_S8_RNS_8ios_baseES4_, symObjAddr: 0x46D4, symBinAddr: 0x100006E1C, symSize: 0x240 }
  - { offsetInCU: 0x9DCD, offset: 0x9DCD, size: 0x8, addend: 0x0, symName: __ZNSt3__119__debug_db_insert_cB7v160006INS_12basic_stringIcNS_11char_traitsIcEENS_9allocatorIcEEEEEEvPT_, symObjAddr: 0x4B88, symBinAddr: 0x1000072D0, symSize: 0x10 }
  - { offsetInCU: 0x9DFE, offset: 0x9DFE, size: 0x8, addend: 0x0, symName: __ZNSt3__112__to_addressB7v160006IcEEPT_S2_, symObjAddr: 0x4C54, symBinAddr: 0x10000739C, symSize: 0x14 }
  - { offsetInCU: 0x9E33, offset: 0x9E33, size: 0x8, addend: 0x0, symName: __ZNSt3__19use_facetB7v160006INS_5ctypeIcEEEERKT_RKNS_6localeE, symObjAddr: 0x4F0C, symBinAddr: 0x100007654, symSize: 0x2C }
  - { offsetInCU: 0xA6F5, offset: 0xA6F5, size: 0x8, addend: 0x0, symName: __ZSt28__throw_bad_array_new_lengthB7v160006v, symObjAddr: 0x1608, symBinAddr: 0x100003D50, symSize: 0x34 }
  - { offsetInCU: 0xD509, offset: 0xD509, size: 0x8, addend: 0x0, symName: __ZpLR2miS_, symObjAddr: 0x0, symBinAddr: 0x100002748, symSize: 0x64 }
  - { offsetInCU: 0xD543, offset: 0xD543, size: 0x8, addend: 0x0, symName: __ZmIR2miS_, symObjAddr: 0x64, symBinAddr: 0x1000027AC, symSize: 0x5C }
  - { offsetInCU: 0xD57D, offset: 0xD57D, size: 0x8, addend: 0x0, symName: __Zpl2miS_, symObjAddr: 0xC0, symBinAddr: 0x100002808, symSize: 0x4C }
  - { offsetInCU: 0xD5B7, offset: 0xD5B7, size: 0x8, addend: 0x0, symName: __Zmi2miS_, symObjAddr: 0x10C, symBinAddr: 0x100002854, symSize: 0x4C }
  - { offsetInCU: 0xD5F1, offset: 0xD5F1, size: 0x8, addend: 0x0, symName: __Zml2miS_, symObjAddr: 0x158, symBinAddr: 0x1000028A0, symSize: 0x40 }
  - { offsetInCU: 0xD62C, offset: 0xD62C, size: 0x8, addend: 0x0, symName: __ZN2miC1Ex, symObjAddr: 0x198, symBinAddr: 0x1000028E0, symSize: 0x34 }
  - { offsetInCU: 0xD663, offset: 0xD663, size: 0x8, addend: 0x0, symName: __ZmLR2miS_, symObjAddr: 0x1CC, symBinAddr: 0x100002914, symSize: 0x5C }
  - { offsetInCU: 0xD69D, offset: 0xD69D, size: 0x8, addend: 0x0, symName: __Z3pow2mix, symObjAddr: 0x228, symBinAddr: 0x100002970, symSize: 0x114 }
  - { offsetInCU: 0xD6D7, offset: 0xD6D7, size: 0x8, addend: 0x0, symName: __Z3inv2mi, symObjAddr: 0x33C, symBinAddr: 0x100002A84, symSize: 0x7C }
  - { offsetInCU: 0xD703, offset: 0xD703, size: 0x8, addend: 0x0, symName: __Zdv2miS_, symObjAddr: 0x3B8, symBinAddr: 0x100002B00, symSize: 0x64 }
  - { offsetInCU: 0xD73D, offset: 0xD73D, size: 0x8, addend: 0x0, symName: __Z5solvev, symObjAddr: 0x41C, symBinAddr: 0x100002B64, symSize: 0x480 }
  - { offsetInCU: 0xD820, offset: 0xD820, size: 0x8, addend: 0x0, symName: __ZNSt3__16vectorIiNS_9allocatorIiEEEC1Em, symObjAddr: 0x89C, symBinAddr: 0x100002FE4, symSize: 0x34 }
  - { offsetInCU: 0xD85B, offset: 0xD85B, size: 0x8, addend: 0x0, symName: __ZNSt3__16vectorIiNS_9allocatorIiEEEixB7v160006Em, symObjAddr: 0x8D0, symBinAddr: 0x100003018, symSize: 0x24 }
  - { offsetInCU: 0xD892, offset: 0xD892, size: 0x8, addend: 0x0, symName: __ZNSt3__16vectorI2miNS_9allocatorIS1_EEEC1Em, symObjAddr: 0x8F4, symBinAddr: 0x10000303C, symSize: 0x34 }
  - { offsetInCU: 0xD8CD, offset: 0xD8CD, size: 0x8, addend: 0x0, symName: __ZNSt3__16vectorINS0_I2miNS_9allocatorIS1_EEEENS2_IS4_EEEC1EmRKS4_, symObjAddr: 0x928, symBinAddr: 0x100003070, symSize: 0x3C }
  - { offsetInCU: 0xD917, offset: 0xD917, size: 0x8, addend: 0x0, symName: __ZNSt3__16vectorI2miNS_9allocatorIS1_EEED1B7v160006Ev, symObjAddr: 0x964, symBinAddr: 0x1000030AC, symSize: 0x2C }
  - { offsetInCU: 0xD941, offset: 0xD941, size: 0x8, addend: 0x0, symName: __ZNSt3__16vectorINS0_I2miNS_9allocatorIS1_EEEENS2_IS4_EEEixB7v160006Em, symObjAddr: 0x990, symBinAddr: 0x1000030D8, symSize: 0x2C }
  - { offsetInCU: 0xD978, offset: 0xD978, size: 0x8, addend: 0x0, symName: __ZNSt3__16vectorI2miNS_9allocatorIS1_EEEixB7v160006Em, symObjAddr: 0x9BC, symBinAddr: 0x100003104, symSize: 0x24 }
  - { offsetInCU: 0xD9AF, offset: 0xD9AF, size: 0x8, addend: 0x0, symName: __ZNSt3__16vectorI2miNS_9allocatorIS1_EEE5beginB7v160006Ev, symObjAddr: 0xAA8, symBinAddr: 0x1000031F0, symSize: 0x30 }
  - { offsetInCU: 0xD9D7, offset: 0xD9D7, size: 0x8, addend: 0x0, symName: __ZNSt3__16vectorI2miNS_9allocatorIS1_EEE3endB7v160006Ev, symObjAddr: 0xAD8, symBinAddr: 0x100003220, symSize: 0x30 }
  - { offsetInCU: 0xD9FF, offset: 0xD9FF, size: 0x8, addend: 0x0, symName: __ZNK2micviEv, symObjAddr: 0xB08, symBinAddr: 0x100003250, symSize: 0x18 }
  - { offsetInCU: 0xDA25, offset: 0xDA25, size: 0x8, addend: 0x0, symName: __ZNSt3__16vectorINS0_I2miNS_9allocatorIS1_EEEENS2_IS4_EEED1B7v160006Ev, symObjAddr: 0xB20, symBinAddr: 0x100003268, symSize: 0x2C }
  - { offsetInCU: 0xDA4F, offset: 0xDA4F, size: 0x8, addend: 0x0, symName: __ZNSt3__16vectorIiNS_9allocatorIiEEED1B7v160006Ev, symObjAddr: 0xB4C, symBinAddr: 0x100003294, symSize: 0x2C }
  - { offsetInCU: 0xDA79, offset: 0xDA79, size: 0x8, addend: 0x0, symName: _main, symObjAddr: 0xB78, symBinAddr: 0x1000032C0, symSize: 0x80 }
  - { offsetInCU: 0xDAA2, offset: 0xDAA2, size: 0x8, addend: 0x0, symName: __ZNSt3__19basic_iosIcNS_11char_traitsIcEEE3tieB7v160006EPNS_13basic_ostreamIcS2_EE, symObjAddr: 0xBF8, symBinAddr: 0x100003340, symSize: 0x2C }
  - { offsetInCU: 0xDAE8, offset: 0xDAE8, size: 0x8, addend: 0x0, symName: __ZN2miC2Ex, symObjAddr: 0xC24, symBinAddr: 0x10000336C, symSize: 0x5C }
  - { offsetInCU: 0xDB20, offset: 0xDB20, size: 0x8, addend: 0x0, symName: __ZNSt3__16vectorIiNS_9allocatorIiEEEC2Em, symObjAddr: 0xC80, symBinAddr: 0x1000033C8, symSize: 0xE0 }
  - { offsetInCU: 0xDB7C, offset: 0xDB7C, size: 0x8, addend: 0x0, symName: __ZNSt3__117__compressed_pairIPiNS_9allocatorIiEEEC1B7v160006IDnNS_18__default_init_tagEEEOT_OT0_, symObjAddr: 0xD60, symBinAddr: 0x1000034A8, symSize: 0x3C }
  - { offsetInCU: 0xDBD4, offset: 0xDBD4, size: 0x8, addend: 0x0, symName: __ZNSt3__16vectorIiNS_9allocatorIiEEE16__destroy_vectorC1ERS3_, symObjAddr: 0xDDC, symBinAddr: 0x100003524, symSize: 0x34 }
  - { offsetInCU: 0xDC0D, offset: 0xDC0D, size: 0x8, addend: 0x0, symName: __ZNSt3__16vectorIiNS_9allocatorIiEEE11__vallocateB7v160006Em, symObjAddr: 0xE20, symBinAddr: 0x100003568, symSize: 0xAC }
  - { offsetInCU: 0xDC51, offset: 0xDC51, size: 0x8, addend: 0x0, symName: __ZNSt3__16vectorIiNS_9allocatorIiEEE18__construct_at_endEm, symObjAddr: 0xECC, symBinAddr: 0x100003614, symSize: 0xC8 }
  - { offsetInCU: 0xDCC3, offset: 0xDCC3, size: 0x8, addend: 0x0, symName: __ZNSt3__128__exception_guard_exceptionsINS_6vectorIiNS_9allocatorIiEEE16__destroy_vectorEE10__completeB7v160006Ev, symObjAddr: 0xF94, symBinAddr: 0x1000036DC, symSize: 0x1C }
  - { offsetInCU: 0xDCE9, offset: 0xDCE9, size: 0x8, addend: 0x0, symName: __ZNSt3__128__exception_guard_exceptionsINS_6vectorIiNS_9allocatorIiEEE16__destroy_vectorEED1B7v160006Ev, symObjAddr: 0xFB0, symBinAddr: 0x1000036F8, symSize: 0x2C }
  - { offsetInCU: 0xDD13, offset: 0xDD13, size: 0x8, addend: 0x0, symName: __ZNSt3__117__compressed_pairIPiNS_9allocatorIiEEEC2B7v160006IDnNS_18__default_init_tagEEEOT_OT0_, symObjAddr: 0xFDC, symBinAddr: 0x100003724, symSize: 0x40 }
  - { offsetInCU: 0xDD6B, offset: 0xDD6B, size: 0x8, addend: 0x0, symName: __ZNSt3__122__compressed_pair_elemIPiLi0ELb0EEC2B7v160006IDnvEEOT_, symObjAddr: 0x101C, symBinAddr: 0x100003764, symSize: 0x1C }
  - { offsetInCU: 0xDDAD, offset: 0xDDAD, size: 0x8, addend: 0x0, symName: __ZNSt3__122__compressed_pair_elemINS_9allocatorIiEELi1ELb1EEC2B7v160006ENS_18__default_init_tagE, symObjAddr: 0x1038, symBinAddr: 0x100003780, symSize: 0x2C }
  - { offsetInCU: 0xDDE1, offset: 0xDDE1, size: 0x8, addend: 0x0, symName: __ZNSt3__19allocatorIiEC2B7v160006Ev, symObjAddr: 0x1064, symBinAddr: 0x1000037AC, symSize: 0x2C }
  - { offsetInCU: 0xDE0B, offset: 0xDE0B, size: 0x8, addend: 0x0, symName: __ZNSt3__116__non_trivial_ifILb1ENS_9allocatorIiEEEC2B7v160006Ev, symObjAddr: 0x1090, symBinAddr: 0x1000037D8, symSize: 0x14 }
  - { offsetInCU: 0xDE35, offset: 0xDE35, size: 0x8, addend: 0x0, symName: __ZNSt3__128__exception_guard_exceptionsINS_6vectorIiNS_9allocatorIiEEE16__destroy_vectorEEC1B7v160006ES5_, symObjAddr: 0x10A4, symBinAddr: 0x1000037EC, symSize: 0x34 }
  - { offsetInCU: 0xDE6D, offset: 0xDE6D, size: 0x8, addend: 0x0, symName: __ZNSt3__128__exception_guard_exceptionsINS_6vectorIiNS_9allocatorIiEEE16__destroy_vectorEEC2B7v160006ES5_, symObjAddr: 0x10D8, symBinAddr: 0x100003820, symSize: 0x24 }
  - { offsetInCU: 0xDEA5, offset: 0xDEA5, size: 0x8, addend: 0x0, symName: __ZNSt3__16vectorIiNS_9allocatorIiEEE16__destroy_vectorC2ERS3_, symObjAddr: 0x10FC, symBinAddr: 0x100003844, symSize: 0x20 }
  - { offsetInCU: 0xDEDE, offset: 0xDEDE, size: 0x8, addend: 0x0, symName: __ZNKSt3__16vectorIiNS_9allocatorIiEEE8max_sizeEv, symObjAddr: 0x111C, symBinAddr: 0x100003864, symSize: 0x60 }
  - { offsetInCU: 0xDF06, offset: 0xDF06, size: 0x8, addend: 0x0, symName: __ZNKSt3__16vectorIiNS_9allocatorIiEEE20__throw_length_errorB7v160006Ev, symObjAddr: 0x117C, symBinAddr: 0x1000038C4, symSize: 0x1C }
  - { offsetInCU: 0xDF2C, offset: 0xDF2C, size: 0x8, addend: 0x0, symName: __ZNSt3__16vectorIiNS_9allocatorIiEEE7__allocB7v160006Ev, symObjAddr: 0x11D4, symBinAddr: 0x10000391C, symSize: 0x28 }
  - { offsetInCU: 0xDF52, offset: 0xDF52, size: 0x8, addend: 0x0, symName: __ZNSt3__16vectorIiNS_9allocatorIiEEE9__end_capB7v160006Ev, symObjAddr: 0x11FC, symBinAddr: 0x100003944, symSize: 0x28 }
  - { offsetInCU: 0xDF78, offset: 0xDF78, size: 0x8, addend: 0x0, symName: __ZNKSt3__16vectorIiNS_9allocatorIiEEE14__annotate_newB7v160006Em, symObjAddr: 0x1224, symBinAddr: 0x10000396C, symSize: 0xAC }
  - { offsetInCU: 0xDFB7, offset: 0xDFB7, size: 0x8, addend: 0x0, symName: __ZNSt3__116allocator_traitsINS_9allocatorIiEEE8max_sizeB7v160006IS2_vvEEmRKS2_, symObjAddr: 0x12FC, symBinAddr: 0x100003A44, symSize: 0x28 }
  - { offsetInCU: 0xDFE3, offset: 0xDFE3, size: 0x8, addend: 0x0, symName: __ZNKSt3__16vectorIiNS_9allocatorIiEEE7__allocB7v160006Ev, symObjAddr: 0x1324, symBinAddr: 0x100003A6C, symSize: 0x28 }
  - { offsetInCU: 0xE009, offset: 0xE009, size: 0x8, addend: 0x0, symName: __ZNSt3__114numeric_limitsIlE3maxB7v160006Ev, symObjAddr: 0x134C, symBinAddr: 0x100003A94, symSize: 0x14 }
  - { offsetInCU: 0xE031, offset: 0xE031, size: 0x8, addend: 0x0, symName: __ZNKSt3__16__lessImmEclB7v160006ERKmS3_, symObjAddr: 0x13C0, symBinAddr: 0x100003B08, symSize: 0x34 }
  - { offsetInCU: 0xE073, offset: 0xE073, size: 0x8, addend: 0x0, symName: __ZNSt3__114numeric_limitsImE3maxB7v160006Ev, symObjAddr: 0x13F4, symBinAddr: 0x100003B3C, symSize: 0x14 }
  - { offsetInCU: 0xE087, offset: 0xE087, size: 0x8, addend: 0x0, symName: __ZNSt3__123__libcpp_numeric_limitsImLb1EE3maxB7v160006Ev, symObjAddr: 0x1408, symBinAddr: 0x100003B50, symSize: 0x8 }
  - { offsetInCU: 0xE09B, offset: 0xE09B, size: 0x8, addend: 0x0, symName: __ZNKSt3__117__compressed_pairIPiNS_9allocatorIiEEE6secondB7v160006Ev, symObjAddr: 0x1410, symBinAddr: 0x100003B58, symSize: 0x24 }
  - { offsetInCU: 0xE0C1, offset: 0xE0C1, size: 0x8, addend: 0x0, symName: __ZNKSt3__122__compressed_pair_elemINS_9allocatorIiEELi1ELb1EE5__getB7v160006Ev, symObjAddr: 0x1434, symBinAddr: 0x100003B7C, symSize: 0x14 }
  - { offsetInCU: 0xE0E7, offset: 0xE0E7, size: 0x8, addend: 0x0, symName: __ZNSt3__123__libcpp_numeric_limitsIlLb1EE3maxB7v160006Ev, symObjAddr: 0x1448, symBinAddr: 0x100003B90, symSize: 0x8 }
  - { offsetInCU: 0xE0FB, offset: 0xE0FB, size: 0x8, addend: 0x0, symName: __ZNSt12length_errorC1B7v160006EPKc, symObjAddr: 0x14B4, symBinAddr: 0x100003BFC, symSize: 0x34 }
  - { offsetInCU: 0xE133, offset: 0xE133, size: 0x8, addend: 0x0, symName: __ZNSt12length_errorC2B7v160006EPKc, symObjAddr: 0x14E8, symBinAddr: 0x100003C30, symSize: 0x4C }
  - { offsetInCU: 0xE16B, offset: 0xE16B, size: 0x8, addend: 0x0, symName: __ZNSt3__19allocatorIiE17allocate_at_leastB7v160006Em, symObjAddr: 0x1570, symBinAddr: 0x100003CB8, symSize: 0x40 }
  - { offsetInCU: 0xE19F, offset: 0xE19F, size: 0x8, addend: 0x0, symName: __ZNSt3__19allocatorIiE8allocateB7v160006Em, symObjAddr: 0x15B0, symBinAddr: 0x100003CF8, symSize: 0x58 }
  - { offsetInCU: 0xE1D3, offset: 0xE1D3, size: 0x8, addend: 0x0, symName: __ZNSt3__117__compressed_pairIPiNS_9allocatorIiEEE6secondB7v160006Ev, symObjAddr: 0x170C, symBinAddr: 0x100003E54, symSize: 0x24 }
  - { offsetInCU: 0xE1F9, offset: 0xE1F9, size: 0x8, addend: 0x0, symName: __ZNSt3__122__compressed_pair_elemINS_9allocatorIiEELi1ELb1EE5__getB7v160006Ev, symObjAddr: 0x1730, symBinAddr: 0x100003E78, symSize: 0x14 }
  - { offsetInCU: 0xE21F, offset: 0xE21F, size: 0x8, addend: 0x0, symName: __ZNSt3__117__compressed_pairIPiNS_9allocatorIiEEE5firstB7v160006Ev, symObjAddr: 0x1744, symBinAddr: 0x100003E8C, symSize: 0x24 }
  - { offsetInCU: 0xE245, offset: 0xE245, size: 0x8, addend: 0x0, symName: __ZNSt3__122__compressed_pair_elemIPiLi0ELb0EE5__getB7v160006Ev, symObjAddr: 0x1768, symBinAddr: 0x100003EB0, symSize: 0x14 }
  - { offsetInCU: 0xE26B, offset: 0xE26B, size: 0x8, addend: 0x0, symName: __ZNKSt3__16vectorIiNS_9allocatorIiEEE31__annotate_contiguous_containerB7v160006EPKvS5_S5_S5_, symObjAddr: 0x177C, symBinAddr: 0x100003EC4, symSize: 0x20 }
  - { offsetInCU: 0xE2C1, offset: 0xE2C1, size: 0x8, addend: 0x0, symName: __ZNKSt3__16vectorIiNS_9allocatorIiEEE4dataB7v160006Ev, symObjAddr: 0x179C, symBinAddr: 0x100003EE4, symSize: 0x28 }
  - { offsetInCU: 0xE2E7, offset: 0xE2E7, size: 0x8, addend: 0x0, symName: __ZNKSt3__16vectorIiNS_9allocatorIiEEE8capacityB7v160006Ev, symObjAddr: 0x17C4, symBinAddr: 0x100003F0C, symSize: 0x40 }
  - { offsetInCU: 0xE30D, offset: 0xE30D, size: 0x8, addend: 0x0, symName: __ZNKSt3__16vectorIiNS_9allocatorIiEEE9__end_capB7v160006Ev, symObjAddr: 0x1818, symBinAddr: 0x100003F60, symSize: 0x28 }
  - { offsetInCU: 0xE333, offset: 0xE333, size: 0x8, addend: 0x0, symName: __ZNKSt3__117__compressed_pairIPiNS_9allocatorIiEEE5firstB7v160006Ev, symObjAddr: 0x1840, symBinAddr: 0x100003F88, symSize: 0x24 }
  - { offsetInCU: 0xE359, offset: 0xE359, size: 0x8, addend: 0x0, symName: __ZNKSt3__122__compressed_pair_elemIPiLi0ELb0EE5__getB7v160006Ev, symObjAddr: 0x1864, symBinAddr: 0x100003FAC, symSize: 0x14 }
  - { offsetInCU: 0xE398, offset: 0xE398, size: 0x8, addend: 0x0, symName: __ZNSt3__16vectorIiNS_9allocatorIiEEE21_ConstructTransactionC1B7v160006ERS3_m, symObjAddr: 0x1878, symBinAddr: 0x100003FC0, symSize: 0x3C }
  - { offsetInCU: 0xE3E0, offset: 0xE3E0, size: 0x8, addend: 0x0, symName: __ZNSt3__116allocator_traitsINS_9allocatorIiEEE9constructB7v160006IiJEvvEEvRS2_PT_DpOT0_, symObjAddr: 0x18B4, symBinAddr: 0x100003FFC, symSize: 0x28 }
  - { offsetInCU: 0xE420, offset: 0xE420, size: 0x8, addend: 0x0, symName: __ZNSt3__16vectorIiNS_9allocatorIiEEE21_ConstructTransactionD1B7v160006Ev, symObjAddr: 0x18DC, symBinAddr: 0x100004024, symSize: 0x2C }
  - { offsetInCU: 0xE44A, offset: 0xE44A, size: 0x8, addend: 0x0, symName: __ZNSt3__16vectorIiNS_9allocatorIiEEE21_ConstructTransactionC2B7v160006ERS3_m, symObjAddr: 0x1908, symBinAddr: 0x100004050, symSize: 0x44 }
  - { offsetInCU: 0xE492, offset: 0xE492, size: 0x8, addend: 0x0, symName: __ZNSt3__16vectorIiNS_9allocatorIiEEE21_ConstructTransactionD2B7v160006Ev, symObjAddr: 0x196C, symBinAddr: 0x1000040B4, symSize: 0x20 }
  - { offsetInCU: 0xE4BC, offset: 0xE4BC, size: 0x8, addend: 0x0, symName: __ZNSt3__128__exception_guard_exceptionsINS_6vectorIiNS_9allocatorIiEEE16__destroy_vectorEED2B7v160006Ev, symObjAddr: 0x198C, symBinAddr: 0x1000040D4, symSize: 0x50 }
  - { offsetInCU: 0xE4E6, offset: 0xE4E6, size: 0x8, addend: 0x0, symName: __ZNSt3__16vectorIiNS_9allocatorIiEEE16__destroy_vectorclB7v160006Ev, symObjAddr: 0x19DC, symBinAddr: 0x100004124, symSize: 0x9C }
  - { offsetInCU: 0xE50C, offset: 0xE50C, size: 0x8, addend: 0x0, symName: __ZNKSt3__16vectorIiNS_9allocatorIiEEE17__annotate_deleteB7v160006Ev, symObjAddr: 0x1A78, symBinAddr: 0x1000041C0, symSize: 0xB8 }
  - { offsetInCU: 0xE532, offset: 0xE532, size: 0x8, addend: 0x0, symName: __ZNSt3__16vectorIiNS_9allocatorIiEEE7__clearB7v160006Ev, symObjAddr: 0x1B40, symBinAddr: 0x100004288, symSize: 0x28 }
  - { offsetInCU: 0xE558, offset: 0xE558, size: 0x8, addend: 0x0, symName: __ZNSt3__116allocator_traitsINS_9allocatorIiEEE10deallocateB7v160006ERS2_Pim, symObjAddr: 0x1B68, symBinAddr: 0x1000042B0, symSize: 0x34 }
  - { offsetInCU: 0xE59A, offset: 0xE59A, size: 0x8, addend: 0x0, symName: __ZNKSt3__16vectorIiNS_9allocatorIiEEE4sizeB7v160006Ev, symObjAddr: 0x1B9C, symBinAddr: 0x1000042E4, symSize: 0x28 }
  - { offsetInCU: 0xE5C0, offset: 0xE5C0, size: 0x8, addend: 0x0, symName: __ZNSt3__16vectorIiNS_9allocatorIiEEE22__base_destruct_at_endB7v160006EPi, symObjAddr: 0x1BC4, symBinAddr: 0x10000430C, symSize: 0x8C }
  - { offsetInCU: 0xE604, offset: 0xE604, size: 0x8, addend: 0x0, symName: __ZNSt3__116allocator_traitsINS_9allocatorIiEEE7destroyB7v160006IivvEEvRS2_PT_, symObjAddr: 0x1C50, symBinAddr: 0x100004398, symSize: 0x28 }
  - { offsetInCU: 0xE63F, offset: 0xE63F, size: 0x8, addend: 0x0, symName: __ZNSt3__19allocatorIiE10deallocateB7v160006EPim, symObjAddr: 0x1CAC, symBinAddr: 0x1000043F4, symSize: 0x40 }
  - { offsetInCU: 0xE681, offset: 0xE681, size: 0x8, addend: 0x0, symName: __ZNSt3__16vectorI2miNS_9allocatorIS1_EEEC2Em, symObjAddr: 0x1DF4, symBinAddr: 0x10000453C, symSize: 0xE0 }
  - { offsetInCU: 0xE6D1, offset: 0xE6D1, size: 0x8, addend: 0x0, symName: __ZNSt3__117__compressed_pairIP2miNS_9allocatorIS1_EEEC1B7v160006IDnNS_18__default_init_tagEEEOT_OT0_, symObjAddr: 0x1ED4, symBinAddr: 0x10000461C, symSize: 0x3C }
  - { offsetInCU: 0xE729, offset: 0xE729, size: 0x8, addend: 0x0, symName: __ZNSt3__16vectorI2miNS_9allocatorIS1_EEE16__destroy_vectorC1ERS4_, symObjAddr: 0x1F50, symBinAddr: 0x100004698, symSize: 0x34 }
  - { offsetInCU: 0xE762, offset: 0xE762, size: 0x8, addend: 0x0, symName: __ZNSt3__16vectorI2miNS_9allocatorIS1_EEE11__vallocateB7v160006Em, symObjAddr: 0x1F94, symBinAddr: 0x1000046DC, symSize: 0xAC }
  - { offsetInCU: 0xE7A6, offset: 0xE7A6, size: 0x8, addend: 0x0, symName: __ZNSt3__16vectorI2miNS_9allocatorIS1_EEE18__construct_at_endEm, symObjAddr: 0x2040, symBinAddr: 0x100004788, symSize: 0xC8 }
  - { offsetInCU: 0xE818, offset: 0xE818, size: 0x8, addend: 0x0, symName: __ZNSt3__128__exception_guard_exceptionsINS_6vectorI2miNS_9allocatorIS2_EEE16__destroy_vectorEE10__completeB7v160006Ev, symObjAddr: 0x2108, symBinAddr: 0x100004850, symSize: 0x1C }
  - { offsetInCU: 0xE83E, offset: 0xE83E, size: 0x8, addend: 0x0, symName: __ZNSt3__128__exception_guard_exceptionsINS_6vectorI2miNS_9allocatorIS2_EEE16__destroy_vectorEED1B7v160006Ev, symObjAddr: 0x2124, symBinAddr: 0x10000486C, symSize: 0x2C }
  - { offsetInCU: 0xE868, offset: 0xE868, size: 0x8, addend: 0x0, symName: __ZNSt3__117__compressed_pairIP2miNS_9allocatorIS1_EEEC2B7v160006IDnNS_18__default_init_tagEEEOT_OT0_, symObjAddr: 0x2150, symBinAddr: 0x100004898, symSize: 0x40 }
  - { offsetInCU: 0xE8C0, offset: 0xE8C0, size: 0x8, addend: 0x0, symName: __ZNSt3__122__compressed_pair_elemIP2miLi0ELb0EEC2B7v160006IDnvEEOT_, symObjAddr: 0x2190, symBinAddr: 0x1000048D8, symSize: 0x1C }
  - { offsetInCU: 0xE902, offset: 0xE902, size: 0x8, addend: 0x0, symName: __ZNSt3__122__compressed_pair_elemINS_9allocatorI2miEELi1ELb1EEC2B7v160006ENS_18__default_init_tagE, symObjAddr: 0x21AC, symBinAddr: 0x1000048F4, symSize: 0x2C }
  - { offsetInCU: 0xE936, offset: 0xE936, size: 0x8, addend: 0x0, symName: __ZNSt3__19allocatorI2miEC2B7v160006Ev, symObjAddr: 0x21D8, symBinAddr: 0x100004920, symSize: 0x2C }
  - { offsetInCU: 0xE960, offset: 0xE960, size: 0x8, addend: 0x0, symName: __ZNSt3__116__non_trivial_ifILb1ENS_9allocatorI2miEEEC2B7v160006Ev, symObjAddr: 0x2204, symBinAddr: 0x10000494C, symSize: 0x14 }
  - { offsetInCU: 0xE98A, offset: 0xE98A, size: 0x8, addend: 0x0, symName: __ZNSt3__128__exception_guard_exceptionsINS_6vectorI2miNS_9allocatorIS2_EEE16__destroy_vectorEEC1B7v160006ES6_, symObjAddr: 0x2218, symBinAddr: 0x100004960, symSize: 0x34 }
  - { offsetInCU: 0xE9C2, offset: 0xE9C2, size: 0x8, addend: 0x0, symName: __ZNSt3__128__exception_guard_exceptionsINS_6vectorI2miNS_9allocatorIS2_EEE16__destroy_vectorEEC2B7v160006ES6_, symObjAddr: 0x224C, symBinAddr: 0x100004994, symSize: 0x24 }
  - { offsetInCU: 0xE9FA, offset: 0xE9FA, size: 0x8, addend: 0x0, symName: __ZNSt3__16vectorI2miNS_9allocatorIS1_EEE16__destroy_vectorC2ERS4_, symObjAddr: 0x2270, symBinAddr: 0x1000049B8, symSize: 0x20 }
  - { offsetInCU: 0xEA33, offset: 0xEA33, size: 0x8, addend: 0x0, symName: __ZNKSt3__16vectorI2miNS_9allocatorIS1_EEE8max_sizeEv, symObjAddr: 0x2290, symBinAddr: 0x1000049D8, symSize: 0x60 }
  - { offsetInCU: 0xEA5B, offset: 0xEA5B, size: 0x8, addend: 0x0, symName: __ZNKSt3__16vectorI2miNS_9allocatorIS1_EEE20__throw_length_errorB7v160006Ev, symObjAddr: 0x22F0, symBinAddr: 0x100004A38, symSize: 0x1C }
  - { offsetInCU: 0xEA81, offset: 0xEA81, size: 0x8, addend: 0x0, symName: __ZNSt3__16vectorI2miNS_9allocatorIS1_EEE7__allocB7v160006Ev, symObjAddr: 0x2348, symBinAddr: 0x100004A90, symSize: 0x28 }
  - { offsetInCU: 0xEAA7, offset: 0xEAA7, size: 0x8, addend: 0x0, symName: __ZNSt3__16vectorI2miNS_9allocatorIS1_EEE9__end_capB7v160006Ev, symObjAddr: 0x2370, symBinAddr: 0x100004AB8, symSize: 0x28 }
  - { offsetInCU: 0xEACD, offset: 0xEACD, size: 0x8, addend: 0x0, symName: __ZNKSt3__16vectorI2miNS_9allocatorIS1_EEE14__annotate_newB7v160006Em, symObjAddr: 0x2398, symBinAddr: 0x100004AE0, symSize: 0xAC }
  - { offsetInCU: 0xEB0C, offset: 0xEB0C, size: 0x8, addend: 0x0, symName: __ZNSt3__116allocator_traitsINS_9allocatorI2miEEE8max_sizeB7v160006IS3_vvEEmRKS3_, symObjAddr: 0x2444, symBinAddr: 0x100004B8C, symSize: 0x28 }
  - { offsetInCU: 0xEB38, offset: 0xEB38, size: 0x8, addend: 0x0, symName: __ZNKSt3__16vectorI2miNS_9allocatorIS1_EEE7__allocB7v160006Ev, symObjAddr: 0x246C, symBinAddr: 0x100004BB4, symSize: 0x28 }
  - { offsetInCU: 0xEB5E, offset: 0xEB5E, size: 0x8, addend: 0x0, symName: __ZNKSt3__117__compressed_pairIP2miNS_9allocatorIS1_EEE6secondB7v160006Ev, symObjAddr: 0x2494, symBinAddr: 0x100004BDC, symSize: 0x24 }
  - { offsetInCU: 0xEB84, offset: 0xEB84, size: 0x8, addend: 0x0, symName: __ZNKSt3__122__compressed_pair_elemINS_9allocatorI2miEELi1ELb1EE5__getB7v160006Ev, symObjAddr: 0x24B8, symBinAddr: 0x100004C00, symSize: 0x14 }
  - { offsetInCU: 0xEBAA, offset: 0xEBAA, size: 0x8, addend: 0x0, symName: __ZNSt3__19allocatorI2miE17allocate_at_leastB7v160006Em, symObjAddr: 0x2508, symBinAddr: 0x100004C50, symSize: 0x40 }
  - { offsetInCU: 0xEBDE, offset: 0xEBDE, size: 0x8, addend: 0x0, symName: __ZNSt3__19allocatorI2miE8allocateB7v160006Em, symObjAddr: 0x2548, symBinAddr: 0x100004C90, symSize: 0x58 }
  - { offsetInCU: 0xEC12, offset: 0xEC12, size: 0x8, addend: 0x0, symName: __ZNSt3__117__compressed_pairIP2miNS_9allocatorIS1_EEE6secondB7v160006Ev, symObjAddr: 0x25A0, symBinAddr: 0x100004CE8, symSize: 0x24 }
  - { offsetInCU: 0xEC38, offset: 0xEC38, size: 0x8, addend: 0x0, symName: __ZNSt3__122__compressed_pair_elemINS_9allocatorI2miEELi1ELb1EE5__getB7v160006Ev, symObjAddr: 0x25C4, symBinAddr: 0x100004D0C, symSize: 0x14 }
  - { offsetInCU: 0xEC5E, offset: 0xEC5E, size: 0x8, addend: 0x0, symName: __ZNSt3__117__compressed_pairIP2miNS_9allocatorIS1_EEE5firstB7v160006Ev, symObjAddr: 0x25D8, symBinAddr: 0x100004D20, symSize: 0x24 }
  - { offsetInCU: 0xEC84, offset: 0xEC84, size: 0x8, addend: 0x0, symName: __ZNSt3__122__compressed_pair_elemIP2miLi0ELb0EE5__getB7v160006Ev, symObjAddr: 0x25FC, symBinAddr: 0x100004D44, symSize: 0x14 }
  - { offsetInCU: 0xECAA, offset: 0xECAA, size: 0x8, addend: 0x0, symName: __ZNKSt3__16vectorI2miNS_9allocatorIS1_EEE31__annotate_contiguous_containerB7v160006EPKvS6_S6_S6_, symObjAddr: 0x2610, symBinAddr: 0x100004D58, symSize: 0x20 }
  - { offsetInCU: 0xED00, offset: 0xED00, size: 0x8, addend: 0x0, symName: __ZNKSt3__16vectorI2miNS_9allocatorIS1_EEE4dataB7v160006Ev, symObjAddr: 0x2630, symBinAddr: 0x100004D78, symSize: 0x28 }
  - { offsetInCU: 0xED26, offset: 0xED26, size: 0x8, addend: 0x0, symName: __ZNKSt3__16vectorI2miNS_9allocatorIS1_EEE8capacityB7v160006Ev, symObjAddr: 0x2658, symBinAddr: 0x100004DA0, symSize: 0x40 }
  - { offsetInCU: 0xED4C, offset: 0xED4C, size: 0x8, addend: 0x0, symName: __ZNKSt3__16vectorI2miNS_9allocatorIS1_EEE9__end_capB7v160006Ev, symObjAddr: 0x26AC, symBinAddr: 0x100004DF4, symSize: 0x28 }
  - { offsetInCU: 0xED72, offset: 0xED72, size: 0x8, addend: 0x0, symName: __ZNKSt3__117__compressed_pairIP2miNS_9allocatorIS1_EEE5firstB7v160006Ev, symObjAddr: 0x26D4, symBinAddr: 0x100004E1C, symSize: 0x24 }
  - { offsetInCU: 0xED98, offset: 0xED98, size: 0x8, addend: 0x0, symName: __ZNKSt3__122__compressed_pair_elemIP2miLi0ELb0EE5__getB7v160006Ev, symObjAddr: 0x26F8, symBinAddr: 0x100004E40, symSize: 0x14 }
  - { offsetInCU: 0xEDD7, offset: 0xEDD7, size: 0x8, addend: 0x0, symName: __ZNSt3__16vectorI2miNS_9allocatorIS1_EEE21_ConstructTransactionC1B7v160006ERS4_m, symObjAddr: 0x270C, symBinAddr: 0x100004E54, symSize: 0x3C }
  - { offsetInCU: 0xEE1F, offset: 0xEE1F, size: 0x8, addend: 0x0, symName: __ZNSt3__116allocator_traitsINS_9allocatorI2miEEE9constructB7v160006IS2_JEvvEEvRS3_PT_DpOT0_, symObjAddr: 0x2748, symBinAddr: 0x100004E90, symSize: 0x28 }
  - { offsetInCU: 0xEE5F, offset: 0xEE5F, size: 0x8, addend: 0x0, symName: __ZNSt3__16vectorI2miNS_9allocatorIS1_EEE21_ConstructTransactionD1B7v160006Ev, symObjAddr: 0x2770, symBinAddr: 0x100004EB8, symSize: 0x2C }
  - { offsetInCU: 0xEE89, offset: 0xEE89, size: 0x8, addend: 0x0, symName: __ZNSt3__16vectorI2miNS_9allocatorIS1_EEE21_ConstructTransactionC2B7v160006ERS4_m, symObjAddr: 0x279C, symBinAddr: 0x100004EE4, symSize: 0x44 }
  - { offsetInCU: 0xEED1, offset: 0xEED1, size: 0x8, addend: 0x0, symName: __ZN2miC1Ev, symObjAddr: 0x2814, symBinAddr: 0x100004F5C, symSize: 0x2C }
  - { offsetInCU: 0xEEFB, offset: 0xEEFB, size: 0x8, addend: 0x0, symName: __ZN2miC2Ev, symObjAddr: 0x2840, symBinAddr: 0x100004F88, symSize: 0x18 }
  - { offsetInCU: 0xEF25, offset: 0xEF25, size: 0x8, addend: 0x0, symName: __ZNSt3__16vectorI2miNS_9allocatorIS1_EEE21_ConstructTransactionD2B7v160006Ev, symObjAddr: 0x2858, symBinAddr: 0x100004FA0, symSize: 0x20 }
  - { offsetInCU: 0xEF4F, offset: 0xEF4F, size: 0x8, addend: 0x0, symName: __ZNSt3__128__exception_guard_exceptionsINS_6vectorI2miNS_9allocatorIS2_EEE16__destroy_vectorEED2B7v160006Ev, symObjAddr: 0x2878, symBinAddr: 0x100004FC0, symSize: 0x50 }
  - { offsetInCU: 0xEF79, offset: 0xEF79, size: 0x8, addend: 0x0, symName: __ZNSt3__16vectorI2miNS_9allocatorIS1_EEE16__destroy_vectorclB7v160006Ev, symObjAddr: 0x28C8, symBinAddr: 0x100005010, symSize: 0x9C }
  - { offsetInCU: 0xEF9F, offset: 0xEF9F, size: 0x8, addend: 0x0, symName: __ZNKSt3__16vectorI2miNS_9allocatorIS1_EEE17__annotate_deleteB7v160006Ev, symObjAddr: 0x2964, symBinAddr: 0x1000050AC, symSize: 0xB8 }
  - { offsetInCU: 0xEFC5, offset: 0xEFC5, size: 0x8, addend: 0x0, symName: __ZNSt3__16vectorI2miNS_9allocatorIS1_EEE7__clearB7v160006Ev, symObjAddr: 0x2A2C, symBinAddr: 0x100005174, symSize: 0x28 }
  - { offsetInCU: 0xEFEB, offset: 0xEFEB, size: 0x8, addend: 0x0, symName: __ZNSt3__116allocator_traitsINS_9allocatorI2miEEE10deallocateB7v160006ERS3_PS2_m, symObjAddr: 0x2A54, symBinAddr: 0x10000519C, symSize: 0x34 }
  - { offsetInCU: 0xF02D, offset: 0xF02D, size: 0x8, addend: 0x0, symName: __ZNKSt3__16vectorI2miNS_9allocatorIS1_EEE4sizeB7v160006Ev, symObjAddr: 0x2A88, symBinAddr: 0x1000051D0, symSize: 0x28 }
  - { offsetInCU: 0xF053, offset: 0xF053, size: 0x8, addend: 0x0, symName: __ZNSt3__16vectorI2miNS_9allocatorIS1_EEE22__base_destruct_at_endB7v160006EPS1_, symObjAddr: 0x2AB0, symBinAddr: 0x1000051F8, symSize: 0x8C }
  - { offsetInCU: 0xF097, offset: 0xF097, size: 0x8, addend: 0x0, symName: __ZNSt3__116allocator_traitsINS_9allocatorI2miEEE7destroyB7v160006IS2_vvEEvRS3_PT_, symObjAddr: 0x2B3C, symBinAddr: 0x100005284, symSize: 0x28 }
  - { offsetInCU: 0xF0D2, offset: 0xF0D2, size: 0x8, addend: 0x0, symName: __ZNSt3__19allocatorI2miE10deallocateB7v160006EPS1_m, symObjAddr: 0x2B98, symBinAddr: 0x1000052E0, symSize: 0x40 }
  - { offsetInCU: 0xF114, offset: 0xF114, size: 0x8, addend: 0x0, symName: __ZNSt3__16vectorINS0_I2miNS_9allocatorIS1_EEEENS2_IS4_EEEC2EmRKS4_, symObjAddr: 0x2BD8, symBinAddr: 0x100005320, symSize: 0xE8 }
  - { offsetInCU: 0xF173, offset: 0xF173, size: 0x8, addend: 0x0, symName: __ZNSt3__117__compressed_pairIPNS_6vectorI2miNS_9allocatorIS2_EEEENS3_IS5_EEEC1B7v160006IDnNS_18__default_init_tagEEEOT_OT0_, symObjAddr: 0x2CC0, symBinAddr: 0x100005408, symSize: 0x3C }
  - { offsetInCU: 0xF1CB, offset: 0xF1CB, size: 0x8, addend: 0x0, symName: __ZNSt3__16vectorINS0_I2miNS_9allocatorIS1_EEEENS2_IS4_EEE16__destroy_vectorC1ERS6_, symObjAddr: 0x2D3C, symBinAddr: 0x100005484, symSize: 0x34 }
  - { offsetInCU: 0xF204, offset: 0xF204, size: 0x8, addend: 0x0, symName: __ZNSt3__16vectorINS0_I2miNS_9allocatorIS1_EEEENS2_IS4_EEE11__vallocateB7v160006Em, symObjAddr: 0x2D80, symBinAddr: 0x1000054C8, symSize: 0xB4 }
  - { offsetInCU: 0xF248, offset: 0xF248, size: 0x8, addend: 0x0, symName: __ZNSt3__16vectorINS0_I2miNS_9allocatorIS1_EEEENS2_IS4_EEE18__construct_at_endEmRKS4_, symObjAddr: 0x2E34, symBinAddr: 0x10000557C, symSize: 0xD0 }
  - { offsetInCU: 0xF2C9, offset: 0xF2C9, size: 0x8, addend: 0x0, symName: __ZNSt3__128__exception_guard_exceptionsINS_6vectorINS1_I2miNS_9allocatorIS2_EEEENS3_IS5_EEE16__destroy_vectorEE10__completeB7v160006Ev, symObjAddr: 0x2F04, symBinAddr: 0x10000564C, symSize: 0x1C }
  - { offsetInCU: 0xF2EF, offset: 0xF2EF, size: 0x8, addend: 0x0, symName: __ZNSt3__128__exception_guard_exceptionsINS_6vectorINS1_I2miNS_9allocatorIS2_EEEENS3_IS5_EEE16__destroy_vectorEED1B7v160006Ev, symObjAddr: 0x2F20, symBinAddr: 0x100005668, symSize: 0x2C }
  - { offsetInCU: 0xF319, offset: 0xF319, size: 0x8, addend: 0x0, symName: __ZNSt3__117__compressed_pairIPNS_6vectorI2miNS_9allocatorIS2_EEEENS3_IS5_EEEC2B7v160006IDnNS_18__default_init_tagEEEOT_OT0_, symObjAddr: 0x2F4C, symBinAddr: 0x100005694, symSize: 0x40 }
  - { offsetInCU: 0xF371, offset: 0xF371, size: 0x8, addend: 0x0, symName: __ZNSt3__122__compressed_pair_elemIPNS_6vectorI2miNS_9allocatorIS2_EEEELi0ELb0EEC2B7v160006IDnvEEOT_, symObjAddr: 0x2F8C, symBinAddr: 0x1000056D4, symSize: 0x1C }
  - { offsetInCU: 0xF3B3, offset: 0xF3B3, size: 0x8, addend: 0x0, symName: __ZNSt3__122__compressed_pair_elemINS_9allocatorINS_6vectorI2miNS1_IS3_EEEEEELi1ELb1EEC2B7v160006ENS_18__default_init_tagE, symObjAddr: 0x2FA8, symBinAddr: 0x1000056F0, symSize: 0x2C }
  - { offsetInCU: 0xF3E7, offset: 0xF3E7, size: 0x8, addend: 0x0, symName: __ZNSt3__19allocatorINS_6vectorI2miNS0_IS2_EEEEEC2B7v160006Ev, symObjAddr: 0x2FD4, symBinAddr: 0x10000571C, symSize: 0x2C }
  - { offsetInCU: 0xF411, offset: 0xF411, size: 0x8, addend: 0x0, symName: __ZNSt3__116__non_trivial_ifILb1ENS_9allocatorINS_6vectorI2miNS1_IS3_EEEEEEEC2B7v160006Ev, symObjAddr: 0x3000, symBinAddr: 0x100005748, symSize: 0x14 }
  - { offsetInCU: 0xF43B, offset: 0xF43B, size: 0x8, addend: 0x0, symName: __ZNSt3__128__exception_guard_exceptionsINS_6vectorINS1_I2miNS_9allocatorIS2_EEEENS3_IS5_EEE16__destroy_vectorEEC1B7v160006ES8_, symObjAddr: 0x3014, symBinAddr: 0x10000575C, symSize: 0x34 }
  - { offsetInCU: 0xF473, offset: 0xF473, size: 0x8, addend: 0x0, symName: __ZNSt3__128__exception_guard_exceptionsINS_6vectorINS1_I2miNS_9allocatorIS2_EEEENS3_IS5_EEE16__destroy_vectorEEC2B7v160006ES8_, symObjAddr: 0x3048, symBinAddr: 0x100005790, symSize: 0x24 }
  - { offsetInCU: 0xF4AB, offset: 0xF4AB, size: 0x8, addend: 0x0, symName: __ZNSt3__16vectorINS0_I2miNS_9allocatorIS1_EEEENS2_IS4_EEE16__destroy_vectorC2ERS6_, symObjAddr: 0x306C, symBinAddr: 0x1000057B4, symSize: 0x20 }
  - { offsetInCU: 0xF4E4, offset: 0xF4E4, size: 0x8, addend: 0x0, symName: __ZNKSt3__16vectorINS0_I2miNS_9allocatorIS1_EEEENS2_IS4_EEE8max_sizeEv, symObjAddr: 0x308C, symBinAddr: 0x1000057D4, symSize: 0x60 }
  - { offsetInCU: 0xF50C, offset: 0xF50C, size: 0x8, addend: 0x0, symName: __ZNKSt3__16vectorINS0_I2miNS_9allocatorIS1_EEEENS2_IS4_EEE20__throw_length_errorB7v160006Ev, symObjAddr: 0x30EC, symBinAddr: 0x100005834, symSize: 0x1C }
  - { offsetInCU: 0xF532, offset: 0xF532, size: 0x8, addend: 0x0, symName: __ZNSt3__16vectorINS0_I2miNS_9allocatorIS1_EEEENS2_IS4_EEE7__allocB7v160006Ev, symObjAddr: 0x3144, symBinAddr: 0x10000588C, symSize: 0x28 }
  - { offsetInCU: 0xF558, offset: 0xF558, size: 0x8, addend: 0x0, symName: __ZNSt3__16vectorINS0_I2miNS_9allocatorIS1_EEEENS2_IS4_EEE9__end_capB7v160006Ev, symObjAddr: 0x316C, symBinAddr: 0x1000058B4, symSize: 0x28 }
  - { offsetInCU: 0xF57E, offset: 0xF57E, size: 0x8, addend: 0x0, symName: __ZNKSt3__16vectorINS0_I2miNS_9allocatorIS1_EEEENS2_IS4_EEE14__annotate_newB7v160006Em, symObjAddr: 0x3194, symBinAddr: 0x1000058DC, symSize: 0xC8 }
  - { offsetInCU: 0xF5BD, offset: 0xF5BD, size: 0x8, addend: 0x0, symName: __ZNSt3__116allocator_traitsINS_9allocatorINS_6vectorI2miNS1_IS3_EEEEEEE8max_sizeB7v160006IS6_vvEEmRKS6_, symObjAddr: 0x325C, symBinAddr: 0x1000059A4, symSize: 0x28 }
  - { offsetInCU: 0xF5E9, offset: 0xF5E9, size: 0x8, addend: 0x0, symName: __ZNKSt3__16vectorINS0_I2miNS_9allocatorIS1_EEEENS2_IS4_EEE7__allocB7v160006Ev, symObjAddr: 0x3284, symBinAddr: 0x1000059CC, symSize: 0x28 }
  - { offsetInCU: 0xF60F, offset: 0xF60F, size: 0x8, addend: 0x0, symName: __ZNKSt3__117__compressed_pairIPNS_6vectorI2miNS_9allocatorIS2_EEEENS3_IS5_EEE6secondB7v160006Ev, symObjAddr: 0x32AC, symBinAddr: 0x1000059F4, symSize: 0x24 }
  - { offsetInCU: 0xF635, offset: 0xF635, size: 0x8, addend: 0x0, symName: __ZNKSt3__122__compressed_pair_elemINS_9allocatorINS_6vectorI2miNS1_IS3_EEEEEELi1ELb1EE5__getB7v160006Ev, symObjAddr: 0x32D0, symBinAddr: 0x100005A18, symSize: 0x14 }
  - { offsetInCU: 0xF65B, offset: 0xF65B, size: 0x8, addend: 0x0, symName: __ZNSt3__19allocatorINS_6vectorI2miNS0_IS2_EEEEE17allocate_at_leastB7v160006Em, symObjAddr: 0x3320, symBinAddr: 0x100005A68, symSize: 0x40 }
  - { offsetInCU: 0xF68F, offset: 0xF68F, size: 0x8, addend: 0x0, symName: __ZNSt3__19allocatorINS_6vectorI2miNS0_IS2_EEEEE8allocateB7v160006Em, symObjAddr: 0x3360, symBinAddr: 0x100005AA8, symSize: 0x5C }
  - { offsetInCU: 0xF6C3, offset: 0xF6C3, size: 0x8, addend: 0x0, symName: __ZNSt3__117__compressed_pairIPNS_6vectorI2miNS_9allocatorIS2_EEEENS3_IS5_EEE6secondB7v160006Ev, symObjAddr: 0x33BC, symBinAddr: 0x100005B04, symSize: 0x24 }
  - { offsetInCU: 0xF6E9, offset: 0xF6E9, size: 0x8, addend: 0x0, symName: __ZNSt3__122__compressed_pair_elemINS_9allocatorINS_6vectorI2miNS1_IS3_EEEEEELi1ELb1EE5__getB7v160006Ev, symObjAddr: 0x33E0, symBinAddr: 0x100005B28, symSize: 0x14 }
  - { offsetInCU: 0xF70F, offset: 0xF70F, size: 0x8, addend: 0x0, symName: __ZNSt3__117__compressed_pairIPNS_6vectorI2miNS_9allocatorIS2_EEEENS3_IS5_EEE5firstB7v160006Ev, symObjAddr: 0x33F4, symBinAddr: 0x100005B3C, symSize: 0x24 }
  - { offsetInCU: 0xF735, offset: 0xF735, size: 0x8, addend: 0x0, symName: __ZNSt3__122__compressed_pair_elemIPNS_6vectorI2miNS_9allocatorIS2_EEEELi0ELb0EE5__getB7v160006Ev, symObjAddr: 0x3418, symBinAddr: 0x100005B60, symSize: 0x14 }
  - { offsetInCU: 0xF75B, offset: 0xF75B, size: 0x8, addend: 0x0, symName: __ZNKSt3__16vectorINS0_I2miNS_9allocatorIS1_EEEENS2_IS4_EEE31__annotate_contiguous_containerB7v160006EPKvS8_S8_S8_, symObjAddr: 0x342C, symBinAddr: 0x100005B74, symSize: 0x20 }
  - { offsetInCU: 0xF7B1, offset: 0xF7B1, size: 0x8, addend: 0x0, symName: __ZNKSt3__16vectorINS0_I2miNS_9allocatorIS1_EEEENS2_IS4_EEE4dataB7v160006Ev, symObjAddr: 0x344C, symBinAddr: 0x100005B94, symSize: 0x28 }
  - { offsetInCU: 0xF7D7, offset: 0xF7D7, size: 0x8, addend: 0x0, symName: __ZNKSt3__16vectorINS0_I2miNS_9allocatorIS1_EEEENS2_IS4_EEE8capacityB7v160006Ev, symObjAddr: 0x3474, symBinAddr: 0x100005BBC, symSize: 0x40 }
  - { offsetInCU: 0xF7FD, offset: 0xF7FD, size: 0x8, addend: 0x0, symName: __ZNKSt3__16vectorINS0_I2miNS_9allocatorIS1_EEEENS2_IS4_EEE9__end_capB7v160006Ev, symObjAddr: 0x34C8, symBinAddr: 0x100005C10, symSize: 0x28 }
  - { offsetInCU: 0xF823, offset: 0xF823, size: 0x8, addend: 0x0, symName: __ZNKSt3__117__compressed_pairIPNS_6vectorI2miNS_9allocatorIS2_EEEENS3_IS5_EEE5firstB7v160006Ev, symObjAddr: 0x34F0, symBinAddr: 0x100005C38, symSize: 0x24 }
  - { offsetInCU: 0xF849, offset: 0xF849, size: 0x8, addend: 0x0, symName: __ZNKSt3__122__compressed_pair_elemIPNS_6vectorI2miNS_9allocatorIS2_EEEELi0ELb0EE5__getB7v160006Ev, symObjAddr: 0x3514, symBinAddr: 0x100005C5C, symSize: 0x14 }
  - { offsetInCU: 0xF888, offset: 0xF888, size: 0x8, addend: 0x0, symName: __ZNSt3__16vectorINS0_I2miNS_9allocatorIS1_EEEENS2_IS4_EEE21_ConstructTransactionC1B7v160006ERS6_m, symObjAddr: 0x3528, symBinAddr: 0x100005C70, symSize: 0x3C }
  - { offsetInCU: 0xF8D0, offset: 0xF8D0, size: 0x8, addend: 0x0, symName: __ZNSt3__116allocator_traitsINS_9allocatorINS_6vectorI2miNS1_IS3_EEEEEEE9constructB7v160006IS5_JRKS5_EvvEEvRS6_PT_DpOT0_, symObjAddr: 0x3564, symBinAddr: 0x100005CAC, symSize: 0x30 }
  - { offsetInCU: 0xF925, offset: 0xF925, size: 0x8, addend: 0x0, symName: __ZNSt3__16vectorINS0_I2miNS_9allocatorIS1_EEEENS2_IS4_EEE21_ConstructTransactionD1B7v160006Ev, symObjAddr: 0x3594, symBinAddr: 0x100005CDC, symSize: 0x2C }
  - { offsetInCU: 0xF94F, offset: 0xF94F, size: 0x8, addend: 0x0, symName: __ZNSt3__16vectorINS0_I2miNS_9allocatorIS1_EEEENS2_IS4_EEE21_ConstructTransactionC2B7v160006ERS6_m, symObjAddr: 0x35C0, symBinAddr: 0x100005D08, symSize: 0x4C }
  - { offsetInCU: 0xF997, offset: 0xF997, size: 0x8, addend: 0x0, symName: __ZNSt3__16vectorI2miNS_9allocatorIS1_EEEC1ERKS4_, symObjAddr: 0x3648, symBinAddr: 0x100005D90, symSize: 0x34 }
  - { offsetInCU: 0xF9D2, offset: 0xF9D2, size: 0x8, addend: 0x0, symName: __ZNSt3__16vectorI2miNS_9allocatorIS1_EEEC2ERKS4_, symObjAddr: 0x367C, symBinAddr: 0x100005DC4, symSize: 0x110 }
  - { offsetInCU: 0xFA31, offset: 0xFA31, size: 0x8, addend: 0x0, symName: __ZNSt3__116allocator_traitsINS_9allocatorI2miEEE37select_on_container_copy_constructionB7v160006IS3_vvEES3_RKS3_, symObjAddr: 0x378C, symBinAddr: 0x100005ED4, symSize: 0x10 }
  - { offsetInCU: 0xFA66, offset: 0xFA66, size: 0x8, addend: 0x0, symName: __ZNSt3__117__compressed_pairIP2miNS_9allocatorIS1_EEEC1B7v160006IDnS4_EEOT_OT0_, symObjAddr: 0x379C, symBinAddr: 0x100005EE4, symSize: 0x3C }
  - { offsetInCU: 0xFABE, offset: 0xFABE, size: 0x8, addend: 0x0, symName: __ZNSt3__16vectorI2miNS_9allocatorIS1_EEE18__construct_at_endIPS1_Li0EEEvT_S7_m, symObjAddr: 0x37D8, symBinAddr: 0x100005F20, symSize: 0x8C }
  - { offsetInCU: 0xFB31, offset: 0xFB31, size: 0x8, addend: 0x0, symName: __ZNSt3__117__compressed_pairIP2miNS_9allocatorIS1_EEEC2B7v160006IDnS4_EEOT_OT0_, symObjAddr: 0x3864, symBinAddr: 0x100005FAC, symSize: 0x44 }
  - { offsetInCU: 0xFB89, offset: 0xFB89, size: 0x8, addend: 0x0, symName: __ZNSt3__122__compressed_pair_elemINS_9allocatorI2miEELi1ELb1EEC2B7v160006IS3_vEEOT_, symObjAddr: 0x38A8, symBinAddr: 0x100005FF0, symSize: 0x18 }
  - { offsetInCU: 0xFBCB, offset: 0xFBCB, size: 0x8, addend: 0x0, symName: __ZNSt3__129_AllocatorDestroyRangeReverseINS_9allocatorI2miEEPS2_EC1B7v160006ERS3_RS4_S7_, symObjAddr: 0x3A00, symBinAddr: 0x100006148, symSize: 0x44 }
  - { offsetInCU: 0xFC22, offset: 0xFC22, size: 0x8, addend: 0x0, symName: __ZNSt3__116allocator_traitsINS_9allocatorI2miEEE9constructB7v160006IS2_JRS2_EvvEEvRS3_PT_DpOT0_, symObjAddr: 0x3A44, symBinAddr: 0x10000618C, symSize: 0x30 }
  - { offsetInCU: 0xFC77, offset: 0xFC77, size: 0x8, addend: 0x0, symName: __ZNSt3__128__exception_guard_exceptionsINS_29_AllocatorDestroyRangeReverseINS_9allocatorI2miEEPS3_EEE10__completeB7v160006Ev, symObjAddr: 0x3A74, symBinAddr: 0x1000061BC, symSize: 0x1C }
  - { offsetInCU: 0xFC9D, offset: 0xFC9D, size: 0x8, addend: 0x0, symName: __ZNSt3__128__exception_guard_exceptionsINS_29_AllocatorDestroyRangeReverseINS_9allocatorI2miEEPS3_EEED1B7v160006Ev, symObjAddr: 0x3A90, symBinAddr: 0x1000061D8, symSize: 0x2C }
  - { offsetInCU: 0xFCC7, offset: 0xFCC7, size: 0x8, addend: 0x0, symName: __ZNSt3__128__exception_guard_exceptionsINS_29_AllocatorDestroyRangeReverseINS_9allocatorI2miEEPS3_EEEC1B7v160006ES6_, symObjAddr: 0x3ABC, symBinAddr: 0x100006204, symSize: 0x34 }
  - { offsetInCU: 0xFD00, offset: 0xFD00, size: 0x8, addend: 0x0, symName: __ZNSt3__128__exception_guard_exceptionsINS_29_AllocatorDestroyRangeReverseINS_9allocatorI2miEEPS3_EEEC2B7v160006ES6_, symObjAddr: 0x3AF0, symBinAddr: 0x100006238, symSize: 0x30 }
  - { offsetInCU: 0xFD39, offset: 0xFD39, size: 0x8, addend: 0x0, symName: __ZNSt3__129_AllocatorDestroyRangeReverseINS_9allocatorI2miEEPS2_EC2B7v160006ERS3_RS4_S7_, symObjAddr: 0x3B20, symBinAddr: 0x100006268, symSize: 0x38 }
  - { offsetInCU: 0xFD90, offset: 0xFD90, size: 0x8, addend: 0x0, symName: __ZNSt3__128__exception_guard_exceptionsINS_29_AllocatorDestroyRangeReverseINS_9allocatorI2miEEPS3_EEED2B7v160006Ev, symObjAddr: 0x3B84, symBinAddr: 0x1000062CC, symSize: 0x50 }
  - { offsetInCU: 0xFDBA, offset: 0xFDBA, size: 0x8, addend: 0x0, symName: __ZNKSt3__129_AllocatorDestroyRangeReverseINS_9allocatorI2miEEPS2_EclB7v160006Ev, symObjAddr: 0x3BD4, symBinAddr: 0x10000631C, symSize: 0x68 }
  - { offsetInCU: 0xFDE0, offset: 0xFDE0, size: 0x8, addend: 0x0, symName: __ZNSt3__116reverse_iteratorIP2miEC1B7v160006ES2_, symObjAddr: 0x3CAC, symBinAddr: 0x1000063F4, symSize: 0x34 }
  - { offsetInCU: 0xFE18, offset: 0xFE18, size: 0x8, addend: 0x0, symName: __ZNSt3__116reverse_iteratorIP2miEppB7v160006Ev, symObjAddr: 0x3D4C, symBinAddr: 0x100006494, symSize: 0x20 }
  - { offsetInCU: 0xFE3E, offset: 0xFE3E, size: 0x8, addend: 0x0, symName: __ZNKSt3__116reverse_iteratorIP2miE4baseB7v160006Ev, symObjAddr: 0x3D6C, symBinAddr: 0x1000064B4, symSize: 0x18 }
  - { offsetInCU: 0xFE69, offset: 0xFE69, size: 0x8, addend: 0x0, symName: __ZNSt3__119__to_address_helperINS_16reverse_iteratorIP2miEEvE6__callB7v160006ERKS4_, symObjAddr: 0x3D84, symBinAddr: 0x1000064CC, symSize: 0x38 }
  - { offsetInCU: 0xFE8C, offset: 0xFE8C, size: 0x8, addend: 0x0, symName: __ZNKSt3__116reverse_iteratorIP2miEptB7v160006Ev, symObjAddr: 0x3DBC, symBinAddr: 0x100006504, symSize: 0x2C }
  - { offsetInCU: 0xFEB2, offset: 0xFEB2, size: 0x8, addend: 0x0, symName: __ZNSt3__116reverse_iteratorIP2miEC2B7v160006ES2_, symObjAddr: 0x3EC4, symBinAddr: 0x10000660C, symSize: 0x28 }
  - { offsetInCU: 0xFEEA, offset: 0xFEEA, size: 0x8, addend: 0x0, symName: __ZNSt3__16vectorINS0_I2miNS_9allocatorIS1_EEEENS2_IS4_EEE21_ConstructTransactionD2B7v160006Ev, symObjAddr: 0x3EEC, symBinAddr: 0x100006634, symSize: 0x20 }
  - { offsetInCU: 0xFF14, offset: 0xFF14, size: 0x8, addend: 0x0, symName: __ZNSt3__128__exception_guard_exceptionsINS_6vectorINS1_I2miNS_9allocatorIS2_EEEENS3_IS5_EEE16__destroy_vectorEED2B7v160006Ev, symObjAddr: 0x3F0C, symBinAddr: 0x100006654, symSize: 0x50 }
  - { offsetInCU: 0xFF3E, offset: 0xFF3E, size: 0x8, addend: 0x0, symName: __ZNSt3__16vectorINS0_I2miNS_9allocatorIS1_EEEENS2_IS4_EEE16__destroy_vectorclB7v160006Ev, symObjAddr: 0x3F5C, symBinAddr: 0x1000066A4, symSize: 0x9C }
  - { offsetInCU: 0xFF64, offset: 0xFF64, size: 0x8, addend: 0x0, symName: __ZNKSt3__16vectorINS0_I2miNS_9allocatorIS1_EEEENS2_IS4_EEE17__annotate_deleteB7v160006Ev, symObjAddr: 0x3FF8, symBinAddr: 0x100006740, symSize: 0xD4 }
  - { offsetInCU: 0xFF8A, offset: 0xFF8A, size: 0x8, addend: 0x0, symName: __ZNSt3__16vectorINS0_I2miNS_9allocatorIS1_EEEENS2_IS4_EEE7__clearB7v160006Ev, symObjAddr: 0x40DC, symBinAddr: 0x100006824, symSize: 0x28 }
  - { offsetInCU: 0xFFB0, offset: 0xFFB0, size: 0x8, addend: 0x0, symName: __ZNSt3__116allocator_traitsINS_9allocatorINS_6vectorI2miNS1_IS3_EEEEEEE10deallocateB7v160006ERS6_PS5_m, symObjAddr: 0x4104, symBinAddr: 0x10000684C, symSize: 0x34 }
  - { offsetInCU: 0xFFF2, offset: 0xFFF2, size: 0x8, addend: 0x0, symName: __ZNKSt3__16vectorINS0_I2miNS_9allocatorIS1_EEEENS2_IS4_EEE4sizeB7v160006Ev, symObjAddr: 0x4138, symBinAddr: 0x100006880, symSize: 0x28 }
  - { offsetInCU: 0x10018, offset: 0x10018, size: 0x8, addend: 0x0, symName: __ZNSt3__16vectorINS0_I2miNS_9allocatorIS1_EEEENS2_IS4_EEE22__base_destruct_at_endB7v160006EPS4_, symObjAddr: 0x4160, symBinAddr: 0x1000068A8, symSize: 0x8C }
  - { offsetInCU: 0x1005C, offset: 0x1005C, size: 0x8, addend: 0x0, symName: __ZNSt3__116allocator_traitsINS_9allocatorINS_6vectorI2miNS1_IS3_EEEEEEE7destroyB7v160006IS5_vvEEvRS6_PT_, symObjAddr: 0x41EC, symBinAddr: 0x100006934, symSize: 0x28 }
  - { offsetInCU: 0x10097, offset: 0x10097, size: 0x8, addend: 0x0, symName: __ZNSt3__19allocatorINS_6vectorI2miNS0_IS2_EEEEE10deallocateB7v160006EPS4_m, symObjAddr: 0x425C, symBinAddr: 0x1000069A4, symSize: 0x44 }
  - { offsetInCU: 0x100D9, offset: 0x100D9, size: 0x8, addend: 0x0, symName: __ZNSt3__16vectorI2miNS_9allocatorIS1_EEED2B7v160006Ev, symObjAddr: 0x42A0, symBinAddr: 0x1000069E8, symSize: 0x44 }
  - { offsetInCU: 0x10103, offset: 0x10103, size: 0x8, addend: 0x0, symName: __ZNKSt3__111__wrap_iterIP2miEdeB7v160006Ev, symObjAddr: 0x4318, symBinAddr: 0x100006A60, symSize: 0x18 }
  - { offsetInCU: 0x10129, offset: 0x10129, size: 0x8, addend: 0x0, symName: __ZNSt3__111__wrap_iterIP2miEppB7v160006Ev, symObjAddr: 0x4330, symBinAddr: 0x100006A78, symSize: 0x20 }
  - { offsetInCU: 0x1014F, offset: 0x1014F, size: 0x8, addend: 0x0, symName: __ZNKSt3__111__wrap_iterIP2miE4baseB7v160006Ev, symObjAddr: 0x4398, symBinAddr: 0x100006AE0, symSize: 0x18 }
  - { offsetInCU: 0x10175, offset: 0x10175, size: 0x8, addend: 0x0, symName: __ZNSt3__16vectorI2miNS_9allocatorIS1_EEE11__make_iterB7v160006EPS1_, symObjAddr: 0x43B0, symBinAddr: 0x100006AF8, symSize: 0x34 }
  - { offsetInCU: 0x101AA, offset: 0x101AA, size: 0x8, addend: 0x0, symName: __ZNSt3__111__wrap_iterIP2miEC1B7v160006EPKvS2_, symObjAddr: 0x43E4, symBinAddr: 0x100006B2C, symSize: 0x3C }
  - { offsetInCU: 0x101F0, offset: 0x101F0, size: 0x8, addend: 0x0, symName: __ZNSt3__111__wrap_iterIP2miEC2B7v160006EPKvS2_, symObjAddr: 0x4420, symBinAddr: 0x100006B68, symSize: 0x24 }
  - { offsetInCU: 0x10236, offset: 0x10236, size: 0x8, addend: 0x0, symName: __ZNSt3__16vectorINS0_I2miNS_9allocatorIS1_EEEENS2_IS4_EEED2B7v160006Ev, symObjAddr: 0x4444, symBinAddr: 0x100006B8C, symSize: 0x44 }
  - { offsetInCU: 0x10260, offset: 0x10260, size: 0x8, addend: 0x0, symName: __ZNSt3__16vectorIiNS_9allocatorIiEEED2B7v160006Ev, symObjAddr: 0x4488, symBinAddr: 0x100006BD0, symSize: 0x44 }
  - { offsetInCU: 0x102A3, offset: 0x102A3, size: 0x8, addend: 0x0, symName: __ZNKSt3__113basic_ostreamIcNS_11char_traitsIcEEE6sentrycvbB7v160006Ev, symObjAddr: 0x46B8, symBinAddr: 0x100006E00, symSize: 0x1C }
  - { offsetInCU: 0x102C9, offset: 0x102C9, size: 0x8, addend: 0x0, symName: __ZNSt3__119ostreambuf_iteratorIcNS_11char_traitsIcEEEC1B7v160006ERNS_13basic_ostreamIcS2_EE, symObjAddr: 0x4914, symBinAddr: 0x10000705C, symSize: 0x34 }
  - { offsetInCU: 0x10301, offset: 0x10301, size: 0x8, addend: 0x0, symName: __ZNKSt3__18ios_base5flagsB7v160006Ev, symObjAddr: 0x4948, symBinAddr: 0x100007090, symSize: 0x18 }
  - { offsetInCU: 0x10329, offset: 0x10329, size: 0x8, addend: 0x0, symName: __ZNKSt3__19basic_iosIcNS_11char_traitsIcEEE4fillB7v160006Ev, symObjAddr: 0x4960, symBinAddr: 0x1000070A8, symSize: 0x64 }
  - { offsetInCU: 0x10351, offset: 0x10351, size: 0x8, addend: 0x0, symName: __ZNKSt3__119ostreambuf_iteratorIcNS_11char_traitsIcEEE6failedB7v160006Ev, symObjAddr: 0x49C4, symBinAddr: 0x10000710C, symSize: 0x24 }
  - { offsetInCU: 0x10377, offset: 0x10377, size: 0x8, addend: 0x0, symName: __ZNSt3__19basic_iosIcNS_11char_traitsIcEEE8setstateB7v160006Ej, symObjAddr: 0x49E8, symBinAddr: 0x100007130, symSize: 0x2C }
  - { offsetInCU: 0x103AC, offset: 0x103AC, size: 0x8, addend: 0x0, symName: __ZNKSt3__18ios_base5widthB7v160006Ev, symObjAddr: 0x4A14, symBinAddr: 0x10000715C, symSize: 0x18 }
  - { offsetInCU: 0x103D4, offset: 0x103D4, size: 0x8, addend: 0x0, symName: __ZNSt3__115basic_streambufIcNS_11char_traitsIcEEE5sputnB7v160006EPKcl, symObjAddr: 0x4A2C, symBinAddr: 0x100007174, symSize: 0x3C }
  - { offsetInCU: 0x10416, offset: 0x10416, size: 0x8, addend: 0x0, symName: __ZNSt3__112basic_stringIcNS_11char_traitsIcEENS_9allocatorIcEEEC1B7v160006Emc, symObjAddr: 0x4A68, symBinAddr: 0x1000071B0, symSize: 0x3C }
  - { offsetInCU: 0x1045E, offset: 0x1045E, size: 0x8, addend: 0x0, symName: __ZNSt3__112basic_stringIcNS_11char_traitsIcEENS_9allocatorIcEEE4dataB7v160006Ev, symObjAddr: 0x4AA4, symBinAddr: 0x1000071EC, symSize: 0x28 }
  - { offsetInCU: 0x10484, offset: 0x10484, size: 0x8, addend: 0x0, symName: __ZNSt3__18ios_base5widthB7v160006El, symObjAddr: 0x4ACC, symBinAddr: 0x100007214, symSize: 0x2C }
  - { offsetInCU: 0x104CA, offset: 0x104CA, size: 0x8, addend: 0x0, symName: __ZNSt3__112basic_stringIcNS_11char_traitsIcEENS_9allocatorIcEEEC2B7v160006Emc, symObjAddr: 0x4AF8, symBinAddr: 0x100007240, symSize: 0x54 }
  - { offsetInCU: 0x10512, offset: 0x10512, size: 0x8, addend: 0x0, symName: __ZNSt3__117__compressed_pairINS_12basic_stringIcNS_11char_traitsIcEENS_9allocatorIcEEE5__repES5_EC1B7v160006INS_18__default_init_tagESA_EEOT_OT0_, symObjAddr: 0x4B4C, symBinAddr: 0x100007294, symSize: 0x3C }
  - { offsetInCU: 0x1056A, offset: 0x1056A, size: 0x8, addend: 0x0, symName: __ZNSt3__117__compressed_pairINS_12basic_stringIcNS_11char_traitsIcEENS_9allocatorIcEEE5__repES5_EC2B7v160006INS_18__default_init_tagESA_EEOT_OT0_, symObjAddr: 0x4B98, symBinAddr: 0x1000072E0, symSize: 0x3C }
  - { offsetInCU: 0x105C2, offset: 0x105C2, size: 0x8, addend: 0x0, symName: __ZNSt3__122__compressed_pair_elemINS_12basic_stringIcNS_11char_traitsIcEENS_9allocatorIcEEE5__repELi0ELb0EEC2B7v160006ENS_18__default_init_tagE, symObjAddr: 0x4BD4, symBinAddr: 0x10000731C, symSize: 0x14 }
  - { offsetInCU: 0x105F6, offset: 0x105F6, size: 0x8, addend: 0x0, symName: __ZNSt3__122__compressed_pair_elemINS_9allocatorIcEELi1ELb1EEC2B7v160006ENS_18__default_init_tagE, symObjAddr: 0x4BE8, symBinAddr: 0x100007330, symSize: 0x2C }
  - { offsetInCU: 0x1062A, offset: 0x1062A, size: 0x8, addend: 0x0, symName: __ZNSt3__19allocatorIcEC2B7v160006Ev, symObjAddr: 0x4C14, symBinAddr: 0x10000735C, symSize: 0x2C }
  - { offsetInCU: 0x10654, offset: 0x10654, size: 0x8, addend: 0x0, symName: __ZNSt3__116__non_trivial_ifILb1ENS_9allocatorIcEEEC2B7v160006Ev, symObjAddr: 0x4C40, symBinAddr: 0x100007388, symSize: 0x14 }
  - { offsetInCU: 0x1067E, offset: 0x1067E, size: 0x8, addend: 0x0, symName: __ZNSt3__112basic_stringIcNS_11char_traitsIcEENS_9allocatorIcEEE13__get_pointerB7v160006Ev, symObjAddr: 0x4C68, symBinAddr: 0x1000073B0, symSize: 0x54 }
  - { offsetInCU: 0x106A4, offset: 0x106A4, size: 0x8, addend: 0x0, symName: __ZNKSt3__112basic_stringIcNS_11char_traitsIcEENS_9allocatorIcEEE9__is_longB7v160006Ev, symObjAddr: 0x4CBC, symBinAddr: 0x100007404, symSize: 0x38 }
  - { offsetInCU: 0x106CA, offset: 0x106CA, size: 0x8, addend: 0x0, symName: __ZNSt3__112basic_stringIcNS_11char_traitsIcEENS_9allocatorIcEEE18__get_long_pointerB7v160006Ev, symObjAddr: 0x4CF4, symBinAddr: 0x10000743C, symSize: 0x28 }
  - { offsetInCU: 0x106F0, offset: 0x106F0, size: 0x8, addend: 0x0, symName: __ZNSt3__112basic_stringIcNS_11char_traitsIcEENS_9allocatorIcEEE19__get_short_pointerB7v160006Ev, symObjAddr: 0x4D1C, symBinAddr: 0x100007464, symSize: 0x28 }
  - { offsetInCU: 0x10716, offset: 0x10716, size: 0x8, addend: 0x0, symName: __ZNKSt3__117__compressed_pairINS_12basic_stringIcNS_11char_traitsIcEENS_9allocatorIcEEE5__repES5_E5firstB7v160006Ev, symObjAddr: 0x4D44, symBinAddr: 0x10000748C, symSize: 0x24 }
  - { offsetInCU: 0x1073C, offset: 0x1073C, size: 0x8, addend: 0x0, symName: __ZNKSt3__122__compressed_pair_elemINS_12basic_stringIcNS_11char_traitsIcEENS_9allocatorIcEEE5__repELi0ELb0EE5__getB7v160006Ev, symObjAddr: 0x4D68, symBinAddr: 0x1000074B0, symSize: 0x14 }
  - { offsetInCU: 0x10762, offset: 0x10762, size: 0x8, addend: 0x0, symName: __ZNSt3__117__compressed_pairINS_12basic_stringIcNS_11char_traitsIcEENS_9allocatorIcEEE5__repES5_E5firstB7v160006Ev, symObjAddr: 0x4D7C, symBinAddr: 0x1000074C4, symSize: 0x24 }
  - { offsetInCU: 0x10788, offset: 0x10788, size: 0x8, addend: 0x0, symName: __ZNSt3__122__compressed_pair_elemINS_12basic_stringIcNS_11char_traitsIcEENS_9allocatorIcEEE5__repELi0ELb0EE5__getB7v160006Ev, symObjAddr: 0x4DA0, symBinAddr: 0x1000074E8, symSize: 0x14 }
  - { offsetInCU: 0x107AE, offset: 0x107AE, size: 0x8, addend: 0x0, symName: __ZNSt3__114pointer_traitsIPcE10pointer_toB7v160006ERc, symObjAddr: 0x4DB4, symBinAddr: 0x1000074FC, symSize: 0x14 }
  - { offsetInCU: 0x107D1, offset: 0x107D1, size: 0x8, addend: 0x0, symName: __ZNSt3__119ostreambuf_iteratorIcNS_11char_traitsIcEEEC2B7v160006ERNS_13basic_ostreamIcS2_EE, symObjAddr: 0x4DC8, symBinAddr: 0x100007510, symSize: 0x54 }
  - { offsetInCU: 0x10809, offset: 0x10809, size: 0x8, addend: 0x0, symName: __ZNKSt3__19basic_iosIcNS_11char_traitsIcEEE5rdbufB7v160006Ev, symObjAddr: 0x4E1C, symBinAddr: 0x100007564, symSize: 0x24 }
  - { offsetInCU: 0x10831, offset: 0x10831, size: 0x8, addend: 0x0, symName: __ZNKSt3__18ios_base5rdbufB7v160006Ev, symObjAddr: 0x4E40, symBinAddr: 0x100007588, symSize: 0x18 }
  - { offsetInCU: 0x10857, offset: 0x10857, size: 0x8, addend: 0x0, symName: __ZNSt3__111char_traitsIcE11eq_int_typeEii, symObjAddr: 0x4E58, symBinAddr: 0x1000075A0, symSize: 0x28 }
  - { offsetInCU: 0x10888, offset: 0x10888, size: 0x8, addend: 0x0, symName: __ZNSt3__111char_traitsIcE3eofEv, symObjAddr: 0x4E80, symBinAddr: 0x1000075C8, symSize: 0x8 }
  - { offsetInCU: 0x1089C, offset: 0x1089C, size: 0x8, addend: 0x0, symName: __ZNKSt3__19basic_iosIcNS_11char_traitsIcEEE5widenB7v160006Ec, symObjAddr: 0x4E88, symBinAddr: 0x1000075D0, symSize: 0x84 }
  - { offsetInCU: 0x1090A, offset: 0x1090A, size: 0x8, addend: 0x0, symName: __ZNKSt3__15ctypeIcE5widenB7v160006Ec, symObjAddr: 0x4F38, symBinAddr: 0x100007680, symSize: 0x38 }
  - { offsetInCU: 0x1093F, offset: 0x1093F, size: 0x8, addend: 0x0, symName: __ZNSt3__18ios_base8setstateB7v160006Ej, symObjAddr: 0x4F70, symBinAddr: 0x1000076B8, symSize: 0x34 }
...
