---
triple:          'arm64-apple-darwin'
binary-path:     '/Users/rohakdebnath/Desktop/Cpp /CodeForces/kimsquest'
relocations:
  - { offsetInCU: 0x62, offset: 0x62, size: 0x8, addend: 0x0, symName: _fact, symObjAddr: 0x2B5C8, symBinAddr: 0x10000C000, symSize: 0x0 }
  - { offsetInCU: 0x5A95, offset: 0x5A95, size: 0x8, addend: 0x0, symName: __ZNSt3__17advanceB7v160006IP2millvEEvRT_T0_, symObjAddr: 0x34F8, symBinAddr: 0x100006BF0, symSize: 0x50 }
  - { offsetInCU: 0x5B00, offset: 0x5B00, size: 0x8, addend: 0x0, symName: __ZNSt3__124__put_character_sequenceB7v160006IcNS_11char_traitsIcEEEERNS_13basic_ostreamIT_T0_EES7_PKS4_m, symObjAddr: 0x35F0, symBinAddr: 0x100006CE8, symSize: 0x1EC }
  - { offsetInCU: 0x7949, offset: 0x7949, size: 0x8, addend: 0x0, symName: __ZNSt3__1lsB7v160006INS_11char_traitsIcEEEERNS_13basic_ostreamIcT_EES6_c, symObjAddr: 0xA10, symBinAddr: 0x100004108, symSize: 0x34 }
  - { offsetInCU: 0x798F, offset: 0x798F, size: 0x8, addend: 0x0, symName: __ZNSt3__122__make_exception_guardB7v160006INS_6vectorI2miNS_9allocatorIS2_EEE16__destroy_vectorEEENS_28__exception_guard_exceptionsIT_EES8_, symObjAddr: 0xCB4, symBinAddr: 0x1000043AC, symSize: 0x40 }
  - { offsetInCU: 0x79C4, offset: 0x79C4, size: 0x8, addend: 0x0, symName: __ZNSt3__119__debug_db_insert_cB7v160006INS_6vectorI2miNS_9allocatorIS2_EEEEEEvPT_, symObjAddr: 0xD28, symBinAddr: 0x100004420, symSize: 0x10 }
  - { offsetInCU: 0x79F5, offset: 0x79F5, size: 0x8, addend: 0x0, symName: __ZNSt3__119__allocate_at_leastB7v160006INS_9allocatorI2miEEEEDaRT_m, symObjAddr: 0x10B8, symBinAddr: 0x1000047B0, symSize: 0x3C }
  - { offsetInCU: 0x7A38, offset: 0x7A38, size: 0x8, addend: 0x0, symName: __ZNSt3__13minB7v160006ImEERKT_S3_S3_, symObjAddr: 0x11F0, symBinAddr: 0x1000048E8, symSize: 0x2C }
  - { offsetInCU: 0x7C65, offset: 0x7C65, size: 0x8, addend: 0x0, symName: __ZNSt3__13minB7v160006ImNS_6__lessImmEEEERKT_S5_S5_T0_, symObjAddr: 0x128C, symBinAddr: 0x100004984, symSize: 0x54 }
  - { offsetInCU: 0x7EE6, offset: 0x7EE6, size: 0x8, addend: 0x0, symName: __ZNSt3__120__throw_length_errorB7v160006EPKc, symObjAddr: 0x1370, symBinAddr: 0x100004A68, symSize: 0x64 }
  - { offsetInCU: 0x7F0E, offset: 0x7F0E, size: 0x8, addend: 0x0, symName: __ZNSt3__117allocate_at_leastB7v160006INS_9allocatorI2miEEEENS_17allocation_resultINS_16allocator_traitsIT_E7pointerEEERS6_m, symObjAddr: 0x1454, symBinAddr: 0x100004B4C, symSize: 0x3C }
  - { offsetInCU: 0x7F51, offset: 0x7F51, size: 0x8, addend: 0x0, symName: __ZNSt3__117__libcpp_allocateB7v160006Emm, symObjAddr: 0x155C, symBinAddr: 0x100004C54, symSize: 0x60 }
  - { offsetInCU: 0x7FAB, offset: 0x7FAB, size: 0x8, addend: 0x0, symName: __ZNSt3__124__is_overaligned_for_newB7v160006Em, symObjAddr: 0x15BC, symBinAddr: 0x100004CB4, symSize: 0x20 }
  - { offsetInCU: 0x7FD9, offset: 0x7FD9, size: 0x8, addend: 0x0, symName: __ZNSt3__121__libcpp_operator_newB7v160006IJmSt11align_val_tEEEPvDpT_, symObjAddr: 0x15DC, symBinAddr: 0x100004CD4, symSize: 0x2C }
  - { offsetInCU: 0x8026, offset: 0x8026, size: 0x8, addend: 0x0, symName: __ZNSt3__121__libcpp_operator_newB7v160006IJmEEEPvDpT_, symObjAddr: 0x1608, symBinAddr: 0x100004D00, symSize: 0x24 }
  - { offsetInCU: 0x805F, offset: 0x805F, size: 0x8, addend: 0x0, symName: __ZNSt3__112__to_addressB7v160006I2miEEPT_S3_, symObjAddr: 0x1724, symBinAddr: 0x100004E1C, symSize: 0x14 }
  - { offsetInCU: 0x80B9, offset: 0x80B9, size: 0x8, addend: 0x0, symName: __ZNSt3__112construct_atB7v160006I2miJRKS1_EPS1_EEPT_S6_DpOT0_, symObjAddr: 0x1874, symBinAddr: 0x100004F6C, symSize: 0x2C }
  - { offsetInCU: 0x8129, offset: 0x8129, size: 0x8, addend: 0x0, symName: __ZNSt3__118__debug_db_erase_cB7v160006INS_6vectorI2miNS_9allocatorIS2_EEEEEEvPT_, symObjAddr: 0x1A64, symBinAddr: 0x10000515C, symSize: 0x10 }
  - { offsetInCU: 0x815A, offset: 0x815A, size: 0x8, addend: 0x0, symName: __ZNSt3__110destroy_atB7v160006I2miLi0EEEvPT_, symObjAddr: 0x1BAC, symBinAddr: 0x1000052A4, symSize: 0x24 }
  - { offsetInCU: 0x8191, offset: 0x8191, size: 0x8, addend: 0x0, symName: __ZNSt3__112__destroy_atB7v160006I2miLi0EEEvPT_, symObjAddr: 0x1BD0, symBinAddr: 0x1000052C8, symSize: 0x10 }
  - { offsetInCU: 0x81C8, offset: 0x81C8, size: 0x8, addend: 0x0, symName: __ZNSt3__119__libcpp_deallocateB7v160006EPvmm, symObjAddr: 0x1C20, symBinAddr: 0x100005318, symSize: 0x60 }
  - { offsetInCU: 0x822D, offset: 0x822D, size: 0x8, addend: 0x0, symName: __ZNSt3__127__do_deallocate_handle_sizeB7v160006IJSt11align_val_tEEEvPvmDpT_, symObjAddr: 0x1C80, symBinAddr: 0x100005378, symSize: 0x30 }
  - { offsetInCU: 0x8280, offset: 0x8280, size: 0x8, addend: 0x0, symName: __ZNSt3__127__do_deallocate_handle_sizeB7v160006IJEEEvPvmDpT_, symObjAddr: 0x1CB0, symBinAddr: 0x1000053A8, symSize: 0x28 }
  - { offsetInCU: 0x82BE, offset: 0x82BE, size: 0x8, addend: 0x0, symName: __ZNSt3__124__libcpp_operator_deleteB7v160006IJPvSt11align_val_tEEEvDpT_, symObjAddr: 0x1CD8, symBinAddr: 0x1000053D0, symSize: 0x2C }
  - { offsetInCU: 0x8307, offset: 0x8307, size: 0x8, addend: 0x0, symName: __ZNSt3__124__libcpp_operator_deleteB7v160006IJPvEEEvDpT_, symObjAddr: 0x1D04, symBinAddr: 0x1000053FC, symSize: 0x24 }
  - { offsetInCU: 0x833C, offset: 0x833C, size: 0x8, addend: 0x0, symName: __ZNSt3__122__make_exception_guardB7v160006INS_6vectorIiNS_9allocatorIiEEE16__destroy_vectorEEENS_28__exception_guard_exceptionsIT_EES7_, symObjAddr: 0x1E88, symBinAddr: 0x100005580, symSize: 0x40 }
  - { offsetInCU: 0x8371, offset: 0x8371, size: 0x8, addend: 0x0, symName: __ZNSt3__119__debug_db_insert_cB7v160006INS_6vectorIiNS_9allocatorIiEEEEEEvPT_, symObjAddr: 0x1EFC, symBinAddr: 0x1000055F4, symSize: 0x10 }
  - { offsetInCU: 0x83A2, offset: 0x83A2, size: 0x8, addend: 0x0, symName: __ZNSt3__119__allocate_at_leastB7v160006INS_9allocatorIiEEEEDaRT_m, symObjAddr: 0x2284, symBinAddr: 0x10000597C, symSize: 0x3C }
  - { offsetInCU: 0x83E5, offset: 0x83E5, size: 0x8, addend: 0x0, symName: __ZNSt3__117allocate_at_leastB7v160006INS_9allocatorIiEEEENS_17allocation_resultINS_16allocator_traitsIT_E7pointerEEERS5_m, symObjAddr: 0x2444, symBinAddr: 0x100005B3C, symSize: 0x3C }
  - { offsetInCU: 0x8428, offset: 0x8428, size: 0x8, addend: 0x0, symName: __ZNSt3__112__to_addressB7v160006IiEEPT_S2_, symObjAddr: 0x2610, symBinAddr: 0x100005D08, symSize: 0x14 }
  - { offsetInCU: 0x8482, offset: 0x8482, size: 0x8, addend: 0x0, symName: __ZNSt3__112construct_atB7v160006IiJEPiEEPT_S3_DpOT0_, symObjAddr: 0x2758, symBinAddr: 0x100005E50, symSize: 0x20 }
  - { offsetInCU: 0x84DE, offset: 0x84DE, size: 0x8, addend: 0x0, symName: __ZNSt3__118__debug_db_erase_cB7v160006INS_6vectorIiNS_9allocatorIiEEEEEEvPT_, symObjAddr: 0x293C, symBinAddr: 0x100006034, symSize: 0x10 }
  - { offsetInCU: 0x850F, offset: 0x850F, size: 0x8, addend: 0x0, symName: __ZNSt3__110destroy_atB7v160006IiLi0EEEvPT_, symObjAddr: 0x2A84, symBinAddr: 0x10000617C, symSize: 0x24 }
  - { offsetInCU: 0x8546, offset: 0x8546, size: 0x8, addend: 0x0, symName: __ZNSt3__112__destroy_atB7v160006IiLi0EEEvPT_, symObjAddr: 0x2AA8, symBinAddr: 0x1000061A0, symSize: 0x10 }
  - { offsetInCU: 0x857D, offset: 0x857D, size: 0x8, addend: 0x0, symName: __ZNSt3__112construct_atB7v160006I2miJEPS1_EEPT_S4_DpOT0_, symObjAddr: 0x2CC4, symBinAddr: 0x1000063BC, symSize: 0x34 }
  - { offsetInCU: 0x85D9, offset: 0x85D9, size: 0x8, addend: 0x0, symName: __ZNSt3__130__uninitialized_allocator_copyB7v160006INS_9allocatorI2miEEPS2_S4_S4_EET2_RT_T0_T1_S5_, symObjAddr: 0x2F80, symBinAddr: 0x100006678, symSize: 0xF4 }
  - { offsetInCU: 0x8677, offset: 0x8677, size: 0x8, addend: 0x0, symName: __ZNSt3__122__make_exception_guardB7v160006INS_29_AllocatorDestroyRangeReverseINS_9allocatorI2miEEPS3_EEEENS_28__exception_guard_exceptionsIT_EES8_, symObjAddr: 0x3074, symBinAddr: 0x10000676C, symSize: 0x4C }
  - { offsetInCU: 0x86AD, offset: 0x86AD, size: 0x8, addend: 0x0, symName: __ZNSt3__112construct_atB7v160006I2miJRS1_EPS1_EEPT_S5_DpOT0_, symObjAddr: 0x3218, symBinAddr: 0x100006910, symSize: 0x2C }
  - { offsetInCU: 0x871D, offset: 0x871D, size: 0x8, addend: 0x0, symName: __ZNSt3__119__allocator_destroyB7v160006INS_9allocatorI2miEENS_16reverse_iteratorIPS2_EES6_EEvRT_T0_T1_, symObjAddr: 0x32FC, symBinAddr: 0x1000069F4, symSize: 0x70 }
  - { offsetInCU: 0x8780, offset: 0x8780, size: 0x8, addend: 0x0, symName: __ZNSt3__1neB7v160006IP2miS2_EEbRKNS_16reverse_iteratorIT_EERKNS3_IT0_EE, symObjAddr: 0x33A0, symBinAddr: 0x100006A98, symSize: 0x48 }
  - { offsetInCU: 0x87CC, offset: 0x87CC, size: 0x8, addend: 0x0, symName: __ZNSt3__112__to_addressB7v160006INS_16reverse_iteratorIP2miEEvEENS_5decayIDTclsr19__to_address_helperIT_EE6__callclsr3stdE7declvalIRKS6_EEEEE4typeES8_, symObjAddr: 0x33E8, symBinAddr: 0x100006AE0, symSize: 0x24 }
  - { offsetInCU: 0x882B, offset: 0x882B, size: 0x8, addend: 0x0, symName: __ZNSt3__14prevB7v160006IP2miEENS_9enable_ifIXsr25__is_cpp17_input_iteratorIT_EE5valueES4_E4typeES4_NS_15iterator_traitsIS4_E15difference_typeE, symObjAddr: 0x34A8, symBinAddr: 0x100006BA0, symSize: 0x50 }
  - { offsetInCU: 0x886E, offset: 0x886E, size: 0x8, addend: 0x0, symName: __ZNSt3__121__convert_to_integralB7v160006El, symObjAddr: 0x3548, symBinAddr: 0x100006C40, symSize: 0x14 }
  - { offsetInCU: 0x889A, offset: 0x889A, size: 0x8, addend: 0x0, symName: __ZNSt3__19__advanceB7v160006IP2miEEvRT_NS_15iterator_traitsIS3_E15difference_typeENS_26random_access_iterator_tagE, symObjAddr: 0x355C, symBinAddr: 0x100006C54, symSize: 0x28 }
  - { offsetInCU: 0x88E3, offset: 0x88E3, size: 0x8, addend: 0x0, symName: __ZNSt3__116__pad_and_outputB7v160006IcNS_11char_traitsIcEEEENS_19ostreambuf_iteratorIT_T0_EES6_PKS4_S8_S8_RNS_8ios_baseES4_, symObjAddr: 0x37F8, symBinAddr: 0x100006EF0, symSize: 0x240 }
  - { offsetInCU: 0x89B2, offset: 0x89B2, size: 0x8, addend: 0x0, symName: __ZNSt3__119__debug_db_insert_cB7v160006INS_12basic_stringIcNS_11char_traitsIcEENS_9allocatorIcEEEEEEvPT_, symObjAddr: 0x3CAC, symBinAddr: 0x1000073A4, symSize: 0x10 }
  - { offsetInCU: 0x89E3, offset: 0x89E3, size: 0x8, addend: 0x0, symName: __ZNSt3__112__to_addressB7v160006IcEEPT_S2_, symObjAddr: 0x3D78, symBinAddr: 0x100007470, symSize: 0x14 }
  - { offsetInCU: 0x8A18, offset: 0x8A18, size: 0x8, addend: 0x0, symName: __ZNSt3__19use_facetB7v160006INS_5ctypeIcEEEERKT_RKNS_6localeE, symObjAddr: 0x4030, symBinAddr: 0x100007728, symSize: 0x2C }
  - { offsetInCU: 0x9248, offset: 0x9248, size: 0x8, addend: 0x0, symName: __ZSt28__throw_bad_array_new_lengthB7v160006v, symObjAddr: 0x1528, symBinAddr: 0x100004C20, symSize: 0x34 }
  - { offsetInCU: 0xBF4F, offset: 0xBF4F, size: 0x8, addend: 0x0, symName: __ZpLR2miS_, symObjAddr: 0x0, symBinAddr: 0x1000036F8, symSize: 0x64 }
  - { offsetInCU: 0xBF89, offset: 0xBF89, size: 0x8, addend: 0x0, symName: __ZmIR2miS_, symObjAddr: 0x64, symBinAddr: 0x10000375C, symSize: 0x5C }
  - { offsetInCU: 0xBFC3, offset: 0xBFC3, size: 0x8, addend: 0x0, symName: __Zpl2miS_, symObjAddr: 0xC0, symBinAddr: 0x1000037B8, symSize: 0x4C }
  - { offsetInCU: 0xBFFD, offset: 0xBFFD, size: 0x8, addend: 0x0, symName: __Zmi2miS_, symObjAddr: 0x10C, symBinAddr: 0x100003804, symSize: 0x4C }
  - { offsetInCU: 0xC037, offset: 0xC037, size: 0x8, addend: 0x0, symName: __Zml2miS_, symObjAddr: 0x158, symBinAddr: 0x100003850, symSize: 0x40 }
  - { offsetInCU: 0xC072, offset: 0xC072, size: 0x8, addend: 0x0, symName: __ZN2miC1Ex, symObjAddr: 0x198, symBinAddr: 0x100003890, symSize: 0x34 }
  - { offsetInCU: 0xC0A9, offset: 0xC0A9, size: 0x8, addend: 0x0, symName: __ZmLR2miS_, symObjAddr: 0x1CC, symBinAddr: 0x1000038C4, symSize: 0x5C }
  - { offsetInCU: 0xC0E3, offset: 0xC0E3, size: 0x8, addend: 0x0, symName: __Z3pow2mix, symObjAddr: 0x228, symBinAddr: 0x100003920, symSize: 0xA4 }
  - { offsetInCU: 0xC12B, offset: 0xC12B, size: 0x8, addend: 0x0, symName: __Z3inv2mi, symObjAddr: 0x2CC, symBinAddr: 0x1000039C4, symSize: 0x44 }
  - { offsetInCU: 0xC157, offset: 0xC157, size: 0x8, addend: 0x0, symName: __Zdv2miS_, symObjAddr: 0x310, symBinAddr: 0x100003A08, symSize: 0x64 }
  - { offsetInCU: 0xC192, offset: 0xC192, size: 0x8, addend: 0x0, symName: __ZNSt3__16vectorI2miNS_9allocatorIS1_EEEC1EmRKS1_, symObjAddr: 0x374, symBinAddr: 0x100003A6C, symSize: 0x3C }
  - { offsetInCU: 0xC1DC, offset: 0xC1DC, size: 0x8, addend: 0x0, symName: __ZNSt3__16vectorI2miNS_9allocatorIS1_EEED1B7v160006Ev, symObjAddr: 0x3B0, symBinAddr: 0x100003AA8, symSize: 0x2C }
  - { offsetInCU: 0xC205, offset: 0xC205, size: 0x8, addend: 0x0, symName: __Z21precompute_factorialsv, symObjAddr: 0x3DC, symBinAddr: 0x100003AD4, symSize: 0xB8 }
  - { offsetInCU: 0xC23C, offset: 0xC23C, size: 0x8, addend: 0x0, symName: __ZNSt3__16vectorI2miNS_9allocatorIS1_EEEixB7v160006Em, symObjAddr: 0x494, symBinAddr: 0x100003B8C, symSize: 0x24 }
  - { offsetInCU: 0xC272, offset: 0xC272, size: 0x8, addend: 0x0, symName: __Z3nCrii, symObjAddr: 0x4B8, symBinAddr: 0x100003BB0, symSize: 0x100 }
  - { offsetInCU: 0xC2AC, offset: 0xC2AC, size: 0x8, addend: 0x0, symName: __Z5solvev, symObjAddr: 0x5B8, symBinAddr: 0x100003CB0, symSize: 0x398 }
  - { offsetInCU: 0xC3A3, offset: 0xC3A3, size: 0x8, addend: 0x0, symName: __ZNSt3__16vectorIiNS_9allocatorIiEEEC1Em, symObjAddr: 0x950, symBinAddr: 0x100004048, symSize: 0x34 }
  - { offsetInCU: 0xC3DE, offset: 0xC3DE, size: 0x8, addend: 0x0, symName: __ZNSt3__16vectorIiNS_9allocatorIiEEEixB7v160006Em, symObjAddr: 0x984, symBinAddr: 0x10000407C, symSize: 0x24 }
  - { offsetInCU: 0xC415, offset: 0xC415, size: 0x8, addend: 0x0, symName: __ZNSt3__16vectorI2miNS_9allocatorIS1_EEEC1Em, symObjAddr: 0x9A8, symBinAddr: 0x1000040A0, symSize: 0x34 }
  - { offsetInCU: 0xC450, offset: 0xC450, size: 0x8, addend: 0x0, symName: __ZNSt3__16vectorI2miNS_9allocatorIS1_EEEC1ERKS4_, symObjAddr: 0x9DC, symBinAddr: 0x1000040D4, symSize: 0x34 }
  - { offsetInCU: 0xC48B, offset: 0xC48B, size: 0x8, addend: 0x0, symName: __ZNK2micviEv, symObjAddr: 0xA44, symBinAddr: 0x10000413C, symSize: 0x18 }
  - { offsetInCU: 0xC4B1, offset: 0xC4B1, size: 0x8, addend: 0x0, symName: __ZNSt3__16vectorIiNS_9allocatorIiEEED1B7v160006Ev, symObjAddr: 0xA5C, symBinAddr: 0x100004154, symSize: 0x2C }
  - { offsetInCU: 0xC4DB, offset: 0xC4DB, size: 0x8, addend: 0x0, symName: _main, symObjAddr: 0xA88, symBinAddr: 0x100004180, symSize: 0x80 }
  - { offsetInCU: 0xC504, offset: 0xC504, size: 0x8, addend: 0x0, symName: __ZNSt3__19basic_iosIcNS_11char_traitsIcEEE3tieB7v160006EPNS_13basic_ostreamIcS2_EE, symObjAddr: 0xB08, symBinAddr: 0x100004200, symSize: 0x2C }
  - { offsetInCU: 0xC54A, offset: 0xC54A, size: 0x8, addend: 0x0, symName: __ZN2miC2Ex, symObjAddr: 0xB34, symBinAddr: 0x10000422C, symSize: 0x5C }
  - { offsetInCU: 0xC582, offset: 0xC582, size: 0x8, addend: 0x0, symName: __ZNSt3__16vectorI2miNS_9allocatorIS1_EEEC2EmRKS1_, symObjAddr: 0xB90, symBinAddr: 0x100004288, symSize: 0xE8 }
  - { offsetInCU: 0xC5EB, offset: 0xC5EB, size: 0x8, addend: 0x0, symName: __ZNSt3__117__compressed_pairIP2miNS_9allocatorIS1_EEEC1B7v160006IDnNS_18__default_init_tagEEEOT_OT0_, symObjAddr: 0xC78, symBinAddr: 0x100004370, symSize: 0x3C }
  - { offsetInCU: 0xC643, offset: 0xC643, size: 0x8, addend: 0x0, symName: __ZNSt3__16vectorI2miNS_9allocatorIS1_EEE16__destroy_vectorC1ERS4_, symObjAddr: 0xCF4, symBinAddr: 0x1000043EC, symSize: 0x34 }
  - { offsetInCU: 0xC67C, offset: 0xC67C, size: 0x8, addend: 0x0, symName: __ZNSt3__16vectorI2miNS_9allocatorIS1_EEE11__vallocateB7v160006Em, symObjAddr: 0xD38, symBinAddr: 0x100004430, symSize: 0xAC }
  - { offsetInCU: 0xC6C0, offset: 0xC6C0, size: 0x8, addend: 0x0, symName: __ZNSt3__16vectorI2miNS_9allocatorIS1_EEE18__construct_at_endEmRKS1_, symObjAddr: 0xDE4, symBinAddr: 0x1000044DC, symSize: 0xD0 }
  - { offsetInCU: 0xC741, offset: 0xC741, size: 0x8, addend: 0x0, symName: __ZNSt3__128__exception_guard_exceptionsINS_6vectorI2miNS_9allocatorIS2_EEE16__destroy_vectorEE10__completeB7v160006Ev, symObjAddr: 0xEB4, symBinAddr: 0x1000045AC, symSize: 0x1C }
  - { offsetInCU: 0xC767, offset: 0xC767, size: 0x8, addend: 0x0, symName: __ZNSt3__128__exception_guard_exceptionsINS_6vectorI2miNS_9allocatorIS2_EEE16__destroy_vectorEED1B7v160006Ev, symObjAddr: 0xED0, symBinAddr: 0x1000045C8, symSize: 0x2C }
  - { offsetInCU: 0xC791, offset: 0xC791, size: 0x8, addend: 0x0, symName: __ZNSt3__117__compressed_pairIP2miNS_9allocatorIS1_EEEC2B7v160006IDnNS_18__default_init_tagEEEOT_OT0_, symObjAddr: 0xEFC, symBinAddr: 0x1000045F4, symSize: 0x40 }
  - { offsetInCU: 0xC7E9, offset: 0xC7E9, size: 0x8, addend: 0x0, symName: __ZNSt3__122__compressed_pair_elemIP2miLi0ELb0EEC2B7v160006IDnvEEOT_, symObjAddr: 0xF3C, symBinAddr: 0x100004634, symSize: 0x1C }
  - { offsetInCU: 0xC82B, offset: 0xC82B, size: 0x8, addend: 0x0, symName: __ZNSt3__122__compressed_pair_elemINS_9allocatorI2miEELi1ELb1EEC2B7v160006ENS_18__default_init_tagE, symObjAddr: 0xF58, symBinAddr: 0x100004650, symSize: 0x2C }
  - { offsetInCU: 0xC85F, offset: 0xC85F, size: 0x8, addend: 0x0, symName: __ZNSt3__19allocatorI2miEC2B7v160006Ev, symObjAddr: 0xF84, symBinAddr: 0x10000467C, symSize: 0x2C }
  - { offsetInCU: 0xC889, offset: 0xC889, size: 0x8, addend: 0x0, symName: __ZNSt3__116__non_trivial_ifILb1ENS_9allocatorI2miEEEC2B7v160006Ev, symObjAddr: 0xFB0, symBinAddr: 0x1000046A8, symSize: 0x14 }
  - { offsetInCU: 0xC8B3, offset: 0xC8B3, size: 0x8, addend: 0x0, symName: __ZNSt3__128__exception_guard_exceptionsINS_6vectorI2miNS_9allocatorIS2_EEE16__destroy_vectorEEC1B7v160006ES6_, symObjAddr: 0xFC4, symBinAddr: 0x1000046BC, symSize: 0x34 }
  - { offsetInCU: 0xC8EB, offset: 0xC8EB, size: 0x8, addend: 0x0, symName: __ZNSt3__128__exception_guard_exceptionsINS_6vectorI2miNS_9allocatorIS2_EEE16__destroy_vectorEEC2B7v160006ES6_, symObjAddr: 0xFF8, symBinAddr: 0x1000046F0, symSize: 0x24 }
  - { offsetInCU: 0xC923, offset: 0xC923, size: 0x8, addend: 0x0, symName: __ZNSt3__16vectorI2miNS_9allocatorIS1_EEE16__destroy_vectorC2ERS4_, symObjAddr: 0x101C, symBinAddr: 0x100004714, symSize: 0x20 }
  - { offsetInCU: 0xC95C, offset: 0xC95C, size: 0x8, addend: 0x0, symName: __ZNKSt3__16vectorI2miNS_9allocatorIS1_EEE8max_sizeEv, symObjAddr: 0x103C, symBinAddr: 0x100004734, symSize: 0x60 }
  - { offsetInCU: 0xC984, offset: 0xC984, size: 0x8, addend: 0x0, symName: __ZNKSt3__16vectorI2miNS_9allocatorIS1_EEE20__throw_length_errorB7v160006Ev, symObjAddr: 0x109C, symBinAddr: 0x100004794, symSize: 0x1C }
  - { offsetInCU: 0xC9AA, offset: 0xC9AA, size: 0x8, addend: 0x0, symName: __ZNSt3__16vectorI2miNS_9allocatorIS1_EEE7__allocB7v160006Ev, symObjAddr: 0x10F4, symBinAddr: 0x1000047EC, symSize: 0x28 }
  - { offsetInCU: 0xC9D0, offset: 0xC9D0, size: 0x8, addend: 0x0, symName: __ZNSt3__16vectorI2miNS_9allocatorIS1_EEE9__end_capB7v160006Ev, symObjAddr: 0x111C, symBinAddr: 0x100004814, symSize: 0x28 }
  - { offsetInCU: 0xC9F6, offset: 0xC9F6, size: 0x8, addend: 0x0, symName: __ZNKSt3__16vectorI2miNS_9allocatorIS1_EEE14__annotate_newB7v160006Em, symObjAddr: 0x1144, symBinAddr: 0x10000483C, symSize: 0xAC }
  - { offsetInCU: 0xCA35, offset: 0xCA35, size: 0x8, addend: 0x0, symName: __ZNSt3__116allocator_traitsINS_9allocatorI2miEEE8max_sizeB7v160006IS3_vvEEmRKS3_, symObjAddr: 0x121C, symBinAddr: 0x100004914, symSize: 0x28 }
  - { offsetInCU: 0xCA61, offset: 0xCA61, size: 0x8, addend: 0x0, symName: __ZNKSt3__16vectorI2miNS_9allocatorIS1_EEE7__allocB7v160006Ev, symObjAddr: 0x1244, symBinAddr: 0x10000493C, symSize: 0x28 }
  - { offsetInCU: 0xCA87, offset: 0xCA87, size: 0x8, addend: 0x0, symName: __ZNSt3__114numeric_limitsIlE3maxB7v160006Ev, symObjAddr: 0x126C, symBinAddr: 0x100004964, symSize: 0x14 }
  - { offsetInCU: 0xCAAF, offset: 0xCAAF, size: 0x8, addend: 0x0, symName: __ZNKSt3__16__lessImmEclB7v160006ERKmS3_, symObjAddr: 0x12E0, symBinAddr: 0x1000049D8, symSize: 0x34 }
  - { offsetInCU: 0xCAF1, offset: 0xCAF1, size: 0x8, addend: 0x0, symName: __ZNSt3__114numeric_limitsImE3maxB7v160006Ev, symObjAddr: 0x1314, symBinAddr: 0x100004A0C, symSize: 0x14 }
  - { offsetInCU: 0xCB05, offset: 0xCB05, size: 0x8, addend: 0x0, symName: __ZNSt3__123__libcpp_numeric_limitsImLb1EE3maxB7v160006Ev, symObjAddr: 0x1328, symBinAddr: 0x100004A20, symSize: 0x8 }
  - { offsetInCU: 0xCB19, offset: 0xCB19, size: 0x8, addend: 0x0, symName: __ZNKSt3__117__compressed_pairIP2miNS_9allocatorIS1_EEE6secondB7v160006Ev, symObjAddr: 0x1330, symBinAddr: 0x100004A28, symSize: 0x24 }
  - { offsetInCU: 0xCB3F, offset: 0xCB3F, size: 0x8, addend: 0x0, symName: __ZNKSt3__122__compressed_pair_elemINS_9allocatorI2miEELi1ELb1EE5__getB7v160006Ev, symObjAddr: 0x1354, symBinAddr: 0x100004A4C, symSize: 0x14 }
  - { offsetInCU: 0xCB65, offset: 0xCB65, size: 0x8, addend: 0x0, symName: __ZNSt3__123__libcpp_numeric_limitsIlLb1EE3maxB7v160006Ev, symObjAddr: 0x1368, symBinAddr: 0x100004A60, symSize: 0x8 }
  - { offsetInCU: 0xCB79, offset: 0xCB79, size: 0x8, addend: 0x0, symName: __ZNSt12length_errorC1B7v160006EPKc, symObjAddr: 0x13D4, symBinAddr: 0x100004ACC, symSize: 0x34 }
  - { offsetInCU: 0xCBB1, offset: 0xCBB1, size: 0x8, addend: 0x0, symName: __ZNSt12length_errorC2B7v160006EPKc, symObjAddr: 0x1408, symBinAddr: 0x100004B00, symSize: 0x4C }
  - { offsetInCU: 0xCBE9, offset: 0xCBE9, size: 0x8, addend: 0x0, symName: __ZNSt3__19allocatorI2miE17allocate_at_leastB7v160006Em, symObjAddr: 0x1490, symBinAddr: 0x100004B88, symSize: 0x40 }
  - { offsetInCU: 0xCC1D, offset: 0xCC1D, size: 0x8, addend: 0x0, symName: __ZNSt3__19allocatorI2miE8allocateB7v160006Em, symObjAddr: 0x14D0, symBinAddr: 0x100004BC8, symSize: 0x58 }
  - { offsetInCU: 0xCC51, offset: 0xCC51, size: 0x8, addend: 0x0, symName: __ZNSt3__117__compressed_pairIP2miNS_9allocatorIS1_EEE6secondB7v160006Ev, symObjAddr: 0x162C, symBinAddr: 0x100004D24, symSize: 0x24 }
  - { offsetInCU: 0xCC77, offset: 0xCC77, size: 0x8, addend: 0x0, symName: __ZNSt3__122__compressed_pair_elemINS_9allocatorI2miEELi1ELb1EE5__getB7v160006Ev, symObjAddr: 0x1650, symBinAddr: 0x100004D48, symSize: 0x14 }
  - { offsetInCU: 0xCC9D, offset: 0xCC9D, size: 0x8, addend: 0x0, symName: __ZNSt3__117__compressed_pairIP2miNS_9allocatorIS1_EEE5firstB7v160006Ev, symObjAddr: 0x1664, symBinAddr: 0x100004D5C, symSize: 0x24 }
  - { offsetInCU: 0xCCC3, offset: 0xCCC3, size: 0x8, addend: 0x0, symName: __ZNSt3__122__compressed_pair_elemIP2miLi0ELb0EE5__getB7v160006Ev, symObjAddr: 0x1688, symBinAddr: 0x100004D80, symSize: 0x14 }
  - { offsetInCU: 0xCCE9, offset: 0xCCE9, size: 0x8, addend: 0x0, symName: __ZNKSt3__16vectorI2miNS_9allocatorIS1_EEE31__annotate_contiguous_containerB7v160006EPKvS6_S6_S6_, symObjAddr: 0x169C, symBinAddr: 0x100004D94, symSize: 0x20 }
  - { offsetInCU: 0xCD3F, offset: 0xCD3F, size: 0x8, addend: 0x0, symName: __ZNKSt3__16vectorI2miNS_9allocatorIS1_EEE4dataB7v160006Ev, symObjAddr: 0x16BC, symBinAddr: 0x100004DB4, symSize: 0x28 }
  - { offsetInCU: 0xCD65, offset: 0xCD65, size: 0x8, addend: 0x0, symName: __ZNKSt3__16vectorI2miNS_9allocatorIS1_EEE8capacityB7v160006Ev, symObjAddr: 0x16E4, symBinAddr: 0x100004DDC, symSize: 0x40 }
  - { offsetInCU: 0xCD8B, offset: 0xCD8B, size: 0x8, addend: 0x0, symName: __ZNKSt3__16vectorI2miNS_9allocatorIS1_EEE9__end_capB7v160006Ev, symObjAddr: 0x1738, symBinAddr: 0x100004E30, symSize: 0x28 }
  - { offsetInCU: 0xCDB1, offset: 0xCDB1, size: 0x8, addend: 0x0, symName: __ZNKSt3__117__compressed_pairIP2miNS_9allocatorIS1_EEE5firstB7v160006Ev, symObjAddr: 0x1760, symBinAddr: 0x100004E58, symSize: 0x24 }
  - { offsetInCU: 0xCDD7, offset: 0xCDD7, size: 0x8, addend: 0x0, symName: __ZNKSt3__122__compressed_pair_elemIP2miLi0ELb0EE5__getB7v160006Ev, symObjAddr: 0x1784, symBinAddr: 0x100004E7C, symSize: 0x14 }
  - { offsetInCU: 0xCE16, offset: 0xCE16, size: 0x8, addend: 0x0, symName: __ZNSt3__16vectorI2miNS_9allocatorIS1_EEE21_ConstructTransactionC1B7v160006ERS4_m, symObjAddr: 0x1798, symBinAddr: 0x100004E90, symSize: 0x3C }
  - { offsetInCU: 0xCE63, offset: 0xCE63, size: 0x8, addend: 0x0, symName: __ZNSt3__116allocator_traitsINS_9allocatorI2miEEE9constructB7v160006IS2_JRKS2_EvvEEvRS3_PT_DpOT0_, symObjAddr: 0x17D4, symBinAddr: 0x100004ECC, symSize: 0x30 }
  - { offsetInCU: 0xCEB8, offset: 0xCEB8, size: 0x8, addend: 0x0, symName: __ZNSt3__16vectorI2miNS_9allocatorIS1_EEE21_ConstructTransactionD1B7v160006Ev, symObjAddr: 0x1804, symBinAddr: 0x100004EFC, symSize: 0x2C }
  - { offsetInCU: 0xCEE2, offset: 0xCEE2, size: 0x8, addend: 0x0, symName: __ZNSt3__16vectorI2miNS_9allocatorIS1_EEE21_ConstructTransactionC2B7v160006ERS4_m, symObjAddr: 0x1830, symBinAddr: 0x100004F28, symSize: 0x44 }
  - { offsetInCU: 0xCF2A, offset: 0xCF2A, size: 0x8, addend: 0x0, symName: __ZNSt3__16vectorI2miNS_9allocatorIS1_EEE21_ConstructTransactionD2B7v160006Ev, symObjAddr: 0x18A0, symBinAddr: 0x100004F98, symSize: 0x20 }
  - { offsetInCU: 0xCF54, offset: 0xCF54, size: 0x8, addend: 0x0, symName: __ZNSt3__128__exception_guard_exceptionsINS_6vectorI2miNS_9allocatorIS2_EEE16__destroy_vectorEED2B7v160006Ev, symObjAddr: 0x18C0, symBinAddr: 0x100004FB8, symSize: 0x50 }
  - { offsetInCU: 0xCF7E, offset: 0xCF7E, size: 0x8, addend: 0x0, symName: __ZNSt3__16vectorI2miNS_9allocatorIS1_EEE16__destroy_vectorclB7v160006Ev, symObjAddr: 0x1910, symBinAddr: 0x100005008, symSize: 0x9C }
  - { offsetInCU: 0xCFA4, offset: 0xCFA4, size: 0x8, addend: 0x0, symName: __ZNKSt3__16vectorI2miNS_9allocatorIS1_EEE17__annotate_deleteB7v160006Ev, symObjAddr: 0x19AC, symBinAddr: 0x1000050A4, symSize: 0xB8 }
  - { offsetInCU: 0xCFCA, offset: 0xCFCA, size: 0x8, addend: 0x0, symName: __ZNSt3__16vectorI2miNS_9allocatorIS1_EEE7__clearB7v160006Ev, symObjAddr: 0x1A74, symBinAddr: 0x10000516C, symSize: 0x28 }
  - { offsetInCU: 0xCFF0, offset: 0xCFF0, size: 0x8, addend: 0x0, symName: __ZNSt3__116allocator_traitsINS_9allocatorI2miEEE10deallocateB7v160006ERS3_PS2_m, symObjAddr: 0x1A9C, symBinAddr: 0x100005194, symSize: 0x34 }
  - { offsetInCU: 0xD032, offset: 0xD032, size: 0x8, addend: 0x0, symName: __ZNKSt3__16vectorI2miNS_9allocatorIS1_EEE4sizeB7v160006Ev, symObjAddr: 0x1AD0, symBinAddr: 0x1000051C8, symSize: 0x28 }
  - { offsetInCU: 0xD058, offset: 0xD058, size: 0x8, addend: 0x0, symName: __ZNSt3__16vectorI2miNS_9allocatorIS1_EEE22__base_destruct_at_endB7v160006EPS1_, symObjAddr: 0x1AF8, symBinAddr: 0x1000051F0, symSize: 0x8C }
  - { offsetInCU: 0xD09C, offset: 0xD09C, size: 0x8, addend: 0x0, symName: __ZNSt3__116allocator_traitsINS_9allocatorI2miEEE7destroyB7v160006IS2_vvEEvRS3_PT_, symObjAddr: 0x1B84, symBinAddr: 0x10000527C, symSize: 0x28 }
  - { offsetInCU: 0xD0D7, offset: 0xD0D7, size: 0x8, addend: 0x0, symName: __ZNSt3__19allocatorI2miE10deallocateB7v160006EPS1_m, symObjAddr: 0x1BE0, symBinAddr: 0x1000052D8, symSize: 0x40 }
  - { offsetInCU: 0xD119, offset: 0xD119, size: 0x8, addend: 0x0, symName: __ZNSt3__16vectorI2miNS_9allocatorIS1_EEED2B7v160006Ev, symObjAddr: 0x1D28, symBinAddr: 0x100005420, symSize: 0x44 }
  - { offsetInCU: 0xD143, offset: 0xD143, size: 0x8, addend: 0x0, symName: __ZNSt3__16vectorIiNS_9allocatorIiEEEC2Em, symObjAddr: 0x1D6C, symBinAddr: 0x100005464, symSize: 0xE0 }
  - { offsetInCU: 0xD193, offset: 0xD193, size: 0x8, addend: 0x0, symName: __ZNSt3__117__compressed_pairIPiNS_9allocatorIiEEEC1B7v160006IDnNS_18__default_init_tagEEEOT_OT0_, symObjAddr: 0x1E4C, symBinAddr: 0x100005544, symSize: 0x3C }
  - { offsetInCU: 0xD1EB, offset: 0xD1EB, size: 0x8, addend: 0x0, symName: __ZNSt3__16vectorIiNS_9allocatorIiEEE16__destroy_vectorC1ERS3_, symObjAddr: 0x1EC8, symBinAddr: 0x1000055C0, symSize: 0x34 }
  - { offsetInCU: 0xD224, offset: 0xD224, size: 0x8, addend: 0x0, symName: __ZNSt3__16vectorIiNS_9allocatorIiEEE11__vallocateB7v160006Em, symObjAddr: 0x1F0C, symBinAddr: 0x100005604, symSize: 0xAC }
  - { offsetInCU: 0xD268, offset: 0xD268, size: 0x8, addend: 0x0, symName: __ZNSt3__16vectorIiNS_9allocatorIiEEE18__construct_at_endEm, symObjAddr: 0x1FB8, symBinAddr: 0x1000056B0, symSize: 0xC8 }
  - { offsetInCU: 0xD2DA, offset: 0xD2DA, size: 0x8, addend: 0x0, symName: __ZNSt3__128__exception_guard_exceptionsINS_6vectorIiNS_9allocatorIiEEE16__destroy_vectorEE10__completeB7v160006Ev, symObjAddr: 0x2080, symBinAddr: 0x100005778, symSize: 0x1C }
  - { offsetInCU: 0xD300, offset: 0xD300, size: 0x8, addend: 0x0, symName: __ZNSt3__128__exception_guard_exceptionsINS_6vectorIiNS_9allocatorIiEEE16__destroy_vectorEED1B7v160006Ev, symObjAddr: 0x209C, symBinAddr: 0x100005794, symSize: 0x2C }
  - { offsetInCU: 0xD32A, offset: 0xD32A, size: 0x8, addend: 0x0, symName: __ZNSt3__117__compressed_pairIPiNS_9allocatorIiEEEC2B7v160006IDnNS_18__default_init_tagEEEOT_OT0_, symObjAddr: 0x20C8, symBinAddr: 0x1000057C0, symSize: 0x40 }
  - { offsetInCU: 0xD382, offset: 0xD382, size: 0x8, addend: 0x0, symName: __ZNSt3__122__compressed_pair_elemIPiLi0ELb0EEC2B7v160006IDnvEEOT_, symObjAddr: 0x2108, symBinAddr: 0x100005800, symSize: 0x1C }
  - { offsetInCU: 0xD3C4, offset: 0xD3C4, size: 0x8, addend: 0x0, symName: __ZNSt3__122__compressed_pair_elemINS_9allocatorIiEELi1ELb1EEC2B7v160006ENS_18__default_init_tagE, symObjAddr: 0x2124, symBinAddr: 0x10000581C, symSize: 0x2C }
  - { offsetInCU: 0xD3F8, offset: 0xD3F8, size: 0x8, addend: 0x0, symName: __ZNSt3__19allocatorIiEC2B7v160006Ev, symObjAddr: 0x2150, symBinAddr: 0x100005848, symSize: 0x2C }
  - { offsetInCU: 0xD422, offset: 0xD422, size: 0x8, addend: 0x0, symName: __ZNSt3__116__non_trivial_ifILb1ENS_9allocatorIiEEEC2B7v160006Ev, symObjAddr: 0x217C, symBinAddr: 0x100005874, symSize: 0x14 }
  - { offsetInCU: 0xD44C, offset: 0xD44C, size: 0x8, addend: 0x0, symName: __ZNSt3__128__exception_guard_exceptionsINS_6vectorIiNS_9allocatorIiEEE16__destroy_vectorEEC1B7v160006ES5_, symObjAddr: 0x2190, symBinAddr: 0x100005888, symSize: 0x34 }
  - { offsetInCU: 0xD484, offset: 0xD484, size: 0x8, addend: 0x0, symName: __ZNSt3__128__exception_guard_exceptionsINS_6vectorIiNS_9allocatorIiEEE16__destroy_vectorEEC2B7v160006ES5_, symObjAddr: 0x21C4, symBinAddr: 0x1000058BC, symSize: 0x24 }
  - { offsetInCU: 0xD4BC, offset: 0xD4BC, size: 0x8, addend: 0x0, symName: __ZNSt3__16vectorIiNS_9allocatorIiEEE16__destroy_vectorC2ERS3_, symObjAddr: 0x21E8, symBinAddr: 0x1000058E0, symSize: 0x20 }
  - { offsetInCU: 0xD4F5, offset: 0xD4F5, size: 0x8, addend: 0x0, symName: __ZNKSt3__16vectorIiNS_9allocatorIiEEE8max_sizeEv, symObjAddr: 0x2208, symBinAddr: 0x100005900, symSize: 0x60 }
  - { offsetInCU: 0xD51D, offset: 0xD51D, size: 0x8, addend: 0x0, symName: __ZNKSt3__16vectorIiNS_9allocatorIiEEE20__throw_length_errorB7v160006Ev, symObjAddr: 0x2268, symBinAddr: 0x100005960, symSize: 0x1C }
  - { offsetInCU: 0xD543, offset: 0xD543, size: 0x8, addend: 0x0, symName: __ZNSt3__16vectorIiNS_9allocatorIiEEE7__allocB7v160006Ev, symObjAddr: 0x22C0, symBinAddr: 0x1000059B8, symSize: 0x28 }
  - { offsetInCU: 0xD569, offset: 0xD569, size: 0x8, addend: 0x0, symName: __ZNSt3__16vectorIiNS_9allocatorIiEEE9__end_capB7v160006Ev, symObjAddr: 0x22E8, symBinAddr: 0x1000059E0, symSize: 0x28 }
  - { offsetInCU: 0xD58F, offset: 0xD58F, size: 0x8, addend: 0x0, symName: __ZNKSt3__16vectorIiNS_9allocatorIiEEE14__annotate_newB7v160006Em, symObjAddr: 0x2310, symBinAddr: 0x100005A08, symSize: 0xAC }
  - { offsetInCU: 0xD5CE, offset: 0xD5CE, size: 0x8, addend: 0x0, symName: __ZNSt3__116allocator_traitsINS_9allocatorIiEEE8max_sizeB7v160006IS2_vvEEmRKS2_, symObjAddr: 0x23BC, symBinAddr: 0x100005AB4, symSize: 0x28 }
  - { offsetInCU: 0xD5FA, offset: 0xD5FA, size: 0x8, addend: 0x0, symName: __ZNKSt3__16vectorIiNS_9allocatorIiEEE7__allocB7v160006Ev, symObjAddr: 0x23E4, symBinAddr: 0x100005ADC, symSize: 0x28 }
  - { offsetInCU: 0xD620, offset: 0xD620, size: 0x8, addend: 0x0, symName: __ZNKSt3__117__compressed_pairIPiNS_9allocatorIiEEE6secondB7v160006Ev, symObjAddr: 0x240C, symBinAddr: 0x100005B04, symSize: 0x24 }
  - { offsetInCU: 0xD646, offset: 0xD646, size: 0x8, addend: 0x0, symName: __ZNKSt3__122__compressed_pair_elemINS_9allocatorIiEELi1ELb1EE5__getB7v160006Ev, symObjAddr: 0x2430, symBinAddr: 0x100005B28, symSize: 0x14 }
  - { offsetInCU: 0xD66C, offset: 0xD66C, size: 0x8, addend: 0x0, symName: __ZNSt3__19allocatorIiE17allocate_at_leastB7v160006Em, symObjAddr: 0x2480, symBinAddr: 0x100005B78, symSize: 0x40 }
  - { offsetInCU: 0xD6A0, offset: 0xD6A0, size: 0x8, addend: 0x0, symName: __ZNSt3__19allocatorIiE8allocateB7v160006Em, symObjAddr: 0x24C0, symBinAddr: 0x100005BB8, symSize: 0x58 }
  - { offsetInCU: 0xD6D4, offset: 0xD6D4, size: 0x8, addend: 0x0, symName: __ZNSt3__117__compressed_pairIPiNS_9allocatorIiEEE6secondB7v160006Ev, symObjAddr: 0x2518, symBinAddr: 0x100005C10, symSize: 0x24 }
  - { offsetInCU: 0xD6FA, offset: 0xD6FA, size: 0x8, addend: 0x0, symName: __ZNSt3__122__compressed_pair_elemINS_9allocatorIiEELi1ELb1EE5__getB7v160006Ev, symObjAddr: 0x253C, symBinAddr: 0x100005C34, symSize: 0x14 }
  - { offsetInCU: 0xD720, offset: 0xD720, size: 0x8, addend: 0x0, symName: __ZNSt3__117__compressed_pairIPiNS_9allocatorIiEEE5firstB7v160006Ev, symObjAddr: 0x2550, symBinAddr: 0x100005C48, symSize: 0x24 }
  - { offsetInCU: 0xD746, offset: 0xD746, size: 0x8, addend: 0x0, symName: __ZNSt3__122__compressed_pair_elemIPiLi0ELb0EE5__getB7v160006Ev, symObjAddr: 0x2574, symBinAddr: 0x100005C6C, symSize: 0x14 }
  - { offsetInCU: 0xD76C, offset: 0xD76C, size: 0x8, addend: 0x0, symName: __ZNKSt3__16vectorIiNS_9allocatorIiEEE31__annotate_contiguous_containerB7v160006EPKvS5_S5_S5_, symObjAddr: 0x2588, symBinAddr: 0x100005C80, symSize: 0x20 }
  - { offsetInCU: 0xD7C2, offset: 0xD7C2, size: 0x8, addend: 0x0, symName: __ZNKSt3__16vectorIiNS_9allocatorIiEEE4dataB7v160006Ev, symObjAddr: 0x25A8, symBinAddr: 0x100005CA0, symSize: 0x28 }
  - { offsetInCU: 0xD7E8, offset: 0xD7E8, size: 0x8, addend: 0x0, symName: __ZNKSt3__16vectorIiNS_9allocatorIiEEE8capacityB7v160006Ev, symObjAddr: 0x25D0, symBinAddr: 0x100005CC8, symSize: 0x40 }
  - { offsetInCU: 0xD80E, offset: 0xD80E, size: 0x8, addend: 0x0, symName: __ZNKSt3__16vectorIiNS_9allocatorIiEEE9__end_capB7v160006Ev, symObjAddr: 0x2624, symBinAddr: 0x100005D1C, symSize: 0x28 }
  - { offsetInCU: 0xD834, offset: 0xD834, size: 0x8, addend: 0x0, symName: __ZNKSt3__117__compressed_pairIPiNS_9allocatorIiEEE5firstB7v160006Ev, symObjAddr: 0x264C, symBinAddr: 0x100005D44, symSize: 0x24 }
  - { offsetInCU: 0xD85A, offset: 0xD85A, size: 0x8, addend: 0x0, symName: __ZNKSt3__122__compressed_pair_elemIPiLi0ELb0EE5__getB7v160006Ev, symObjAddr: 0x2670, symBinAddr: 0x100005D68, symSize: 0x14 }
  - { offsetInCU: 0xD899, offset: 0xD899, size: 0x8, addend: 0x0, symName: __ZNSt3__16vectorIiNS_9allocatorIiEEE21_ConstructTransactionC1B7v160006ERS3_m, symObjAddr: 0x2684, symBinAddr: 0x100005D7C, symSize: 0x3C }
  - { offsetInCU: 0xD8E1, offset: 0xD8E1, size: 0x8, addend: 0x0, symName: __ZNSt3__116allocator_traitsINS_9allocatorIiEEE9constructB7v160006IiJEvvEEvRS2_PT_DpOT0_, symObjAddr: 0x26C0, symBinAddr: 0x100005DB8, symSize: 0x28 }
  - { offsetInCU: 0xD921, offset: 0xD921, size: 0x8, addend: 0x0, symName: __ZNSt3__16vectorIiNS_9allocatorIiEEE21_ConstructTransactionD1B7v160006Ev, symObjAddr: 0x26E8, symBinAddr: 0x100005DE0, symSize: 0x2C }
  - { offsetInCU: 0xD94B, offset: 0xD94B, size: 0x8, addend: 0x0, symName: __ZNSt3__16vectorIiNS_9allocatorIiEEE21_ConstructTransactionC2B7v160006ERS3_m, symObjAddr: 0x2714, symBinAddr: 0x100005E0C, symSize: 0x44 }
  - { offsetInCU: 0xD993, offset: 0xD993, size: 0x8, addend: 0x0, symName: __ZNSt3__16vectorIiNS_9allocatorIiEEE21_ConstructTransactionD2B7v160006Ev, symObjAddr: 0x2778, symBinAddr: 0x100005E70, symSize: 0x20 }
  - { offsetInCU: 0xD9BD, offset: 0xD9BD, size: 0x8, addend: 0x0, symName: __ZNSt3__128__exception_guard_exceptionsINS_6vectorIiNS_9allocatorIiEEE16__destroy_vectorEED2B7v160006Ev, symObjAddr: 0x2798, symBinAddr: 0x100005E90, symSize: 0x50 }
  - { offsetInCU: 0xD9E7, offset: 0xD9E7, size: 0x8, addend: 0x0, symName: __ZNSt3__16vectorIiNS_9allocatorIiEEE16__destroy_vectorclB7v160006Ev, symObjAddr: 0x27E8, symBinAddr: 0x100005EE0, symSize: 0x9C }
  - { offsetInCU: 0xDA0D, offset: 0xDA0D, size: 0x8, addend: 0x0, symName: __ZNKSt3__16vectorIiNS_9allocatorIiEEE17__annotate_deleteB7v160006Ev, symObjAddr: 0x2884, symBinAddr: 0x100005F7C, symSize: 0xB8 }
  - { offsetInCU: 0xDA33, offset: 0xDA33, size: 0x8, addend: 0x0, symName: __ZNSt3__16vectorIiNS_9allocatorIiEEE7__clearB7v160006Ev, symObjAddr: 0x294C, symBinAddr: 0x100006044, symSize: 0x28 }
  - { offsetInCU: 0xDA59, offset: 0xDA59, size: 0x8, addend: 0x0, symName: __ZNSt3__116allocator_traitsINS_9allocatorIiEEE10deallocateB7v160006ERS2_Pim, symObjAddr: 0x2974, symBinAddr: 0x10000606C, symSize: 0x34 }
  - { offsetInCU: 0xDA9B, offset: 0xDA9B, size: 0x8, addend: 0x0, symName: __ZNKSt3__16vectorIiNS_9allocatorIiEEE4sizeB7v160006Ev, symObjAddr: 0x29A8, symBinAddr: 0x1000060A0, symSize: 0x28 }
  - { offsetInCU: 0xDAC1, offset: 0xDAC1, size: 0x8, addend: 0x0, symName: __ZNSt3__16vectorIiNS_9allocatorIiEEE22__base_destruct_at_endB7v160006EPi, symObjAddr: 0x29D0, symBinAddr: 0x1000060C8, symSize: 0x8C }
  - { offsetInCU: 0xDB05, offset: 0xDB05, size: 0x8, addend: 0x0, symName: __ZNSt3__116allocator_traitsINS_9allocatorIiEEE7destroyB7v160006IivvEEvRS2_PT_, symObjAddr: 0x2A5C, symBinAddr: 0x100006154, symSize: 0x28 }
  - { offsetInCU: 0xDB40, offset: 0xDB40, size: 0x8, addend: 0x0, symName: __ZNSt3__19allocatorIiE10deallocateB7v160006EPim, symObjAddr: 0x2AB8, symBinAddr: 0x1000061B0, symSize: 0x40 }
  - { offsetInCU: 0xDB82, offset: 0xDB82, size: 0x8, addend: 0x0, symName: __ZNSt3__16vectorI2miNS_9allocatorIS1_EEEC2Em, symObjAddr: 0x2AF8, symBinAddr: 0x1000061F0, symSize: 0xDC }
  - { offsetInCU: 0xDBD2, offset: 0xDBD2, size: 0x8, addend: 0x0, symName: __ZNSt3__16vectorI2miNS_9allocatorIS1_EEE18__construct_at_endEm, symObjAddr: 0x2BD4, symBinAddr: 0x1000062CC, symSize: 0xC8 }
  - { offsetInCU: 0xDC44, offset: 0xDC44, size: 0x8, addend: 0x0, symName: __ZNSt3__116allocator_traitsINS_9allocatorI2miEEE9constructB7v160006IS2_JEvvEEvRS3_PT_DpOT0_, symObjAddr: 0x2C9C, symBinAddr: 0x100006394, symSize: 0x28 }
  - { offsetInCU: 0xDC84, offset: 0xDC84, size: 0x8, addend: 0x0, symName: __ZN2miC1Ev, symObjAddr: 0x2CF8, symBinAddr: 0x1000063F0, symSize: 0x2C }
  - { offsetInCU: 0xDCAE, offset: 0xDCAE, size: 0x8, addend: 0x0, symName: __ZN2miC2Ev, symObjAddr: 0x2D24, symBinAddr: 0x10000641C, symSize: 0x18 }
  - { offsetInCU: 0xDCD8, offset: 0xDCD8, size: 0x8, addend: 0x0, symName: __ZNSt3__16vectorI2miNS_9allocatorIS1_EEEC2ERKS4_, symObjAddr: 0x2D3C, symBinAddr: 0x100006434, symSize: 0x110 }
  - { offsetInCU: 0xDD37, offset: 0xDD37, size: 0x8, addend: 0x0, symName: __ZNSt3__116allocator_traitsINS_9allocatorI2miEEE37select_on_container_copy_constructionB7v160006IS3_vvEES3_RKS3_, symObjAddr: 0x2E4C, symBinAddr: 0x100006544, symSize: 0x10 }
  - { offsetInCU: 0xDD6B, offset: 0xDD6B, size: 0x8, addend: 0x0, symName: __ZNSt3__117__compressed_pairIP2miNS_9allocatorIS1_EEEC1B7v160006IDnS4_EEOT_OT0_, symObjAddr: 0x2E5C, symBinAddr: 0x100006554, symSize: 0x3C }
  - { offsetInCU: 0xDDC3, offset: 0xDDC3, size: 0x8, addend: 0x0, symName: __ZNSt3__16vectorI2miNS_9allocatorIS1_EEE18__construct_at_endIPS1_Li0EEEvT_S7_m, symObjAddr: 0x2E98, symBinAddr: 0x100006590, symSize: 0x8C }
  - { offsetInCU: 0xDE36, offset: 0xDE36, size: 0x8, addend: 0x0, symName: __ZNSt3__117__compressed_pairIP2miNS_9allocatorIS1_EEEC2B7v160006IDnS4_EEOT_OT0_, symObjAddr: 0x2F24, symBinAddr: 0x10000661C, symSize: 0x44 }
  - { offsetInCU: 0xDE8E, offset: 0xDE8E, size: 0x8, addend: 0x0, symName: __ZNSt3__122__compressed_pair_elemINS_9allocatorI2miEELi1ELb1EEC2B7v160006IS3_vEEOT_, symObjAddr: 0x2F68, symBinAddr: 0x100006660, symSize: 0x18 }
  - { offsetInCU: 0xDED0, offset: 0xDED0, size: 0x8, addend: 0x0, symName: __ZNSt3__129_AllocatorDestroyRangeReverseINS_9allocatorI2miEEPS2_EC1B7v160006ERS3_RS4_S7_, symObjAddr: 0x30C0, symBinAddr: 0x1000067B8, symSize: 0x44 }
  - { offsetInCU: 0xDF27, offset: 0xDF27, size: 0x8, addend: 0x0, symName: __ZNSt3__116allocator_traitsINS_9allocatorI2miEEE9constructB7v160006IS2_JRS2_EvvEEvRS3_PT_DpOT0_, symObjAddr: 0x3104, symBinAddr: 0x1000067FC, symSize: 0x30 }
  - { offsetInCU: 0xDF7C, offset: 0xDF7C, size: 0x8, addend: 0x0, symName: __ZNSt3__128__exception_guard_exceptionsINS_29_AllocatorDestroyRangeReverseINS_9allocatorI2miEEPS3_EEE10__completeB7v160006Ev, symObjAddr: 0x3134, symBinAddr: 0x10000682C, symSize: 0x1C }
  - { offsetInCU: 0xDFA2, offset: 0xDFA2, size: 0x8, addend: 0x0, symName: __ZNSt3__128__exception_guard_exceptionsINS_29_AllocatorDestroyRangeReverseINS_9allocatorI2miEEPS3_EEED1B7v160006Ev, symObjAddr: 0x3150, symBinAddr: 0x100006848, symSize: 0x2C }
  - { offsetInCU: 0xDFCC, offset: 0xDFCC, size: 0x8, addend: 0x0, symName: __ZNSt3__128__exception_guard_exceptionsINS_29_AllocatorDestroyRangeReverseINS_9allocatorI2miEEPS3_EEEC1B7v160006ES6_, symObjAddr: 0x317C, symBinAddr: 0x100006874, symSize: 0x34 }
  - { offsetInCU: 0xE005, offset: 0xE005, size: 0x8, addend: 0x0, symName: __ZNSt3__128__exception_guard_exceptionsINS_29_AllocatorDestroyRangeReverseINS_9allocatorI2miEEPS3_EEEC2B7v160006ES6_, symObjAddr: 0x31B0, symBinAddr: 0x1000068A8, symSize: 0x30 }
  - { offsetInCU: 0xE03E, offset: 0xE03E, size: 0x8, addend: 0x0, symName: __ZNSt3__129_AllocatorDestroyRangeReverseINS_9allocatorI2miEEPS2_EC2B7v160006ERS3_RS4_S7_, symObjAddr: 0x31E0, symBinAddr: 0x1000068D8, symSize: 0x38 }
  - { offsetInCU: 0xE095, offset: 0xE095, size: 0x8, addend: 0x0, symName: __ZNSt3__128__exception_guard_exceptionsINS_29_AllocatorDestroyRangeReverseINS_9allocatorI2miEEPS3_EEED2B7v160006Ev, symObjAddr: 0x3244, symBinAddr: 0x10000693C, symSize: 0x50 }
  - { offsetInCU: 0xE0BF, offset: 0xE0BF, size: 0x8, addend: 0x0, symName: __ZNKSt3__129_AllocatorDestroyRangeReverseINS_9allocatorI2miEEPS2_EclB7v160006Ev, symObjAddr: 0x3294, symBinAddr: 0x10000698C, symSize: 0x68 }
  - { offsetInCU: 0xE0E5, offset: 0xE0E5, size: 0x8, addend: 0x0, symName: __ZNSt3__116reverse_iteratorIP2miEC1B7v160006ES2_, symObjAddr: 0x336C, symBinAddr: 0x100006A64, symSize: 0x34 }
  - { offsetInCU: 0xE11D, offset: 0xE11D, size: 0x8, addend: 0x0, symName: __ZNSt3__116reverse_iteratorIP2miEppB7v160006Ev, symObjAddr: 0x340C, symBinAddr: 0x100006B04, symSize: 0x20 }
  - { offsetInCU: 0xE143, offset: 0xE143, size: 0x8, addend: 0x0, symName: __ZNKSt3__116reverse_iteratorIP2miE4baseB7v160006Ev, symObjAddr: 0x342C, symBinAddr: 0x100006B24, symSize: 0x18 }
  - { offsetInCU: 0xE16E, offset: 0xE16E, size: 0x8, addend: 0x0, symName: __ZNSt3__119__to_address_helperINS_16reverse_iteratorIP2miEEvE6__callB7v160006ERKS4_, symObjAddr: 0x3444, symBinAddr: 0x100006B3C, symSize: 0x38 }
  - { offsetInCU: 0xE191, offset: 0xE191, size: 0x8, addend: 0x0, symName: __ZNKSt3__116reverse_iteratorIP2miEptB7v160006Ev, symObjAddr: 0x347C, symBinAddr: 0x100006B74, symSize: 0x2C }
  - { offsetInCU: 0xE1B7, offset: 0xE1B7, size: 0x8, addend: 0x0, symName: __ZNSt3__116reverse_iteratorIP2miEC2B7v160006ES2_, symObjAddr: 0x3584, symBinAddr: 0x100006C7C, symSize: 0x28 }
  - { offsetInCU: 0xE1EF, offset: 0xE1EF, size: 0x8, addend: 0x0, symName: __ZNSt3__16vectorIiNS_9allocatorIiEEED2B7v160006Ev, symObjAddr: 0x35AC, symBinAddr: 0x100006CA4, symSize: 0x44 }
  - { offsetInCU: 0xE232, offset: 0xE232, size: 0x8, addend: 0x0, symName: __ZNKSt3__113basic_ostreamIcNS_11char_traitsIcEEE6sentrycvbB7v160006Ev, symObjAddr: 0x37DC, symBinAddr: 0x100006ED4, symSize: 0x1C }
  - { offsetInCU: 0xE258, offset: 0xE258, size: 0x8, addend: 0x0, symName: __ZNSt3__119ostreambuf_iteratorIcNS_11char_traitsIcEEEC1B7v160006ERNS_13basic_ostreamIcS2_EE, symObjAddr: 0x3A38, symBinAddr: 0x100007130, symSize: 0x34 }
  - { offsetInCU: 0xE290, offset: 0xE290, size: 0x8, addend: 0x0, symName: __ZNKSt3__18ios_base5flagsB7v160006Ev, symObjAddr: 0x3A6C, symBinAddr: 0x100007164, symSize: 0x18 }
  - { offsetInCU: 0xE2B8, offset: 0xE2B8, size: 0x8, addend: 0x0, symName: __ZNKSt3__19basic_iosIcNS_11char_traitsIcEEE4fillB7v160006Ev, symObjAddr: 0x3A84, symBinAddr: 0x10000717C, symSize: 0x64 }
  - { offsetInCU: 0xE2E0, offset: 0xE2E0, size: 0x8, addend: 0x0, symName: __ZNKSt3__119ostreambuf_iteratorIcNS_11char_traitsIcEEE6failedB7v160006Ev, symObjAddr: 0x3AE8, symBinAddr: 0x1000071E0, symSize: 0x24 }
  - { offsetInCU: 0xE306, offset: 0xE306, size: 0x8, addend: 0x0, symName: __ZNSt3__19basic_iosIcNS_11char_traitsIcEEE8setstateB7v160006Ej, symObjAddr: 0x3B0C, symBinAddr: 0x100007204, symSize: 0x2C }
  - { offsetInCU: 0xE33B, offset: 0xE33B, size: 0x8, addend: 0x0, symName: __ZNKSt3__18ios_base5widthB7v160006Ev, symObjAddr: 0x3B38, symBinAddr: 0x100007230, symSize: 0x18 }
  - { offsetInCU: 0xE363, offset: 0xE363, size: 0x8, addend: 0x0, symName: __ZNSt3__115basic_streambufIcNS_11char_traitsIcEEE5sputnB7v160006EPKcl, symObjAddr: 0x3B50, symBinAddr: 0x100007248, symSize: 0x3C }
  - { offsetInCU: 0xE3A5, offset: 0xE3A5, size: 0x8, addend: 0x0, symName: __ZNSt3__112basic_stringIcNS_11char_traitsIcEENS_9allocatorIcEEEC1B7v160006Emc, symObjAddr: 0x3B8C, symBinAddr: 0x100007284, symSize: 0x3C }
  - { offsetInCU: 0xE3ED, offset: 0xE3ED, size: 0x8, addend: 0x0, symName: __ZNSt3__112basic_stringIcNS_11char_traitsIcEENS_9allocatorIcEEE4dataB7v160006Ev, symObjAddr: 0x3BC8, symBinAddr: 0x1000072C0, symSize: 0x28 }
  - { offsetInCU: 0xE413, offset: 0xE413, size: 0x8, addend: 0x0, symName: __ZNSt3__18ios_base5widthB7v160006El, symObjAddr: 0x3BF0, symBinAddr: 0x1000072E8, symSize: 0x2C }
  - { offsetInCU: 0xE459, offset: 0xE459, size: 0x8, addend: 0x0, symName: __ZNSt3__112basic_stringIcNS_11char_traitsIcEENS_9allocatorIcEEEC2B7v160006Emc, symObjAddr: 0x3C1C, symBinAddr: 0x100007314, symSize: 0x54 }
  - { offsetInCU: 0xE4A1, offset: 0xE4A1, size: 0x8, addend: 0x0, symName: __ZNSt3__117__compressed_pairINS_12basic_stringIcNS_11char_traitsIcEENS_9allocatorIcEEE5__repES5_EC1B7v160006INS_18__default_init_tagESA_EEOT_OT0_, symObjAddr: 0x3C70, symBinAddr: 0x100007368, symSize: 0x3C }
  - { offsetInCU: 0xE4F9, offset: 0xE4F9, size: 0x8, addend: 0x0, symName: __ZNSt3__117__compressed_pairINS_12basic_stringIcNS_11char_traitsIcEENS_9allocatorIcEEE5__repES5_EC2B7v160006INS_18__default_init_tagESA_EEOT_OT0_, symObjAddr: 0x3CBC, symBinAddr: 0x1000073B4, symSize: 0x3C }
  - { offsetInCU: 0xE551, offset: 0xE551, size: 0x8, addend: 0x0, symName: __ZNSt3__122__compressed_pair_elemINS_12basic_stringIcNS_11char_traitsIcEENS_9allocatorIcEEE5__repELi0ELb0EEC2B7v160006ENS_18__default_init_tagE, symObjAddr: 0x3CF8, symBinAddr: 0x1000073F0, symSize: 0x14 }
  - { offsetInCU: 0xE585, offset: 0xE585, size: 0x8, addend: 0x0, symName: __ZNSt3__122__compressed_pair_elemINS_9allocatorIcEELi1ELb1EEC2B7v160006ENS_18__default_init_tagE, symObjAddr: 0x3D0C, symBinAddr: 0x100007404, symSize: 0x2C }
  - { offsetInCU: 0xE5B9, offset: 0xE5B9, size: 0x8, addend: 0x0, symName: __ZNSt3__19allocatorIcEC2B7v160006Ev, symObjAddr: 0x3D38, symBinAddr: 0x100007430, symSize: 0x2C }
  - { offsetInCU: 0xE5E3, offset: 0xE5E3, size: 0x8, addend: 0x0, symName: __ZNSt3__116__non_trivial_ifILb1ENS_9allocatorIcEEEC2B7v160006Ev, symObjAddr: 0x3D64, symBinAddr: 0x10000745C, symSize: 0x14 }
  - { offsetInCU: 0xE60D, offset: 0xE60D, size: 0x8, addend: 0x0, symName: __ZNSt3__112basic_stringIcNS_11char_traitsIcEENS_9allocatorIcEEE13__get_pointerB7v160006Ev, symObjAddr: 0x3D8C, symBinAddr: 0x100007484, symSize: 0x54 }
  - { offsetInCU: 0xE633, offset: 0xE633, size: 0x8, addend: 0x0, symName: __ZNKSt3__112basic_stringIcNS_11char_traitsIcEENS_9allocatorIcEEE9__is_longB7v160006Ev, symObjAddr: 0x3DE0, symBinAddr: 0x1000074D8, symSize: 0x38 }
  - { offsetInCU: 0xE659, offset: 0xE659, size: 0x8, addend: 0x0, symName: __ZNSt3__112basic_stringIcNS_11char_traitsIcEENS_9allocatorIcEEE18__get_long_pointerB7v160006Ev, symObjAddr: 0x3E18, symBinAddr: 0x100007510, symSize: 0x28 }
  - { offsetInCU: 0xE67F, offset: 0xE67F, size: 0x8, addend: 0x0, symName: __ZNSt3__112basic_stringIcNS_11char_traitsIcEENS_9allocatorIcEEE19__get_short_pointerB7v160006Ev, symObjAddr: 0x3E40, symBinAddr: 0x100007538, symSize: 0x28 }
  - { offsetInCU: 0xE6A5, offset: 0xE6A5, size: 0x8, addend: 0x0, symName: __ZNKSt3__117__compressed_pairINS_12basic_stringIcNS_11char_traitsIcEENS_9allocatorIcEEE5__repES5_E5firstB7v160006Ev, symObjAddr: 0x3E68, symBinAddr: 0x100007560, symSize: 0x24 }
  - { offsetInCU: 0xE6CB, offset: 0xE6CB, size: 0x8, addend: 0x0, symName: __ZNKSt3__122__compressed_pair_elemINS_12basic_stringIcNS_11char_traitsIcEENS_9allocatorIcEEE5__repELi0ELb0EE5__getB7v160006Ev, symObjAddr: 0x3E8C, symBinAddr: 0x100007584, symSize: 0x14 }
  - { offsetInCU: 0xE6F1, offset: 0xE6F1, size: 0x8, addend: 0x0, symName: __ZNSt3__117__compressed_pairINS_12basic_stringIcNS_11char_traitsIcEENS_9allocatorIcEEE5__repES5_E5firstB7v160006Ev, symObjAddr: 0x3EA0, symBinAddr: 0x100007598, symSize: 0x24 }
  - { offsetInCU: 0xE717, offset: 0xE717, size: 0x8, addend: 0x0, symName: __ZNSt3__122__compressed_pair_elemINS_12basic_stringIcNS_11char_traitsIcEENS_9allocatorIcEEE5__repELi0ELb0EE5__getB7v160006Ev, symObjAddr: 0x3EC4, symBinAddr: 0x1000075BC, symSize: 0x14 }
  - { offsetInCU: 0xE73D, offset: 0xE73D, size: 0x8, addend: 0x0, symName: __ZNSt3__114pointer_traitsIPcE10pointer_toB7v160006ERc, symObjAddr: 0x3ED8, symBinAddr: 0x1000075D0, symSize: 0x14 }
  - { offsetInCU: 0xE760, offset: 0xE760, size: 0x8, addend: 0x0, symName: __ZNSt3__119ostreambuf_iteratorIcNS_11char_traitsIcEEEC2B7v160006ERNS_13basic_ostreamIcS2_EE, symObjAddr: 0x3EEC, symBinAddr: 0x1000075E4, symSize: 0x54 }
  - { offsetInCU: 0xE798, offset: 0xE798, size: 0x8, addend: 0x0, symName: __ZNKSt3__19basic_iosIcNS_11char_traitsIcEEE5rdbufB7v160006Ev, symObjAddr: 0x3F40, symBinAddr: 0x100007638, symSize: 0x24 }
  - { offsetInCU: 0xE7C0, offset: 0xE7C0, size: 0x8, addend: 0x0, symName: __ZNKSt3__18ios_base5rdbufB7v160006Ev, symObjAddr: 0x3F64, symBinAddr: 0x10000765C, symSize: 0x18 }
  - { offsetInCU: 0xE7E6, offset: 0xE7E6, size: 0x8, addend: 0x0, symName: __ZNSt3__111char_traitsIcE11eq_int_typeEii, symObjAddr: 0x3F7C, symBinAddr: 0x100007674, symSize: 0x28 }
  - { offsetInCU: 0xE817, offset: 0xE817, size: 0x8, addend: 0x0, symName: __ZNSt3__111char_traitsIcE3eofEv, symObjAddr: 0x3FA4, symBinAddr: 0x10000769C, symSize: 0x8 }
  - { offsetInCU: 0xE82B, offset: 0xE82B, size: 0x8, addend: 0x0, symName: __ZNKSt3__19basic_iosIcNS_11char_traitsIcEEE5widenB7v160006Ec, symObjAddr: 0x3FAC, symBinAddr: 0x1000076A4, symSize: 0x84 }
  - { offsetInCU: 0xE899, offset: 0xE899, size: 0x8, addend: 0x0, symName: __ZNKSt3__15ctypeIcE5widenB7v160006Ec, symObjAddr: 0x405C, symBinAddr: 0x100007754, symSize: 0x38 }
  - { offsetInCU: 0xE8CE, offset: 0xE8CE, size: 0x8, addend: 0x0, symName: __ZNSt3__18ios_base8setstateB7v160006Ej, symObjAddr: 0x4094, symBinAddr: 0x10000778C, symSize: 0x34 }
...
