---
triple:          'arm64-apple-darwin'
binary-path:     '/Users/rohakdebnath/Desktop/Cpp /ATCODER/swapdfs'
relocations:
  - { offsetInCU: 0x4A, offset: 0x4A, size: 0x8, addend: 0x0, symName: __ZL3KEY, symObjAddr: 0x4CC58, symBinAddr: 0x10000C000, symSize: 0x0 }
  - { offsetInCU: 0x7315, offset: 0x7315, size: 0x8, addend: 0x0, symName: __ZNSt3__1L19piecewise_constructE, symObjAddr: 0x5AF0, symBinAddr: 0x100007BB4, symSize: 0x0 }
  - { offsetInCU: 0x8BE6, offset: 0x8BE6, size: 0x8, addend: 0x0, symName: __ZNSt3__124__put_character_sequenceB7v160006IcNS_11char_traitsIcEEEERNS_13basic_ostreamIT_T0_EES7_PKS4_m, symObjAddr: 0x50D4, symBinAddr: 0x100006EA0, symSize: 0x1EC }
  - { offsetInCU: 0xA592, offset: 0xA592, size: 0x8, addend: 0x0, symName: __ZNSt3__1plB7v160006IcNS_11char_traitsIcEENS_9allocatorIcEEEENS_12basic_stringIT_T0_T1_EEOS9_SA_, symObjAddr: 0x4D8, symBinAddr: 0x1000022A4, symSize: 0x40 }
  - { offsetInCU: 0xA5EA, offset: 0xA5EA, size: 0x8, addend: 0x0, symName: __ZNSt3__1rsB7v160006IcNS_11char_traitsIcEENS_9allocatorIcEEEERNS_13basic_istreamIT_T0_EES9_RNS_12basic_stringIS6_S7_T1_EE, symObjAddr: 0x6F0, symBinAddr: 0x1000024BC, symSize: 0x31C }
  - { offsetInCU: 0xA6B9, offset: 0xA6B9, size: 0x8, addend: 0x0, symName: __ZNSt3__1lsB7v160006INS_11char_traitsIcEEEERNS_13basic_ostreamIcT_EES6_c, symObjAddr: 0xA0C, symBinAddr: 0x1000027D8, symSize: 0x34 }
  - { offsetInCU: 0xA6FF, offset: 0xA6FF, size: 0x8, addend: 0x0, symName: __ZNSt3__119__debug_db_insert_cB7v160006INS_12basic_stringIcNS_11char_traitsIcEENS_9allocatorIcEEEEEEvPT_, symObjAddr: 0xB10, symBinAddr: 0x1000028DC, symSize: 0x10 }
  - { offsetInCU: 0xA730, offset: 0xA730, size: 0x8, addend: 0x0, symName: __ZNSt3__118__constexpr_strlenB7v160006EPKc, symObjAddr: 0xBDC, symBinAddr: 0x1000029A8, symSize: 0x24 }
  - { offsetInCU: 0xA75C, offset: 0xA75C, size: 0x8, addend: 0x0, symName: __ZNSt3__112__to_addressB7v160006IKcEEPT_S3_, symObjAddr: 0xDF0, symBinAddr: 0x100002BBC, symSize: 0x14 }
  - { offsetInCU: 0xA7C4, offset: 0xA7C4, size: 0x8, addend: 0x0, symName: __ZNSt3__115__debug_db_swapB7v160006INS_12basic_stringIcNS_11char_traitsIcEENS_9allocatorIcEEEEEEvPT_S8_, symObjAddr: 0x1000, symBinAddr: 0x100002DCC, symSize: 0x14 }
  - { offsetInCU: 0xA836, offset: 0xA836, size: 0x8, addend: 0x0, symName: __ZNSt3__110destroy_atB7v160006INS_4pairIKNS_12basic_stringIcNS_11char_traitsIcEENS_9allocatorIcEEEENS_3mapIxxNS_4lessIxEENS5_INS1_IKxxEEEEEEEELi0EEEvPT_, symObjAddr: 0x1684, symBinAddr: 0x100003450, symSize: 0x24 }
  - { offsetInCU: 0xA86D, offset: 0xA86D, size: 0x8, addend: 0x0, symName: __ZNSt3__112__destroy_atB7v160006INS_4pairIKNS_12basic_stringIcNS_11char_traitsIcEENS_9allocatorIcEEEENS_3mapIxxNS_4lessIxEENS5_INS1_IKxxEEEEEEEELi0EEEvPT_, symObjAddr: 0x16A8, symBinAddr: 0x100003474, symSize: 0x24 }
  - { offsetInCU: 0xA8A4, offset: 0xA8A4, size: 0x8, addend: 0x0, symName: __ZNSt3__110destroy_atB7v160006INS_4pairIKxxEELi0EEEvPT_, symObjAddr: 0x19A0, symBinAddr: 0x10000376C, symSize: 0x24 }
  - { offsetInCU: 0xA8DB, offset: 0xA8DB, size: 0x8, addend: 0x0, symName: __ZNSt3__112__destroy_atB7v160006INS_4pairIKxxEELi0EEEvPT_, symObjAddr: 0x19C4, symBinAddr: 0x100003790, symSize: 0x10 }
  - { offsetInCU: 0xA912, offset: 0xA912, size: 0x8, addend: 0x0, symName: __ZNSt3__17launderB7v160006INS_4pairIKxxEEEEPT_S5_, symObjAddr: 0x19F8, symBinAddr: 0x1000037C4, symSize: 0x24 }
  - { offsetInCU: 0xA949, offset: 0xA949, size: 0x8, addend: 0x0, symName: __ZNSt3__19__launderB7v160006INS_4pairIKxxEEEEPT_S5_, symObjAddr: 0x1A1C, symBinAddr: 0x1000037E8, symSize: 0x14 }
  - { offsetInCU: 0xA980, offset: 0xA980, size: 0x8, addend: 0x0, symName: __ZNSt3__119__libcpp_deallocateB7v160006EPvmm, symObjAddr: 0x1A74, symBinAddr: 0x100003840, symSize: 0x60 }
  - { offsetInCU: 0xA9E5, offset: 0xA9E5, size: 0x8, addend: 0x0, symName: __ZNSt3__124__is_overaligned_for_newB7v160006Em, symObjAddr: 0x1AD4, symBinAddr: 0x1000038A0, symSize: 0x20 }
  - { offsetInCU: 0xAA13, offset: 0xAA13, size: 0x8, addend: 0x0, symName: __ZNSt3__127__do_deallocate_handle_sizeB7v160006IJSt11align_val_tEEEvPvmDpT_, symObjAddr: 0x1AF4, symBinAddr: 0x1000038C0, symSize: 0x30 }
  - { offsetInCU: 0xAA66, offset: 0xAA66, size: 0x8, addend: 0x0, symName: __ZNSt3__127__do_deallocate_handle_sizeB7v160006IJEEEvPvmDpT_, symObjAddr: 0x1B24, symBinAddr: 0x1000038F0, symSize: 0x28 }
  - { offsetInCU: 0xAAA4, offset: 0xAAA4, size: 0x8, addend: 0x0, symName: __ZNSt3__124__libcpp_operator_deleteB7v160006IJPvSt11align_val_tEEEvDpT_, symObjAddr: 0x1B4C, symBinAddr: 0x100003918, symSize: 0x2C }
  - { offsetInCU: 0xAAED, offset: 0xAAED, size: 0x8, addend: 0x0, symName: __ZNSt3__124__libcpp_operator_deleteB7v160006IJPvEEEvDpT_, symObjAddr: 0x1B78, symBinAddr: 0x100003944, symSize: 0x24 }
  - { offsetInCU: 0xAB22, offset: 0xAB22, size: 0x8, addend: 0x0, symName: __ZNSt3__17launderB7v160006INS_4pairIKNS_12basic_stringIcNS_11char_traitsIcEENS_9allocatorIcEEEENS_3mapIxxNS_4lessIxEENS5_INS1_IKxxEEEEEEEEEEPT_SI_, symObjAddr: 0x1C24, symBinAddr: 0x1000039F0, symSize: 0x24 }
  - { offsetInCU: 0xAB59, offset: 0xAB59, size: 0x8, addend: 0x0, symName: __ZNSt3__19__launderB7v160006INS_4pairIKNS_12basic_stringIcNS_11char_traitsIcEENS_9allocatorIcEEEENS_3mapIxxNS_4lessIxEENS5_INS1_IKxxEEEEEEEEEEPT_SI_, symObjAddr: 0x1C48, symBinAddr: 0x100003A14, symSize: 0x14 }
  - { offsetInCU: 0xABDF, offset: 0xABDF, size: 0x8, addend: 0x0, symName: __ZNSt3__116forward_as_tupleB7v160006IJRKNS_12basic_stringIcNS_11char_traitsIcEENS_9allocatorIcEEEEEEENS_5tupleIJDpOT_EEESC_, symObjAddr: 0x1DF0, symBinAddr: 0x100003BBC, symSize: 0x2C }
  - { offsetInCU: 0xAC18, offset: 0xAC18, size: 0x8, addend: 0x0, symName: __ZNSt3__116forward_as_tupleB7v160006IJEEENS_5tupleIJDpOT_EEES4_, symObjAddr: 0x1E1C, symBinAddr: 0x100003BE8, symSize: 0x4 }
  - { offsetInCU: 0xAC3C, offset: 0xAC3C, size: 0x8, addend: 0x0, symName: __ZNSt3__1ltB7v160006ENS_15strong_orderingENS_20_CmpUnspecifiedParamE, symObjAddr: 0x2454, symBinAddr: 0x100004220, symSize: 0x24 }
  - { offsetInCU: 0xAC75, offset: 0xAC75, size: 0x8, addend: 0x0, symName: __ZNSt3__1ssB7v160006IcNS_11char_traitsIcEENS_9allocatorIcEEEEDaRKNS_12basic_stringIT_T0_T1_EESC_, symObjAddr: 0x2478, symBinAddr: 0x100004244, symSize: 0x5C }
  - { offsetInCU: 0xACE9, offset: 0xACE9, size: 0x8, addend: 0x0, symName: __ZNSt3__1ssB7v160006IcNS_11char_traitsIcEEEEDaNS_17basic_string_viewIT_T0_EES7_, symObjAddr: 0x2508, symBinAddr: 0x1000042D4, symSize: 0x7C }
  - { offsetInCU: 0xAD38, offset: 0xAD38, size: 0x8, addend: 0x0, symName: __ZNSt3__13minB7v160006ImEERKT_S3_S3_, symObjAddr: 0x2710, symBinAddr: 0x1000044DC, symSize: 0x2C }
  - { offsetInCU: 0xAD7B, offset: 0xAD7B, size: 0x8, addend: 0x0, symName: __ZNSt3__13minB7v160006ImNS_6__lessImmEEEERKT_S5_S5_T0_, symObjAddr: 0x27D8, symBinAddr: 0x1000045A4, symSize: 0x54 }
  - { offsetInCU: 0xAE10, offset: 0xAE10, size: 0x8, addend: 0x0, symName: __ZNSt3__118__constexpr_memcmpB7v160006IcEEiPKT_S3_m, symObjAddr: 0x2860, symBinAddr: 0x10000462C, symSize: 0x34 }
  - { offsetInCU: 0xAE61, offset: 0xAE61, size: 0x8, addend: 0x0, symName: __ZNSt3__17launderB7v160006IKNS_4pairIKNS_12basic_stringIcNS_11char_traitsIcEENS_9allocatorIcEEEENS_3mapIxxNS_4lessIxEENS5_INS1_IKxxEEEEEEEEEEPT_SJ_, symObjAddr: 0x2938, symBinAddr: 0x100004704, symSize: 0x24 }
  - { offsetInCU: 0xAE98, offset: 0xAE98, size: 0x8, addend: 0x0, symName: __ZNSt3__19__launderB7v160006IKNS_4pairIKNS_12basic_stringIcNS_11char_traitsIcEENS_9allocatorIcEEEENS_3mapIxxNS_4lessIxEENS5_INS1_IKxxEEEEEEEEEEPT_SJ_, symObjAddr: 0x295C, symBinAddr: 0x100004728, symSize: 0x14 }
  - { offsetInCU: 0xAEED, offset: 0xAEED, size: 0x8, addend: 0x0, symName: __ZNSt3__117__libcpp_allocateB7v160006Emm, symObjAddr: 0x2B64, symBinAddr: 0x100004930, symSize: 0x60 }
  - { offsetInCU: 0xB133, offset: 0xB133, size: 0x8, addend: 0x0, symName: __ZNSt3__121__libcpp_operator_newB7v160006IJmSt11align_val_tEEEPvDpT_, symObjAddr: 0x2BE0, symBinAddr: 0x1000049AC, symSize: 0x2C }
  - { offsetInCU: 0xB180, offset: 0xB180, size: 0x8, addend: 0x0, symName: __ZNSt3__121__libcpp_operator_newB7v160006IJmEEEPvDpT_, symObjAddr: 0x2C0C, symBinAddr: 0x1000049D8, symSize: 0x24 }
  - { offsetInCU: 0xB1DE, offset: 0xB1DE, size: 0x8, addend: 0x0, symName: __ZNSt3__112construct_atB7v160006INS_4pairIKNS_12basic_stringIcNS_11char_traitsIcEENS_9allocatorIcEEEENS_3mapIxxNS_4lessIxEENS5_INS1_IKxxEEEEEEEEJRKNS_21piecewise_construct_tENS_5tupleIJRS8_EEENSK_IJEEEEPSG_EEPT_SQ_DpOT0_, symObjAddr: 0x2D7C, symBinAddr: 0x100004B48, symSize: 0x50 }
  - { offsetInCU: 0xB27F, offset: 0xB27F, size: 0x8, addend: 0x0, symName: __ZNSt3__13getB7v160006ILm0EJRKNS_12basic_stringIcNS_11char_traitsIcEENS_9allocatorIcEEEEEEERNS_13tuple_elementIXT_ENS_5tupleIJDpT0_EEEE4typeERSD_, symObjAddr: 0x2E94, symBinAddr: 0x100004C60, symSize: 0x24 }
  - { offsetInCU: 0xB2C2, offset: 0xB2C2, size: 0x8, addend: 0x0, symName: __ZNSt3__127__tree_balance_after_insertB7v160006IPNS_16__tree_node_baseIPvEEEEvT_S5_, symObjAddr: 0x3268, symBinAddr: 0x100005034, symSize: 0x32C }
  - { offsetInCU: 0xB33E, offset: 0xB33E, size: 0x8, addend: 0x0, symName: __ZNSt3__120__tree_is_left_childB7v160006IPNS_16__tree_node_baseIPvEEEEbT_, symObjAddr: 0x35D4, symBinAddr: 0x1000053A0, symSize: 0x2C }
  - { offsetInCU: 0xB373, offset: 0xB373, size: 0x8, addend: 0x0, symName: __ZNSt3__118__tree_left_rotateB7v160006IPNS_16__tree_node_baseIPvEEEEvT_, symObjAddr: 0x3600, symBinAddr: 0x1000053CC, symSize: 0xD8 }
  - { offsetInCU: 0xB3B5, offset: 0xB3B5, size: 0x8, addend: 0x0, symName: __ZNSt3__119__tree_right_rotateB7v160006IPNS_16__tree_node_baseIPvEEEEvT_, symObjAddr: 0x36D8, symBinAddr: 0x1000054A4, symSize: 0xCC }
  - { offsetInCU: 0xB44E, offset: 0xB44E, size: 0x8, addend: 0x0, symName: __ZNSt3__116forward_as_tupleB7v160006IJRKxEEENS_5tupleIJDpOT_EEES6_, symObjAddr: 0x3BE8, symBinAddr: 0x1000059B4, symSize: 0x2C }
  - { offsetInCU: 0xB487, offset: 0xB487, size: 0x8, addend: 0x0, symName: __ZNSt3__17launderB7v160006IKNS_4pairIKxxEEEEPT_S6_, symObjAddr: 0x422C, symBinAddr: 0x100005FF8, symSize: 0x24 }
  - { offsetInCU: 0xB4BE, offset: 0xB4BE, size: 0x8, addend: 0x0, symName: __ZNSt3__19__launderB7v160006IKNS_4pairIKxxEEEEPT_S6_, symObjAddr: 0x4250, symBinAddr: 0x10000601C, symSize: 0x14 }
  - { offsetInCU: 0xB538, offset: 0xB538, size: 0x8, addend: 0x0, symName: __ZNSt3__112construct_atB7v160006INS_4pairIKxxEEJRKNS_21piecewise_construct_tENS_5tupleIJRS2_EEENS7_IJEEEEPS3_EEPT_SD_DpOT0_, symObjAddr: 0x4570, symBinAddr: 0x10000633C, symSize: 0x50 }
  - { offsetInCU: 0xB5CE, offset: 0xB5CE, size: 0x8, addend: 0x0, symName: __ZNSt3__13getB7v160006ILm0EJRKxEEERNS_13tuple_elementIXT_ENS_5tupleIJDpT0_EEEE4typeERS7_, symObjAddr: 0x4688, symBinAddr: 0x100006454, symSize: 0x24 }
  - { offsetInCU: 0xBDC2, offset: 0xBDC2, size: 0x8, addend: 0x0, symName: __ZNSt3__19use_facetB7v160006INS_5ctypeIcEEEERKT_RKNS_6localeE, symObjAddr: 0x4BEC, symBinAddr: 0x1000069B8, symSize: 0x2C }
  - { offsetInCU: 0xC1A2, offset: 0xC1A2, size: 0x8, addend: 0x0, symName: __ZNSt3__125__debug_db_invalidate_allB7v160006INS_12basic_stringIcNS_11char_traitsIcEENS_9allocatorIcEEEEEEvPT_, symObjAddr: 0x4EC8, symBinAddr: 0x100006C94, symSize: 0x10 }
  - { offsetInCU: 0xC1D3, offset: 0xC1D3, size: 0x8, addend: 0x0, symName: __ZNSt3__116__pad_and_outputB7v160006IcNS_11char_traitsIcEEEENS_19ostreambuf_iteratorIT_T0_EES6_PKS4_S8_S8_RNS_8ios_baseES4_, symObjAddr: 0x52DC, symBinAddr: 0x1000070A8, symSize: 0x240 }
  - { offsetInCU: 0xC2A2, offset: 0xC2A2, size: 0x8, addend: 0x0, symName: __ZNSt3__112__to_addressB7v160006IcEEPT_S2_, symObjAddr: 0x56E4, symBinAddr: 0x1000074B0, symSize: 0x14 }
  - { offsetInCU: 0xC40D, offset: 0xC40D, size: 0x8, addend: 0x0, symName: __ZSt28__throw_bad_array_new_lengthB7v160006v, symObjAddr: 0x2B30, symBinAddr: 0x1000048FC, symSize: 0x34 }
  - { offsetInCU: 0xC61E, offset: 0xC61E, size: 0x8, addend: 0x0, symName: _vis, symObjAddr: 0x4CC70, symBinAddr: 0x10000C018, symSize: 0x0 }
  - { offsetInCU: 0xF5BF, offset: 0xF5BF, size: 0x8, addend: 0x0, symName: __ZNSt3__112basic_stringIcNS_11char_traitsIcEENS_9allocatorIcEEEC1B7v160006IDnEEPKc, symObjAddr: 0x0, symBinAddr: 0x100001DCC, symSize: 0x34 }
  - { offsetInCU: 0xF5FD, offset: 0xF5FD, size: 0x8, addend: 0x0, symName: __ZNSt3__13mapINS_12basic_stringIcNS_11char_traitsIcEENS_9allocatorIcEEEENS0_IxxNS_4lessIxEENS4_INS_4pairIKxxEEEEEENS7_IS6_EENS4_INS9_IKS6_SD_EEEEEC1B7v160006Ev, symObjAddr: 0x34, symBinAddr: 0x100001E00, symSize: 0x2C }
  - { offsetInCU: 0xF627, offset: 0xF627, size: 0x8, addend: 0x0, symName: __ZNSt3__13mapINS_12basic_stringIcNS_11char_traitsIcEENS_9allocatorIcEEEENS0_IxxNS_4lessIxEENS4_INS_4pairIKxxEEEEEENS7_IS6_EENS4_INS9_IKS6_SD_EEEEED1B7v160006Ev, symObjAddr: 0x60, symBinAddr: 0x100001E2C, symSize: 0x2C }
  - { offsetInCU: 0xF650, offset: 0xF650, size: 0x8, addend: 0x0, symName: __Z7swapmemNSt3__112basic_stringIcNS_11char_traitsIcEENS_9allocatorIcEEEEx, symObjAddr: 0x8C, symBinAddr: 0x100001E58, symSize: 0x298 }
  - { offsetInCU: 0xF6C5, offset: 0xF6C5, size: 0x8, addend: 0x0, symName: __ZNKSt3__112basic_stringIcNS_11char_traitsIcEENS_9allocatorIcEEE4sizeB7v160006Ev, symObjAddr: 0x324, symBinAddr: 0x1000020F0, symSize: 0x54 }
  - { offsetInCU: 0xF6EB, offset: 0xF6EB, size: 0x8, addend: 0x0, symName: __ZNSt3__13mapINS_12basic_stringIcNS_11char_traitsIcEENS_9allocatorIcEEEENS0_IxxNS_4lessIxEENS4_INS_4pairIKxxEEEEEENS7_IS6_EENS4_INS9_IKS6_SD_EEEEEixERSF_, symObjAddr: 0x378, symBinAddr: 0x100002144, symSize: 0x80 }
  - { offsetInCU: 0xF722, offset: 0xF722, size: 0x8, addend: 0x0, symName: __ZNSt3__13mapIxxNS_4lessIxEENS_9allocatorINS_4pairIKxxEEEEEixERS5_, symObjAddr: 0x3F8, symBinAddr: 0x1000021C4, symSize: 0x80 }
  - { offsetInCU: 0xF759, offset: 0xF759, size: 0x8, addend: 0x0, symName: __ZNSt3__112basic_stringIcNS_11char_traitsIcEENS_9allocatorIcEEEixB7v160006Em, symObjAddr: 0x478, symBinAddr: 0x100002244, symSize: 0x30 }
  - { offsetInCU: 0xF78E, offset: 0xF78E, size: 0x8, addend: 0x0, symName: __ZNKSt3__112basic_stringIcNS_11char_traitsIcEENS_9allocatorIcEEEixB7v160006Em, symObjAddr: 0x4A8, symBinAddr: 0x100002274, symSize: 0x30 }
  - { offsetInCU: 0xF7C3, offset: 0xF7C3, size: 0x8, addend: 0x0, symName: __ZNKRSt3__112basic_stringIcNS_11char_traitsIcEENS_9allocatorIcEEE6substrB7v160006Emm, symObjAddr: 0x518, symBinAddr: 0x1000022E4, symSize: 0x68 }
  - { offsetInCU: 0xF807, offset: 0xF807, size: 0x8, addend: 0x0, symName: _main, symObjAddr: 0x580, symBinAddr: 0x10000234C, symSize: 0x118 }
  - { offsetInCU: 0xF840, offset: 0xF840, size: 0x8, addend: 0x0, symName: __ZNSt3__19basic_iosIcNS_11char_traitsIcEEE3tieB7v160006EPNS_13basic_ostreamIcS2_EE, symObjAddr: 0x698, symBinAddr: 0x100002464, symSize: 0x2C }
  - { offsetInCU: 0xF886, offset: 0xF886, size: 0x8, addend: 0x0, symName: __ZNSt3__112basic_stringIcNS_11char_traitsIcEENS_9allocatorIcEEEC1B7v160006Ev, symObjAddr: 0x6C4, symBinAddr: 0x100002490, symSize: 0x2C }
  - { offsetInCU: 0xF8B0, offset: 0xF8B0, size: 0x8, addend: 0x0, symName: __ZNSt3__112basic_stringIcNS_11char_traitsIcEENS_9allocatorIcEEEC2B7v160006IDnEEPKc, symObjAddr: 0xA40, symBinAddr: 0x10000280C, symSize: 0x60 }
  - { offsetInCU: 0xF8F3, offset: 0xF8F3, size: 0x8, addend: 0x0, symName: __ZNSt3__117__compressed_pairINS_12basic_stringIcNS_11char_traitsIcEENS_9allocatorIcEEE5__repES5_EC1B7v160006INS_18__default_init_tagESA_EEOT_OT0_, symObjAddr: 0xAA0, symBinAddr: 0x10000286C, symSize: 0x3C }
  - { offsetInCU: 0xF94B, offset: 0xF94B, size: 0x8, addend: 0x0, symName: __ZNSt3__111char_traitsIcE6lengthEPKc, symObjAddr: 0xADC, symBinAddr: 0x1000028A8, symSize: 0x34 }
  - { offsetInCU: 0xF96E, offset: 0xF96E, size: 0x8, addend: 0x0, symName: __ZNSt3__117__compressed_pairINS_12basic_stringIcNS_11char_traitsIcEENS_9allocatorIcEEE5__repES5_EC2B7v160006INS_18__default_init_tagESA_EEOT_OT0_, symObjAddr: 0xB20, symBinAddr: 0x1000028EC, symSize: 0x3C }
  - { offsetInCU: 0xF9C6, offset: 0xF9C6, size: 0x8, addend: 0x0, symName: __ZNSt3__122__compressed_pair_elemINS_12basic_stringIcNS_11char_traitsIcEENS_9allocatorIcEEE5__repELi0ELb0EEC2B7v160006ENS_18__default_init_tagE, symObjAddr: 0xB5C, symBinAddr: 0x100002928, symSize: 0x14 }
  - { offsetInCU: 0xF9FB, offset: 0xF9FB, size: 0x8, addend: 0x0, symName: __ZNSt3__122__compressed_pair_elemINS_9allocatorIcEELi1ELb1EEC2B7v160006ENS_18__default_init_tagE, symObjAddr: 0xB70, symBinAddr: 0x10000293C, symSize: 0x2C }
  - { offsetInCU: 0xFA30, offset: 0xFA30, size: 0x8, addend: 0x0, symName: __ZNSt3__19allocatorIcEC2B7v160006Ev, symObjAddr: 0xB9C, symBinAddr: 0x100002968, symSize: 0x2C }
  - { offsetInCU: 0xFA5A, offset: 0xFA5A, size: 0x8, addend: 0x0, symName: __ZNSt3__116__non_trivial_ifILb1ENS_9allocatorIcEEEC2B7v160006Ev, symObjAddr: 0xBC8, symBinAddr: 0x100002994, symSize: 0x14 }
  - { offsetInCU: 0xFA84, offset: 0xFA84, size: 0x8, addend: 0x0, symName: __ZNKSt3__112basic_stringIcNS_11char_traitsIcEENS_9allocatorIcEEE9__is_longB7v160006Ev, symObjAddr: 0xC0C, symBinAddr: 0x1000029D8, symSize: 0x38 }
  - { offsetInCU: 0xFAAA, offset: 0xFAAA, size: 0x8, addend: 0x0, symName: __ZNKSt3__112basic_stringIcNS_11char_traitsIcEENS_9allocatorIcEEE15__get_long_sizeB7v160006Ev, symObjAddr: 0xC44, symBinAddr: 0x100002A10, symSize: 0x28 }
  - { offsetInCU: 0xFAD0, offset: 0xFAD0, size: 0x8, addend: 0x0, symName: __ZNKSt3__112basic_stringIcNS_11char_traitsIcEENS_9allocatorIcEEE16__get_short_sizeB7v160006Ev, symObjAddr: 0xC6C, symBinAddr: 0x100002A38, symSize: 0x34 }
  - { offsetInCU: 0xFAF6, offset: 0xFAF6, size: 0x8, addend: 0x0, symName: __ZNKSt3__117__compressed_pairINS_12basic_stringIcNS_11char_traitsIcEENS_9allocatorIcEEE5__repES5_E5firstB7v160006Ev, symObjAddr: 0xCA0, symBinAddr: 0x100002A6C, symSize: 0x24 }
  - { offsetInCU: 0xFB1C, offset: 0xFB1C, size: 0x8, addend: 0x0, symName: __ZNKSt3__122__compressed_pair_elemINS_12basic_stringIcNS_11char_traitsIcEENS_9allocatorIcEEE5__repELi0ELb0EE5__getB7v160006Ev, symObjAddr: 0xCC4, symBinAddr: 0x100002A90, symSize: 0x14 }
  - { offsetInCU: 0xFB42, offset: 0xFB42, size: 0x8, addend: 0x0, symName: __ZNSt3__112basic_stringIcNS_11char_traitsIcEENS_9allocatorIcEEE13__get_pointerB7v160006Ev, symObjAddr: 0xCD8, symBinAddr: 0x100002AA4, symSize: 0x54 }
  - { offsetInCU: 0xFB68, offset: 0xFB68, size: 0x8, addend: 0x0, symName: __ZNSt3__112basic_stringIcNS_11char_traitsIcEENS_9allocatorIcEEE18__get_long_pointerB7v160006Ev, symObjAddr: 0xD2C, symBinAddr: 0x100002AF8, symSize: 0x28 }
  - { offsetInCU: 0xFB8E, offset: 0xFB8E, size: 0x8, addend: 0x0, symName: __ZNSt3__112basic_stringIcNS_11char_traitsIcEENS_9allocatorIcEEE19__get_short_pointerB7v160006Ev, symObjAddr: 0xD54, symBinAddr: 0x100002B20, symSize: 0x28 }
  - { offsetInCU: 0xFBB4, offset: 0xFBB4, size: 0x8, addend: 0x0, symName: __ZNSt3__117__compressed_pairINS_12basic_stringIcNS_11char_traitsIcEENS_9allocatorIcEEE5__repES5_E5firstB7v160006Ev, symObjAddr: 0xD7C, symBinAddr: 0x100002B48, symSize: 0x24 }
  - { offsetInCU: 0xFBDA, offset: 0xFBDA, size: 0x8, addend: 0x0, symName: __ZNSt3__122__compressed_pair_elemINS_12basic_stringIcNS_11char_traitsIcEENS_9allocatorIcEEE5__repELi0ELb0EE5__getB7v160006Ev, symObjAddr: 0xDA0, symBinAddr: 0x100002B6C, symSize: 0x14 }
  - { offsetInCU: 0xFC00, offset: 0xFC00, size: 0x8, addend: 0x0, symName: __ZNSt3__114pointer_traitsIPcE10pointer_toB7v160006ERc, symObjAddr: 0xDB4, symBinAddr: 0x100002B80, symSize: 0x14 }
  - { offsetInCU: 0xFC23, offset: 0xFC23, size: 0x8, addend: 0x0, symName: __ZNKSt3__112basic_stringIcNS_11char_traitsIcEENS_9allocatorIcEEE4dataB7v160006Ev, symObjAddr: 0xDC8, symBinAddr: 0x100002B94, symSize: 0x28 }
  - { offsetInCU: 0xFC49, offset: 0xFC49, size: 0x8, addend: 0x0, symName: __ZNKSt3__112basic_stringIcNS_11char_traitsIcEENS_9allocatorIcEEE13__get_pointerB7v160006Ev, symObjAddr: 0xE04, symBinAddr: 0x100002BD0, symSize: 0x54 }
  - { offsetInCU: 0xFC6F, offset: 0xFC6F, size: 0x8, addend: 0x0, symName: __ZNKSt3__112basic_stringIcNS_11char_traitsIcEENS_9allocatorIcEEE18__get_long_pointerB7v160006Ev, symObjAddr: 0xE58, symBinAddr: 0x100002C24, symSize: 0x28 }
  - { offsetInCU: 0xFC95, offset: 0xFC95, size: 0x8, addend: 0x0, symName: __ZNKSt3__112basic_stringIcNS_11char_traitsIcEENS_9allocatorIcEEE19__get_short_pointerB7v160006Ev, symObjAddr: 0xE80, symBinAddr: 0x100002C4C, symSize: 0x28 }
  - { offsetInCU: 0xFCBB, offset: 0xFCBB, size: 0x8, addend: 0x0, symName: __ZNSt3__114pointer_traitsIPKcE10pointer_toB7v160006ERS1_, symObjAddr: 0xEA8, symBinAddr: 0x100002C74, symSize: 0x14 }
  - { offsetInCU: 0xFCDE, offset: 0xFCDE, size: 0x8, addend: 0x0, symName: __ZNSt3__112basic_stringIcNS_11char_traitsIcEENS_9allocatorIcEEE6appendB7v160006ERKS5_, symObjAddr: 0xEBC, symBinAddr: 0x100002C88, symSize: 0x4C }
  - { offsetInCU: 0xFD13, offset: 0xFD13, size: 0x8, addend: 0x0, symName: __ZNSt3__112basic_stringIcNS_11char_traitsIcEENS_9allocatorIcEEEC1B7v160006EOS5_, symObjAddr: 0xF08, symBinAddr: 0x100002CD4, symSize: 0x34 }
  - { offsetInCU: 0xFD4C, offset: 0xFD4C, size: 0x8, addend: 0x0, symName: __ZNSt3__112basic_stringIcNS_11char_traitsIcEENS_9allocatorIcEEEC2B7v160006EOS5_, symObjAddr: 0xF3C, symBinAddr: 0x100002D08, symSize: 0x84 }
  - { offsetInCU: 0xFD85, offset: 0xFD85, size: 0x8, addend: 0x0, symName: __ZNSt3__112basic_stringIcNS_11char_traitsIcEENS_9allocatorIcEEE14__default_initB7v160006Ev, symObjAddr: 0xFC0, symBinAddr: 0x100002D8C, symSize: 0x40 }
  - { offsetInCU: 0xFDAB, offset: 0xFDAB, size: 0x8, addend: 0x0, symName: __ZNSt3__19allocatorIcEC1B7v160006Ev, symObjAddr: 0x1014, symBinAddr: 0x100002DE0, symSize: 0x2C }
  - { offsetInCU: 0xFDD5, offset: 0xFDD5, size: 0x8, addend: 0x0, symName: __ZNSt3__112basic_stringIcNS_11char_traitsIcEENS_9allocatorIcEEEC2B7v160006Ev, symObjAddr: 0x1040, symBinAddr: 0x100002E0C, symSize: 0x4C }
  - { offsetInCU: 0xFDFF, offset: 0xFDFF, size: 0x8, addend: 0x0, symName: __ZNSt3__13mapINS_12basic_stringIcNS_11char_traitsIcEENS_9allocatorIcEEEENS0_IxxNS_4lessIxEENS4_INS_4pairIKxxEEEEEENS7_IS6_EENS4_INS9_IKS6_SD_EEEEEC2B7v160006Ev, symObjAddr: 0x108C, symBinAddr: 0x100002E58, symSize: 0x40 }
  - { offsetInCU: 0xFE29, offset: 0xFE29, size: 0x8, addend: 0x0, symName: __ZNSt3__119__map_value_compareINS_12basic_stringIcNS_11char_traitsIcEENS_9allocatorIcEEEENS_12__value_typeIS6_NS_3mapIxxNS_4lessIxEENS4_INS_4pairIKxxEEEEEEEENS9_IS6_EELb1EEC1B7v160006ESH_, symObjAddr: 0x10CC, symBinAddr: 0x100002E98, symSize: 0x2C }
  - { offsetInCU: 0xFE62, offset: 0xFE62, size: 0x8, addend: 0x0, symName: __ZNSt3__16__treeINS_12__value_typeINS_12basic_stringIcNS_11char_traitsIcEENS_9allocatorIcEEEENS_3mapIxxNS_4lessIxEENS5_INS_4pairIKxxEEEEEEEENS_19__map_value_compareIS7_SG_NS9_IS7_EELb1EEENS5_ISG_EEEC1ERKSJ_, symObjAddr: 0x10F8, symBinAddr: 0x100002EC4, symSize: 0x34 }
  - { offsetInCU: 0xFE9D, offset: 0xFE9D, size: 0x8, addend: 0x0, symName: __ZNSt3__119__map_value_compareINS_12basic_stringIcNS_11char_traitsIcEENS_9allocatorIcEEEENS_12__value_typeIS6_NS_3mapIxxNS_4lessIxEENS4_INS_4pairIKxxEEEEEEEENS9_IS6_EELb1EEC2B7v160006ESH_, symObjAddr: 0x112C, symBinAddr: 0x100002EF8, symSize: 0x14 }
  - { offsetInCU: 0xFED6, offset: 0xFED6, size: 0x8, addend: 0x0, symName: __ZNSt3__16__treeINS_12__value_typeINS_12basic_stringIcNS_11char_traitsIcEENS_9allocatorIcEEEENS_3mapIxxNS_4lessIxEENS5_INS_4pairIKxxEEEEEEEENS_19__map_value_compareIS7_SG_NS9_IS7_EELb1EEENS5_ISG_EEEC2ERKSJ_, symObjAddr: 0x1140, symBinAddr: 0x100002F0C, symSize: 0x7C }
  - { offsetInCU: 0xFF11, offset: 0xFF11, size: 0x8, addend: 0x0, symName: __ZNSt3__117__compressed_pairINS_15__tree_end_nodeIPNS_16__tree_node_baseIPvEEEENS_9allocatorINS_11__tree_nodeINS_12__value_typeINS_12basic_stringIcNS_11char_traitsIcEENS7_IcEEEENS_3mapIxxNS_4lessIxEENS7_INS_4pairIKxxEEEEEEEES3_EEEEEC1B7v160006ILb1EvEEv, symObjAddr: 0x11BC, symBinAddr: 0x100002F88, symSize: 0x2C }
  - { offsetInCU: 0xFF4B, offset: 0xFF4B, size: 0x8, addend: 0x0, symName: __ZNSt3__117__compressed_pairImNS_19__map_value_compareINS_12basic_stringIcNS_11char_traitsIcEENS_9allocatorIcEEEENS_12__value_typeIS7_NS_3mapIxxNS_4lessIxEENS5_INS_4pairIKxxEEEEEEEENSA_IS7_EELb1EEEEC1B7v160006IiRKSJ_EEOT_OT0_, symObjAddr: 0x11E8, symBinAddr: 0x100002FB4, symSize: 0x3C }
  - { offsetInCU: 0xFFA3, offset: 0xFFA3, size: 0x8, addend: 0x0, symName: __ZNSt3__16__treeINS_12__value_typeINS_12basic_stringIcNS_11char_traitsIcEENS_9allocatorIcEEEENS_3mapIxxNS_4lessIxEENS5_INS_4pairIKxxEEEEEEEENS_19__map_value_compareIS7_SG_NS9_IS7_EELb1EEENS5_ISG_EEE10__end_nodeB7v160006Ev, symObjAddr: 0x1224, symBinAddr: 0x100002FF0, symSize: 0x2C }
  - { offsetInCU: 0xFFC9, offset: 0xFFC9, size: 0x8, addend: 0x0, symName: __ZNSt3__16__treeINS_12__value_typeINS_12basic_stringIcNS_11char_traitsIcEENS_9allocatorIcEEEENS_3mapIxxNS_4lessIxEENS5_INS_4pairIKxxEEEEEEEENS_19__map_value_compareIS7_SG_NS9_IS7_EELb1EEENS5_ISG_EEE12__begin_nodeB7v160006Ev, symObjAddr: 0x1250, symBinAddr: 0x10000301C, symSize: 0x14 }
  - { offsetInCU: 0xFFEF, offset: 0xFFEF, size: 0x8, addend: 0x0, symName: __ZNSt3__117__compressed_pairINS_15__tree_end_nodeIPNS_16__tree_node_baseIPvEEEENS_9allocatorINS_11__tree_nodeINS_12__value_typeINS_12basic_stringIcNS_11char_traitsIcEENS7_IcEEEENS_3mapIxxNS_4lessIxEENS7_INS_4pairIKxxEEEEEEEES3_EEEEEC2B7v160006ILb1EvEEv, symObjAddr: 0x1264, symBinAddr: 0x100003030, symSize: 0x34 }
  - { offsetInCU: 0x10024, offset: 0x10024, size: 0x8, addend: 0x0, symName: __ZNSt3__122__compressed_pair_elemINS_15__tree_end_nodeIPNS_16__tree_node_baseIPvEEEELi0ELb0EEC2B7v160006ENS_16__value_init_tagE, symObjAddr: 0x1298, symBinAddr: 0x100003064, symSize: 0x2C }
  - { offsetInCU: 0x10059, offset: 0x10059, size: 0x8, addend: 0x0, symName: __ZNSt3__122__compressed_pair_elemINS_9allocatorINS_11__tree_nodeINS_12__value_typeINS_12basic_stringIcNS_11char_traitsIcEENS1_IcEEEENS_3mapIxxNS_4lessIxEENS1_INS_4pairIKxxEEEEEEEEPvEEEELi1ELb1EEC2B7v160006ENS_16__value_init_tagE, symObjAddr: 0x12C4, symBinAddr: 0x100003090, symSize: 0x2C }
  - { offsetInCU: 0x1008E, offset: 0x1008E, size: 0x8, addend: 0x0, symName: __ZNSt3__115__tree_end_nodeIPNS_16__tree_node_baseIPvEEEC1B7v160006Ev, symObjAddr: 0x12F0, symBinAddr: 0x1000030BC, symSize: 0x2C }
  - { offsetInCU: 0x100B8, offset: 0x100B8, size: 0x8, addend: 0x0, symName: __ZNSt3__115__tree_end_nodeIPNS_16__tree_node_baseIPvEEEC2B7v160006Ev, symObjAddr: 0x131C, symBinAddr: 0x1000030E8, symSize: 0x18 }
  - { offsetInCU: 0x100E2, offset: 0x100E2, size: 0x8, addend: 0x0, symName: __ZNSt3__19allocatorINS_11__tree_nodeINS_12__value_typeINS_12basic_stringIcNS_11char_traitsIcEENS0_IcEEEENS_3mapIxxNS_4lessIxEENS0_INS_4pairIKxxEEEEEEEEPvEEEC2B7v160006Ev, symObjAddr: 0x1334, symBinAddr: 0x100003100, symSize: 0x2C }
  - { offsetInCU: 0x1010C, offset: 0x1010C, size: 0x8, addend: 0x0, symName: __ZNSt3__116__non_trivial_ifILb1ENS_9allocatorINS_11__tree_nodeINS_12__value_typeINS_12basic_stringIcNS_11char_traitsIcEENS1_IcEEEENS_3mapIxxNS_4lessIxEENS1_INS_4pairIKxxEEEEEEEEPvEEEEEC2B7v160006Ev, symObjAddr: 0x1360, symBinAddr: 0x10000312C, symSize: 0x14 }
  - { offsetInCU: 0x10136, offset: 0x10136, size: 0x8, addend: 0x0, symName: __ZNSt3__117__compressed_pairImNS_19__map_value_compareINS_12basic_stringIcNS_11char_traitsIcEENS_9allocatorIcEEEENS_12__value_typeIS7_NS_3mapIxxNS_4lessIxEENS5_INS_4pairIKxxEEEEEEEENSA_IS7_EELb1EEEEC2B7v160006IiRKSJ_EEOT_OT0_, symObjAddr: 0x1374, symBinAddr: 0x100003140, symSize: 0x44 }
  - { offsetInCU: 0x1018E, offset: 0x1018E, size: 0x8, addend: 0x0, symName: __ZNSt3__122__compressed_pair_elemImLi0ELb0EEC2B7v160006IivEEOT_, symObjAddr: 0x13B8, symBinAddr: 0x100003184, symSize: 0x24 }
  - { offsetInCU: 0x101D0, offset: 0x101D0, size: 0x8, addend: 0x0, symName: __ZNSt3__122__compressed_pair_elemINS_19__map_value_compareINS_12basic_stringIcNS_11char_traitsIcEENS_9allocatorIcEEEENS_12__value_typeIS7_NS_3mapIxxNS_4lessIxEENS5_INS_4pairIKxxEEEEEEEENSA_IS7_EELb1EEELi1ELb1EEC2B7v160006IRKSJ_vEEOT_, symObjAddr: 0x13DC, symBinAddr: 0x1000031A8, symSize: 0x18 }
  - { offsetInCU: 0x10212, offset: 0x10212, size: 0x8, addend: 0x0, symName: __ZNSt3__114pointer_traitsIPNS_15__tree_end_nodeIPNS_16__tree_node_baseIPvEEEEE10pointer_toB7v160006ERS6_, symObjAddr: 0x13F4, symBinAddr: 0x1000031C0, symSize: 0x14 }
  - { offsetInCU: 0x10235, offset: 0x10235, size: 0x8, addend: 0x0, symName: __ZNSt3__117__compressed_pairINS_15__tree_end_nodeIPNS_16__tree_node_baseIPvEEEENS_9allocatorINS_11__tree_nodeINS_12__value_typeINS_12basic_stringIcNS_11char_traitsIcEENS7_IcEEEENS_3mapIxxNS_4lessIxEENS7_INS_4pairIKxxEEEEEEEES3_EEEEE5firstB7v160006Ev, symObjAddr: 0x1408, symBinAddr: 0x1000031D4, symSize: 0x24 }
  - { offsetInCU: 0x1025B, offset: 0x1025B, size: 0x8, addend: 0x0, symName: __ZNSt3__122__compressed_pair_elemINS_15__tree_end_nodeIPNS_16__tree_node_baseIPvEEEELi0ELb0EE5__getB7v160006Ev, symObjAddr: 0x142C, symBinAddr: 0x1000031F8, symSize: 0x14 }
  - { offsetInCU: 0x10281, offset: 0x10281, size: 0x8, addend: 0x0, symName: __ZNSt3__13mapINS_12basic_stringIcNS_11char_traitsIcEENS_9allocatorIcEEEENS0_IxxNS_4lessIxEENS4_INS_4pairIKxxEEEEEENS7_IS6_EENS4_INS9_IKS6_SD_EEEEED2B7v160006Ev, symObjAddr: 0x1440, symBinAddr: 0x10000320C, symSize: 0x2C }
  - { offsetInCU: 0x102AB, offset: 0x102AB, size: 0x8, addend: 0x0, symName: __ZNSt3__16__treeINS_12__value_typeINS_12basic_stringIcNS_11char_traitsIcEENS_9allocatorIcEEEENS_3mapIxxNS_4lessIxEENS5_INS_4pairIKxxEEEEEEEENS_19__map_value_compareIS7_SG_NS9_IS7_EELb1EEENS5_ISG_EEED1Ev, symObjAddr: 0x146C, symBinAddr: 0x100003238, symSize: 0x2C }
  - { offsetInCU: 0x102D7, offset: 0x102D7, size: 0x8, addend: 0x0, symName: __ZNSt3__16__treeINS_12__value_typeINS_12basic_stringIcNS_11char_traitsIcEENS_9allocatorIcEEEENS_3mapIxxNS_4lessIxEENS5_INS_4pairIKxxEEEEEEEENS_19__map_value_compareIS7_SG_NS9_IS7_EELb1EEENS5_ISG_EEED2Ev, symObjAddr: 0x1498, symBinAddr: 0x100003264, symSize: 0x38 }
  - { offsetInCU: 0x10303, offset: 0x10303, size: 0x8, addend: 0x0, symName: __ZNSt3__16__treeINS_12__value_typeINS_12basic_stringIcNS_11char_traitsIcEENS_9allocatorIcEEEENS_3mapIxxNS_4lessIxEENS5_INS_4pairIKxxEEEEEEEENS_19__map_value_compareIS7_SG_NS9_IS7_EELb1EEENS5_ISG_EEE7destroyEPNS_11__tree_nodeISG_PvEE, symObjAddr: 0x14D0, symBinAddr: 0x10000329C, symSize: 0xAC }
  - { offsetInCU: 0x1034F, offset: 0x1034F, size: 0x8, addend: 0x0, symName: __ZNKSt3__16__treeINS_12__value_typeINS_12basic_stringIcNS_11char_traitsIcEENS_9allocatorIcEEEENS_3mapIxxNS_4lessIxEENS5_INS_4pairIKxxEEEEEEEENS_19__map_value_compareIS7_SG_NS9_IS7_EELb1EEENS5_ISG_EEE6__rootB7v160006Ev, symObjAddr: 0x157C, symBinAddr: 0x100003348, symSize: 0x28 }
  - { offsetInCU: 0x10375, offset: 0x10375, size: 0x8, addend: 0x0, symName: __ZNSt3__16__treeINS_12__value_typeINS_12basic_stringIcNS_11char_traitsIcEENS_9allocatorIcEEEENS_3mapIxxNS_4lessIxEENS5_INS_4pairIKxxEEEEEEEENS_19__map_value_compareIS7_SG_NS9_IS7_EELb1EEENS5_ISG_EEE12__node_allocB7v160006Ev, symObjAddr: 0x15A4, symBinAddr: 0x100003370, symSize: 0x28 }
  - { offsetInCU: 0x1039B, offset: 0x1039B, size: 0x8, addend: 0x0, symName: __ZNSt3__116allocator_traitsINS_9allocatorINS_11__tree_nodeINS_12__value_typeINS_12basic_stringIcNS_11char_traitsIcEENS1_IcEEEENS_3mapIxxNS_4lessIxEENS1_INS_4pairIKxxEEEEEEEEPvEEEEE7destroyB7v160006INSC_IKS8_SG_EEvvEEvRSK_PT_, symObjAddr: 0x15CC, symBinAddr: 0x100003398, symSize: 0x28 }
  - { offsetInCU: 0x103D5, offset: 0x103D5, size: 0x8, addend: 0x0, symName: __ZNSt3__122__tree_key_value_typesINS_12__value_typeINS_12basic_stringIcNS_11char_traitsIcEENS_9allocatorIcEEEENS_3mapIxxNS_4lessIxEENS5_INS_4pairIKxxEEEEEEEEE9__get_ptrB7v160006ERSG_, symObjAddr: 0x15F4, symBinAddr: 0x1000033C0, symSize: 0x24 }
  - { offsetInCU: 0x103F9, offset: 0x103F9, size: 0x8, addend: 0x0, symName: __ZNSt3__116allocator_traitsINS_9allocatorINS_11__tree_nodeINS_12__value_typeINS_12basic_stringIcNS_11char_traitsIcEENS1_IcEEEENS_3mapIxxNS_4lessIxEENS1_INS_4pairIKxxEEEEEEEEPvEEEEE10deallocateB7v160006ERSK_PSJ_m, symObjAddr: 0x1618, symBinAddr: 0x1000033E4, symSize: 0x34 }
  - { offsetInCU: 0x1043B, offset: 0x1043B, size: 0x8, addend: 0x0, symName: __ZNSt3__117__compressed_pairINS_15__tree_end_nodeIPNS_16__tree_node_baseIPvEEEENS_9allocatorINS_11__tree_nodeINS_12__value_typeINS_12basic_stringIcNS_11char_traitsIcEENS7_IcEEEENS_3mapIxxNS_4lessIxEENS7_INS_4pairIKxxEEEEEEEES3_EEEEE6secondB7v160006Ev, symObjAddr: 0x164C, symBinAddr: 0x100003418, symSize: 0x24 }
  - { offsetInCU: 0x10461, offset: 0x10461, size: 0x8, addend: 0x0, symName: __ZNSt3__122__compressed_pair_elemINS_9allocatorINS_11__tree_nodeINS_12__value_typeINS_12basic_stringIcNS_11char_traitsIcEENS1_IcEEEENS_3mapIxxNS_4lessIxEENS1_INS_4pairIKxxEEEEEEEEPvEEEELi1ELb1EE5__getB7v160006Ev, symObjAddr: 0x1670, symBinAddr: 0x10000343C, symSize: 0x14 }
  - { offsetInCU: 0x10487, offset: 0x10487, size: 0x8, addend: 0x0, symName: __ZNSt3__14pairIKNS_12basic_stringIcNS_11char_traitsIcEENS_9allocatorIcEEEENS_3mapIxxNS_4lessIxEENS4_INS0_IKxxEEEEEEED1Ev, symObjAddr: 0x16CC, symBinAddr: 0x100003498, symSize: 0x2C }
  - { offsetInCU: 0x104B3, offset: 0x104B3, size: 0x8, addend: 0x0, symName: __ZNSt3__14pairIKNS_12basic_stringIcNS_11char_traitsIcEENS_9allocatorIcEEEENS_3mapIxxNS_4lessIxEENS4_INS0_IKxxEEEEEEED2Ev, symObjAddr: 0x16F8, symBinAddr: 0x1000034C4, symSize: 0x38 }
  - { offsetInCU: 0x104DF, offset: 0x104DF, size: 0x8, addend: 0x0, symName: __ZNSt3__13mapIxxNS_4lessIxEENS_9allocatorINS_4pairIKxxEEEEED1B7v160006Ev, symObjAddr: 0x1730, symBinAddr: 0x1000034FC, symSize: 0x2C }
  - { offsetInCU: 0x10509, offset: 0x10509, size: 0x8, addend: 0x0, symName: __ZNSt3__13mapIxxNS_4lessIxEENS_9allocatorINS_4pairIKxxEEEEED2B7v160006Ev, symObjAddr: 0x175C, symBinAddr: 0x100003528, symSize: 0x2C }
  - { offsetInCU: 0x10533, offset: 0x10533, size: 0x8, addend: 0x0, symName: __ZNSt3__16__treeINS_12__value_typeIxxEENS_19__map_value_compareIxS2_NS_4lessIxEELb1EEENS_9allocatorIS2_EEED1Ev, symObjAddr: 0x1788, symBinAddr: 0x100003554, symSize: 0x2C }
  - { offsetInCU: 0x1055F, offset: 0x1055F, size: 0x8, addend: 0x0, symName: __ZNSt3__16__treeINS_12__value_typeIxxEENS_19__map_value_compareIxS2_NS_4lessIxEELb1EEENS_9allocatorIS2_EEED2Ev, symObjAddr: 0x17B4, symBinAddr: 0x100003580, symSize: 0x38 }
  - { offsetInCU: 0x1058B, offset: 0x1058B, size: 0x8, addend: 0x0, symName: __ZNSt3__16__treeINS_12__value_typeIxxEENS_19__map_value_compareIxS2_NS_4lessIxEELb1EEENS_9allocatorIS2_EEE7destroyEPNS_11__tree_nodeIS2_PvEE, symObjAddr: 0x17EC, symBinAddr: 0x1000035B8, symSize: 0xAC }
  - { offsetInCU: 0x105D7, offset: 0x105D7, size: 0x8, addend: 0x0, symName: __ZNKSt3__16__treeINS_12__value_typeIxxEENS_19__map_value_compareIxS2_NS_4lessIxEELb1EEENS_9allocatorIS2_EEE6__rootB7v160006Ev, symObjAddr: 0x1898, symBinAddr: 0x100003664, symSize: 0x28 }
  - { offsetInCU: 0x105FD, offset: 0x105FD, size: 0x8, addend: 0x0, symName: __ZNSt3__16__treeINS_12__value_typeIxxEENS_19__map_value_compareIxS2_NS_4lessIxEELb1EEENS_9allocatorIS2_EEE12__node_allocB7v160006Ev, symObjAddr: 0x18C0, symBinAddr: 0x10000368C, symSize: 0x28 }
  - { offsetInCU: 0x10623, offset: 0x10623, size: 0x8, addend: 0x0, symName: __ZNSt3__116allocator_traitsINS_9allocatorINS_11__tree_nodeINS_12__value_typeIxxEEPvEEEEE7destroyB7v160006INS_4pairIKxxEEvvEEvRS7_PT_, symObjAddr: 0x18E8, symBinAddr: 0x1000036B4, symSize: 0x28 }
  - { offsetInCU: 0x1065D, offset: 0x1065D, size: 0x8, addend: 0x0, symName: __ZNSt3__122__tree_key_value_typesINS_12__value_typeIxxEEE9__get_ptrB7v160006ERS2_, symObjAddr: 0x1910, symBinAddr: 0x1000036DC, symSize: 0x24 }
  - { offsetInCU: 0x10681, offset: 0x10681, size: 0x8, addend: 0x0, symName: __ZNSt3__116allocator_traitsINS_9allocatorINS_11__tree_nodeINS_12__value_typeIxxEEPvEEEEE10deallocateB7v160006ERS7_PS6_m, symObjAddr: 0x1934, symBinAddr: 0x100003700, symSize: 0x34 }
  - { offsetInCU: 0x106C3, offset: 0x106C3, size: 0x8, addend: 0x0, symName: __ZNSt3__117__compressed_pairINS_15__tree_end_nodeIPNS_16__tree_node_baseIPvEEEENS_9allocatorINS_11__tree_nodeINS_12__value_typeIxxEES3_EEEEE6secondB7v160006Ev, symObjAddr: 0x1968, symBinAddr: 0x100003734, symSize: 0x24 }
  - { offsetInCU: 0x106E9, offset: 0x106E9, size: 0x8, addend: 0x0, symName: __ZNSt3__122__compressed_pair_elemINS_9allocatorINS_11__tree_nodeINS_12__value_typeIxxEEPvEEEELi1ELb1EE5__getB7v160006Ev, symObjAddr: 0x198C, symBinAddr: 0x100003758, symSize: 0x14 }
  - { offsetInCU: 0x1070F, offset: 0x1070F, size: 0x8, addend: 0x0, symName: __ZNSt3__112__value_typeIxxE11__get_valueB7v160006Ev, symObjAddr: 0x19D4, symBinAddr: 0x1000037A0, symSize: 0x24 }
  - { offsetInCU: 0x10735, offset: 0x10735, size: 0x8, addend: 0x0, symName: __ZNSt3__19allocatorINS_11__tree_nodeINS_12__value_typeIxxEEPvEEE10deallocateB7v160006EPS5_m, symObjAddr: 0x1A30, symBinAddr: 0x1000037FC, symSize: 0x44 }
  - { offsetInCU: 0x10777, offset: 0x10777, size: 0x8, addend: 0x0, symName: __ZNKSt3__16__treeINS_12__value_typeIxxEENS_19__map_value_compareIxS2_NS_4lessIxEELb1EEENS_9allocatorIS2_EEE10__end_nodeB7v160006Ev, symObjAddr: 0x1B9C, symBinAddr: 0x100003968, symSize: 0x2C }
  - { offsetInCU: 0x1079D, offset: 0x1079D, size: 0x8, addend: 0x0, symName: __ZNKSt3__117__compressed_pairINS_15__tree_end_nodeIPNS_16__tree_node_baseIPvEEEENS_9allocatorINS_11__tree_nodeINS_12__value_typeIxxEES3_EEEEE5firstB7v160006Ev, symObjAddr: 0x1BC8, symBinAddr: 0x100003994, symSize: 0x24 }
  - { offsetInCU: 0x107C3, offset: 0x107C3, size: 0x8, addend: 0x0, symName: __ZNKSt3__122__compressed_pair_elemINS_15__tree_end_nodeIPNS_16__tree_node_baseIPvEEEELi0ELb0EE5__getB7v160006Ev, symObjAddr: 0x1BEC, symBinAddr: 0x1000039B8, symSize: 0x14 }
  - { offsetInCU: 0x107E9, offset: 0x107E9, size: 0x8, addend: 0x0, symName: __ZNSt3__112__value_typeINS_12basic_stringIcNS_11char_traitsIcEENS_9allocatorIcEEEENS_3mapIxxNS_4lessIxEENS4_INS_4pairIKxxEEEEEEE11__get_valueB7v160006Ev, symObjAddr: 0x1C00, symBinAddr: 0x1000039CC, symSize: 0x24 }
  - { offsetInCU: 0x1080F, offset: 0x1080F, size: 0x8, addend: 0x0, symName: __ZNSt3__19allocatorINS_11__tree_nodeINS_12__value_typeINS_12basic_stringIcNS_11char_traitsIcEENS0_IcEEEENS_3mapIxxNS_4lessIxEENS0_INS_4pairIKxxEEEEEEEEPvEEE10deallocateB7v160006EPSI_m, symObjAddr: 0x1C5C, symBinAddr: 0x100003A28, symSize: 0x44 }
  - { offsetInCU: 0x10851, offset: 0x10851, size: 0x8, addend: 0x0, symName: __ZNKSt3__16__treeINS_12__value_typeINS_12basic_stringIcNS_11char_traitsIcEENS_9allocatorIcEEEENS_3mapIxxNS_4lessIxEENS5_INS_4pairIKxxEEEEEEEENS_19__map_value_compareIS7_SG_NS9_IS7_EELb1EEENS5_ISG_EEE10__end_nodeB7v160006Ev, symObjAddr: 0x1CA0, symBinAddr: 0x100003A6C, symSize: 0x2C }
  - { offsetInCU: 0x10877, offset: 0x10877, size: 0x8, addend: 0x0, symName: __ZNKSt3__117__compressed_pairINS_15__tree_end_nodeIPNS_16__tree_node_baseIPvEEEENS_9allocatorINS_11__tree_nodeINS_12__value_typeINS_12basic_stringIcNS_11char_traitsIcEENS7_IcEEEENS_3mapIxxNS_4lessIxEENS7_INS_4pairIKxxEEEEEEEES3_EEEEE5firstB7v160006Ev, symObjAddr: 0x1CCC, symBinAddr: 0x100003A98, symSize: 0x24 }
  - { offsetInCU: 0x108C0, offset: 0x108C0, size: 0x8, addend: 0x0, symName: __ZNSt3__16__treeINS_12__value_typeINS_12basic_stringIcNS_11char_traitsIcEENS_9allocatorIcEEEENS_3mapIxxNS_4lessIxEENS5_INS_4pairIKxxEEEEEEEENS_19__map_value_compareIS7_SG_NS9_IS7_EELb1EEENS5_ISG_EEE25__emplace_unique_key_argsIS7_JRKNS_21piecewise_construct_tENS_5tupleIJRKS7_EEENSQ_IJEEEEEENSB_INS_15__tree_iteratorISG_PNS_11__tree_nodeISG_PvEElEEbEERKT_DpOT0_, symObjAddr: 0x1CF0, symBinAddr: 0x100003ABC, symSize: 0x100 }
  - { offsetInCU: 0x10996, offset: 0x10996, size: 0x8, addend: 0x0, symName: __ZNKSt3__115__tree_iteratorINS_12__value_typeINS_12basic_stringIcNS_11char_traitsIcEENS_9allocatorIcEEEENS_3mapIxxNS_4lessIxEENS5_INS_4pairIKxxEEEEEEEEPNS_11__tree_nodeISG_PvEElEptB7v160006Ev, symObjAddr: 0x1E20, symBinAddr: 0x100003BEC, symSize: 0x2C }
  - { offsetInCU: 0x109BC, offset: 0x109BC, size: 0x8, addend: 0x0, symName: __ZNSt3__16__treeINS_12__value_typeINS_12basic_stringIcNS_11char_traitsIcEENS_9allocatorIcEEEENS_3mapIxxNS_4lessIxEENS5_INS_4pairIKxxEEEEEEEENS_19__map_value_compareIS7_SG_NS9_IS7_EELb1EEENS5_ISG_EEE12__find_equalIS7_EERPNS_16__tree_node_baseIPvEERPNS_15__tree_end_nodeISQ_EERKT_, symObjAddr: 0x1E4C, symBinAddr: 0x100003C18, symSize: 0x184 }
  - { offsetInCU: 0x10A29, offset: 0x10A29, size: 0x8, addend: 0x0, symName: __ZNSt3__16__treeINS_12__value_typeINS_12basic_stringIcNS_11char_traitsIcEENS_9allocatorIcEEEENS_3mapIxxNS_4lessIxEENS5_INS_4pairIKxxEEEEEEEENS_19__map_value_compareIS7_SG_NS9_IS7_EELb1EEENS5_ISG_EEE16__construct_nodeIJRKNS_21piecewise_construct_tENS_5tupleIJRKS7_EEENSQ_IJEEEEEENS_10unique_ptrINS_11__tree_nodeISG_PvEENS_22__tree_node_destructorINS5_ISY_EEEEEEDpOT_, symObjAddr: 0x1FD0, symBinAddr: 0x100003D9C, symSize: 0x120 }
  - { offsetInCU: 0x10AB2, offset: 0x10AB2, size: 0x8, addend: 0x0, symName: __ZNSt3__16__treeINS_12__value_typeINS_12basic_stringIcNS_11char_traitsIcEENS_9allocatorIcEEEENS_3mapIxxNS_4lessIxEENS5_INS_4pairIKxxEEEEEEEENS_19__map_value_compareIS7_SG_NS9_IS7_EELb1EEENS5_ISG_EEE16__insert_node_atEPNS_15__tree_end_nodeIPNS_16__tree_node_baseIPvEEEERSQ_SQ_, symObjAddr: 0x20F0, symBinAddr: 0x100003EBC, symSize: 0xCC }
  - { offsetInCU: 0x10B07, offset: 0x10B07, size: 0x8, addend: 0x0, symName: __ZNKSt3__110unique_ptrINS_11__tree_nodeINS_12__value_typeINS_12basic_stringIcNS_11char_traitsIcEENS_9allocatorIcEEEENS_3mapIxxNS_4lessIxEENS6_INS_4pairIKxxEEEEEEEEPvEENS_22__tree_node_destructorINS6_ISJ_EEEEE3getB7v160006Ev, symObjAddr: 0x21BC, symBinAddr: 0x100003F88, symSize: 0x28 }
  - { offsetInCU: 0x10B2D, offset: 0x10B2D, size: 0x8, addend: 0x0, symName: __ZNSt3__110unique_ptrINS_11__tree_nodeINS_12__value_typeINS_12basic_stringIcNS_11char_traitsIcEENS_9allocatorIcEEEENS_3mapIxxNS_4lessIxEENS6_INS_4pairIKxxEEEEEEEEPvEENS_22__tree_node_destructorINS6_ISJ_EEEEE7releaseB7v160006Ev, symObjAddr: 0x21E4, symBinAddr: 0x100003FB0, symSize: 0x44 }
  - { offsetInCU: 0x10B62, offset: 0x10B62, size: 0x8, addend: 0x0, symName: __ZNSt3__110unique_ptrINS_11__tree_nodeINS_12__value_typeINS_12basic_stringIcNS_11char_traitsIcEENS_9allocatorIcEEEENS_3mapIxxNS_4lessIxEENS6_INS_4pairIKxxEEEEEEEEPvEENS_22__tree_node_destructorINS6_ISJ_EEEEED1B7v160006Ev, symObjAddr: 0x2228, symBinAddr: 0x100003FF4, symSize: 0x2C }
  - { offsetInCU: 0x10B8C, offset: 0x10B8C, size: 0x8, addend: 0x0, symName: __ZNSt3__115__tree_iteratorINS_12__value_typeINS_12basic_stringIcNS_11char_traitsIcEENS_9allocatorIcEEEENS_3mapIxxNS_4lessIxEENS5_INS_4pairIKxxEEEEEEEEPNS_11__tree_nodeISG_PvEElEC1B7v160006ESK_, symObjAddr: 0x2254, symBinAddr: 0x100004020, symSize: 0x34 }
  - { offsetInCU: 0x10BCF, offset: 0x10BCF, size: 0x8, addend: 0x0, symName: __ZNSt3__14pairINS_15__tree_iteratorINS_12__value_typeINS_12basic_stringIcNS_11char_traitsIcEENS_9allocatorIcEEEENS_3mapIxxNS_4lessIxEENS6_INS0_IKxxEEEEEEEEPNS_11__tree_nodeISG_PvEElEEbEC1B7v160006ISL_RbLSI_0EEEOT_OT0_, symObjAddr: 0x2288, symBinAddr: 0x100004054, symSize: 0x3C }
  - { offsetInCU: 0x10C2D, offset: 0x10C2D, size: 0x8, addend: 0x0, symName: __ZNKSt3__16__treeINS_12__value_typeINS_12basic_stringIcNS_11char_traitsIcEENS_9allocatorIcEEEENS_3mapIxxNS_4lessIxEENS5_INS_4pairIKxxEEEEEEEENS_19__map_value_compareIS7_SG_NS9_IS7_EELb1EEENS5_ISG_EEE10__root_ptrEv, symObjAddr: 0x22C4, symBinAddr: 0x100004090, symSize: 0x24 }
  - { offsetInCU: 0x10C53, offset: 0x10C53, size: 0x8, addend: 0x0, symName: __ZNSt3__16__treeINS_12__value_typeINS_12basic_stringIcNS_11char_traitsIcEENS_9allocatorIcEEEENS_3mapIxxNS_4lessIxEENS5_INS_4pairIKxxEEEEEEEENS_19__map_value_compareIS7_SG_NS9_IS7_EELb1EEENS5_ISG_EEE10value_compB7v160006Ev, symObjAddr: 0x22E8, symBinAddr: 0x1000040B4, symSize: 0x28 }
  - { offsetInCU: 0x10C79, offset: 0x10C79, size: 0x8, addend: 0x0, symName: __ZNKSt3__119__map_value_compareINS_12basic_stringIcNS_11char_traitsIcEENS_9allocatorIcEEEENS_12__value_typeIS6_NS_3mapIxxNS_4lessIxEENS4_INS_4pairIKxxEEEEEEEENS9_IS6_EELb1EEclB7v160006ERKS6_RKSG_, symObjAddr: 0x2310, symBinAddr: 0x1000040DC, symSize: 0x50 }
  - { offsetInCU: 0x10CBD, offset: 0x10CBD, size: 0x8, addend: 0x0, symName: __ZNKSt3__119__map_value_compareINS_12basic_stringIcNS_11char_traitsIcEENS_9allocatorIcEEEENS_12__value_typeIS6_NS_3mapIxxNS_4lessIxEENS4_INS_4pairIKxxEEEEEEEENS9_IS6_EELb1EEclB7v160006ERKSG_RKS6_, symObjAddr: 0x2360, symBinAddr: 0x10000412C, symSize: 0x48 }
  - { offsetInCU: 0x10D01, offset: 0x10D01, size: 0x8, addend: 0x0, symName: __ZNSt3__117__compressed_pairImNS_19__map_value_compareINS_12basic_stringIcNS_11char_traitsIcEENS_9allocatorIcEEEENS_12__value_typeIS7_NS_3mapIxxNS_4lessIxEENS5_INS_4pairIKxxEEEEEEEENSA_IS7_EELb1EEEE6secondB7v160006Ev, symObjAddr: 0x23A8, symBinAddr: 0x100004174, symSize: 0x24 }
  - { offsetInCU: 0x10D27, offset: 0x10D27, size: 0x8, addend: 0x0, symName: __ZNSt3__122__compressed_pair_elemINS_19__map_value_compareINS_12basic_stringIcNS_11char_traitsIcEENS_9allocatorIcEEEENS_12__value_typeIS7_NS_3mapIxxNS_4lessIxEENS5_INS_4pairIKxxEEEEEEEENSA_IS7_EELb1EEELi1ELb1EE5__getB7v160006Ev, symObjAddr: 0x23CC, symBinAddr: 0x100004198, symSize: 0x14 }
  - { offsetInCU: 0x10D4D, offset: 0x10D4D, size: 0x8, addend: 0x0, symName: __ZNKSt3__14lessINS_12basic_stringIcNS_11char_traitsIcEENS_9allocatorIcEEEEEclB7v160006ERKS6_S9_, symObjAddr: 0x23E0, symBinAddr: 0x1000041AC, symSize: 0x50 }
  - { offsetInCU: 0x10D91, offset: 0x10D91, size: 0x8, addend: 0x0, symName: __ZNKSt3__112__value_typeINS_12basic_stringIcNS_11char_traitsIcEENS_9allocatorIcEEEENS_3mapIxxNS_4lessIxEENS4_INS_4pairIKxxEEEEEEE11__get_valueB7v160006Ev, symObjAddr: 0x2430, symBinAddr: 0x1000041FC, symSize: 0x24 }
  - { offsetInCU: 0x10DC6, offset: 0x10DC6, size: 0x8, addend: 0x0, symName: __ZNSt3__120_CmpUnspecifiedParamC1B7v160006EMS0_i, symObjAddr: 0x24D4, symBinAddr: 0x1000042A0, symSize: 0x34 }
  - { offsetInCU: 0x10DFB, offset: 0x10DFB, size: 0x8, addend: 0x0, symName: __ZNKSt3__112basic_stringIcNS_11char_traitsIcEENS_9allocatorIcEEEcvNS_17basic_string_viewIcS2_EEB7v160006Ev, symObjAddr: 0x2584, symBinAddr: 0x100004350, symSize: 0x50 }
  - { offsetInCU: 0x10E21, offset: 0x10E21, size: 0x8, addend: 0x0, symName: __ZNKSt3__117basic_string_viewIcNS_11char_traitsIcEEE7compareES3_, symObjAddr: 0x25D4, symBinAddr: 0x1000043A0, symSize: 0x13C }
  - { offsetInCU: 0x10E74, offset: 0x10E74, size: 0x8, addend: 0x0, symName: __ZNKSt3__117basic_string_viewIcNS_11char_traitsIcEEE4sizeB7v160006Ev, symObjAddr: 0x273C, symBinAddr: 0x100004508, symSize: 0x18 }
  - { offsetInCU: 0x10E9A, offset: 0x10E9A, size: 0x8, addend: 0x0, symName: __ZNSt3__111char_traitsIcE7compareEPKcS3_m, symObjAddr: 0x2754, symBinAddr: 0x100004520, symSize: 0x6C }
  - { offsetInCU: 0x10ED9, offset: 0x10ED9, size: 0x8, addend: 0x0, symName: __ZNKSt3__117basic_string_viewIcNS_11char_traitsIcEEE4dataB7v160006Ev, symObjAddr: 0x27C0, symBinAddr: 0x10000458C, symSize: 0x18 }
  - { offsetInCU: 0x10F09, offset: 0x10F09, size: 0x8, addend: 0x0, symName: __ZNKSt3__16__lessImmEclB7v160006ERKmS3_, symObjAddr: 0x282C, symBinAddr: 0x1000045F8, symSize: 0x34 }
  - { offsetInCU: 0x10F4B, offset: 0x10F4B, size: 0x8, addend: 0x0, symName: __ZNSt3__117basic_string_viewIcNS_11char_traitsIcEEEC1B7v160006EPKcm, symObjAddr: 0x2894, symBinAddr: 0x100004660, symSize: 0x3C }
  - { offsetInCU: 0x10F93, offset: 0x10F93, size: 0x8, addend: 0x0, symName: __ZNSt3__117basic_string_viewIcNS_11char_traitsIcEEEC2B7v160006EPKcm, symObjAddr: 0x28D0, symBinAddr: 0x10000469C, symSize: 0x50 }
  - { offsetInCU: 0x10FDB, offset: 0x10FDB, size: 0x8, addend: 0x0, symName: __ZNSt3__120_CmpUnspecifiedParamC2B7v160006EMS0_i, symObjAddr: 0x2920, symBinAddr: 0x1000046EC, symSize: 0x18 }
  - { offsetInCU: 0x11010, offset: 0x11010, size: 0x8, addend: 0x0, symName: __ZNSt3__116allocator_traitsINS_9allocatorINS_11__tree_nodeINS_12__value_typeINS_12basic_stringIcNS_11char_traitsIcEENS1_IcEEEENS_3mapIxxNS_4lessIxEENS1_INS_4pairIKxxEEEEEEEEPvEEEEE8allocateB7v160006ERSK_m, symObjAddr: 0x2970, symBinAddr: 0x10000473C, symSize: 0x2C }
  - { offsetInCU: 0x11043, offset: 0x11043, size: 0x8, addend: 0x0, symName: __ZNSt3__122__tree_node_destructorINS_9allocatorINS_11__tree_nodeINS_12__value_typeINS_12basic_stringIcNS_11char_traitsIcEENS1_IcEEEENS_3mapIxxNS_4lessIxEENS1_INS_4pairIKxxEEEEEEEEPvEEEEEC1B7v160006ERSK_b, symObjAddr: 0x299C, symBinAddr: 0x100004768, symSize: 0x48 }
  - { offsetInCU: 0x11090, offset: 0x11090, size: 0x8, addend: 0x0, symName: __ZNSt3__110unique_ptrINS_11__tree_nodeINS_12__value_typeINS_12basic_stringIcNS_11char_traitsIcEENS_9allocatorIcEEEENS_3mapIxxNS_4lessIxEENS6_INS_4pairIKxxEEEEEEEEPvEENS_22__tree_node_destructorINS6_ISJ_EEEEEC1B7v160006ILb1EvEEPSJ_NS_16__dependent_typeINS_27__unique_ptr_deleter_sfinaeISM_EEXT_EE20__good_rval_ref_typeE, symObjAddr: 0x29E4, symBinAddr: 0x1000047B0, symSize: 0x3C }
  - { offsetInCU: 0x110E1, offset: 0x110E1, size: 0x8, addend: 0x0, symName: __ZNSt3__116allocator_traitsINS_9allocatorINS_11__tree_nodeINS_12__value_typeINS_12basic_stringIcNS_11char_traitsIcEENS1_IcEEEENS_3mapIxxNS_4lessIxEENS1_INS_4pairIKxxEEEEEEEEPvEEEEE9constructB7v160006INSC_IKS8_SG_EEJRKNS_21piecewise_construct_tENS_5tupleIJRSN_EEENSS_IJEEEEvvEEvRSK_PT_DpOT0_, symObjAddr: 0x2A20, symBinAddr: 0x1000047EC, symSize: 0x40 }
  - { offsetInCU: 0x1115D, offset: 0x1115D, size: 0x8, addend: 0x0, symName: __ZNKSt3__110unique_ptrINS_11__tree_nodeINS_12__value_typeINS_12basic_stringIcNS_11char_traitsIcEENS_9allocatorIcEEEENS_3mapIxxNS_4lessIxEENS6_INS_4pairIKxxEEEEEEEEPvEENS_22__tree_node_destructorINS6_ISJ_EEEEEptB7v160006Ev, symObjAddr: 0x2A60, symBinAddr: 0x10000482C, symSize: 0x28 }
  - { offsetInCU: 0x11183, offset: 0x11183, size: 0x8, addend: 0x0, symName: __ZNSt3__110unique_ptrINS_11__tree_nodeINS_12__value_typeINS_12basic_stringIcNS_11char_traitsIcEENS_9allocatorIcEEEENS_3mapIxxNS_4lessIxEENS6_INS_4pairIKxxEEEEEEEEPvEENS_22__tree_node_destructorINS6_ISJ_EEEEE11get_deleterB7v160006Ev, symObjAddr: 0x2A88, symBinAddr: 0x100004854, symSize: 0x24 }
  - { offsetInCU: 0x111A9, offset: 0x111A9, size: 0x8, addend: 0x0, symName: __ZNSt3__19allocatorINS_11__tree_nodeINS_12__value_typeINS_12basic_stringIcNS_11char_traitsIcEENS0_IcEEEENS_3mapIxxNS_4lessIxEENS0_INS_4pairIKxxEEEEEEEEPvEEE8allocateB7v160006Em, symObjAddr: 0x2AAC, symBinAddr: 0x100004878, symSize: 0x5C }
  - { offsetInCU: 0x111E7, offset: 0x111E7, size: 0x8, addend: 0x0, symName: __ZNSt3__116allocator_traitsINS_9allocatorINS_11__tree_nodeINS_12__value_typeINS_12basic_stringIcNS_11char_traitsIcEENS1_IcEEEENS_3mapIxxNS_4lessIxEENS1_INS_4pairIKxxEEEEEEEEPvEEEEE8max_sizeB7v160006ISK_vvEEmRKSK_, symObjAddr: 0x2B08, symBinAddr: 0x1000048D4, symSize: 0x28 }
  - { offsetInCU: 0x11212, offset: 0x11212, size: 0x8, addend: 0x0, symName: __ZNSt3__114numeric_limitsImE3maxB7v160006Ev, symObjAddr: 0x2BC4, symBinAddr: 0x100004990, symSize: 0x14 }
  - { offsetInCU: 0x11226, offset: 0x11226, size: 0x8, addend: 0x0, symName: __ZNSt3__123__libcpp_numeric_limitsImLb1EE3maxB7v160006Ev, symObjAddr: 0x2BD8, symBinAddr: 0x1000049A4, symSize: 0x8 }
  - { offsetInCU: 0x1123A, offset: 0x1123A, size: 0x8, addend: 0x0, symName: __ZNSt3__122__tree_node_destructorINS_9allocatorINS_11__tree_nodeINS_12__value_typeINS_12basic_stringIcNS_11char_traitsIcEENS1_IcEEEENS_3mapIxxNS_4lessIxEENS1_INS_4pairIKxxEEEEEEEEPvEEEEEC2B7v160006ERSK_b, symObjAddr: 0x2C30, symBinAddr: 0x1000049FC, symSize: 0x38 }
  - { offsetInCU: 0x11282, offset: 0x11282, size: 0x8, addend: 0x0, symName: __ZNSt3__110unique_ptrINS_11__tree_nodeINS_12__value_typeINS_12basic_stringIcNS_11char_traitsIcEENS_9allocatorIcEEEENS_3mapIxxNS_4lessIxEENS6_INS_4pairIKxxEEEEEEEEPvEENS_22__tree_node_destructorINS6_ISJ_EEEEEC2B7v160006ILb1EvEEPSJ_NS_16__dependent_typeINS_27__unique_ptr_deleter_sfinaeISM_EEXT_EE20__good_rval_ref_typeE, symObjAddr: 0x2C68, symBinAddr: 0x100004A34, symSize: 0x48 }
  - { offsetInCU: 0x112D3, offset: 0x112D3, size: 0x8, addend: 0x0, symName: __ZNSt3__117__compressed_pairIPNS_11__tree_nodeINS_12__value_typeINS_12basic_stringIcNS_11char_traitsIcEENS_9allocatorIcEEEENS_3mapIxxNS_4lessIxEENS6_INS_4pairIKxxEEEEEEEEPvEENS_22__tree_node_destructorINS6_ISJ_EEEEEC1B7v160006IRSK_SN_EEOT_OT0_, symObjAddr: 0x2CB0, symBinAddr: 0x100004A7C, symSize: 0x3C }
  - { offsetInCU: 0x1132B, offset: 0x1132B, size: 0x8, addend: 0x0, symName: __ZNSt3__117__compressed_pairIPNS_11__tree_nodeINS_12__value_typeINS_12basic_stringIcNS_11char_traitsIcEENS_9allocatorIcEEEENS_3mapIxxNS_4lessIxEENS6_INS_4pairIKxxEEEEEEEEPvEENS_22__tree_node_destructorINS6_ISJ_EEEEEC2B7v160006IRSK_SN_EEOT_OT0_, symObjAddr: 0x2CEC, symBinAddr: 0x100004AB8, symSize: 0x48 }
  - { offsetInCU: 0x11383, offset: 0x11383, size: 0x8, addend: 0x0, symName: __ZNSt3__122__compressed_pair_elemIPNS_11__tree_nodeINS_12__value_typeINS_12basic_stringIcNS_11char_traitsIcEENS_9allocatorIcEEEENS_3mapIxxNS_4lessIxEENS6_INS_4pairIKxxEEEEEEEEPvEELi0ELb0EEC2B7v160006IRSK_vEEOT_, symObjAddr: 0x2D34, symBinAddr: 0x100004B00, symSize: 0x24 }
  - { offsetInCU: 0x113C5, offset: 0x113C5, size: 0x8, addend: 0x0, symName: __ZNSt3__122__compressed_pair_elemINS_22__tree_node_destructorINS_9allocatorINS_11__tree_nodeINS_12__value_typeINS_12basic_stringIcNS_11char_traitsIcEENS2_IcEEEENS_3mapIxxNS_4lessIxEENS2_INS_4pairIKxxEEEEEEEEPvEEEEEELi1ELb0EEC2B7v160006ISM_vEEOT_, symObjAddr: 0x2D58, symBinAddr: 0x100004B24, symSize: 0x24 }
  - { offsetInCU: 0x11407, offset: 0x11407, size: 0x8, addend: 0x0, symName: __ZNSt3__14pairIKNS_12basic_stringIcNS_11char_traitsIcEENS_9allocatorIcEEEENS_3mapIxxNS_4lessIxEENS4_INS0_IKxxEEEEEEEC1B7v160006IJRS7_EJEEENS_21piecewise_construct_tENS_5tupleIJDpT_EEENSJ_IJDpT0_EEE, symObjAddr: 0x2DCC, symBinAddr: 0x100004B98, symSize: 0x3C }
  - { offsetInCU: 0x1146E, offset: 0x1146E, size: 0x8, addend: 0x0, symName: __ZNSt3__14pairIKNS_12basic_stringIcNS_11char_traitsIcEENS_9allocatorIcEEEENS_3mapIxxNS_4lessIxEENS4_INS0_IKxxEEEEEEEC1B7v160006IJRS7_EJEJLm0EEJEEENS_21piecewise_construct_tERNS_5tupleIJDpT_EEERNSJ_IJDpT0_EEENS_15__tuple_indicesIJXspT1_EEEENSS_IJXspT2_EEEE, symObjAddr: 0x2E08, symBinAddr: 0x100004BD4, symSize: 0x3C }
  - { offsetInCU: 0x114FB, offset: 0x114FB, size: 0x8, addend: 0x0, symName: __ZNSt3__14pairIKNS_12basic_stringIcNS_11char_traitsIcEENS_9allocatorIcEEEENS_3mapIxxNS_4lessIxEENS4_INS0_IKxxEEEEEEEC2B7v160006IJRS7_EJEJLm0EEJEEENS_21piecewise_construct_tERNS_5tupleIJDpT_EEERNSJ_IJDpT0_EEENS_15__tuple_indicesIJXspT1_EEEENSS_IJXspT2_EEEE, symObjAddr: 0x2E44, symBinAddr: 0x100004C10, symSize: 0x50 }
  - { offsetInCU: 0x11588, offset: 0x11588, size: 0x8, addend: 0x0, symName: __ZNSt3__13mapIxxNS_4lessIxEENS_9allocatorINS_4pairIKxxEEEEEC1B7v160006Ev, symObjAddr: 0x2EB8, symBinAddr: 0x100004C84, symSize: 0x2C }
  - { offsetInCU: 0x115B2, offset: 0x115B2, size: 0x8, addend: 0x0, symName: __ZNSt3__112__tuple_leafILm0ERKNS_12basic_stringIcNS_11char_traitsIcEENS_9allocatorIcEEEELb0EE3getB7v160006Ev, symObjAddr: 0x2EE4, symBinAddr: 0x100004CB0, symSize: 0x18 }
  - { offsetInCU: 0x115D8, offset: 0x115D8, size: 0x8, addend: 0x0, symName: __ZNSt3__13mapIxxNS_4lessIxEENS_9allocatorINS_4pairIKxxEEEEEC2B7v160006Ev, symObjAddr: 0x2EFC, symBinAddr: 0x100004CC8, symSize: 0x40 }
  - { offsetInCU: 0x11602, offset: 0x11602, size: 0x8, addend: 0x0, symName: __ZNSt3__119__map_value_compareIxNS_12__value_typeIxxEENS_4lessIxEELb1EEC1B7v160006ES4_, symObjAddr: 0x2F3C, symBinAddr: 0x100004D08, symSize: 0x2C }
  - { offsetInCU: 0x1163B, offset: 0x1163B, size: 0x8, addend: 0x0, symName: __ZNSt3__16__treeINS_12__value_typeIxxEENS_19__map_value_compareIxS2_NS_4lessIxEELb1EEENS_9allocatorIS2_EEEC1ERKS6_, symObjAddr: 0x2F68, symBinAddr: 0x100004D34, symSize: 0x34 }
  - { offsetInCU: 0x11676, offset: 0x11676, size: 0x8, addend: 0x0, symName: __ZNSt3__119__map_value_compareIxNS_12__value_typeIxxEENS_4lessIxEELb1EEC2B7v160006ES4_, symObjAddr: 0x2F9C, symBinAddr: 0x100004D68, symSize: 0x14 }
  - { offsetInCU: 0x116AF, offset: 0x116AF, size: 0x8, addend: 0x0, symName: __ZNSt3__16__treeINS_12__value_typeIxxEENS_19__map_value_compareIxS2_NS_4lessIxEELb1EEENS_9allocatorIS2_EEEC2ERKS6_, symObjAddr: 0x2FB0, symBinAddr: 0x100004D7C, symSize: 0x7C }
  - { offsetInCU: 0x116EA, offset: 0x116EA, size: 0x8, addend: 0x0, symName: __ZNSt3__117__compressed_pairINS_15__tree_end_nodeIPNS_16__tree_node_baseIPvEEEENS_9allocatorINS_11__tree_nodeINS_12__value_typeIxxEES3_EEEEEC1B7v160006ILb1EvEEv, symObjAddr: 0x302C, symBinAddr: 0x100004DF8, symSize: 0x2C }
  - { offsetInCU: 0x1171F, offset: 0x1171F, size: 0x8, addend: 0x0, symName: __ZNSt3__117__compressed_pairImNS_19__map_value_compareIxNS_12__value_typeIxxEENS_4lessIxEELb1EEEEC1B7v160006IiRKS6_EEOT_OT0_, symObjAddr: 0x3058, symBinAddr: 0x100004E24, symSize: 0x3C }
  - { offsetInCU: 0x11777, offset: 0x11777, size: 0x8, addend: 0x0, symName: __ZNSt3__16__treeINS_12__value_typeIxxEENS_19__map_value_compareIxS2_NS_4lessIxEELb1EEENS_9allocatorIS2_EEE10__end_nodeB7v160006Ev, symObjAddr: 0x3094, symBinAddr: 0x100004E60, symSize: 0x2C }
  - { offsetInCU: 0x1179D, offset: 0x1179D, size: 0x8, addend: 0x0, symName: __ZNSt3__16__treeINS_12__value_typeIxxEENS_19__map_value_compareIxS2_NS_4lessIxEELb1EEENS_9allocatorIS2_EEE12__begin_nodeB7v160006Ev, symObjAddr: 0x30C0, symBinAddr: 0x100004E8C, symSize: 0x14 }
  - { offsetInCU: 0x117C3, offset: 0x117C3, size: 0x8, addend: 0x0, symName: __ZNSt3__117__compressed_pairINS_15__tree_end_nodeIPNS_16__tree_node_baseIPvEEEENS_9allocatorINS_11__tree_nodeINS_12__value_typeIxxEES3_EEEEEC2B7v160006ILb1EvEEv, symObjAddr: 0x30D4, symBinAddr: 0x100004EA0, symSize: 0x34 }
  - { offsetInCU: 0x117F8, offset: 0x117F8, size: 0x8, addend: 0x0, symName: __ZNSt3__122__compressed_pair_elemINS_9allocatorINS_11__tree_nodeINS_12__value_typeIxxEEPvEEEELi1ELb1EEC2B7v160006ENS_16__value_init_tagE, symObjAddr: 0x3108, symBinAddr: 0x100004ED4, symSize: 0x2C }
  - { offsetInCU: 0x1182D, offset: 0x1182D, size: 0x8, addend: 0x0, symName: __ZNSt3__19allocatorINS_11__tree_nodeINS_12__value_typeIxxEEPvEEEC2B7v160006Ev, symObjAddr: 0x3134, symBinAddr: 0x100004F00, symSize: 0x2C }
  - { offsetInCU: 0x11857, offset: 0x11857, size: 0x8, addend: 0x0, symName: __ZNSt3__116__non_trivial_ifILb1ENS_9allocatorINS_11__tree_nodeINS_12__value_typeIxxEEPvEEEEEC2B7v160006Ev, symObjAddr: 0x3160, symBinAddr: 0x100004F2C, symSize: 0x14 }
  - { offsetInCU: 0x11881, offset: 0x11881, size: 0x8, addend: 0x0, symName: __ZNSt3__117__compressed_pairImNS_19__map_value_compareIxNS_12__value_typeIxxEENS_4lessIxEELb1EEEEC2B7v160006IiRKS6_EEOT_OT0_, symObjAddr: 0x3174, symBinAddr: 0x100004F40, symSize: 0x44 }
  - { offsetInCU: 0x118D9, offset: 0x118D9, size: 0x8, addend: 0x0, symName: __ZNSt3__122__compressed_pair_elemINS_19__map_value_compareIxNS_12__value_typeIxxEENS_4lessIxEELb1EEELi1ELb1EEC2B7v160006IRKS6_vEEOT_, symObjAddr: 0x31B8, symBinAddr: 0x100004F84, symSize: 0x18 }
  - { offsetInCU: 0x1191B, offset: 0x1191B, size: 0x8, addend: 0x0, symName: __ZNSt3__117__compressed_pairINS_15__tree_end_nodeIPNS_16__tree_node_baseIPvEEEENS_9allocatorINS_11__tree_nodeINS_12__value_typeIxxEES3_EEEEE5firstB7v160006Ev, symObjAddr: 0x31D0, symBinAddr: 0x100004F9C, symSize: 0x24 }
  - { offsetInCU: 0x11941, offset: 0x11941, size: 0x8, addend: 0x0, symName: __ZNKSt3__117__compressed_pairIPNS_11__tree_nodeINS_12__value_typeINS_12basic_stringIcNS_11char_traitsIcEENS_9allocatorIcEEEENS_3mapIxxNS_4lessIxEENS6_INS_4pairIKxxEEEEEEEEPvEENS_22__tree_node_destructorINS6_ISJ_EEEEE5firstB7v160006Ev, symObjAddr: 0x31F4, symBinAddr: 0x100004FC0, symSize: 0x24 }
  - { offsetInCU: 0x11967, offset: 0x11967, size: 0x8, addend: 0x0, symName: __ZNKSt3__122__compressed_pair_elemIPNS_11__tree_nodeINS_12__value_typeINS_12basic_stringIcNS_11char_traitsIcEENS_9allocatorIcEEEENS_3mapIxxNS_4lessIxEENS6_INS_4pairIKxxEEEEEEEEPvEELi0ELb0EE5__getB7v160006Ev, symObjAddr: 0x3218, symBinAddr: 0x100004FE4, symSize: 0x14 }
  - { offsetInCU: 0x1198D, offset: 0x1198D, size: 0x8, addend: 0x0, symName: __ZNSt3__117__compressed_pairIPNS_11__tree_nodeINS_12__value_typeINS_12basic_stringIcNS_11char_traitsIcEENS_9allocatorIcEEEENS_3mapIxxNS_4lessIxEENS6_INS_4pairIKxxEEEEEEEEPvEENS_22__tree_node_destructorINS6_ISJ_EEEEE6secondB7v160006Ev, symObjAddr: 0x322C, symBinAddr: 0x100004FF8, symSize: 0x28 }
  - { offsetInCU: 0x119B3, offset: 0x119B3, size: 0x8, addend: 0x0, symName: __ZNSt3__122__compressed_pair_elemINS_22__tree_node_destructorINS_9allocatorINS_11__tree_nodeINS_12__value_typeINS_12basic_stringIcNS_11char_traitsIcEENS2_IcEEEENS_3mapIxxNS_4lessIxEENS2_INS_4pairIKxxEEEEEEEEPvEEEEEELi1ELb0EE5__getB7v160006Ev, symObjAddr: 0x3254, symBinAddr: 0x100005020, symSize: 0x14 }
  - { offsetInCU: 0x119D9, offset: 0x119D9, size: 0x8, addend: 0x0, symName: __ZNSt3__16__treeINS_12__value_typeINS_12basic_stringIcNS_11char_traitsIcEENS_9allocatorIcEEEENS_3mapIxxNS_4lessIxEENS5_INS_4pairIKxxEEEEEEEENS_19__map_value_compareIS7_SG_NS9_IS7_EELb1EEENS5_ISG_EEE4sizeB7v160006Ev, symObjAddr: 0x3594, symBinAddr: 0x100005360, symSize: 0x28 }
  - { offsetInCU: 0x119FF, offset: 0x119FF, size: 0x8, addend: 0x0, symName: __ZNKSt3__116__tree_node_baseIPvE15__parent_unsafeB7v160006Ev, symObjAddr: 0x35BC, symBinAddr: 0x100005388, symSize: 0x18 }
  - { offsetInCU: 0x11A25, offset: 0x11A25, size: 0x8, addend: 0x0, symName: __ZNSt3__116__tree_node_baseIPvE12__set_parentB7v160006EPS2_, symObjAddr: 0x37A4, symBinAddr: 0x100005570, symSize: 0x20 }
  - { offsetInCU: 0x11A5A, offset: 0x11A5A, size: 0x8, addend: 0x0, symName: __ZNSt3__117__compressed_pairImNS_19__map_value_compareINS_12basic_stringIcNS_11char_traitsIcEENS_9allocatorIcEEEENS_12__value_typeIS7_NS_3mapIxxNS_4lessIxEENS5_INS_4pairIKxxEEEEEEEENSA_IS7_EELb1EEEE5firstB7v160006Ev, symObjAddr: 0x37C4, symBinAddr: 0x100005590, symSize: 0x24 }
  - { offsetInCU: 0x11A80, offset: 0x11A80, size: 0x8, addend: 0x0, symName: __ZNSt3__122__compressed_pair_elemImLi0ELb0EE5__getB7v160006Ev, symObjAddr: 0x37E8, symBinAddr: 0x1000055B4, symSize: 0x14 }
  - { offsetInCU: 0x11AA6, offset: 0x11AA6, size: 0x8, addend: 0x0, symName: __ZNSt3__117__compressed_pairIPNS_11__tree_nodeINS_12__value_typeINS_12basic_stringIcNS_11char_traitsIcEENS_9allocatorIcEEEENS_3mapIxxNS_4lessIxEENS6_INS_4pairIKxxEEEEEEEEPvEENS_22__tree_node_destructorINS6_ISJ_EEEEE5firstB7v160006Ev, symObjAddr: 0x37FC, symBinAddr: 0x1000055C8, symSize: 0x24 }
  - { offsetInCU: 0x11ACC, offset: 0x11ACC, size: 0x8, addend: 0x0, symName: __ZNSt3__122__compressed_pair_elemIPNS_11__tree_nodeINS_12__value_typeINS_12basic_stringIcNS_11char_traitsIcEENS_9allocatorIcEEEENS_3mapIxxNS_4lessIxEENS6_INS_4pairIKxxEEEEEEEEPvEELi0ELb0EE5__getB7v160006Ev, symObjAddr: 0x3820, symBinAddr: 0x1000055EC, symSize: 0x14 }
  - { offsetInCU: 0x11AF2, offset: 0x11AF2, size: 0x8, addend: 0x0, symName: __ZNSt3__110unique_ptrINS_11__tree_nodeINS_12__value_typeINS_12basic_stringIcNS_11char_traitsIcEENS_9allocatorIcEEEENS_3mapIxxNS_4lessIxEENS6_INS_4pairIKxxEEEEEEEEPvEENS_22__tree_node_destructorINS6_ISJ_EEEEED2B7v160006Ev, symObjAddr: 0x3834, symBinAddr: 0x100005600, symSize: 0x30 }
  - { offsetInCU: 0x11B1C, offset: 0x11B1C, size: 0x8, addend: 0x0, symName: __ZNSt3__110unique_ptrINS_11__tree_nodeINS_12__value_typeINS_12basic_stringIcNS_11char_traitsIcEENS_9allocatorIcEEEENS_3mapIxxNS_4lessIxEENS6_INS_4pairIKxxEEEEEEEEPvEENS_22__tree_node_destructorINS6_ISJ_EEEEE5resetB7v160006EPSJ_, symObjAddr: 0x3864, symBinAddr: 0x100005630, symSize: 0x78 }
  - { offsetInCU: 0x11B60, offset: 0x11B60, size: 0x8, addend: 0x0, symName: __ZNSt3__122__tree_node_destructorINS_9allocatorINS_11__tree_nodeINS_12__value_typeINS_12basic_stringIcNS_11char_traitsIcEENS1_IcEEEENS_3mapIxxNS_4lessIxEENS1_INS_4pairIKxxEEEEEEEEPvEEEEEclB7v160006EPSJ_, symObjAddr: 0x38DC, symBinAddr: 0x1000056A8, symSize: 0x98 }
  - { offsetInCU: 0x11B95, offset: 0x11B95, size: 0x8, addend: 0x0, symName: __ZNSt3__115__tree_iteratorINS_12__value_typeINS_12basic_stringIcNS_11char_traitsIcEENS_9allocatorIcEEEENS_3mapIxxNS_4lessIxEENS5_INS_4pairIKxxEEEEEEEEPNS_11__tree_nodeISG_PvEElEC2B7v160006ESK_, symObjAddr: 0x3974, symBinAddr: 0x100005740, symSize: 0x20 }
  - { offsetInCU: 0x11BCE, offset: 0x11BCE, size: 0x8, addend: 0x0, symName: __ZNSt3__14pairINS_15__tree_iteratorINS_12__value_typeINS_12basic_stringIcNS_11char_traitsIcEENS_9allocatorIcEEEENS_3mapIxxNS_4lessIxEENS6_INS0_IKxxEEEEEEEEPNS_11__tree_nodeISG_PvEElEEbEC2B7v160006ISL_RbLSI_0EEEOT_OT0_, symObjAddr: 0x3994, symBinAddr: 0x100005760, symSize: 0x38 }
  - { offsetInCU: 0x11C2C, offset: 0x11C2C, size: 0x8, addend: 0x0, symName: __ZNSt3__15tupleIJRKNS_12basic_stringIcNS_11char_traitsIcEENS_9allocatorIcEEEEEEC1B7v160006INS_4_AndELi0EEES8_, symObjAddr: 0x39CC, symBinAddr: 0x100005798, symSize: 0x34 }
  - { offsetInCU: 0x11C74, offset: 0x11C74, size: 0x8, addend: 0x0, symName: __ZNSt3__15tupleIJRKNS_12basic_stringIcNS_11char_traitsIcEENS_9allocatorIcEEEEEEC2B7v160006INS_4_AndELi0EEES8_, symObjAddr: 0x3A00, symBinAddr: 0x1000057CC, symSize: 0x34 }
  - { offsetInCU: 0x11CBC, offset: 0x11CBC, size: 0x8, addend: 0x0, symName: __ZNSt3__112__tuple_implINS_15__tuple_indicesIJLm0EEEEJRKNS_12basic_stringIcNS_11char_traitsIcEENS_9allocatorIcEEEEEEC1B7v160006IJLm0EEJSA_EJEJEJSA_EEENS1_IJXspT_EEEENS_13__tuple_typesIJDpT0_EEENS1_IJXspT1_EEEENSE_IJDpT2_EEEDpOT3_, symObjAddr: 0x3A34, symBinAddr: 0x100005800, symSize: 0x34 }
  - { offsetInCU: 0x11D4D, offset: 0x11D4D, size: 0x8, addend: 0x0, symName: __ZNSt3__112__tuple_implINS_15__tuple_indicesIJLm0EEEEJRKNS_12basic_stringIcNS_11char_traitsIcEENS_9allocatorIcEEEEEEC2B7v160006IJLm0EEJSA_EJEJEJSA_EEENS1_IJXspT_EEEENS_13__tuple_typesIJDpT0_EEENS1_IJXspT1_EEEENSE_IJDpT2_EEEDpOT3_, symObjAddr: 0x3A68, symBinAddr: 0x100005834, symSize: 0x34 }
  - { offsetInCU: 0x11DDE, offset: 0x11DDE, size: 0x8, addend: 0x0, symName: __ZNSt3__112__tuple_leafILm0ERKNS_12basic_stringIcNS_11char_traitsIcEENS_9allocatorIcEEEELb0EEC2B7v160006IS8_vEEOT_, symObjAddr: 0x3A9C, symBinAddr: 0x100005868, symSize: 0x20 }
  - { offsetInCU: 0x11E21, offset: 0x11E21, size: 0x8, addend: 0x0, symName: __ZNSt3__114pointer_traitsIPNS_12__value_typeINS_12basic_stringIcNS_11char_traitsIcEENS_9allocatorIcEEEENS_3mapIxxNS_4lessIxEENS5_INS_4pairIKxxEEEEEEEEE10pointer_toB7v160006ERSG_, symObjAddr: 0x3ABC, symBinAddr: 0x100005888, symSize: 0x14 }
  - { offsetInCU: 0x11E44, offset: 0x11E44, size: 0x8, addend: 0x0, symName: __ZNKSt3__115__tree_iteratorINS_12__value_typeINS_12basic_stringIcNS_11char_traitsIcEENS_9allocatorIcEEEENS_3mapIxxNS_4lessIxEENS5_INS_4pairIKxxEEEEEEEEPNS_11__tree_nodeISG_PvEElE8__get_npB7v160006Ev, symObjAddr: 0x3AD0, symBinAddr: 0x10000589C, symSize: 0x18 }
  - { offsetInCU: 0x11E6A, offset: 0x11E6A, size: 0x8, addend: 0x0, symName: __ZNSt3__16__treeINS_12__value_typeIxxEENS_19__map_value_compareIxS2_NS_4lessIxEELb1EEENS_9allocatorIS2_EEE25__emplace_unique_key_argsIxJRKNS_21piecewise_construct_tENS_5tupleIJRKxEEENSE_IJEEEEEENS_4pairINS_15__tree_iteratorIS2_PNS_11__tree_nodeIS2_PvEElEEbEERKT_DpOT0_, symObjAddr: 0x3AE8, symBinAddr: 0x1000058B4, symSize: 0x100 }
  - { offsetInCU: 0x11F40, offset: 0x11F40, size: 0x8, addend: 0x0, symName: __ZNKSt3__115__tree_iteratorINS_12__value_typeIxxEEPNS_11__tree_nodeIS2_PvEElEptB7v160006Ev, symObjAddr: 0x3C14, symBinAddr: 0x1000059E0, symSize: 0x2C }
  - { offsetInCU: 0x11F66, offset: 0x11F66, size: 0x8, addend: 0x0, symName: __ZNSt3__16__treeINS_12__value_typeIxxEENS_19__map_value_compareIxS2_NS_4lessIxEELb1EEENS_9allocatorIS2_EEE12__find_equalIxEERPNS_16__tree_node_baseIPvEERPNS_15__tree_end_nodeISE_EERKT_, symObjAddr: 0x3C40, symBinAddr: 0x100005A0C, symSize: 0x184 }
  - { offsetInCU: 0x11FD3, offset: 0x11FD3, size: 0x8, addend: 0x0, symName: __ZNSt3__16__treeINS_12__value_typeIxxEENS_19__map_value_compareIxS2_NS_4lessIxEELb1EEENS_9allocatorIS2_EEE16__construct_nodeIJRKNS_21piecewise_construct_tENS_5tupleIJRKxEEENSE_IJEEEEEENS_10unique_ptrINS_11__tree_nodeIS2_PvEENS_22__tree_node_destructorINS7_ISM_EEEEEEDpOT_, symObjAddr: 0x3DC4, symBinAddr: 0x100005B90, symSize: 0x120 }
  - { offsetInCU: 0x1205C, offset: 0x1205C, size: 0x8, addend: 0x0, symName: __ZNSt3__16__treeINS_12__value_typeIxxEENS_19__map_value_compareIxS2_NS_4lessIxEELb1EEENS_9allocatorIS2_EEE16__insert_node_atEPNS_15__tree_end_nodeIPNS_16__tree_node_baseIPvEEEERSE_SE_, symObjAddr: 0x3EE4, symBinAddr: 0x100005CB0, symSize: 0xCC }
  - { offsetInCU: 0x120B1, offset: 0x120B1, size: 0x8, addend: 0x0, symName: __ZNKSt3__110unique_ptrINS_11__tree_nodeINS_12__value_typeIxxEEPvEENS_22__tree_node_destructorINS_9allocatorIS5_EEEEE3getB7v160006Ev, symObjAddr: 0x3FB0, symBinAddr: 0x100005D7C, symSize: 0x28 }
  - { offsetInCU: 0x120D7, offset: 0x120D7, size: 0x8, addend: 0x0, symName: __ZNSt3__110unique_ptrINS_11__tree_nodeINS_12__value_typeIxxEEPvEENS_22__tree_node_destructorINS_9allocatorIS5_EEEEE7releaseB7v160006Ev, symObjAddr: 0x3FD8, symBinAddr: 0x100005DA4, symSize: 0x44 }
  - { offsetInCU: 0x1210C, offset: 0x1210C, size: 0x8, addend: 0x0, symName: __ZNSt3__110unique_ptrINS_11__tree_nodeINS_12__value_typeIxxEEPvEENS_22__tree_node_destructorINS_9allocatorIS5_EEEEED1B7v160006Ev, symObjAddr: 0x401C, symBinAddr: 0x100005DE8, symSize: 0x2C }
  - { offsetInCU: 0x12136, offset: 0x12136, size: 0x8, addend: 0x0, symName: __ZNSt3__115__tree_iteratorINS_12__value_typeIxxEEPNS_11__tree_nodeIS2_PvEElEC1B7v160006ES6_, symObjAddr: 0x4048, symBinAddr: 0x100005E14, symSize: 0x34 }
  - { offsetInCU: 0x12174, offset: 0x12174, size: 0x8, addend: 0x0, symName: __ZNSt3__14pairINS_15__tree_iteratorINS_12__value_typeIxxEEPNS_11__tree_nodeIS3_PvEElEEbEC1B7v160006IS8_RbLS5_0EEEOT_OT0_, symObjAddr: 0x407C, symBinAddr: 0x100005E48, symSize: 0x3C }
  - { offsetInCU: 0x121D2, offset: 0x121D2, size: 0x8, addend: 0x0, symName: __ZNKSt3__16__treeINS_12__value_typeIxxEENS_19__map_value_compareIxS2_NS_4lessIxEELb1EEENS_9allocatorIS2_EEE10__root_ptrEv, symObjAddr: 0x40B8, symBinAddr: 0x100005E84, symSize: 0x24 }
  - { offsetInCU: 0x121F8, offset: 0x121F8, size: 0x8, addend: 0x0, symName: __ZNSt3__16__treeINS_12__value_typeIxxEENS_19__map_value_compareIxS2_NS_4lessIxEELb1EEENS_9allocatorIS2_EEE10value_compB7v160006Ev, symObjAddr: 0x40DC, symBinAddr: 0x100005EA8, symSize: 0x28 }
  - { offsetInCU: 0x1221E, offset: 0x1221E, size: 0x8, addend: 0x0, symName: __ZNKSt3__119__map_value_compareIxNS_12__value_typeIxxEENS_4lessIxEELb1EEclB7v160006ERKxRKS2_, symObjAddr: 0x4104, symBinAddr: 0x100005ED0, symSize: 0x50 }
  - { offsetInCU: 0x12262, offset: 0x12262, size: 0x8, addend: 0x0, symName: __ZNKSt3__119__map_value_compareIxNS_12__value_typeIxxEENS_4lessIxEELb1EEclB7v160006ERKS2_RKx, symObjAddr: 0x4154, symBinAddr: 0x100005F20, symSize: 0x48 }
  - { offsetInCU: 0x122A6, offset: 0x122A6, size: 0x8, addend: 0x0, symName: __ZNSt3__117__compressed_pairImNS_19__map_value_compareIxNS_12__value_typeIxxEENS_4lessIxEELb1EEEE6secondB7v160006Ev, symObjAddr: 0x419C, symBinAddr: 0x100005F68, symSize: 0x24 }
  - { offsetInCU: 0x122CC, offset: 0x122CC, size: 0x8, addend: 0x0, symName: __ZNSt3__122__compressed_pair_elemINS_19__map_value_compareIxNS_12__value_typeIxxEENS_4lessIxEELb1EEELi1ELb1EE5__getB7v160006Ev, symObjAddr: 0x41C0, symBinAddr: 0x100005F8C, symSize: 0x14 }
  - { offsetInCU: 0x122F2, offset: 0x122F2, size: 0x8, addend: 0x0, symName: __ZNKSt3__14lessIxEclB7v160006ERKxS3_, symObjAddr: 0x41D4, symBinAddr: 0x100005FA0, symSize: 0x34 }
  - { offsetInCU: 0x12336, offset: 0x12336, size: 0x8, addend: 0x0, symName: __ZNKSt3__112__value_typeIxxE11__get_valueB7v160006Ev, symObjAddr: 0x4208, symBinAddr: 0x100005FD4, symSize: 0x24 }
  - { offsetInCU: 0x1235C, offset: 0x1235C, size: 0x8, addend: 0x0, symName: __ZNSt3__116allocator_traitsINS_9allocatorINS_11__tree_nodeINS_12__value_typeIxxEEPvEEEEE8allocateB7v160006ERS7_m, symObjAddr: 0x4264, symBinAddr: 0x100006030, symSize: 0x2C }
  - { offsetInCU: 0x1238F, offset: 0x1238F, size: 0x8, addend: 0x0, symName: __ZNSt3__122__tree_node_destructorINS_9allocatorINS_11__tree_nodeINS_12__value_typeIxxEEPvEEEEEC1B7v160006ERS7_b, symObjAddr: 0x4290, symBinAddr: 0x10000605C, symSize: 0x48 }
  - { offsetInCU: 0x123DC, offset: 0x123DC, size: 0x8, addend: 0x0, symName: __ZNSt3__110unique_ptrINS_11__tree_nodeINS_12__value_typeIxxEEPvEENS_22__tree_node_destructorINS_9allocatorIS5_EEEEEC1B7v160006ILb1EvEEPS5_NS_16__dependent_typeINS_27__unique_ptr_deleter_sfinaeIS9_EEXT_EE20__good_rval_ref_typeE, symObjAddr: 0x42D8, symBinAddr: 0x1000060A4, symSize: 0x3C }
  - { offsetInCU: 0x1242D, offset: 0x1242D, size: 0x8, addend: 0x0, symName: __ZNSt3__116allocator_traitsINS_9allocatorINS_11__tree_nodeINS_12__value_typeIxxEEPvEEEEE9constructB7v160006INS_4pairIKxxEEJRKNS_21piecewise_construct_tENS_5tupleIJRSB_EEENSG_IJEEEEvvEEvRS7_PT_DpOT0_, symObjAddr: 0x4314, symBinAddr: 0x1000060E0, symSize: 0x40 }
  - { offsetInCU: 0x124A9, offset: 0x124A9, size: 0x8, addend: 0x0, symName: __ZNKSt3__110unique_ptrINS_11__tree_nodeINS_12__value_typeIxxEEPvEENS_22__tree_node_destructorINS_9allocatorIS5_EEEEEptB7v160006Ev, symObjAddr: 0x4354, symBinAddr: 0x100006120, symSize: 0x28 }
  - { offsetInCU: 0x124CF, offset: 0x124CF, size: 0x8, addend: 0x0, symName: __ZNSt3__110unique_ptrINS_11__tree_nodeINS_12__value_typeIxxEEPvEENS_22__tree_node_destructorINS_9allocatorIS5_EEEEE11get_deleterB7v160006Ev, symObjAddr: 0x437C, symBinAddr: 0x100006148, symSize: 0x24 }
  - { offsetInCU: 0x124F5, offset: 0x124F5, size: 0x8, addend: 0x0, symName: __ZNSt3__19allocatorINS_11__tree_nodeINS_12__value_typeIxxEEPvEEE8allocateB7v160006Em, symObjAddr: 0x43A0, symBinAddr: 0x10000616C, symSize: 0x5C }
  - { offsetInCU: 0x12533, offset: 0x12533, size: 0x8, addend: 0x0, symName: __ZNSt3__116allocator_traitsINS_9allocatorINS_11__tree_nodeINS_12__value_typeIxxEEPvEEEEE8max_sizeB7v160006IS7_vvEEmRKS7_, symObjAddr: 0x43FC, symBinAddr: 0x1000061C8, symSize: 0x28 }
  - { offsetInCU: 0x1255E, offset: 0x1255E, size: 0x8, addend: 0x0, symName: __ZNSt3__122__tree_node_destructorINS_9allocatorINS_11__tree_nodeINS_12__value_typeIxxEEPvEEEEEC2B7v160006ERS7_b, symObjAddr: 0x4424, symBinAddr: 0x1000061F0, symSize: 0x38 }
  - { offsetInCU: 0x125A6, offset: 0x125A6, size: 0x8, addend: 0x0, symName: __ZNSt3__110unique_ptrINS_11__tree_nodeINS_12__value_typeIxxEEPvEENS_22__tree_node_destructorINS_9allocatorIS5_EEEEEC2B7v160006ILb1EvEEPS5_NS_16__dependent_typeINS_27__unique_ptr_deleter_sfinaeIS9_EEXT_EE20__good_rval_ref_typeE, symObjAddr: 0x445C, symBinAddr: 0x100006228, symSize: 0x48 }
  - { offsetInCU: 0x125F7, offset: 0x125F7, size: 0x8, addend: 0x0, symName: __ZNSt3__117__compressed_pairIPNS_11__tree_nodeINS_12__value_typeIxxEEPvEENS_22__tree_node_destructorINS_9allocatorIS5_EEEEEC1B7v160006IRS6_SA_EEOT_OT0_, symObjAddr: 0x44A4, symBinAddr: 0x100006270, symSize: 0x3C }
  - { offsetInCU: 0x1264F, offset: 0x1264F, size: 0x8, addend: 0x0, symName: __ZNSt3__117__compressed_pairIPNS_11__tree_nodeINS_12__value_typeIxxEEPvEENS_22__tree_node_destructorINS_9allocatorIS5_EEEEEC2B7v160006IRS6_SA_EEOT_OT0_, symObjAddr: 0x44E0, symBinAddr: 0x1000062AC, symSize: 0x48 }
  - { offsetInCU: 0x126A7, offset: 0x126A7, size: 0x8, addend: 0x0, symName: __ZNSt3__122__compressed_pair_elemIPNS_11__tree_nodeINS_12__value_typeIxxEEPvEELi0ELb0EEC2B7v160006IRS6_vEEOT_, symObjAddr: 0x4528, symBinAddr: 0x1000062F4, symSize: 0x24 }
  - { offsetInCU: 0x126E9, offset: 0x126E9, size: 0x8, addend: 0x0, symName: __ZNSt3__122__compressed_pair_elemINS_22__tree_node_destructorINS_9allocatorINS_11__tree_nodeINS_12__value_typeIxxEEPvEEEEEELi1ELb0EEC2B7v160006IS9_vEEOT_, symObjAddr: 0x454C, symBinAddr: 0x100006318, symSize: 0x24 }
  - { offsetInCU: 0x1272B, offset: 0x1272B, size: 0x8, addend: 0x0, symName: __ZNSt3__14pairIKxxEC1B7v160006IJRS1_EJEEENS_21piecewise_construct_tENS_5tupleIJDpT_EEENS6_IJDpT0_EEE, symObjAddr: 0x45C0, symBinAddr: 0x10000638C, symSize: 0x44 }
  - { offsetInCU: 0x12792, offset: 0x12792, size: 0x8, addend: 0x0, symName: __ZNSt3__14pairIKxxEC1B7v160006IJRS1_EJEJLm0EEJEEENS_21piecewise_construct_tERNS_5tupleIJDpT_EEERNS6_IJDpT0_EEENS_15__tuple_indicesIJXspT1_EEEENSF_IJXspT2_EEEE, symObjAddr: 0x4604, symBinAddr: 0x1000063D0, symSize: 0x3C }
  - { offsetInCU: 0x1281F, offset: 0x1281F, size: 0x8, addend: 0x0, symName: __ZNSt3__14pairIKxxEC2B7v160006IJRS1_EJEJLm0EEJEEENS_21piecewise_construct_tERNS_5tupleIJDpT_EEERNS6_IJDpT0_EEENS_15__tuple_indicesIJXspT1_EEEENSF_IJXspT2_EEEE, symObjAddr: 0x4640, symBinAddr: 0x10000640C, symSize: 0x48 }
  - { offsetInCU: 0x128AC, offset: 0x128AC, size: 0x8, addend: 0x0, symName: __ZNSt3__112__tuple_leafILm0ERKxLb0EE3getB7v160006Ev, symObjAddr: 0x46AC, symBinAddr: 0x100006478, symSize: 0x18 }
  - { offsetInCU: 0x128D2, offset: 0x128D2, size: 0x8, addend: 0x0, symName: __ZNKSt3__117__compressed_pairIPNS_11__tree_nodeINS_12__value_typeIxxEEPvEENS_22__tree_node_destructorINS_9allocatorIS5_EEEEE5firstB7v160006Ev, symObjAddr: 0x46C4, symBinAddr: 0x100006490, symSize: 0x24 }
  - { offsetInCU: 0x128F8, offset: 0x128F8, size: 0x8, addend: 0x0, symName: __ZNKSt3__122__compressed_pair_elemIPNS_11__tree_nodeINS_12__value_typeIxxEEPvEELi0ELb0EE5__getB7v160006Ev, symObjAddr: 0x46E8, symBinAddr: 0x1000064B4, symSize: 0x14 }
  - { offsetInCU: 0x1291E, offset: 0x1291E, size: 0x8, addend: 0x0, symName: __ZNSt3__117__compressed_pairIPNS_11__tree_nodeINS_12__value_typeIxxEEPvEENS_22__tree_node_destructorINS_9allocatorIS5_EEEEE6secondB7v160006Ev, symObjAddr: 0x46FC, symBinAddr: 0x1000064C8, symSize: 0x28 }
  - { offsetInCU: 0x12944, offset: 0x12944, size: 0x8, addend: 0x0, symName: __ZNSt3__122__compressed_pair_elemINS_22__tree_node_destructorINS_9allocatorINS_11__tree_nodeINS_12__value_typeIxxEEPvEEEEEELi1ELb0EE5__getB7v160006Ev, symObjAddr: 0x4724, symBinAddr: 0x1000064F0, symSize: 0x14 }
  - { offsetInCU: 0x1296A, offset: 0x1296A, size: 0x8, addend: 0x0, symName: __ZNSt3__16__treeINS_12__value_typeIxxEENS_19__map_value_compareIxS2_NS_4lessIxEELb1EEENS_9allocatorIS2_EEE4sizeB7v160006Ev, symObjAddr: 0x4738, symBinAddr: 0x100006504, symSize: 0x28 }
  - { offsetInCU: 0x12990, offset: 0x12990, size: 0x8, addend: 0x0, symName: __ZNSt3__117__compressed_pairImNS_19__map_value_compareIxNS_12__value_typeIxxEENS_4lessIxEELb1EEEE5firstB7v160006Ev, symObjAddr: 0x4760, symBinAddr: 0x10000652C, symSize: 0x24 }
  - { offsetInCU: 0x129B6, offset: 0x129B6, size: 0x8, addend: 0x0, symName: __ZNSt3__117__compressed_pairIPNS_11__tree_nodeINS_12__value_typeIxxEEPvEENS_22__tree_node_destructorINS_9allocatorIS5_EEEEE5firstB7v160006Ev, symObjAddr: 0x4784, symBinAddr: 0x100006550, symSize: 0x24 }
  - { offsetInCU: 0x129DC, offset: 0x129DC, size: 0x8, addend: 0x0, symName: __ZNSt3__122__compressed_pair_elemIPNS_11__tree_nodeINS_12__value_typeIxxEEPvEELi0ELb0EE5__getB7v160006Ev, symObjAddr: 0x47A8, symBinAddr: 0x100006574, symSize: 0x14 }
  - { offsetInCU: 0x12A02, offset: 0x12A02, size: 0x8, addend: 0x0, symName: __ZNSt3__110unique_ptrINS_11__tree_nodeINS_12__value_typeIxxEEPvEENS_22__tree_node_destructorINS_9allocatorIS5_EEEEED2B7v160006Ev, symObjAddr: 0x47BC, symBinAddr: 0x100006588, symSize: 0x30 }
  - { offsetInCU: 0x12A2C, offset: 0x12A2C, size: 0x8, addend: 0x0, symName: __ZNSt3__110unique_ptrINS_11__tree_nodeINS_12__value_typeIxxEEPvEENS_22__tree_node_destructorINS_9allocatorIS5_EEEEE5resetB7v160006EPS5_, symObjAddr: 0x47EC, symBinAddr: 0x1000065B8, symSize: 0x78 }
  - { offsetInCU: 0x12A70, offset: 0x12A70, size: 0x8, addend: 0x0, symName: __ZNSt3__122__tree_node_destructorINS_9allocatorINS_11__tree_nodeINS_12__value_typeIxxEEPvEEEEEclB7v160006EPS6_, symObjAddr: 0x4864, symBinAddr: 0x100006630, symSize: 0x98 }
  - { offsetInCU: 0x12AA5, offset: 0x12AA5, size: 0x8, addend: 0x0, symName: __ZNSt3__115__tree_iteratorINS_12__value_typeIxxEEPNS_11__tree_nodeIS2_PvEElEC2B7v160006ES6_, symObjAddr: 0x48FC, symBinAddr: 0x1000066C8, symSize: 0x20 }
  - { offsetInCU: 0x12ADE, offset: 0x12ADE, size: 0x8, addend: 0x0, symName: __ZNSt3__14pairINS_15__tree_iteratorINS_12__value_typeIxxEEPNS_11__tree_nodeIS3_PvEElEEbEC2B7v160006IS8_RbLS5_0EEEOT_OT0_, symObjAddr: 0x491C, symBinAddr: 0x1000066E8, symSize: 0x38 }
  - { offsetInCU: 0x12B3C, offset: 0x12B3C, size: 0x8, addend: 0x0, symName: __ZNSt3__15tupleIJRKxEEC1B7v160006INS_4_AndELi0EEES2_, symObjAddr: 0x4954, symBinAddr: 0x100006720, symSize: 0x34 }
  - { offsetInCU: 0x12B84, offset: 0x12B84, size: 0x8, addend: 0x0, symName: __ZNSt3__15tupleIJRKxEEC2B7v160006INS_4_AndELi0EEES2_, symObjAddr: 0x4988, symBinAddr: 0x100006754, symSize: 0x34 }
  - { offsetInCU: 0x12BCC, offset: 0x12BCC, size: 0x8, addend: 0x0, symName: __ZNSt3__112__tuple_implINS_15__tuple_indicesIJLm0EEEEJRKxEEC1B7v160006IJLm0EEJS4_EJEJEJS4_EEENS1_IJXspT_EEEENS_13__tuple_typesIJDpT0_EEENS1_IJXspT1_EEEENS8_IJDpT2_EEEDpOT3_, symObjAddr: 0x49BC, symBinAddr: 0x100006788, symSize: 0x34 }
  - { offsetInCU: 0x12C5D, offset: 0x12C5D, size: 0x8, addend: 0x0, symName: __ZNSt3__112__tuple_implINS_15__tuple_indicesIJLm0EEEEJRKxEEC2B7v160006IJLm0EEJS4_EJEJEJS4_EEENS1_IJXspT_EEEENS_13__tuple_typesIJDpT0_EEENS1_IJXspT1_EEEENS8_IJDpT2_EEEDpOT3_, symObjAddr: 0x49F0, symBinAddr: 0x1000067BC, symSize: 0x34 }
  - { offsetInCU: 0x12CEE, offset: 0x12CEE, size: 0x8, addend: 0x0, symName: __ZNSt3__112__tuple_leafILm0ERKxLb0EEC2B7v160006IS2_vEEOT_, symObjAddr: 0x4A24, symBinAddr: 0x1000067F0, symSize: 0x20 }
  - { offsetInCU: 0x12D31, offset: 0x12D31, size: 0x8, addend: 0x0, symName: __ZNSt3__114pointer_traitsIPNS_12__value_typeIxxEEE10pointer_toB7v160006ERS2_, symObjAddr: 0x4A44, symBinAddr: 0x100006810, symSize: 0x14 }
  - { offsetInCU: 0x12D54, offset: 0x12D54, size: 0x8, addend: 0x0, symName: __ZNKSt3__115__tree_iteratorINS_12__value_typeIxxEEPNS_11__tree_nodeIS2_PvEElE8__get_npB7v160006Ev, symObjAddr: 0x4A58, symBinAddr: 0x100006824, symSize: 0x18 }
  - { offsetInCU: 0x12DF9, offset: 0x12DF9, size: 0x8, addend: 0x0, symName: __ZNKSt3__113basic_istreamIcNS_11char_traitsIcEEE6sentrycvbB7v160006Ev, symObjAddr: 0x4A70, symBinAddr: 0x10000683C, symSize: 0x1C }
  - { offsetInCU: 0x12E1F, offset: 0x12E1F, size: 0x8, addend: 0x0, symName: __ZNSt3__112basic_stringIcNS_11char_traitsIcEENS_9allocatorIcEEE5clearB7v160006Ev, symObjAddr: 0x4A8C, symBinAddr: 0x100006858, symSize: 0x88 }
  - { offsetInCU: 0x12E47, offset: 0x12E47, size: 0x8, addend: 0x0, symName: __ZNKSt3__18ios_base5widthB7v160006Ev, symObjAddr: 0x4B14, symBinAddr: 0x1000068E0, symSize: 0x18 }
  - { offsetInCU: 0x12E6F, offset: 0x12E6F, size: 0x8, addend: 0x0, symName: __ZNKSt3__112basic_stringIcNS_11char_traitsIcEENS_9allocatorIcEEE8max_sizeB7v160006Ev, symObjAddr: 0x4B2C, symBinAddr: 0x1000068F8, symSize: 0xAC }
  - { offsetInCU: 0x12EC1, offset: 0x12EC1, size: 0x8, addend: 0x0, symName: __ZNSt3__114numeric_limitsIlE3maxB7v160006Ev, symObjAddr: 0x4BD8, symBinAddr: 0x1000069A4, symSize: 0x14 }
  - { offsetInCU: 0x12ED5, offset: 0x12ED5, size: 0x8, addend: 0x0, symName: __ZNKSt3__19basic_iosIcNS_11char_traitsIcEEE5rdbufB7v160006Ev, symObjAddr: 0x4C18, symBinAddr: 0x1000069E4, symSize: 0x24 }
  - { offsetInCU: 0x12EFD, offset: 0x12EFD, size: 0x8, addend: 0x0, symName: __ZNSt3__115basic_streambufIcNS_11char_traitsIcEEE5sgetcB7v160006Ev, symObjAddr: 0x4C3C, symBinAddr: 0x100006A08, symSize: 0x70 }
  - { offsetInCU: 0x12F23, offset: 0x12F23, size: 0x8, addend: 0x0, symName: __ZNSt3__111char_traitsIcE11eq_int_typeEii, symObjAddr: 0x4CAC, symBinAddr: 0x100006A78, symSize: 0x28 }
  - { offsetInCU: 0x12F54, offset: 0x12F54, size: 0x8, addend: 0x0, symName: __ZNSt3__111char_traitsIcE3eofEv, symObjAddr: 0x4CD4, symBinAddr: 0x100006AA0, symSize: 0x8 }
  - { offsetInCU: 0x12F68, offset: 0x12F68, size: 0x8, addend: 0x0, symName: __ZNSt3__111char_traitsIcE12to_char_typeEi, symObjAddr: 0x4CDC, symBinAddr: 0x100006AA8, symSize: 0x18 }
  - { offsetInCU: 0x12FB8, offset: 0x12FB8, size: 0x8, addend: 0x0, symName: __ZNKSt3__15ctypeIcE2isB7v160006Ejc, symObjAddr: 0x4CF4, symBinAddr: 0x100006AC0, symSize: 0x7C }
  - { offsetInCU: 0x12FFC, offset: 0x12FFC, size: 0x8, addend: 0x0, symName: __ZNSt3__115basic_streambufIcNS_11char_traitsIcEEE6sbumpcB7v160006Ev, symObjAddr: 0x4D70, symBinAddr: 0x100006B3C, symSize: 0x78 }
  - { offsetInCU: 0x13022, offset: 0x13022, size: 0x8, addend: 0x0, symName: __ZNSt3__18ios_base5widthB7v160006El, symObjAddr: 0x4DE8, symBinAddr: 0x100006BB4, symSize: 0x2C }
  - { offsetInCU: 0x13068, offset: 0x13068, size: 0x8, addend: 0x0, symName: __ZNSt3__18ios_base18__setstate_nothrowB7v160006Ej, symObjAddr: 0x4E14, symBinAddr: 0x100006BE0, symSize: 0x64 }
  - { offsetInCU: 0x1309D, offset: 0x1309D, size: 0x8, addend: 0x0, symName: __ZNKSt3__19basic_iosIcNS_11char_traitsIcEEE10exceptionsB7v160006Ev, symObjAddr: 0x4E78, symBinAddr: 0x100006C44, symSize: 0x24 }
  - { offsetInCU: 0x130C3, offset: 0x130C3, size: 0x8, addend: 0x0, symName: __ZNSt3__19basic_iosIcNS_11char_traitsIcEEE8setstateB7v160006Ej, symObjAddr: 0x4E9C, symBinAddr: 0x100006C68, symSize: 0x2C }
  - { offsetInCU: 0x130F8, offset: 0x130F8, size: 0x8, addend: 0x0, symName: __ZNSt3__111char_traitsIcE6assignERcRKc, symObjAddr: 0x4ED8, symBinAddr: 0x100006CA4, symSize: 0x24 }
  - { offsetInCU: 0x13129, offset: 0x13129, size: 0x8, addend: 0x0, symName: __ZNSt3__112basic_stringIcNS_11char_traitsIcEENS_9allocatorIcEEE15__set_long_sizeB7v160006Em, symObjAddr: 0x4EFC, symBinAddr: 0x100006CC8, symSize: 0x38 }
  - { offsetInCU: 0x1315E, offset: 0x1315E, size: 0x8, addend: 0x0, symName: __ZNSt3__112basic_stringIcNS_11char_traitsIcEENS_9allocatorIcEEE16__set_short_sizeB7v160006Em, symObjAddr: 0x4F34, symBinAddr: 0x100006D00, symSize: 0x78 }
  - { offsetInCU: 0x1319D, offset: 0x1319D, size: 0x8, addend: 0x0, symName: __ZNSt3__116allocator_traitsINS_9allocatorIcEEE8max_sizeB7v160006IS2_vvEEmRKS2_, symObjAddr: 0x4FAC, symBinAddr: 0x100006D78, symSize: 0x28 }
  - { offsetInCU: 0x131C8, offset: 0x131C8, size: 0x8, addend: 0x0, symName: __ZNKSt3__112basic_stringIcNS_11char_traitsIcEENS_9allocatorIcEEE7__allocB7v160006Ev, symObjAddr: 0x4FD4, symBinAddr: 0x100006DA0, symSize: 0x24 }
  - { offsetInCU: 0x131EE, offset: 0x131EE, size: 0x8, addend: 0x0, symName: __ZNKSt3__117__compressed_pairINS_12basic_stringIcNS_11char_traitsIcEENS_9allocatorIcEEE5__repES5_E6secondB7v160006Ev, symObjAddr: 0x4FF8, symBinAddr: 0x100006DC4, symSize: 0x24 }
  - { offsetInCU: 0x13214, offset: 0x13214, size: 0x8, addend: 0x0, symName: __ZNKSt3__122__compressed_pair_elemINS_9allocatorIcEELi1ELb1EE5__getB7v160006Ev, symObjAddr: 0x501C, symBinAddr: 0x100006DE8, symSize: 0x14 }
  - { offsetInCU: 0x1323A, offset: 0x1323A, size: 0x8, addend: 0x0, symName: __ZNSt3__123__libcpp_numeric_limitsIlLb1EE3maxB7v160006Ev, symObjAddr: 0x5030, symBinAddr: 0x100006DFC, symSize: 0x8 }
  - { offsetInCU: 0x1324E, offset: 0x1324E, size: 0x8, addend: 0x0, symName: __ZNKSt3__18ios_base5rdbufB7v160006Ev, symObjAddr: 0x5038, symBinAddr: 0x100006E04, symSize: 0x18 }
  - { offsetInCU: 0x13274, offset: 0x13274, size: 0x8, addend: 0x0, symName: __ZNSt3__111char_traitsIcE11to_int_typeEc, symObjAddr: 0x5050, symBinAddr: 0x100006E1C, symSize: 0x14 }
  - { offsetInCU: 0x13296, offset: 0x13296, size: 0x8, addend: 0x0, symName: __Z7isasciii, symObjAddr: 0x5064, symBinAddr: 0x100006E30, symSize: 0x24 }
  - { offsetInCU: 0x132C3, offset: 0x132C3, size: 0x8, addend: 0x0, symName: __ZNKSt3__18ios_base10exceptionsB7v160006Ev, symObjAddr: 0x5088, symBinAddr: 0x100006E54, symSize: 0x18 }
  - { offsetInCU: 0x132EB, offset: 0x132EB, size: 0x8, addend: 0x0, symName: __ZNSt3__18ios_base8setstateB7v160006Ej, symObjAddr: 0x50A0, symBinAddr: 0x100006E6C, symSize: 0x34 }
  - { offsetInCU: 0x1333B, offset: 0x1333B, size: 0x8, addend: 0x0, symName: __ZNKSt3__113basic_ostreamIcNS_11char_traitsIcEEE6sentrycvbB7v160006Ev, symObjAddr: 0x52C0, symBinAddr: 0x10000708C, symSize: 0x1C }
  - { offsetInCU: 0x13361, offset: 0x13361, size: 0x8, addend: 0x0, symName: __ZNSt3__119ostreambuf_iteratorIcNS_11char_traitsIcEEEC1B7v160006ERNS_13basic_ostreamIcS2_EE, symObjAddr: 0x551C, symBinAddr: 0x1000072E8, symSize: 0x34 }
  - { offsetInCU: 0x13399, offset: 0x13399, size: 0x8, addend: 0x0, symName: __ZNKSt3__18ios_base5flagsB7v160006Ev, symObjAddr: 0x5550, symBinAddr: 0x10000731C, symSize: 0x18 }
  - { offsetInCU: 0x133C1, offset: 0x133C1, size: 0x8, addend: 0x0, symName: __ZNKSt3__19basic_iosIcNS_11char_traitsIcEEE4fillB7v160006Ev, symObjAddr: 0x5568, symBinAddr: 0x100007334, symSize: 0x64 }
  - { offsetInCU: 0x133E9, offset: 0x133E9, size: 0x8, addend: 0x0, symName: __ZNKSt3__119ostreambuf_iteratorIcNS_11char_traitsIcEEE6failedB7v160006Ev, symObjAddr: 0x55CC, symBinAddr: 0x100007398, symSize: 0x24 }
  - { offsetInCU: 0x1340F, offset: 0x1340F, size: 0x8, addend: 0x0, symName: __ZNSt3__115basic_streambufIcNS_11char_traitsIcEEE5sputnB7v160006EPKcl, symObjAddr: 0x55F0, symBinAddr: 0x1000073BC, symSize: 0x3C }
  - { offsetInCU: 0x13451, offset: 0x13451, size: 0x8, addend: 0x0, symName: __ZNSt3__112basic_stringIcNS_11char_traitsIcEENS_9allocatorIcEEEC1B7v160006Emc, symObjAddr: 0x562C, symBinAddr: 0x1000073F8, symSize: 0x3C }
  - { offsetInCU: 0x13499, offset: 0x13499, size: 0x8, addend: 0x0, symName: __ZNSt3__112basic_stringIcNS_11char_traitsIcEENS_9allocatorIcEEE4dataB7v160006Ev, symObjAddr: 0x5668, symBinAddr: 0x100007434, symSize: 0x28 }
  - { offsetInCU: 0x134BF, offset: 0x134BF, size: 0x8, addend: 0x0, symName: __ZNSt3__112basic_stringIcNS_11char_traitsIcEENS_9allocatorIcEEEC2B7v160006Emc, symObjAddr: 0x5690, symBinAddr: 0x10000745C, symSize: 0x54 }
  - { offsetInCU: 0x13507, offset: 0x13507, size: 0x8, addend: 0x0, symName: __ZNSt3__119ostreambuf_iteratorIcNS_11char_traitsIcEEEC2B7v160006ERNS_13basic_ostreamIcS2_EE, symObjAddr: 0x56F8, symBinAddr: 0x1000074C4, symSize: 0x54 }
  - { offsetInCU: 0x1353F, offset: 0x1353F, size: 0x8, addend: 0x0, symName: __ZNKSt3__19basic_iosIcNS_11char_traitsIcEEE5widenB7v160006Ec, symObjAddr: 0x574C, symBinAddr: 0x100007518, symSize: 0x84 }
  - { offsetInCU: 0x13576, offset: 0x13576, size: 0x8, addend: 0x0, symName: __ZNKSt3__15ctypeIcE5widenB7v160006Ec, symObjAddr: 0x57D0, symBinAddr: 0x10000759C, symSize: 0x38 }
...
