---
triple:          'arm64-apple-darwin'
binary-path:     '/Users/rohakdebnath/Desktop/Cpp /CodeChef/B13'
relocations:
  - { offsetInCU: 0x54, offset: 0x54, size: 0x8, addend: 0x0, symName: __ZNSt3__1L19piecewise_constructE, symObjAddr: 0x490F, symBinAddr: 0x100007C2F, symSize: 0x0 }
  - { offsetInCU: 0x74D2, offset: 0x74D2, size: 0x8, addend: 0x0, symName: __ZNSt3__124__put_character_sequenceB7v160006IcNS_11char_traitsIcEEEERNS_13basic_ostreamIT_T0_EES7_PKS4_m, symObjAddr: 0x3FC8, symBinAddr: 0x1000070A8, symSize: 0x1EC }
  - { offsetInCU: 0x8E7E, offset: 0x8E7E, size: 0x8, addend: 0x0, symName: __ZNSt3__1rsB7v160006IcNS_11char_traitsIcEENS_9allocatorIcEEEERNS_13basic_istreamIT_T0_EES9_RNS_12basic_stringIS6_S7_T1_EE, symObjAddr: 0x33C, symBinAddr: 0x10000341C, symSize: 0x31C }
  - { offsetInCU: 0x8F4D, offset: 0x8F4D, size: 0x8, addend: 0x0, symName: __ZNSt3__1lsB7v160006INS_11char_traitsIcEEEERNS_13basic_ostreamIcT_EES6_c, symObjAddr: 0x78C, symBinAddr: 0x10000386C, symSize: 0x34 }
  - { offsetInCU: 0x8F93, offset: 0x8F93, size: 0x8, addend: 0x0, symName: __ZNSt3__119__debug_db_insert_cB7v160006INS_12basic_stringIcNS_11char_traitsIcEENS_9allocatorIcEEEEEEvPT_, symObjAddr: 0x964, symBinAddr: 0x100003A44, symSize: 0x10 }
  - { offsetInCU: 0x8FC4, offset: 0x8FC4, size: 0x8, addend: 0x0, symName: __ZNSt3__122__make_exception_guardB7v160006INS_6vectorIxNS_9allocatorIxEEE16__destroy_vectorEEENS_28__exception_guard_exceptionsIT_EES7_, symObjAddr: 0xBC4, symBinAddr: 0x100003CA4, symSize: 0x40 }
  - { offsetInCU: 0x8FF9, offset: 0x8FF9, size: 0x8, addend: 0x0, symName: __ZNSt3__119__debug_db_insert_cB7v160006INS_6vectorIxNS_9allocatorIxEEEEEEvPT_, symObjAddr: 0xC38, symBinAddr: 0x100003D18, symSize: 0x10 }
  - { offsetInCU: 0x902A, offset: 0x902A, size: 0x8, addend: 0x0, symName: __ZNSt3__119__allocate_at_leastB7v160006INS_9allocatorIxEEEEDaRT_m, symObjAddr: 0xFC0, symBinAddr: 0x1000040A0, symSize: 0x3C }
  - { offsetInCU: 0x906D, offset: 0x906D, size: 0x8, addend: 0x0, symName: __ZNSt3__13minB7v160006ImEERKT_S3_S3_, symObjAddr: 0x10F8, symBinAddr: 0x1000041D8, symSize: 0x2C }
  - { offsetInCU: 0x929A, offset: 0x929A, size: 0x8, addend: 0x0, symName: __ZNSt3__13minB7v160006ImNS_6__lessImmEEEERKT_S5_S5_T0_, symObjAddr: 0x1188, symBinAddr: 0x100004268, symSize: 0x54 }
  - { offsetInCU: 0x951B, offset: 0x951B, size: 0x8, addend: 0x0, symName: __ZNSt3__120__throw_length_errorB7v160006EPKc, symObjAddr: 0x126C, symBinAddr: 0x10000434C, symSize: 0x64 }
  - { offsetInCU: 0x9543, offset: 0x9543, size: 0x8, addend: 0x0, symName: __ZNSt3__117allocate_at_leastB7v160006INS_9allocatorIxEEEENS_17allocation_resultINS_16allocator_traitsIT_E7pointerEEERS5_m, symObjAddr: 0x1350, symBinAddr: 0x100004430, symSize: 0x3C }
  - { offsetInCU: 0x9586, offset: 0x9586, size: 0x8, addend: 0x0, symName: __ZNSt3__117__libcpp_allocateB7v160006Emm, symObjAddr: 0x1458, symBinAddr: 0x100004538, symSize: 0x60 }
  - { offsetInCU: 0x95E0, offset: 0x95E0, size: 0x8, addend: 0x0, symName: __ZNSt3__124__is_overaligned_for_newB7v160006Em, symObjAddr: 0x14B8, symBinAddr: 0x100004598, symSize: 0x20 }
  - { offsetInCU: 0x960E, offset: 0x960E, size: 0x8, addend: 0x0, symName: __ZNSt3__121__libcpp_operator_newB7v160006IJmSt11align_val_tEEEPvDpT_, symObjAddr: 0x14D8, symBinAddr: 0x1000045B8, symSize: 0x2C }
  - { offsetInCU: 0x965B, offset: 0x965B, size: 0x8, addend: 0x0, symName: __ZNSt3__121__libcpp_operator_newB7v160006IJmEEEPvDpT_, symObjAddr: 0x1504, symBinAddr: 0x1000045E4, symSize: 0x24 }
  - { offsetInCU: 0x9694, offset: 0x9694, size: 0x8, addend: 0x0, symName: __ZNSt3__112__to_addressB7v160006IxEEPT_S2_, symObjAddr: 0x1620, symBinAddr: 0x100004700, symSize: 0x14 }
  - { offsetInCU: 0x96EE, offset: 0x96EE, size: 0x8, addend: 0x0, symName: __ZNSt3__112construct_atB7v160006IxJEPxEEPT_S3_DpOT0_, symObjAddr: 0x1768, symBinAddr: 0x100004848, symSize: 0x20 }
  - { offsetInCU: 0x974A, offset: 0x974A, size: 0x8, addend: 0x0, symName: __ZNSt3__118__debug_db_erase_cB7v160006INS_6vectorIxNS_9allocatorIxEEEEEEvPT_, symObjAddr: 0x194C, symBinAddr: 0x100004A2C, symSize: 0x10 }
  - { offsetInCU: 0x977B, offset: 0x977B, size: 0x8, addend: 0x0, symName: __ZNSt3__110destroy_atB7v160006IxLi0EEEvPT_, symObjAddr: 0x1A94, symBinAddr: 0x100004B74, symSize: 0x24 }
  - { offsetInCU: 0x97B2, offset: 0x97B2, size: 0x8, addend: 0x0, symName: __ZNSt3__112__destroy_atB7v160006IxLi0EEEvPT_, symObjAddr: 0x1AB8, symBinAddr: 0x100004B98, symSize: 0x10 }
  - { offsetInCU: 0x97E9, offset: 0x97E9, size: 0x8, addend: 0x0, symName: __ZNSt3__119__libcpp_deallocateB7v160006EPvmm, symObjAddr: 0x1B08, symBinAddr: 0x100004BE8, symSize: 0x60 }
  - { offsetInCU: 0x984E, offset: 0x984E, size: 0x8, addend: 0x0, symName: __ZNSt3__127__do_deallocate_handle_sizeB7v160006IJSt11align_val_tEEEvPvmDpT_, symObjAddr: 0x1B68, symBinAddr: 0x100004C48, symSize: 0x30 }
  - { offsetInCU: 0x98A1, offset: 0x98A1, size: 0x8, addend: 0x0, symName: __ZNSt3__127__do_deallocate_handle_sizeB7v160006IJEEEvPvmDpT_, symObjAddr: 0x1B98, symBinAddr: 0x100004C78, symSize: 0x28 }
  - { offsetInCU: 0x98DF, offset: 0x98DF, size: 0x8, addend: 0x0, symName: __ZNSt3__124__libcpp_operator_deleteB7v160006IJPvSt11align_val_tEEEvDpT_, symObjAddr: 0x1BC0, symBinAddr: 0x100004CA0, symSize: 0x2C }
  - { offsetInCU: 0x9928, offset: 0x9928, size: 0x8, addend: 0x0, symName: __ZNSt3__124__libcpp_operator_deleteB7v160006IJPvEEEvDpT_, symObjAddr: 0x1BEC, symBinAddr: 0x100004CCC, symSize: 0x24 }
  - { offsetInCU: 0x9EDC, offset: 0x9EDC, size: 0x8, addend: 0x0, symName: __ZNSt3__19use_facetB7v160006INS_5ctypeIcEEEERKT_RKNS_6localeE, symObjAddr: 0x1EE4, symBinAddr: 0x100004FC4, symSize: 0x2C }
  - { offsetInCU: 0xA2BC, offset: 0xA2BC, size: 0x8, addend: 0x0, symName: __ZNSt3__125__debug_db_invalidate_allB7v160006INS_12basic_stringIcNS_11char_traitsIcEENS_9allocatorIcEEEEEEvPT_, symObjAddr: 0x21C0, symBinAddr: 0x1000052A0, symSize: 0x10 }
  - { offsetInCU: 0xA320, offset: 0xA320, size: 0x8, addend: 0x0, symName: __ZNSt3__110destroy_atB7v160006INS_4pairIKxxEELi0EEEvPT_, symObjAddr: 0x29BC, symBinAddr: 0x100005A9C, symSize: 0x24 }
  - { offsetInCU: 0xA357, offset: 0xA357, size: 0x8, addend: 0x0, symName: __ZNSt3__112__destroy_atB7v160006INS_4pairIKxxEELi0EEEvPT_, symObjAddr: 0x29E0, symBinAddr: 0x100005AC0, symSize: 0x10 }
  - { offsetInCU: 0xA38E, offset: 0xA38E, size: 0x8, addend: 0x0, symName: __ZNSt3__17launderB7v160006INS_4pairIKxxEEEEPT_S5_, symObjAddr: 0x2A14, symBinAddr: 0x100005AF4, symSize: 0x24 }
  - { offsetInCU: 0xA3C5, offset: 0xA3C5, size: 0x8, addend: 0x0, symName: __ZNSt3__19__launderB7v160006INS_4pairIKxxEEEEPT_S5_, symObjAddr: 0x2A38, symBinAddr: 0x100005B18, symSize: 0x14 }
  - { offsetInCU: 0xA44B, offset: 0xA44B, size: 0x8, addend: 0x0, symName: __ZNSt3__116forward_as_tupleB7v160006IJxEEENS_5tupleIJDpOT_EEES4_, symObjAddr: 0x2BF4, symBinAddr: 0x100005CD4, symSize: 0x2C }
  - { offsetInCU: 0xA484, offset: 0xA484, size: 0x8, addend: 0x0, symName: __ZNSt3__116forward_as_tupleB7v160006IJEEENS_5tupleIJDpOT_EEES4_, symObjAddr: 0x2C20, symBinAddr: 0x100005D00, symSize: 0x4 }
  - { offsetInCU: 0xA4A8, offset: 0xA4A8, size: 0x8, addend: 0x0, symName: __ZNSt3__17launderB7v160006IKNS_4pairIKxxEEEEPT_S6_, symObjAddr: 0x323C, symBinAddr: 0x10000631C, symSize: 0x24 }
  - { offsetInCU: 0xA4DF, offset: 0xA4DF, size: 0x8, addend: 0x0, symName: __ZNSt3__19__launderB7v160006IKNS_4pairIKxxEEEEPT_S6_, symObjAddr: 0x3260, symBinAddr: 0x100006340, symSize: 0x14 }
  - { offsetInCU: 0xA559, offset: 0xA559, size: 0x8, addend: 0x0, symName: __ZNSt3__112construct_atB7v160006INS_4pairIKxxEEJRKNS_21piecewise_construct_tENS_5tupleIJOxEEENS7_IJEEEEPS3_EEPT_SD_DpOT0_, symObjAddr: 0x3580, symBinAddr: 0x100006660, symSize: 0x50 }
  - { offsetInCU: 0xA5FA, offset: 0xA5FA, size: 0x8, addend: 0x0, symName: __ZNSt3__13getB7v160006ILm0EJOxEEERNS_13tuple_elementIXT_ENS_5tupleIJDpT0_EEEE4typeERS6_, symObjAddr: 0x3698, symBinAddr: 0x100006778, symSize: 0x24 }
  - { offsetInCU: 0xA63D, offset: 0xA63D, size: 0x8, addend: 0x0, symName: __ZNSt3__127__tree_balance_after_insertB7v160006IPNS_16__tree_node_baseIPvEEEEvT_S5_, symObjAddr: 0x3748, symBinAddr: 0x100006828, symSize: 0x32C }
  - { offsetInCU: 0xA6B9, offset: 0xA6B9, size: 0x8, addend: 0x0, symName: __ZNSt3__120__tree_is_left_childB7v160006IPNS_16__tree_node_baseIPvEEEEbT_, symObjAddr: 0x3AB4, symBinAddr: 0x100006B94, symSize: 0x2C }
  - { offsetInCU: 0xA6EE, offset: 0xA6EE, size: 0x8, addend: 0x0, symName: __ZNSt3__118__tree_left_rotateB7v160006IPNS_16__tree_node_baseIPvEEEEvT_, symObjAddr: 0x3AE0, symBinAddr: 0x100006BC0, symSize: 0xD8 }
  - { offsetInCU: 0xA730, offset: 0xA730, size: 0x8, addend: 0x0, symName: __ZNSt3__119__tree_right_rotateB7v160006IPNS_16__tree_node_baseIPvEEEEvT_, symObjAddr: 0x3BB8, symBinAddr: 0x100006C98, symSize: 0xCC }
  - { offsetInCU: 0xA7C9, offset: 0xA7C9, size: 0x8, addend: 0x0, symName: __ZNSt3__116__pad_and_outputB7v160006IcNS_11char_traitsIcEEEENS_19ostreambuf_iteratorIT_T0_EES6_PKS4_S8_S8_RNS_8ios_baseES4_, symObjAddr: 0x41D0, symBinAddr: 0x1000072B0, symSize: 0x240 }
  - { offsetInCU: 0xA898, offset: 0xA898, size: 0x8, addend: 0x0, symName: __ZNSt3__112__to_addressB7v160006IcEEPT_S2_, symObjAddr: 0x45D8, symBinAddr: 0x1000076B8, symSize: 0x14 }
  - { offsetInCU: 0xAB7D, offset: 0xAB7D, size: 0x8, addend: 0x0, symName: __ZSt28__throw_bad_array_new_lengthB7v160006v, symObjAddr: 0x1424, symBinAddr: 0x100004504, symSize: 0x34 }
  - { offsetInCU: 0xDAF4, offset: 0xDAF4, size: 0x8, addend: 0x0, symName: __Z5solvev, symObjAddr: 0x0, symBinAddr: 0x1000030E0, symSize: 0x310 }
  - { offsetInCU: 0xDBA9, offset: 0xDBA9, size: 0x8, addend: 0x0, symName: __ZNSt3__112basic_stringIcNS_11char_traitsIcEENS_9allocatorIcEEEC1B7v160006Ev, symObjAddr: 0x310, symBinAddr: 0x1000033F0, symSize: 0x2C }
  - { offsetInCU: 0xDBD3, offset: 0xDBD3, size: 0x8, addend: 0x0, symName: __ZNSt3__16vectorIxNS_9allocatorIxEEEC1Em, symObjAddr: 0x658, symBinAddr: 0x100003738, symSize: 0x34 }
  - { offsetInCU: 0xDC0E, offset: 0xDC0E, size: 0x8, addend: 0x0, symName: __ZNSt3__13mapIxxNS_4lessIxEENS_9allocatorINS_4pairIKxxEEEEEC1B7v160006Ev, symObjAddr: 0x68C, symBinAddr: 0x10000376C, symSize: 0x2C }
  - { offsetInCU: 0xDC38, offset: 0xDC38, size: 0x8, addend: 0x0, symName: __ZNSt3__13mapIxxNS_4lessIxEENS_9allocatorINS_4pairIKxxEEEEEixEOx, symObjAddr: 0x6B8, symBinAddr: 0x100003798, symSize: 0x80 }
  - { offsetInCU: 0xDC6F, offset: 0xDC6F, size: 0x8, addend: 0x0, symName: __ZNSt3__112basic_stringIcNS_11char_traitsIcEENS_9allocatorIcEEEixB7v160006Em, symObjAddr: 0x738, symBinAddr: 0x100003818, symSize: 0x30 }
  - { offsetInCU: 0xDCA4, offset: 0xDCA4, size: 0x8, addend: 0x0, symName: __ZNSt3__16vectorIxNS_9allocatorIxEEEixB7v160006Em, symObjAddr: 0x768, symBinAddr: 0x100003848, symSize: 0x24 }
  - { offsetInCU: 0xDCDB, offset: 0xDCDB, size: 0x8, addend: 0x0, symName: __ZNSt3__13mapIxxNS_4lessIxEENS_9allocatorINS_4pairIKxxEEEEED1B7v160006Ev, symObjAddr: 0x7C0, symBinAddr: 0x1000038A0, symSize: 0x2C }
  - { offsetInCU: 0xDD05, offset: 0xDD05, size: 0x8, addend: 0x0, symName: __ZNSt3__16vectorIxNS_9allocatorIxEEED1B7v160006Ev, symObjAddr: 0x7EC, symBinAddr: 0x1000038CC, symSize: 0x2C }
  - { offsetInCU: 0xDD2F, offset: 0xDD2F, size: 0x8, addend: 0x0, symName: _main, symObjAddr: 0x818, symBinAddr: 0x1000038F8, symSize: 0x84 }
  - { offsetInCU: 0xDD59, offset: 0xDD59, size: 0x8, addend: 0x0, symName: __ZNSt3__19basic_iosIcNS_11char_traitsIcEEE3tieB7v160006EPNS_13basic_ostreamIcS2_EE, symObjAddr: 0x89C, symBinAddr: 0x10000397C, symSize: 0x2C }
  - { offsetInCU: 0xDD9F, offset: 0xDD9F, size: 0x8, addend: 0x0, symName: __ZNSt3__112basic_stringIcNS_11char_traitsIcEENS_9allocatorIcEEEC2B7v160006Ev, symObjAddr: 0x8C8, symBinAddr: 0x1000039A8, symSize: 0x54 }
  - { offsetInCU: 0xDDCF, offset: 0xDDCF, size: 0x8, addend: 0x0, symName: __ZNSt3__117__compressed_pairINS_12basic_stringIcNS_11char_traitsIcEENS_9allocatorIcEEE5__repES5_EC1B7v160006INS_18__default_init_tagESA_EEOT_OT0_, symObjAddr: 0x91C, symBinAddr: 0x1000039FC, symSize: 0x3C }
  - { offsetInCU: 0xDE27, offset: 0xDE27, size: 0x8, addend: 0x0, symName: __ZNSt3__112basic_stringIcNS_11char_traitsIcEENS_9allocatorIcEEE14__default_initB7v160006Ev, symObjAddr: 0x974, symBinAddr: 0x100003A54, symSize: 0x40 }
  - { offsetInCU: 0xDE4D, offset: 0xDE4D, size: 0x8, addend: 0x0, symName: __ZNSt3__117__compressed_pairINS_12basic_stringIcNS_11char_traitsIcEENS_9allocatorIcEEE5__repES5_EC2B7v160006INS_18__default_init_tagESA_EEOT_OT0_, symObjAddr: 0x9B4, symBinAddr: 0x100003A94, symSize: 0x3C }
  - { offsetInCU: 0xDEA5, offset: 0xDEA5, size: 0x8, addend: 0x0, symName: __ZNSt3__122__compressed_pair_elemINS_12basic_stringIcNS_11char_traitsIcEENS_9allocatorIcEEE5__repELi0ELb0EEC2B7v160006ENS_18__default_init_tagE, symObjAddr: 0x9F0, symBinAddr: 0x100003AD0, symSize: 0x14 }
  - { offsetInCU: 0xDEDA, offset: 0xDEDA, size: 0x8, addend: 0x0, symName: __ZNSt3__122__compressed_pair_elemINS_9allocatorIcEELi1ELb1EEC2B7v160006ENS_18__default_init_tagE, symObjAddr: 0xA04, symBinAddr: 0x100003AE4, symSize: 0x2C }
  - { offsetInCU: 0xDF0F, offset: 0xDF0F, size: 0x8, addend: 0x0, symName: __ZNSt3__19allocatorIcEC2B7v160006Ev, symObjAddr: 0xA30, symBinAddr: 0x100003B10, symSize: 0x2C }
  - { offsetInCU: 0xDF39, offset: 0xDF39, size: 0x8, addend: 0x0, symName: __ZNSt3__116__non_trivial_ifILb1ENS_9allocatorIcEEEC2B7v160006Ev, symObjAddr: 0xA5C, symBinAddr: 0x100003B3C, symSize: 0x14 }
  - { offsetInCU: 0xDF63, offset: 0xDF63, size: 0x8, addend: 0x0, symName: __ZNSt3__117__compressed_pairINS_12basic_stringIcNS_11char_traitsIcEENS_9allocatorIcEEE5__repES5_E5firstB7v160006Ev, symObjAddr: 0xA70, symBinAddr: 0x100003B50, symSize: 0x24 }
  - { offsetInCU: 0xDF89, offset: 0xDF89, size: 0x8, addend: 0x0, symName: __ZNSt3__122__compressed_pair_elemINS_12basic_stringIcNS_11char_traitsIcEENS_9allocatorIcEEE5__repELi0ELb0EE5__getB7v160006Ev, symObjAddr: 0xA94, symBinAddr: 0x100003B74, symSize: 0x14 }
  - { offsetInCU: 0xDFAF, offset: 0xDFAF, size: 0x8, addend: 0x0, symName: __ZNSt3__16vectorIxNS_9allocatorIxEEEC2Em, symObjAddr: 0xAA8, symBinAddr: 0x100003B88, symSize: 0xE0 }
  - { offsetInCU: 0xE005, offset: 0xE005, size: 0x8, addend: 0x0, symName: __ZNSt3__117__compressed_pairIPxNS_9allocatorIxEEEC1B7v160006IDnNS_18__default_init_tagEEEOT_OT0_, symObjAddr: 0xB88, symBinAddr: 0x100003C68, symSize: 0x3C }
  - { offsetInCU: 0xE05D, offset: 0xE05D, size: 0x8, addend: 0x0, symName: __ZNSt3__16vectorIxNS_9allocatorIxEEE16__destroy_vectorC1ERS3_, symObjAddr: 0xC04, symBinAddr: 0x100003CE4, symSize: 0x34 }
  - { offsetInCU: 0xE096, offset: 0xE096, size: 0x8, addend: 0x0, symName: __ZNSt3__16vectorIxNS_9allocatorIxEEE11__vallocateB7v160006Em, symObjAddr: 0xC48, symBinAddr: 0x100003D28, symSize: 0xAC }
  - { offsetInCU: 0xE0DA, offset: 0xE0DA, size: 0x8, addend: 0x0, symName: __ZNSt3__16vectorIxNS_9allocatorIxEEE18__construct_at_endEm, symObjAddr: 0xCF4, symBinAddr: 0x100003DD4, symSize: 0xC8 }
  - { offsetInCU: 0xE14C, offset: 0xE14C, size: 0x8, addend: 0x0, symName: __ZNSt3__128__exception_guard_exceptionsINS_6vectorIxNS_9allocatorIxEEE16__destroy_vectorEE10__completeB7v160006Ev, symObjAddr: 0xDBC, symBinAddr: 0x100003E9C, symSize: 0x1C }
  - { offsetInCU: 0xE172, offset: 0xE172, size: 0x8, addend: 0x0, symName: __ZNSt3__128__exception_guard_exceptionsINS_6vectorIxNS_9allocatorIxEEE16__destroy_vectorEED1B7v160006Ev, symObjAddr: 0xDD8, symBinAddr: 0x100003EB8, symSize: 0x2C }
  - { offsetInCU: 0xE19C, offset: 0xE19C, size: 0x8, addend: 0x0, symName: __ZNSt3__117__compressed_pairIPxNS_9allocatorIxEEEC2B7v160006IDnNS_18__default_init_tagEEEOT_OT0_, symObjAddr: 0xE04, symBinAddr: 0x100003EE4, symSize: 0x40 }
  - { offsetInCU: 0xE1F4, offset: 0xE1F4, size: 0x8, addend: 0x0, symName: __ZNSt3__122__compressed_pair_elemIPxLi0ELb0EEC2B7v160006IDnvEEOT_, symObjAddr: 0xE44, symBinAddr: 0x100003F24, symSize: 0x1C }
  - { offsetInCU: 0xE236, offset: 0xE236, size: 0x8, addend: 0x0, symName: __ZNSt3__122__compressed_pair_elemINS_9allocatorIxEELi1ELb1EEC2B7v160006ENS_18__default_init_tagE, symObjAddr: 0xE60, symBinAddr: 0x100003F40, symSize: 0x2C }
  - { offsetInCU: 0xE26B, offset: 0xE26B, size: 0x8, addend: 0x0, symName: __ZNSt3__19allocatorIxEC2B7v160006Ev, symObjAddr: 0xE8C, symBinAddr: 0x100003F6C, symSize: 0x2C }
  - { offsetInCU: 0xE295, offset: 0xE295, size: 0x8, addend: 0x0, symName: __ZNSt3__116__non_trivial_ifILb1ENS_9allocatorIxEEEC2B7v160006Ev, symObjAddr: 0xEB8, symBinAddr: 0x100003F98, symSize: 0x14 }
  - { offsetInCU: 0xE2BF, offset: 0xE2BF, size: 0x8, addend: 0x0, symName: __ZNSt3__128__exception_guard_exceptionsINS_6vectorIxNS_9allocatorIxEEE16__destroy_vectorEEC1B7v160006ES5_, symObjAddr: 0xECC, symBinAddr: 0x100003FAC, symSize: 0x34 }
  - { offsetInCU: 0xE2F7, offset: 0xE2F7, size: 0x8, addend: 0x0, symName: __ZNSt3__128__exception_guard_exceptionsINS_6vectorIxNS_9allocatorIxEEE16__destroy_vectorEEC2B7v160006ES5_, symObjAddr: 0xF00, symBinAddr: 0x100003FE0, symSize: 0x24 }
  - { offsetInCU: 0xE32F, offset: 0xE32F, size: 0x8, addend: 0x0, symName: __ZNSt3__16vectorIxNS_9allocatorIxEEE16__destroy_vectorC2ERS3_, symObjAddr: 0xF24, symBinAddr: 0x100004004, symSize: 0x20 }
  - { offsetInCU: 0xE368, offset: 0xE368, size: 0x8, addend: 0x0, symName: __ZNKSt3__16vectorIxNS_9allocatorIxEEE8max_sizeEv, symObjAddr: 0xF44, symBinAddr: 0x100004024, symSize: 0x60 }
  - { offsetInCU: 0xE390, offset: 0xE390, size: 0x8, addend: 0x0, symName: __ZNKSt3__16vectorIxNS_9allocatorIxEEE20__throw_length_errorB7v160006Ev, symObjAddr: 0xFA4, symBinAddr: 0x100004084, symSize: 0x1C }
  - { offsetInCU: 0xE3B6, offset: 0xE3B6, size: 0x8, addend: 0x0, symName: __ZNSt3__16vectorIxNS_9allocatorIxEEE7__allocB7v160006Ev, symObjAddr: 0xFFC, symBinAddr: 0x1000040DC, symSize: 0x28 }
  - { offsetInCU: 0xE3DC, offset: 0xE3DC, size: 0x8, addend: 0x0, symName: __ZNSt3__16vectorIxNS_9allocatorIxEEE9__end_capB7v160006Ev, symObjAddr: 0x1024, symBinAddr: 0x100004104, symSize: 0x28 }
  - { offsetInCU: 0xE402, offset: 0xE402, size: 0x8, addend: 0x0, symName: __ZNKSt3__16vectorIxNS_9allocatorIxEEE14__annotate_newB7v160006Em, symObjAddr: 0x104C, symBinAddr: 0x10000412C, symSize: 0xAC }
  - { offsetInCU: 0xE441, offset: 0xE441, size: 0x8, addend: 0x0, symName: __ZNSt3__116allocator_traitsINS_9allocatorIxEEE8max_sizeB7v160006IS2_vvEEmRKS2_, symObjAddr: 0x1124, symBinAddr: 0x100004204, symSize: 0x28 }
  - { offsetInCU: 0xE46D, offset: 0xE46D, size: 0x8, addend: 0x0, symName: __ZNKSt3__16vectorIxNS_9allocatorIxEEE7__allocB7v160006Ev, symObjAddr: 0x114C, symBinAddr: 0x10000422C, symSize: 0x28 }
  - { offsetInCU: 0xE493, offset: 0xE493, size: 0x8, addend: 0x0, symName: __ZNSt3__114numeric_limitsIlE3maxB7v160006Ev, symObjAddr: 0x1174, symBinAddr: 0x100004254, symSize: 0x14 }
  - { offsetInCU: 0xE4B1, offset: 0xE4B1, size: 0x8, addend: 0x0, symName: __ZNKSt3__16__lessImmEclB7v160006ERKmS3_, symObjAddr: 0x11DC, symBinAddr: 0x1000042BC, symSize: 0x34 }
  - { offsetInCU: 0xE4F3, offset: 0xE4F3, size: 0x8, addend: 0x0, symName: __ZNSt3__114numeric_limitsImE3maxB7v160006Ev, symObjAddr: 0x1210, symBinAddr: 0x1000042F0, symSize: 0x14 }
  - { offsetInCU: 0xE507, offset: 0xE507, size: 0x8, addend: 0x0, symName: __ZNSt3__123__libcpp_numeric_limitsImLb1EE3maxB7v160006Ev, symObjAddr: 0x1224, symBinAddr: 0x100004304, symSize: 0x8 }
  - { offsetInCU: 0xE51B, offset: 0xE51B, size: 0x8, addend: 0x0, symName: __ZNKSt3__117__compressed_pairIPxNS_9allocatorIxEEE6secondB7v160006Ev, symObjAddr: 0x122C, symBinAddr: 0x10000430C, symSize: 0x24 }
  - { offsetInCU: 0xE541, offset: 0xE541, size: 0x8, addend: 0x0, symName: __ZNKSt3__122__compressed_pair_elemINS_9allocatorIxEELi1ELb1EE5__getB7v160006Ev, symObjAddr: 0x1250, symBinAddr: 0x100004330, symSize: 0x14 }
  - { offsetInCU: 0xE567, offset: 0xE567, size: 0x8, addend: 0x0, symName: __ZNSt3__123__libcpp_numeric_limitsIlLb1EE3maxB7v160006Ev, symObjAddr: 0x1264, symBinAddr: 0x100004344, symSize: 0x8 }
  - { offsetInCU: 0xE57B, offset: 0xE57B, size: 0x8, addend: 0x0, symName: __ZNSt12length_errorC1B7v160006EPKc, symObjAddr: 0x12D0, symBinAddr: 0x1000043B0, symSize: 0x34 }
  - { offsetInCU: 0xE5B3, offset: 0xE5B3, size: 0x8, addend: 0x0, symName: __ZNSt12length_errorC2B7v160006EPKc, symObjAddr: 0x1304, symBinAddr: 0x1000043E4, symSize: 0x4C }
  - { offsetInCU: 0xE5EB, offset: 0xE5EB, size: 0x8, addend: 0x0, symName: __ZNSt3__19allocatorIxE17allocate_at_leastB7v160006Em, symObjAddr: 0x138C, symBinAddr: 0x10000446C, symSize: 0x40 }
  - { offsetInCU: 0xE61F, offset: 0xE61F, size: 0x8, addend: 0x0, symName: __ZNSt3__19allocatorIxE8allocateB7v160006Em, symObjAddr: 0x13CC, symBinAddr: 0x1000044AC, symSize: 0x58 }
  - { offsetInCU: 0xE653, offset: 0xE653, size: 0x8, addend: 0x0, symName: __ZNSt3__117__compressed_pairIPxNS_9allocatorIxEEE6secondB7v160006Ev, symObjAddr: 0x1528, symBinAddr: 0x100004608, symSize: 0x24 }
  - { offsetInCU: 0xE679, offset: 0xE679, size: 0x8, addend: 0x0, symName: __ZNSt3__122__compressed_pair_elemINS_9allocatorIxEELi1ELb1EE5__getB7v160006Ev, symObjAddr: 0x154C, symBinAddr: 0x10000462C, symSize: 0x14 }
  - { offsetInCU: 0xE69F, offset: 0xE69F, size: 0x8, addend: 0x0, symName: __ZNSt3__117__compressed_pairIPxNS_9allocatorIxEEE5firstB7v160006Ev, symObjAddr: 0x1560, symBinAddr: 0x100004640, symSize: 0x24 }
  - { offsetInCU: 0xE6C5, offset: 0xE6C5, size: 0x8, addend: 0x0, symName: __ZNSt3__122__compressed_pair_elemIPxLi0ELb0EE5__getB7v160006Ev, symObjAddr: 0x1584, symBinAddr: 0x100004664, symSize: 0x14 }
  - { offsetInCU: 0xE6EB, offset: 0xE6EB, size: 0x8, addend: 0x0, symName: __ZNKSt3__16vectorIxNS_9allocatorIxEEE31__annotate_contiguous_containerB7v160006EPKvS5_S5_S5_, symObjAddr: 0x1598, symBinAddr: 0x100004678, symSize: 0x20 }
  - { offsetInCU: 0xE741, offset: 0xE741, size: 0x8, addend: 0x0, symName: __ZNKSt3__16vectorIxNS_9allocatorIxEEE4dataB7v160006Ev, symObjAddr: 0x15B8, symBinAddr: 0x100004698, symSize: 0x28 }
  - { offsetInCU: 0xE767, offset: 0xE767, size: 0x8, addend: 0x0, symName: __ZNKSt3__16vectorIxNS_9allocatorIxEEE8capacityB7v160006Ev, symObjAddr: 0x15E0, symBinAddr: 0x1000046C0, symSize: 0x40 }
  - { offsetInCU: 0xE78D, offset: 0xE78D, size: 0x8, addend: 0x0, symName: __ZNKSt3__16vectorIxNS_9allocatorIxEEE9__end_capB7v160006Ev, symObjAddr: 0x1634, symBinAddr: 0x100004714, symSize: 0x28 }
  - { offsetInCU: 0xE7B3, offset: 0xE7B3, size: 0x8, addend: 0x0, symName: __ZNKSt3__117__compressed_pairIPxNS_9allocatorIxEEE5firstB7v160006Ev, symObjAddr: 0x165C, symBinAddr: 0x10000473C, symSize: 0x24 }
  - { offsetInCU: 0xE7D9, offset: 0xE7D9, size: 0x8, addend: 0x0, symName: __ZNKSt3__122__compressed_pair_elemIPxLi0ELb0EE5__getB7v160006Ev, symObjAddr: 0x1680, symBinAddr: 0x100004760, symSize: 0x14 }
  - { offsetInCU: 0xE818, offset: 0xE818, size: 0x8, addend: 0x0, symName: __ZNSt3__16vectorIxNS_9allocatorIxEEE21_ConstructTransactionC1B7v160006ERS3_m, symObjAddr: 0x1694, symBinAddr: 0x100004774, symSize: 0x3C }
  - { offsetInCU: 0xE860, offset: 0xE860, size: 0x8, addend: 0x0, symName: __ZNSt3__116allocator_traitsINS_9allocatorIxEEE9constructB7v160006IxJEvvEEvRS2_PT_DpOT0_, symObjAddr: 0x16D0, symBinAddr: 0x1000047B0, symSize: 0x28 }
  - { offsetInCU: 0xE8A0, offset: 0xE8A0, size: 0x8, addend: 0x0, symName: __ZNSt3__16vectorIxNS_9allocatorIxEEE21_ConstructTransactionD1B7v160006Ev, symObjAddr: 0x16F8, symBinAddr: 0x1000047D8, symSize: 0x2C }
  - { offsetInCU: 0xE8CA, offset: 0xE8CA, size: 0x8, addend: 0x0, symName: __ZNSt3__16vectorIxNS_9allocatorIxEEE21_ConstructTransactionC2B7v160006ERS3_m, symObjAddr: 0x1724, symBinAddr: 0x100004804, symSize: 0x44 }
  - { offsetInCU: 0xE912, offset: 0xE912, size: 0x8, addend: 0x0, symName: __ZNSt3__16vectorIxNS_9allocatorIxEEE21_ConstructTransactionD2B7v160006Ev, symObjAddr: 0x1788, symBinAddr: 0x100004868, symSize: 0x20 }
  - { offsetInCU: 0xE93C, offset: 0xE93C, size: 0x8, addend: 0x0, symName: __ZNSt3__128__exception_guard_exceptionsINS_6vectorIxNS_9allocatorIxEEE16__destroy_vectorEED2B7v160006Ev, symObjAddr: 0x17A8, symBinAddr: 0x100004888, symSize: 0x50 }
  - { offsetInCU: 0xE966, offset: 0xE966, size: 0x8, addend: 0x0, symName: __ZNSt3__16vectorIxNS_9allocatorIxEEE16__destroy_vectorclB7v160006Ev, symObjAddr: 0x17F8, symBinAddr: 0x1000048D8, symSize: 0x9C }
  - { offsetInCU: 0xE98C, offset: 0xE98C, size: 0x8, addend: 0x0, symName: __ZNKSt3__16vectorIxNS_9allocatorIxEEE17__annotate_deleteB7v160006Ev, symObjAddr: 0x1894, symBinAddr: 0x100004974, symSize: 0xB8 }
  - { offsetInCU: 0xE9B2, offset: 0xE9B2, size: 0x8, addend: 0x0, symName: __ZNSt3__16vectorIxNS_9allocatorIxEEE7__clearB7v160006Ev, symObjAddr: 0x195C, symBinAddr: 0x100004A3C, symSize: 0x28 }
  - { offsetInCU: 0xE9D8, offset: 0xE9D8, size: 0x8, addend: 0x0, symName: __ZNSt3__116allocator_traitsINS_9allocatorIxEEE10deallocateB7v160006ERS2_Pxm, symObjAddr: 0x1984, symBinAddr: 0x100004A64, symSize: 0x34 }
  - { offsetInCU: 0xEA1A, offset: 0xEA1A, size: 0x8, addend: 0x0, symName: __ZNKSt3__16vectorIxNS_9allocatorIxEEE4sizeB7v160006Ev, symObjAddr: 0x19B8, symBinAddr: 0x100004A98, symSize: 0x28 }
  - { offsetInCU: 0xEA40, offset: 0xEA40, size: 0x8, addend: 0x0, symName: __ZNSt3__16vectorIxNS_9allocatorIxEEE22__base_destruct_at_endB7v160006EPx, symObjAddr: 0x19E0, symBinAddr: 0x100004AC0, symSize: 0x8C }
  - { offsetInCU: 0xEA84, offset: 0xEA84, size: 0x8, addend: 0x0, symName: __ZNSt3__116allocator_traitsINS_9allocatorIxEEE7destroyB7v160006IxvvEEvRS2_PT_, symObjAddr: 0x1A6C, symBinAddr: 0x100004B4C, symSize: 0x28 }
  - { offsetInCU: 0xEABF, offset: 0xEABF, size: 0x8, addend: 0x0, symName: __ZNSt3__19allocatorIxE10deallocateB7v160006EPxm, symObjAddr: 0x1AC8, symBinAddr: 0x100004BA8, symSize: 0x40 }
  - { offsetInCU: 0xEB01, offset: 0xEB01, size: 0x8, addend: 0x0, symName: __ZNSt3__112basic_stringIcNS_11char_traitsIcEENS_9allocatorIcEEE13__get_pointerB7v160006Ev, symObjAddr: 0x1C10, symBinAddr: 0x100004CF0, symSize: 0x54 }
  - { offsetInCU: 0xEB27, offset: 0xEB27, size: 0x8, addend: 0x0, symName: __ZNKSt3__112basic_stringIcNS_11char_traitsIcEENS_9allocatorIcEEE9__is_longB7v160006Ev, symObjAddr: 0x1C64, symBinAddr: 0x100004D44, symSize: 0x38 }
  - { offsetInCU: 0xEB4D, offset: 0xEB4D, size: 0x8, addend: 0x0, symName: __ZNSt3__112basic_stringIcNS_11char_traitsIcEENS_9allocatorIcEEE18__get_long_pointerB7v160006Ev, symObjAddr: 0x1C9C, symBinAddr: 0x100004D7C, symSize: 0x28 }
  - { offsetInCU: 0xEB73, offset: 0xEB73, size: 0x8, addend: 0x0, symName: __ZNSt3__112basic_stringIcNS_11char_traitsIcEENS_9allocatorIcEEE19__get_short_pointerB7v160006Ev, symObjAddr: 0x1CC4, symBinAddr: 0x100004DA4, symSize: 0x28 }
  - { offsetInCU: 0xEB99, offset: 0xEB99, size: 0x8, addend: 0x0, symName: __ZNKSt3__117__compressed_pairINS_12basic_stringIcNS_11char_traitsIcEENS_9allocatorIcEEE5__repES5_E5firstB7v160006Ev, symObjAddr: 0x1CEC, symBinAddr: 0x100004DCC, symSize: 0x24 }
  - { offsetInCU: 0xEBBF, offset: 0xEBBF, size: 0x8, addend: 0x0, symName: __ZNKSt3__122__compressed_pair_elemINS_12basic_stringIcNS_11char_traitsIcEENS_9allocatorIcEEE5__repELi0ELb0EE5__getB7v160006Ev, symObjAddr: 0x1D10, symBinAddr: 0x100004DF0, symSize: 0x14 }
  - { offsetInCU: 0xEBE5, offset: 0xEBE5, size: 0x8, addend: 0x0, symName: __ZNSt3__114pointer_traitsIPcE10pointer_toB7v160006ERc, symObjAddr: 0x1D24, symBinAddr: 0x100004E04, symSize: 0x14 }
  - { offsetInCU: 0xEC08, offset: 0xEC08, size: 0x8, addend: 0x0, symName: __ZNSt3__16vectorIxNS_9allocatorIxEEED2B7v160006Ev, symObjAddr: 0x1D38, symBinAddr: 0x100004E18, symSize: 0x44 }
  - { offsetInCU: 0xECB2, offset: 0xECB2, size: 0x8, addend: 0x0, symName: __ZNKSt3__113basic_istreamIcNS_11char_traitsIcEEE6sentrycvbB7v160006Ev, symObjAddr: 0x1D7C, symBinAddr: 0x100004E5C, symSize: 0x1C }
  - { offsetInCU: 0xECD8, offset: 0xECD8, size: 0x8, addend: 0x0, symName: __ZNSt3__112basic_stringIcNS_11char_traitsIcEENS_9allocatorIcEEE5clearB7v160006Ev, symObjAddr: 0x1D98, symBinAddr: 0x100004E78, symSize: 0x88 }
  - { offsetInCU: 0xED00, offset: 0xED00, size: 0x8, addend: 0x0, symName: __ZNKSt3__18ios_base5widthB7v160006Ev, symObjAddr: 0x1E20, symBinAddr: 0x100004F00, symSize: 0x18 }
  - { offsetInCU: 0xED28, offset: 0xED28, size: 0x8, addend: 0x0, symName: __ZNKSt3__112basic_stringIcNS_11char_traitsIcEENS_9allocatorIcEEE8max_sizeB7v160006Ev, symObjAddr: 0x1E38, symBinAddr: 0x100004F18, symSize: 0xAC }
  - { offsetInCU: 0xED7A, offset: 0xED7A, size: 0x8, addend: 0x0, symName: __ZNKSt3__19basic_iosIcNS_11char_traitsIcEEE5rdbufB7v160006Ev, symObjAddr: 0x1F10, symBinAddr: 0x100004FF0, symSize: 0x24 }
  - { offsetInCU: 0xEDA2, offset: 0xEDA2, size: 0x8, addend: 0x0, symName: __ZNSt3__115basic_streambufIcNS_11char_traitsIcEEE5sgetcB7v160006Ev, symObjAddr: 0x1F34, symBinAddr: 0x100005014, symSize: 0x70 }
  - { offsetInCU: 0xEDC8, offset: 0xEDC8, size: 0x8, addend: 0x0, symName: __ZNSt3__111char_traitsIcE11eq_int_typeEii, symObjAddr: 0x1FA4, symBinAddr: 0x100005084, symSize: 0x28 }
  - { offsetInCU: 0xEDF9, offset: 0xEDF9, size: 0x8, addend: 0x0, symName: __ZNSt3__111char_traitsIcE3eofEv, symObjAddr: 0x1FCC, symBinAddr: 0x1000050AC, symSize: 0x8 }
  - { offsetInCU: 0xEE0D, offset: 0xEE0D, size: 0x8, addend: 0x0, symName: __ZNSt3__111char_traitsIcE12to_char_typeEi, symObjAddr: 0x1FD4, symBinAddr: 0x1000050B4, symSize: 0x18 }
  - { offsetInCU: 0xEE5D, offset: 0xEE5D, size: 0x8, addend: 0x0, symName: __ZNKSt3__15ctypeIcE2isB7v160006Ejc, symObjAddr: 0x1FEC, symBinAddr: 0x1000050CC, symSize: 0x7C }
  - { offsetInCU: 0xEEA1, offset: 0xEEA1, size: 0x8, addend: 0x0, symName: __ZNSt3__115basic_streambufIcNS_11char_traitsIcEEE6sbumpcB7v160006Ev, symObjAddr: 0x2068, symBinAddr: 0x100005148, symSize: 0x78 }
  - { offsetInCU: 0xEEC7, offset: 0xEEC7, size: 0x8, addend: 0x0, symName: __ZNSt3__18ios_base5widthB7v160006El, symObjAddr: 0x20E0, symBinAddr: 0x1000051C0, symSize: 0x2C }
  - { offsetInCU: 0xEF0D, offset: 0xEF0D, size: 0x8, addend: 0x0, symName: __ZNSt3__18ios_base18__setstate_nothrowB7v160006Ej, symObjAddr: 0x210C, symBinAddr: 0x1000051EC, symSize: 0x64 }
  - { offsetInCU: 0xEF42, offset: 0xEF42, size: 0x8, addend: 0x0, symName: __ZNKSt3__19basic_iosIcNS_11char_traitsIcEEE10exceptionsB7v160006Ev, symObjAddr: 0x2170, symBinAddr: 0x100005250, symSize: 0x24 }
  - { offsetInCU: 0xEF68, offset: 0xEF68, size: 0x8, addend: 0x0, symName: __ZNSt3__19basic_iosIcNS_11char_traitsIcEEE8setstateB7v160006Ej, symObjAddr: 0x2194, symBinAddr: 0x100005274, symSize: 0x2C }
  - { offsetInCU: 0xEF9D, offset: 0xEF9D, size: 0x8, addend: 0x0, symName: __ZNSt3__111char_traitsIcE6assignERcRKc, symObjAddr: 0x21D0, symBinAddr: 0x1000052B0, symSize: 0x24 }
  - { offsetInCU: 0xEFCE, offset: 0xEFCE, size: 0x8, addend: 0x0, symName: __ZNSt3__112basic_stringIcNS_11char_traitsIcEENS_9allocatorIcEEE15__set_long_sizeB7v160006Em, symObjAddr: 0x21F4, symBinAddr: 0x1000052D4, symSize: 0x38 }
  - { offsetInCU: 0xF003, offset: 0xF003, size: 0x8, addend: 0x0, symName: __ZNSt3__112basic_stringIcNS_11char_traitsIcEENS_9allocatorIcEEE16__set_short_sizeB7v160006Em, symObjAddr: 0x222C, symBinAddr: 0x10000530C, symSize: 0x78 }
  - { offsetInCU: 0xF042, offset: 0xF042, size: 0x8, addend: 0x0, symName: __ZNSt3__116allocator_traitsINS_9allocatorIcEEE8max_sizeB7v160006IS2_vvEEmRKS2_, symObjAddr: 0x22A4, symBinAddr: 0x100005384, symSize: 0x28 }
  - { offsetInCU: 0xF06E, offset: 0xF06E, size: 0x8, addend: 0x0, symName: __ZNKSt3__112basic_stringIcNS_11char_traitsIcEENS_9allocatorIcEEE7__allocB7v160006Ev, symObjAddr: 0x22CC, symBinAddr: 0x1000053AC, symSize: 0x24 }
  - { offsetInCU: 0xF094, offset: 0xF094, size: 0x8, addend: 0x0, symName: __ZNKSt3__117__compressed_pairINS_12basic_stringIcNS_11char_traitsIcEENS_9allocatorIcEEE5__repES5_E6secondB7v160006Ev, symObjAddr: 0x22F0, symBinAddr: 0x1000053D0, symSize: 0x24 }
  - { offsetInCU: 0xF0BA, offset: 0xF0BA, size: 0x8, addend: 0x0, symName: __ZNKSt3__122__compressed_pair_elemINS_9allocatorIcEELi1ELb1EE5__getB7v160006Ev, symObjAddr: 0x2314, symBinAddr: 0x1000053F4, symSize: 0x14 }
  - { offsetInCU: 0xF0E0, offset: 0xF0E0, size: 0x8, addend: 0x0, symName: __ZNKSt3__18ios_base5rdbufB7v160006Ev, symObjAddr: 0x2328, symBinAddr: 0x100005408, symSize: 0x18 }
  - { offsetInCU: 0xF106, offset: 0xF106, size: 0x8, addend: 0x0, symName: __ZNSt3__111char_traitsIcE11to_int_typeEc, symObjAddr: 0x2340, symBinAddr: 0x100005420, symSize: 0x14 }
  - { offsetInCU: 0xF128, offset: 0xF128, size: 0x8, addend: 0x0, symName: __Z7isasciii, symObjAddr: 0x2354, symBinAddr: 0x100005434, symSize: 0x24 }
  - { offsetInCU: 0xF155, offset: 0xF155, size: 0x8, addend: 0x0, symName: __ZNKSt3__18ios_base10exceptionsB7v160006Ev, symObjAddr: 0x2378, symBinAddr: 0x100005458, symSize: 0x18 }
  - { offsetInCU: 0xF17D, offset: 0xF17D, size: 0x8, addend: 0x0, symName: __ZNSt3__18ios_base8setstateB7v160006Ej, symObjAddr: 0x2390, symBinAddr: 0x100005470, symSize: 0x34 }
  - { offsetInCU: 0xF1B4, offset: 0xF1B4, size: 0x8, addend: 0x0, symName: __ZNSt3__13mapIxxNS_4lessIxEENS_9allocatorINS_4pairIKxxEEEEEC2B7v160006Ev, symObjAddr: 0x23C4, symBinAddr: 0x1000054A4, symSize: 0x40 }
  - { offsetInCU: 0xF1DE, offset: 0xF1DE, size: 0x8, addend: 0x0, symName: __ZNSt3__119__map_value_compareIxNS_12__value_typeIxxEENS_4lessIxEELb1EEC1B7v160006ES4_, symObjAddr: 0x2404, symBinAddr: 0x1000054E4, symSize: 0x2C }
  - { offsetInCU: 0xF217, offset: 0xF217, size: 0x8, addend: 0x0, symName: __ZNSt3__16__treeINS_12__value_typeIxxEENS_19__map_value_compareIxS2_NS_4lessIxEELb1EEENS_9allocatorIS2_EEEC1ERKS6_, symObjAddr: 0x2430, symBinAddr: 0x100005510, symSize: 0x34 }
  - { offsetInCU: 0xF252, offset: 0xF252, size: 0x8, addend: 0x0, symName: __ZNSt3__119__map_value_compareIxNS_12__value_typeIxxEENS_4lessIxEELb1EEC2B7v160006ES4_, symObjAddr: 0x2464, symBinAddr: 0x100005544, symSize: 0x14 }
  - { offsetInCU: 0xF28B, offset: 0xF28B, size: 0x8, addend: 0x0, symName: __ZNSt3__16__treeINS_12__value_typeIxxEENS_19__map_value_compareIxS2_NS_4lessIxEELb1EEENS_9allocatorIS2_EEEC2ERKS6_, symObjAddr: 0x2478, symBinAddr: 0x100005558, symSize: 0x7C }
  - { offsetInCU: 0xF2C6, offset: 0xF2C6, size: 0x8, addend: 0x0, symName: __ZNSt3__117__compressed_pairINS_15__tree_end_nodeIPNS_16__tree_node_baseIPvEEEENS_9allocatorINS_11__tree_nodeINS_12__value_typeIxxEES3_EEEEEC1B7v160006ILb1EvEEv, symObjAddr: 0x24F4, symBinAddr: 0x1000055D4, symSize: 0x2C }
  - { offsetInCU: 0xF301, offset: 0xF301, size: 0x8, addend: 0x0, symName: __ZNSt3__117__compressed_pairImNS_19__map_value_compareIxNS_12__value_typeIxxEENS_4lessIxEELb1EEEEC1B7v160006IiRKS6_EEOT_OT0_, symObjAddr: 0x2520, symBinAddr: 0x100005600, symSize: 0x3C }
  - { offsetInCU: 0xF359, offset: 0xF359, size: 0x8, addend: 0x0, symName: __ZNSt3__16__treeINS_12__value_typeIxxEENS_19__map_value_compareIxS2_NS_4lessIxEELb1EEENS_9allocatorIS2_EEE10__end_nodeB7v160006Ev, symObjAddr: 0x255C, symBinAddr: 0x10000563C, symSize: 0x2C }
  - { offsetInCU: 0xF37F, offset: 0xF37F, size: 0x8, addend: 0x0, symName: __ZNSt3__16__treeINS_12__value_typeIxxEENS_19__map_value_compareIxS2_NS_4lessIxEELb1EEENS_9allocatorIS2_EEE12__begin_nodeB7v160006Ev, symObjAddr: 0x2588, symBinAddr: 0x100005668, symSize: 0x14 }
  - { offsetInCU: 0xF3A5, offset: 0xF3A5, size: 0x8, addend: 0x0, symName: __ZNSt3__117__compressed_pairINS_15__tree_end_nodeIPNS_16__tree_node_baseIPvEEEENS_9allocatorINS_11__tree_nodeINS_12__value_typeIxxEES3_EEEEEC2B7v160006ILb1EvEEv, symObjAddr: 0x259C, symBinAddr: 0x10000567C, symSize: 0x34 }
  - { offsetInCU: 0xF3DA, offset: 0xF3DA, size: 0x8, addend: 0x0, symName: __ZNSt3__122__compressed_pair_elemINS_15__tree_end_nodeIPNS_16__tree_node_baseIPvEEEELi0ELb0EEC2B7v160006ENS_16__value_init_tagE, symObjAddr: 0x25D0, symBinAddr: 0x1000056B0, symSize: 0x2C }
  - { offsetInCU: 0xF40F, offset: 0xF40F, size: 0x8, addend: 0x0, symName: __ZNSt3__122__compressed_pair_elemINS_9allocatorINS_11__tree_nodeINS_12__value_typeIxxEEPvEEEELi1ELb1EEC2B7v160006ENS_16__value_init_tagE, symObjAddr: 0x25FC, symBinAddr: 0x1000056DC, symSize: 0x2C }
  - { offsetInCU: 0xF444, offset: 0xF444, size: 0x8, addend: 0x0, symName: __ZNSt3__115__tree_end_nodeIPNS_16__tree_node_baseIPvEEEC1B7v160006Ev, symObjAddr: 0x2628, symBinAddr: 0x100005708, symSize: 0x2C }
  - { offsetInCU: 0xF46E, offset: 0xF46E, size: 0x8, addend: 0x0, symName: __ZNSt3__115__tree_end_nodeIPNS_16__tree_node_baseIPvEEEC2B7v160006Ev, symObjAddr: 0x2654, symBinAddr: 0x100005734, symSize: 0x18 }
  - { offsetInCU: 0xF498, offset: 0xF498, size: 0x8, addend: 0x0, symName: __ZNSt3__19allocatorINS_11__tree_nodeINS_12__value_typeIxxEEPvEEEC2B7v160006Ev, symObjAddr: 0x266C, symBinAddr: 0x10000574C, symSize: 0x2C }
  - { offsetInCU: 0xF4C2, offset: 0xF4C2, size: 0x8, addend: 0x0, symName: __ZNSt3__116__non_trivial_ifILb1ENS_9allocatorINS_11__tree_nodeINS_12__value_typeIxxEEPvEEEEEC2B7v160006Ev, symObjAddr: 0x2698, symBinAddr: 0x100005778, symSize: 0x14 }
  - { offsetInCU: 0xF4EC, offset: 0xF4EC, size: 0x8, addend: 0x0, symName: __ZNSt3__117__compressed_pairImNS_19__map_value_compareIxNS_12__value_typeIxxEENS_4lessIxEELb1EEEEC2B7v160006IiRKS6_EEOT_OT0_, symObjAddr: 0x26AC, symBinAddr: 0x10000578C, symSize: 0x44 }
  - { offsetInCU: 0xF544, offset: 0xF544, size: 0x8, addend: 0x0, symName: __ZNSt3__122__compressed_pair_elemImLi0ELb0EEC2B7v160006IivEEOT_, symObjAddr: 0x26F0, symBinAddr: 0x1000057D0, symSize: 0x24 }
  - { offsetInCU: 0xF586, offset: 0xF586, size: 0x8, addend: 0x0, symName: __ZNSt3__122__compressed_pair_elemINS_19__map_value_compareIxNS_12__value_typeIxxEENS_4lessIxEELb1EEELi1ELb1EEC2B7v160006IRKS6_vEEOT_, symObjAddr: 0x2714, symBinAddr: 0x1000057F4, symSize: 0x18 }
  - { offsetInCU: 0xF5C8, offset: 0xF5C8, size: 0x8, addend: 0x0, symName: __ZNSt3__114pointer_traitsIPNS_15__tree_end_nodeIPNS_16__tree_node_baseIPvEEEEE10pointer_toB7v160006ERS6_, symObjAddr: 0x272C, symBinAddr: 0x10000580C, symSize: 0x14 }
  - { offsetInCU: 0xF5EB, offset: 0xF5EB, size: 0x8, addend: 0x0, symName: __ZNSt3__117__compressed_pairINS_15__tree_end_nodeIPNS_16__tree_node_baseIPvEEEENS_9allocatorINS_11__tree_nodeINS_12__value_typeIxxEES3_EEEEE5firstB7v160006Ev, symObjAddr: 0x2740, symBinAddr: 0x100005820, symSize: 0x24 }
  - { offsetInCU: 0xF611, offset: 0xF611, size: 0x8, addend: 0x0, symName: __ZNSt3__122__compressed_pair_elemINS_15__tree_end_nodeIPNS_16__tree_node_baseIPvEEEELi0ELb0EE5__getB7v160006Ev, symObjAddr: 0x2764, symBinAddr: 0x100005844, symSize: 0x14 }
  - { offsetInCU: 0xF637, offset: 0xF637, size: 0x8, addend: 0x0, symName: __ZNSt3__13mapIxxNS_4lessIxEENS_9allocatorINS_4pairIKxxEEEEED2B7v160006Ev, symObjAddr: 0x2778, symBinAddr: 0x100005858, symSize: 0x2C }
  - { offsetInCU: 0xF661, offset: 0xF661, size: 0x8, addend: 0x0, symName: __ZNSt3__16__treeINS_12__value_typeIxxEENS_19__map_value_compareIxS2_NS_4lessIxEELb1EEENS_9allocatorIS2_EEED1Ev, symObjAddr: 0x27A4, symBinAddr: 0x100005884, symSize: 0x2C }
  - { offsetInCU: 0xF68D, offset: 0xF68D, size: 0x8, addend: 0x0, symName: __ZNSt3__16__treeINS_12__value_typeIxxEENS_19__map_value_compareIxS2_NS_4lessIxEELb1EEENS_9allocatorIS2_EEED2Ev, symObjAddr: 0x27D0, symBinAddr: 0x1000058B0, symSize: 0x38 }
  - { offsetInCU: 0xF6B9, offset: 0xF6B9, size: 0x8, addend: 0x0, symName: __ZNSt3__16__treeINS_12__value_typeIxxEENS_19__map_value_compareIxS2_NS_4lessIxEELb1EEENS_9allocatorIS2_EEE7destroyEPNS_11__tree_nodeIS2_PvEE, symObjAddr: 0x2808, symBinAddr: 0x1000058E8, symSize: 0xAC }
  - { offsetInCU: 0xF705, offset: 0xF705, size: 0x8, addend: 0x0, symName: __ZNKSt3__16__treeINS_12__value_typeIxxEENS_19__map_value_compareIxS2_NS_4lessIxEELb1EEENS_9allocatorIS2_EEE6__rootB7v160006Ev, symObjAddr: 0x28B4, symBinAddr: 0x100005994, symSize: 0x28 }
  - { offsetInCU: 0xF72B, offset: 0xF72B, size: 0x8, addend: 0x0, symName: __ZNSt3__16__treeINS_12__value_typeIxxEENS_19__map_value_compareIxS2_NS_4lessIxEELb1EEENS_9allocatorIS2_EEE12__node_allocB7v160006Ev, symObjAddr: 0x28DC, symBinAddr: 0x1000059BC, symSize: 0x28 }
  - { offsetInCU: 0xF751, offset: 0xF751, size: 0x8, addend: 0x0, symName: __ZNSt3__116allocator_traitsINS_9allocatorINS_11__tree_nodeINS_12__value_typeIxxEEPvEEEEE7destroyB7v160006INS_4pairIKxxEEvvEEvRS7_PT_, symObjAddr: 0x2904, symBinAddr: 0x1000059E4, symSize: 0x28 }
  - { offsetInCU: 0xF78C, offset: 0xF78C, size: 0x8, addend: 0x0, symName: __ZNSt3__122__tree_key_value_typesINS_12__value_typeIxxEEE9__get_ptrB7v160006ERS2_, symObjAddr: 0x292C, symBinAddr: 0x100005A0C, symSize: 0x24 }
  - { offsetInCU: 0xF7B0, offset: 0xF7B0, size: 0x8, addend: 0x0, symName: __ZNSt3__116allocator_traitsINS_9allocatorINS_11__tree_nodeINS_12__value_typeIxxEEPvEEEEE10deallocateB7v160006ERS7_PS6_m, symObjAddr: 0x2950, symBinAddr: 0x100005A30, symSize: 0x34 }
  - { offsetInCU: 0xF7F2, offset: 0xF7F2, size: 0x8, addend: 0x0, symName: __ZNSt3__117__compressed_pairINS_15__tree_end_nodeIPNS_16__tree_node_baseIPvEEEENS_9allocatorINS_11__tree_nodeINS_12__value_typeIxxEES3_EEEEE6secondB7v160006Ev, symObjAddr: 0x2984, symBinAddr: 0x100005A64, symSize: 0x24 }
  - { offsetInCU: 0xF818, offset: 0xF818, size: 0x8, addend: 0x0, symName: __ZNSt3__122__compressed_pair_elemINS_9allocatorINS_11__tree_nodeINS_12__value_typeIxxEEPvEEEELi1ELb1EE5__getB7v160006Ev, symObjAddr: 0x29A8, symBinAddr: 0x100005A88, symSize: 0x14 }
  - { offsetInCU: 0xF83E, offset: 0xF83E, size: 0x8, addend: 0x0, symName: __ZNSt3__112__value_typeIxxE11__get_valueB7v160006Ev, symObjAddr: 0x29F0, symBinAddr: 0x100005AD0, symSize: 0x24 }
  - { offsetInCU: 0xF864, offset: 0xF864, size: 0x8, addend: 0x0, symName: __ZNSt3__19allocatorINS_11__tree_nodeINS_12__value_typeIxxEEPvEEE10deallocateB7v160006EPS5_m, symObjAddr: 0x2A4C, symBinAddr: 0x100005B2C, symSize: 0x44 }
  - { offsetInCU: 0xF8A6, offset: 0xF8A6, size: 0x8, addend: 0x0, symName: __ZNKSt3__16__treeINS_12__value_typeIxxEENS_19__map_value_compareIxS2_NS_4lessIxEELb1EEENS_9allocatorIS2_EEE10__end_nodeB7v160006Ev, symObjAddr: 0x2A90, symBinAddr: 0x100005B70, symSize: 0x2C }
  - { offsetInCU: 0xF8CC, offset: 0xF8CC, size: 0x8, addend: 0x0, symName: __ZNKSt3__117__compressed_pairINS_15__tree_end_nodeIPNS_16__tree_node_baseIPvEEEENS_9allocatorINS_11__tree_nodeINS_12__value_typeIxxEES3_EEEEE5firstB7v160006Ev, symObjAddr: 0x2ABC, symBinAddr: 0x100005B9C, symSize: 0x24 }
  - { offsetInCU: 0xF8F2, offset: 0xF8F2, size: 0x8, addend: 0x0, symName: __ZNKSt3__122__compressed_pair_elemINS_15__tree_end_nodeIPNS_16__tree_node_baseIPvEEEELi0ELb0EE5__getB7v160006Ev, symObjAddr: 0x2AE0, symBinAddr: 0x100005BC0, symSize: 0x14 }
  - { offsetInCU: 0xF93C, offset: 0xF93C, size: 0x8, addend: 0x0, symName: __ZNSt3__16__treeINS_12__value_typeIxxEENS_19__map_value_compareIxS2_NS_4lessIxEELb1EEENS_9allocatorIS2_EEE25__emplace_unique_key_argsIxJRKNS_21piecewise_construct_tENS_5tupleIJOxEEENSE_IJEEEEEENS_4pairINS_15__tree_iteratorIS2_PNS_11__tree_nodeIS2_PvEElEEbEERKT_DpOT0_, symObjAddr: 0x2AF4, symBinAddr: 0x100005BD4, symSize: 0x100 }
  - { offsetInCU: 0xFA12, offset: 0xFA12, size: 0x8, addend: 0x0, symName: __ZNKSt3__115__tree_iteratorINS_12__value_typeIxxEEPNS_11__tree_nodeIS2_PvEElEptB7v160006Ev, symObjAddr: 0x2C24, symBinAddr: 0x100005D04, symSize: 0x2C }
  - { offsetInCU: 0xFA38, offset: 0xFA38, size: 0x8, addend: 0x0, symName: __ZNSt3__16__treeINS_12__value_typeIxxEENS_19__map_value_compareIxS2_NS_4lessIxEELb1EEENS_9allocatorIS2_EEE12__find_equalIxEERPNS_16__tree_node_baseIPvEERPNS_15__tree_end_nodeISE_EERKT_, symObjAddr: 0x2C50, symBinAddr: 0x100005D30, symSize: 0x184 }
  - { offsetInCU: 0xFAA5, offset: 0xFAA5, size: 0x8, addend: 0x0, symName: __ZNSt3__16__treeINS_12__value_typeIxxEENS_19__map_value_compareIxS2_NS_4lessIxEELb1EEENS_9allocatorIS2_EEE16__construct_nodeIJRKNS_21piecewise_construct_tENS_5tupleIJOxEEENSE_IJEEEEEENS_10unique_ptrINS_11__tree_nodeIS2_PvEENS_22__tree_node_destructorINS7_ISL_EEEEEEDpOT_, symObjAddr: 0x2DD4, symBinAddr: 0x100005EB4, symSize: 0x120 }
  - { offsetInCU: 0xFB2E, offset: 0xFB2E, size: 0x8, addend: 0x0, symName: __ZNSt3__16__treeINS_12__value_typeIxxEENS_19__map_value_compareIxS2_NS_4lessIxEELb1EEENS_9allocatorIS2_EEE16__insert_node_atEPNS_15__tree_end_nodeIPNS_16__tree_node_baseIPvEEEERSE_SE_, symObjAddr: 0x2EF4, symBinAddr: 0x100005FD4, symSize: 0xCC }
  - { offsetInCU: 0xFB83, offset: 0xFB83, size: 0x8, addend: 0x0, symName: __ZNKSt3__110unique_ptrINS_11__tree_nodeINS_12__value_typeIxxEEPvEENS_22__tree_node_destructorINS_9allocatorIS5_EEEEE3getB7v160006Ev, symObjAddr: 0x2FC0, symBinAddr: 0x1000060A0, symSize: 0x28 }
  - { offsetInCU: 0xFBA9, offset: 0xFBA9, size: 0x8, addend: 0x0, symName: __ZNSt3__110unique_ptrINS_11__tree_nodeINS_12__value_typeIxxEEPvEENS_22__tree_node_destructorINS_9allocatorIS5_EEEEE7releaseB7v160006Ev, symObjAddr: 0x2FE8, symBinAddr: 0x1000060C8, symSize: 0x44 }
  - { offsetInCU: 0xFBDE, offset: 0xFBDE, size: 0x8, addend: 0x0, symName: __ZNSt3__110unique_ptrINS_11__tree_nodeINS_12__value_typeIxxEEPvEENS_22__tree_node_destructorINS_9allocatorIS5_EEEEED1B7v160006Ev, symObjAddr: 0x302C, symBinAddr: 0x10000610C, symSize: 0x2C }
  - { offsetInCU: 0xFC08, offset: 0xFC08, size: 0x8, addend: 0x0, symName: __ZNSt3__115__tree_iteratorINS_12__value_typeIxxEEPNS_11__tree_nodeIS2_PvEElEC1B7v160006ES6_, symObjAddr: 0x3058, symBinAddr: 0x100006138, symSize: 0x34 }
  - { offsetInCU: 0xFC47, offset: 0xFC47, size: 0x8, addend: 0x0, symName: __ZNSt3__14pairINS_15__tree_iteratorINS_12__value_typeIxxEEPNS_11__tree_nodeIS3_PvEElEEbEC1B7v160006IS8_RbLS5_0EEEOT_OT0_, symObjAddr: 0x308C, symBinAddr: 0x10000616C, symSize: 0x3C }
  - { offsetInCU: 0xFCA5, offset: 0xFCA5, size: 0x8, addend: 0x0, symName: __ZNKSt3__16__treeINS_12__value_typeIxxEENS_19__map_value_compareIxS2_NS_4lessIxEELb1EEENS_9allocatorIS2_EEE10__root_ptrEv, symObjAddr: 0x30C8, symBinAddr: 0x1000061A8, symSize: 0x24 }
  - { offsetInCU: 0xFCCB, offset: 0xFCCB, size: 0x8, addend: 0x0, symName: __ZNSt3__16__treeINS_12__value_typeIxxEENS_19__map_value_compareIxS2_NS_4lessIxEELb1EEENS_9allocatorIS2_EEE10value_compB7v160006Ev, symObjAddr: 0x30EC, symBinAddr: 0x1000061CC, symSize: 0x28 }
  - { offsetInCU: 0xFCF1, offset: 0xFCF1, size: 0x8, addend: 0x0, symName: __ZNKSt3__119__map_value_compareIxNS_12__value_typeIxxEENS_4lessIxEELb1EEclB7v160006ERKxRKS2_, symObjAddr: 0x3114, symBinAddr: 0x1000061F4, symSize: 0x50 }
  - { offsetInCU: 0xFD35, offset: 0xFD35, size: 0x8, addend: 0x0, symName: __ZNKSt3__119__map_value_compareIxNS_12__value_typeIxxEENS_4lessIxEELb1EEclB7v160006ERKS2_RKx, symObjAddr: 0x3164, symBinAddr: 0x100006244, symSize: 0x48 }
  - { offsetInCU: 0xFD79, offset: 0xFD79, size: 0x8, addend: 0x0, symName: __ZNSt3__117__compressed_pairImNS_19__map_value_compareIxNS_12__value_typeIxxEENS_4lessIxEELb1EEEE6secondB7v160006Ev, symObjAddr: 0x31AC, symBinAddr: 0x10000628C, symSize: 0x24 }
  - { offsetInCU: 0xFD9F, offset: 0xFD9F, size: 0x8, addend: 0x0, symName: __ZNSt3__122__compressed_pair_elemINS_19__map_value_compareIxNS_12__value_typeIxxEENS_4lessIxEELb1EEELi1ELb1EE5__getB7v160006Ev, symObjAddr: 0x31D0, symBinAddr: 0x1000062B0, symSize: 0x14 }
  - { offsetInCU: 0xFDC5, offset: 0xFDC5, size: 0x8, addend: 0x0, symName: __ZNKSt3__14lessIxEclB7v160006ERKxS3_, symObjAddr: 0x31E4, symBinAddr: 0x1000062C4, symSize: 0x34 }
  - { offsetInCU: 0xFE09, offset: 0xFE09, size: 0x8, addend: 0x0, symName: __ZNKSt3__112__value_typeIxxE11__get_valueB7v160006Ev, symObjAddr: 0x3218, symBinAddr: 0x1000062F8, symSize: 0x24 }
  - { offsetInCU: 0xFE2F, offset: 0xFE2F, size: 0x8, addend: 0x0, symName: __ZNSt3__116allocator_traitsINS_9allocatorINS_11__tree_nodeINS_12__value_typeIxxEEPvEEEEE8allocateB7v160006ERS7_m, symObjAddr: 0x3274, symBinAddr: 0x100006354, symSize: 0x2C }
  - { offsetInCU: 0xFE62, offset: 0xFE62, size: 0x8, addend: 0x0, symName: __ZNSt3__122__tree_node_destructorINS_9allocatorINS_11__tree_nodeINS_12__value_typeIxxEEPvEEEEEC1B7v160006ERS7_b, symObjAddr: 0x32A0, symBinAddr: 0x100006380, symSize: 0x48 }
  - { offsetInCU: 0xFEB0, offset: 0xFEB0, size: 0x8, addend: 0x0, symName: __ZNSt3__110unique_ptrINS_11__tree_nodeINS_12__value_typeIxxEEPvEENS_22__tree_node_destructorINS_9allocatorIS5_EEEEEC1B7v160006ILb1EvEEPS5_NS_16__dependent_typeINS_27__unique_ptr_deleter_sfinaeIS9_EEXT_EE20__good_rval_ref_typeE, symObjAddr: 0x32E8, symBinAddr: 0x1000063C8, symSize: 0x3C }
  - { offsetInCU: 0xFF01, offset: 0xFF01, size: 0x8, addend: 0x0, symName: __ZNSt3__116allocator_traitsINS_9allocatorINS_11__tree_nodeINS_12__value_typeIxxEEPvEEEEE9constructB7v160006INS_4pairIKxxEEJRKNS_21piecewise_construct_tENS_5tupleIJOxEEENSG_IJEEEEvvEEvRS7_PT_DpOT0_, symObjAddr: 0x3324, symBinAddr: 0x100006404, symSize: 0x40 }
  - { offsetInCU: 0xFF7E, offset: 0xFF7E, size: 0x8, addend: 0x0, symName: __ZNKSt3__110unique_ptrINS_11__tree_nodeINS_12__value_typeIxxEEPvEENS_22__tree_node_destructorINS_9allocatorIS5_EEEEEptB7v160006Ev, symObjAddr: 0x3364, symBinAddr: 0x100006444, symSize: 0x28 }
  - { offsetInCU: 0xFFA4, offset: 0xFFA4, size: 0x8, addend: 0x0, symName: __ZNSt3__110unique_ptrINS_11__tree_nodeINS_12__value_typeIxxEEPvEENS_22__tree_node_destructorINS_9allocatorIS5_EEEEE11get_deleterB7v160006Ev, symObjAddr: 0x338C, symBinAddr: 0x10000646C, symSize: 0x24 }
  - { offsetInCU: 0xFFCA, offset: 0xFFCA, size: 0x8, addend: 0x0, symName: __ZNSt3__19allocatorINS_11__tree_nodeINS_12__value_typeIxxEEPvEEE8allocateB7v160006Em, symObjAddr: 0x33B0, symBinAddr: 0x100006490, symSize: 0x5C }
  - { offsetInCU: 0x10008, offset: 0x10008, size: 0x8, addend: 0x0, symName: __ZNSt3__116allocator_traitsINS_9allocatorINS_11__tree_nodeINS_12__value_typeIxxEEPvEEEEE8max_sizeB7v160006IS7_vvEEmRKS7_, symObjAddr: 0x340C, symBinAddr: 0x1000064EC, symSize: 0x28 }
  - { offsetInCU: 0x10034, offset: 0x10034, size: 0x8, addend: 0x0, symName: __ZNSt3__122__tree_node_destructorINS_9allocatorINS_11__tree_nodeINS_12__value_typeIxxEEPvEEEEEC2B7v160006ERS7_b, symObjAddr: 0x3434, symBinAddr: 0x100006514, symSize: 0x38 }
  - { offsetInCU: 0x1007C, offset: 0x1007C, size: 0x8, addend: 0x0, symName: __ZNSt3__110unique_ptrINS_11__tree_nodeINS_12__value_typeIxxEEPvEENS_22__tree_node_destructorINS_9allocatorIS5_EEEEEC2B7v160006ILb1EvEEPS5_NS_16__dependent_typeINS_27__unique_ptr_deleter_sfinaeIS9_EEXT_EE20__good_rval_ref_typeE, symObjAddr: 0x346C, symBinAddr: 0x10000654C, symSize: 0x48 }
  - { offsetInCU: 0x100CD, offset: 0x100CD, size: 0x8, addend: 0x0, symName: __ZNSt3__117__compressed_pairIPNS_11__tree_nodeINS_12__value_typeIxxEEPvEENS_22__tree_node_destructorINS_9allocatorIS5_EEEEEC1B7v160006IRS6_SA_EEOT_OT0_, symObjAddr: 0x34B4, symBinAddr: 0x100006594, symSize: 0x3C }
  - { offsetInCU: 0x10125, offset: 0x10125, size: 0x8, addend: 0x0, symName: __ZNSt3__117__compressed_pairIPNS_11__tree_nodeINS_12__value_typeIxxEEPvEENS_22__tree_node_destructorINS_9allocatorIS5_EEEEEC2B7v160006IRS6_SA_EEOT_OT0_, symObjAddr: 0x34F0, symBinAddr: 0x1000065D0, symSize: 0x48 }
  - { offsetInCU: 0x1017D, offset: 0x1017D, size: 0x8, addend: 0x0, symName: __ZNSt3__122__compressed_pair_elemIPNS_11__tree_nodeINS_12__value_typeIxxEEPvEELi0ELb0EEC2B7v160006IRS6_vEEOT_, symObjAddr: 0x3538, symBinAddr: 0x100006618, symSize: 0x24 }
  - { offsetInCU: 0x101BF, offset: 0x101BF, size: 0x8, addend: 0x0, symName: __ZNSt3__122__compressed_pair_elemINS_22__tree_node_destructorINS_9allocatorINS_11__tree_nodeINS_12__value_typeIxxEEPvEEEEEELi1ELb0EEC2B7v160006IS9_vEEOT_, symObjAddr: 0x355C, symBinAddr: 0x10000663C, symSize: 0x24 }
  - { offsetInCU: 0x10201, offset: 0x10201, size: 0x8, addend: 0x0, symName: __ZNSt3__14pairIKxxEC1B7v160006IJOxEJEEENS_21piecewise_construct_tENS_5tupleIJDpT_EEENS6_IJDpT0_EEE, symObjAddr: 0x35D0, symBinAddr: 0x1000066B0, symSize: 0x44 }
  - { offsetInCU: 0x10268, offset: 0x10268, size: 0x8, addend: 0x0, symName: __ZNSt3__14pairIKxxEC1B7v160006IJOxEJEJLm0EEJEEENS_21piecewise_construct_tERNS_5tupleIJDpT_EEERNS6_IJDpT0_EEENS_15__tuple_indicesIJXspT1_EEEENSF_IJXspT2_EEEE, symObjAddr: 0x3614, symBinAddr: 0x1000066F4, symSize: 0x3C }
  - { offsetInCU: 0x102F8, offset: 0x102F8, size: 0x8, addend: 0x0, symName: __ZNSt3__14pairIKxxEC2B7v160006IJOxEJEJLm0EEJEEENS_21piecewise_construct_tERNS_5tupleIJDpT_EEERNS6_IJDpT0_EEENS_15__tuple_indicesIJXspT1_EEEENSF_IJXspT2_EEEE, symObjAddr: 0x3650, symBinAddr: 0x100006730, symSize: 0x48 }
  - { offsetInCU: 0x10388, offset: 0x10388, size: 0x8, addend: 0x0, symName: __ZNSt3__112__tuple_leafILm0EOxLb0EE3getB7v160006Ev, symObjAddr: 0x36BC, symBinAddr: 0x10000679C, symSize: 0x18 }
  - { offsetInCU: 0x103AE, offset: 0x103AE, size: 0x8, addend: 0x0, symName: __ZNKSt3__117__compressed_pairIPNS_11__tree_nodeINS_12__value_typeIxxEEPvEENS_22__tree_node_destructorINS_9allocatorIS5_EEEEE5firstB7v160006Ev, symObjAddr: 0x36D4, symBinAddr: 0x1000067B4, symSize: 0x24 }
  - { offsetInCU: 0x103D4, offset: 0x103D4, size: 0x8, addend: 0x0, symName: __ZNKSt3__122__compressed_pair_elemIPNS_11__tree_nodeINS_12__value_typeIxxEEPvEELi0ELb0EE5__getB7v160006Ev, symObjAddr: 0x36F8, symBinAddr: 0x1000067D8, symSize: 0x14 }
  - { offsetInCU: 0x103FA, offset: 0x103FA, size: 0x8, addend: 0x0, symName: __ZNSt3__117__compressed_pairIPNS_11__tree_nodeINS_12__value_typeIxxEEPvEENS_22__tree_node_destructorINS_9allocatorIS5_EEEEE6secondB7v160006Ev, symObjAddr: 0x370C, symBinAddr: 0x1000067EC, symSize: 0x28 }
  - { offsetInCU: 0x10420, offset: 0x10420, size: 0x8, addend: 0x0, symName: __ZNSt3__122__compressed_pair_elemINS_22__tree_node_destructorINS_9allocatorINS_11__tree_nodeINS_12__value_typeIxxEEPvEEEEEELi1ELb0EE5__getB7v160006Ev, symObjAddr: 0x3734, symBinAddr: 0x100006814, symSize: 0x14 }
  - { offsetInCU: 0x10446, offset: 0x10446, size: 0x8, addend: 0x0, symName: __ZNSt3__16__treeINS_12__value_typeIxxEENS_19__map_value_compareIxS2_NS_4lessIxEELb1EEENS_9allocatorIS2_EEE4sizeB7v160006Ev, symObjAddr: 0x3A74, symBinAddr: 0x100006B54, symSize: 0x28 }
  - { offsetInCU: 0x1046C, offset: 0x1046C, size: 0x8, addend: 0x0, symName: __ZNKSt3__116__tree_node_baseIPvE15__parent_unsafeB7v160006Ev, symObjAddr: 0x3A9C, symBinAddr: 0x100006B7C, symSize: 0x18 }
  - { offsetInCU: 0x10492, offset: 0x10492, size: 0x8, addend: 0x0, symName: __ZNSt3__116__tree_node_baseIPvE12__set_parentB7v160006EPS2_, symObjAddr: 0x3C84, symBinAddr: 0x100006D64, symSize: 0x20 }
  - { offsetInCU: 0x104C7, offset: 0x104C7, size: 0x8, addend: 0x0, symName: __ZNSt3__117__compressed_pairImNS_19__map_value_compareIxNS_12__value_typeIxxEENS_4lessIxEELb1EEEE5firstB7v160006Ev, symObjAddr: 0x3CA4, symBinAddr: 0x100006D84, symSize: 0x24 }
  - { offsetInCU: 0x104ED, offset: 0x104ED, size: 0x8, addend: 0x0, symName: __ZNSt3__122__compressed_pair_elemImLi0ELb0EE5__getB7v160006Ev, symObjAddr: 0x3CC8, symBinAddr: 0x100006DA8, symSize: 0x14 }
  - { offsetInCU: 0x10513, offset: 0x10513, size: 0x8, addend: 0x0, symName: __ZNSt3__117__compressed_pairIPNS_11__tree_nodeINS_12__value_typeIxxEEPvEENS_22__tree_node_destructorINS_9allocatorIS5_EEEEE5firstB7v160006Ev, symObjAddr: 0x3CDC, symBinAddr: 0x100006DBC, symSize: 0x24 }
  - { offsetInCU: 0x10539, offset: 0x10539, size: 0x8, addend: 0x0, symName: __ZNSt3__122__compressed_pair_elemIPNS_11__tree_nodeINS_12__value_typeIxxEEPvEELi0ELb0EE5__getB7v160006Ev, symObjAddr: 0x3D00, symBinAddr: 0x100006DE0, symSize: 0x14 }
  - { offsetInCU: 0x1055F, offset: 0x1055F, size: 0x8, addend: 0x0, symName: __ZNSt3__110unique_ptrINS_11__tree_nodeINS_12__value_typeIxxEEPvEENS_22__tree_node_destructorINS_9allocatorIS5_EEEEED2B7v160006Ev, symObjAddr: 0x3D14, symBinAddr: 0x100006DF4, symSize: 0x30 }
  - { offsetInCU: 0x10589, offset: 0x10589, size: 0x8, addend: 0x0, symName: __ZNSt3__110unique_ptrINS_11__tree_nodeINS_12__value_typeIxxEEPvEENS_22__tree_node_destructorINS_9allocatorIS5_EEEEE5resetB7v160006EPS5_, symObjAddr: 0x3D44, symBinAddr: 0x100006E24, symSize: 0x78 }
  - { offsetInCU: 0x105CD, offset: 0x105CD, size: 0x8, addend: 0x0, symName: __ZNSt3__122__tree_node_destructorINS_9allocatorINS_11__tree_nodeINS_12__value_typeIxxEEPvEEEEEclB7v160006EPS6_, symObjAddr: 0x3DBC, symBinAddr: 0x100006E9C, symSize: 0x98 }
  - { offsetInCU: 0x10602, offset: 0x10602, size: 0x8, addend: 0x0, symName: __ZNSt3__115__tree_iteratorINS_12__value_typeIxxEEPNS_11__tree_nodeIS2_PvEElEC2B7v160006ES6_, symObjAddr: 0x3E54, symBinAddr: 0x100006F34, symSize: 0x20 }
  - { offsetInCU: 0x1063B, offset: 0x1063B, size: 0x8, addend: 0x0, symName: __ZNSt3__14pairINS_15__tree_iteratorINS_12__value_typeIxxEEPNS_11__tree_nodeIS3_PvEElEEbEC2B7v160006IS8_RbLS5_0EEEOT_OT0_, symObjAddr: 0x3E74, symBinAddr: 0x100006F54, symSize: 0x38 }
  - { offsetInCU: 0x10699, offset: 0x10699, size: 0x8, addend: 0x0, symName: __ZNSt3__15tupleIJOxEEC1B7v160006IJxELi0EEEDpOT_, symObjAddr: 0x3EAC, symBinAddr: 0x100006F8C, symSize: 0x34 }
  - { offsetInCU: 0x106E3, offset: 0x106E3, size: 0x8, addend: 0x0, symName: __ZNSt3__15tupleIJOxEEC2B7v160006IJxELi0EEEDpOT_, symObjAddr: 0x3EE0, symBinAddr: 0x100006FC0, symSize: 0x34 }
  - { offsetInCU: 0x1072D, offset: 0x1072D, size: 0x8, addend: 0x0, symName: __ZNSt3__112__tuple_implINS_15__tuple_indicesIJLm0EEEEJOxEEC1B7v160006IJLm0EEJS3_EJEJEJxEEENS1_IJXspT_EEEENS_13__tuple_typesIJDpT0_EEENS1_IJXspT1_EEEENS7_IJDpT2_EEEDpOT3_, symObjAddr: 0x3F14, symBinAddr: 0x100006FF4, symSize: 0x34 }
  - { offsetInCU: 0x107C2, offset: 0x107C2, size: 0x8, addend: 0x0, symName: __ZNSt3__112__tuple_implINS_15__tuple_indicesIJLm0EEEEJOxEEC2B7v160006IJLm0EEJS3_EJEJEJxEEENS1_IJXspT_EEEENS_13__tuple_typesIJDpT0_EEENS1_IJXspT1_EEEENS7_IJDpT2_EEEDpOT3_, symObjAddr: 0x3F48, symBinAddr: 0x100007028, symSize: 0x34 }
  - { offsetInCU: 0x10857, offset: 0x10857, size: 0x8, addend: 0x0, symName: __ZNSt3__112__tuple_leafILm0EOxLb0EEC2B7v160006IxvEEOT_, symObjAddr: 0x3F7C, symBinAddr: 0x10000705C, symSize: 0x20 }
  - { offsetInCU: 0x1089A, offset: 0x1089A, size: 0x8, addend: 0x0, symName: __ZNSt3__114pointer_traitsIPNS_12__value_typeIxxEEE10pointer_toB7v160006ERS2_, symObjAddr: 0x3F9C, symBinAddr: 0x10000707C, symSize: 0x14 }
  - { offsetInCU: 0x108BD, offset: 0x108BD, size: 0x8, addend: 0x0, symName: __ZNKSt3__115__tree_iteratorINS_12__value_typeIxxEEPNS_11__tree_nodeIS2_PvEElE8__get_npB7v160006Ev, symObjAddr: 0x3FB0, symBinAddr: 0x100007090, symSize: 0x18 }
  - { offsetInCU: 0x108FC, offset: 0x108FC, size: 0x8, addend: 0x0, symName: __ZNKSt3__113basic_ostreamIcNS_11char_traitsIcEEE6sentrycvbB7v160006Ev, symObjAddr: 0x41B4, symBinAddr: 0x100007294, symSize: 0x1C }
  - { offsetInCU: 0x10922, offset: 0x10922, size: 0x8, addend: 0x0, symName: __ZNSt3__119ostreambuf_iteratorIcNS_11char_traitsIcEEEC1B7v160006ERNS_13basic_ostreamIcS2_EE, symObjAddr: 0x4410, symBinAddr: 0x1000074F0, symSize: 0x34 }
  - { offsetInCU: 0x1095A, offset: 0x1095A, size: 0x8, addend: 0x0, symName: __ZNKSt3__18ios_base5flagsB7v160006Ev, symObjAddr: 0x4444, symBinAddr: 0x100007524, symSize: 0x18 }
  - { offsetInCU: 0x10982, offset: 0x10982, size: 0x8, addend: 0x0, symName: __ZNKSt3__19basic_iosIcNS_11char_traitsIcEEE4fillB7v160006Ev, symObjAddr: 0x445C, symBinAddr: 0x10000753C, symSize: 0x64 }
  - { offsetInCU: 0x109AA, offset: 0x109AA, size: 0x8, addend: 0x0, symName: __ZNKSt3__119ostreambuf_iteratorIcNS_11char_traitsIcEEE6failedB7v160006Ev, symObjAddr: 0x44C0, symBinAddr: 0x1000075A0, symSize: 0x24 }
  - { offsetInCU: 0x109D0, offset: 0x109D0, size: 0x8, addend: 0x0, symName: __ZNSt3__115basic_streambufIcNS_11char_traitsIcEEE5sputnB7v160006EPKcl, symObjAddr: 0x44E4, symBinAddr: 0x1000075C4, symSize: 0x3C }
  - { offsetInCU: 0x10A12, offset: 0x10A12, size: 0x8, addend: 0x0, symName: __ZNSt3__112basic_stringIcNS_11char_traitsIcEENS_9allocatorIcEEEC1B7v160006Emc, symObjAddr: 0x4520, symBinAddr: 0x100007600, symSize: 0x3C }
  - { offsetInCU: 0x10A5A, offset: 0x10A5A, size: 0x8, addend: 0x0, symName: __ZNSt3__112basic_stringIcNS_11char_traitsIcEENS_9allocatorIcEEE4dataB7v160006Ev, symObjAddr: 0x455C, symBinAddr: 0x10000763C, symSize: 0x28 }
  - { offsetInCU: 0x10A80, offset: 0x10A80, size: 0x8, addend: 0x0, symName: __ZNSt3__112basic_stringIcNS_11char_traitsIcEENS_9allocatorIcEEEC2B7v160006Emc, symObjAddr: 0x4584, symBinAddr: 0x100007664, symSize: 0x54 }
  - { offsetInCU: 0x10AC8, offset: 0x10AC8, size: 0x8, addend: 0x0, symName: __ZNSt3__119ostreambuf_iteratorIcNS_11char_traitsIcEEEC2B7v160006ERNS_13basic_ostreamIcS2_EE, symObjAddr: 0x45EC, symBinAddr: 0x1000076CC, symSize: 0x54 }
  - { offsetInCU: 0x10B00, offset: 0x10B00, size: 0x8, addend: 0x0, symName: __ZNKSt3__19basic_iosIcNS_11char_traitsIcEEE5widenB7v160006Ec, symObjAddr: 0x4640, symBinAddr: 0x100007720, symSize: 0x84 }
  - { offsetInCU: 0x10B37, offset: 0x10B37, size: 0x8, addend: 0x0, symName: __ZNKSt3__15ctypeIcE5widenB7v160006Ec, symObjAddr: 0x46C4, symBinAddr: 0x1000077A4, symSize: 0x38 }
...
