---
triple:          'arm64-apple-darwin'
binary-path:     '/Users/rohakdebnath/Desktop/Cpp /CodeForces/valeraandx'
relocations:
  - { offsetInCU: 0x5A41, offset: 0x5A41, size: 0x8, addend: 0x0, symName: __ZNSt3__17advanceB7v160006IPxllvEEvRT_T0_, symObjAddr: 0x2A74, symBinAddr: 0x1000066B0, symSize: 0x50 }
  - { offsetInCU: 0x6038, offset: 0x6038, size: 0x8, addend: 0x0, symName: __ZNSt3__124__put_character_sequenceB7v160006IcNS_11char_traitsIcEEEERNS_13basic_ostreamIT_T0_EES7_PKS4_m, symObjAddr: 0x3190, symBinAddr: 0x100006DCC, symSize: 0x1EC }
  - { offsetInCU: 0x78F5, offset: 0x78F5, size: 0x8, addend: 0x0, symName: __ZNSt3__1rsB7v160006IcNS_11char_traitsIcEEEERNS_13basic_istreamIT_T0_EES7_RS4_, symObjAddr: 0x44C, symBinAddr: 0x100004088, symSize: 0x190 }
  - { offsetInCU: 0x7977, offset: 0x7977, size: 0x8, addend: 0x0, symName: __ZNSt3__1lsB7v160006INS_11char_traitsIcEEEERNS_13basic_ostreamIcT_EES6_PKc, symObjAddr: 0x62C, symBinAddr: 0x100004268, symSize: 0x48 }
  - { offsetInCU: 0x79BD, offset: 0x79BD, size: 0x8, addend: 0x0, symName: __ZNSt3__122__make_exception_guardB7v160006INS_6vectorIxNS_9allocatorIxEEE16__destroy_vectorEEENS_28__exception_guard_exceptionsIT_EES7_, symObjAddr: 0x7BC, symBinAddr: 0x1000043F8, symSize: 0x40 }
  - { offsetInCU: 0x79F2, offset: 0x79F2, size: 0x8, addend: 0x0, symName: __ZNSt3__119__debug_db_insert_cB7v160006INS_6vectorIxNS_9allocatorIxEEEEEEvPT_, symObjAddr: 0x830, symBinAddr: 0x10000446C, symSize: 0x10 }
  - { offsetInCU: 0x7A23, offset: 0x7A23, size: 0x8, addend: 0x0, symName: __ZNSt3__119__allocate_at_leastB7v160006INS_9allocatorIxEEEEDaRT_m, symObjAddr: 0xBB8, symBinAddr: 0x1000047F4, symSize: 0x3C }
  - { offsetInCU: 0x7A66, offset: 0x7A66, size: 0x8, addend: 0x0, symName: __ZNSt3__13minB7v160006ImEERKT_S3_S3_, symObjAddr: 0xCF0, symBinAddr: 0x10000492C, symSize: 0x2C }
  - { offsetInCU: 0x7C93, offset: 0x7C93, size: 0x8, addend: 0x0, symName: __ZNSt3__13minB7v160006ImNS_6__lessImmEEEERKT_S5_S5_T0_, symObjAddr: 0xD8C, symBinAddr: 0x1000049C8, symSize: 0x54 }
  - { offsetInCU: 0x7F14, offset: 0x7F14, size: 0x8, addend: 0x0, symName: __ZNSt3__120__throw_length_errorB7v160006EPKc, symObjAddr: 0xE70, symBinAddr: 0x100004AAC, symSize: 0x64 }
  - { offsetInCU: 0x7F3C, offset: 0x7F3C, size: 0x8, addend: 0x0, symName: __ZNSt3__117allocate_at_leastB7v160006INS_9allocatorIxEEEENS_17allocation_resultINS_16allocator_traitsIT_E7pointerEEERS5_m, symObjAddr: 0xF54, symBinAddr: 0x100004B90, symSize: 0x3C }
  - { offsetInCU: 0x7F7F, offset: 0x7F7F, size: 0x8, addend: 0x0, symName: __ZNSt3__117__libcpp_allocateB7v160006Emm, symObjAddr: 0x105C, symBinAddr: 0x100004C98, symSize: 0x60 }
  - { offsetInCU: 0x7FD9, offset: 0x7FD9, size: 0x8, addend: 0x0, symName: __ZNSt3__124__is_overaligned_for_newB7v160006Em, symObjAddr: 0x10BC, symBinAddr: 0x100004CF8, symSize: 0x20 }
  - { offsetInCU: 0x8007, offset: 0x8007, size: 0x8, addend: 0x0, symName: __ZNSt3__121__libcpp_operator_newB7v160006IJmSt11align_val_tEEEPvDpT_, symObjAddr: 0x10DC, symBinAddr: 0x100004D18, symSize: 0x2C }
  - { offsetInCU: 0x8054, offset: 0x8054, size: 0x8, addend: 0x0, symName: __ZNSt3__121__libcpp_operator_newB7v160006IJmEEEPvDpT_, symObjAddr: 0x1108, symBinAddr: 0x100004D44, symSize: 0x24 }
  - { offsetInCU: 0x808D, offset: 0x808D, size: 0x8, addend: 0x0, symName: __ZNSt3__112__to_addressB7v160006IxEEPT_S2_, symObjAddr: 0x1224, symBinAddr: 0x100004E60, symSize: 0x14 }
  - { offsetInCU: 0x80E7, offset: 0x80E7, size: 0x8, addend: 0x0, symName: __ZNSt3__112construct_atB7v160006IxJEPxEEPT_S3_DpOT0_, symObjAddr: 0x136C, symBinAddr: 0x100004FA8, symSize: 0x20 }
  - { offsetInCU: 0x8143, offset: 0x8143, size: 0x8, addend: 0x0, symName: __ZNSt3__118__debug_db_erase_cB7v160006INS_6vectorIxNS_9allocatorIxEEEEEEvPT_, symObjAddr: 0x1550, symBinAddr: 0x10000518C, symSize: 0x10 }
  - { offsetInCU: 0x8174, offset: 0x8174, size: 0x8, addend: 0x0, symName: __ZNSt3__110destroy_atB7v160006IxLi0EEEvPT_, symObjAddr: 0x1698, symBinAddr: 0x1000052D4, symSize: 0x24 }
  - { offsetInCU: 0x81AB, offset: 0x81AB, size: 0x8, addend: 0x0, symName: __ZNSt3__112__destroy_atB7v160006IxLi0EEEvPT_, symObjAddr: 0x16BC, symBinAddr: 0x1000052F8, symSize: 0x10 }
  - { offsetInCU: 0x81E2, offset: 0x81E2, size: 0x8, addend: 0x0, symName: __ZNSt3__119__libcpp_deallocateB7v160006EPvmm, symObjAddr: 0x170C, symBinAddr: 0x100005348, symSize: 0x60 }
  - { offsetInCU: 0x8247, offset: 0x8247, size: 0x8, addend: 0x0, symName: __ZNSt3__127__do_deallocate_handle_sizeB7v160006IJSt11align_val_tEEEvPvmDpT_, symObjAddr: 0x176C, symBinAddr: 0x1000053A8, symSize: 0x30 }
  - { offsetInCU: 0x829A, offset: 0x829A, size: 0x8, addend: 0x0, symName: __ZNSt3__127__do_deallocate_handle_sizeB7v160006IJEEEvPvmDpT_, symObjAddr: 0x179C, symBinAddr: 0x1000053D8, symSize: 0x28 }
  - { offsetInCU: 0x82D8, offset: 0x82D8, size: 0x8, addend: 0x0, symName: __ZNSt3__124__libcpp_operator_deleteB7v160006IJPvSt11align_val_tEEEvDpT_, symObjAddr: 0x17C4, symBinAddr: 0x100005400, symSize: 0x2C }
  - { offsetInCU: 0x8321, offset: 0x8321, size: 0x8, addend: 0x0, symName: __ZNSt3__124__libcpp_operator_deleteB7v160006IJPvEEEvDpT_, symObjAddr: 0x17F0, symBinAddr: 0x10000542C, symSize: 0x24 }
  - { offsetInCU: 0x8356, offset: 0x8356, size: 0x8, addend: 0x0, symName: __ZNSt3__122__make_exception_guardB7v160006INS_6vectorINS1_IxNS_9allocatorIxEEEENS2_IS4_EEE16__destroy_vectorEEENS_28__exception_guard_exceptionsIT_EES9_, symObjAddr: 0x1938, symBinAddr: 0x100005574, symSize: 0x40 }
  - { offsetInCU: 0x838B, offset: 0x838B, size: 0x8, addend: 0x0, symName: __ZNSt3__119__debug_db_insert_cB7v160006INS_6vectorINS1_IxNS_9allocatorIxEEEENS2_IS4_EEEEEEvPT_, symObjAddr: 0x19AC, symBinAddr: 0x1000055E8, symSize: 0x10 }
  - { offsetInCU: 0x83BC, offset: 0x83BC, size: 0x8, addend: 0x0, symName: __ZNSt3__119__allocate_at_leastB7v160006INS_9allocatorINS_6vectorIxNS1_IxEEEEEEEEDaRT_m, symObjAddr: 0x1D44, symBinAddr: 0x100005980, symSize: 0x3C }
  - { offsetInCU: 0x83FF, offset: 0x83FF, size: 0x8, addend: 0x0, symName: __ZNSt3__117allocate_at_leastB7v160006INS_9allocatorINS_6vectorIxNS1_IxEEEEEEEENS_17allocation_resultINS_16allocator_traitsIT_E7pointerEEERS8_m, symObjAddr: 0x1F20, symBinAddr: 0x100005B5C, symSize: 0x3C }
  - { offsetInCU: 0x8442, offset: 0x8442, size: 0x8, addend: 0x0, symName: __ZNSt3__112__to_addressB7v160006INS_6vectorIxNS_9allocatorIxEEEEEEPT_S6_, symObjAddr: 0x20F0, symBinAddr: 0x100005D2C, symSize: 0x14 }
  - { offsetInCU: 0x849C, offset: 0x849C, size: 0x8, addend: 0x0, symName: __ZNSt3__112construct_atB7v160006INS_6vectorIxNS_9allocatorIxEEEEJRKS4_EPS4_EEPT_S9_DpOT0_, symObjAddr: 0x2248, symBinAddr: 0x100005E84, symSize: 0x3C }
  - { offsetInCU: 0x850C, offset: 0x850C, size: 0x8, addend: 0x0, symName: __ZNSt3__130__uninitialized_allocator_copyB7v160006INS_9allocatorIxEEPxS3_S3_EET2_RT_T0_T1_S4_, symObjAddr: 0x24FC, symBinAddr: 0x100006138, symSize: 0xF4 }
  - { offsetInCU: 0x85AA, offset: 0x85AA, size: 0x8, addend: 0x0, symName: __ZNSt3__122__make_exception_guardB7v160006INS_29_AllocatorDestroyRangeReverseINS_9allocatorIxEEPxEEEENS_28__exception_guard_exceptionsIT_EES7_, symObjAddr: 0x25F0, symBinAddr: 0x10000622C, symSize: 0x4C }
  - { offsetInCU: 0x85E0, offset: 0x85E0, size: 0x8, addend: 0x0, symName: __ZNSt3__112construct_atB7v160006IxJRxEPxEEPT_S4_DpOT0_, symObjAddr: 0x2794, symBinAddr: 0x1000063D0, symSize: 0x2C }
  - { offsetInCU: 0x8650, offset: 0x8650, size: 0x8, addend: 0x0, symName: __ZNSt3__119__allocator_destroyB7v160006INS_9allocatorIxEENS_16reverse_iteratorIPxEES5_EEvRT_T0_T1_, symObjAddr: 0x2878, symBinAddr: 0x1000064B4, symSize: 0x70 }
  - { offsetInCU: 0x86B3, offset: 0x86B3, size: 0x8, addend: 0x0, symName: __ZNSt3__1neB7v160006IPxS1_EEbRKNS_16reverse_iteratorIT_EERKNS2_IT0_EE, symObjAddr: 0x291C, symBinAddr: 0x100006558, symSize: 0x48 }
  - { offsetInCU: 0x86FF, offset: 0x86FF, size: 0x8, addend: 0x0, symName: __ZNSt3__112__to_addressB7v160006INS_16reverse_iteratorIPxEEvEENS_5decayIDTclsr19__to_address_helperIT_EE6__callclsr3stdE7declvalIRKS5_EEEEE4typeES7_, symObjAddr: 0x2964, symBinAddr: 0x1000065A0, symSize: 0x24 }
  - { offsetInCU: 0x875E, offset: 0x875E, size: 0x8, addend: 0x0, symName: __ZNSt3__14prevB7v160006IPxEENS_9enable_ifIXsr25__is_cpp17_input_iteratorIT_EE5valueES3_E4typeES3_NS_15iterator_traitsIS3_E15difference_typeE, symObjAddr: 0x2A24, symBinAddr: 0x100006660, symSize: 0x50 }
  - { offsetInCU: 0x87A1, offset: 0x87A1, size: 0x8, addend: 0x0, symName: __ZNSt3__121__convert_to_integralB7v160006El, symObjAddr: 0x2AC4, symBinAddr: 0x100006700, symSize: 0x14 }
  - { offsetInCU: 0x87CD, offset: 0x87CD, size: 0x8, addend: 0x0, symName: __ZNSt3__19__advanceB7v160006IPxEEvRT_NS_15iterator_traitsIS2_E15difference_typeENS_26random_access_iterator_tagE, symObjAddr: 0x2AD8, symBinAddr: 0x100006714, symSize: 0x28 }
  - { offsetInCU: 0x8816, offset: 0x8816, size: 0x8, addend: 0x0, symName: __ZNSt3__118__debug_db_erase_cB7v160006INS_6vectorINS1_IxNS_9allocatorIxEEEENS2_IS4_EEEEEEvPT_, symObjAddr: 0x2D08, symBinAddr: 0x100006944, symSize: 0x10 }
  - { offsetInCU: 0x8847, offset: 0x8847, size: 0x8, addend: 0x0, symName: __ZNSt3__110destroy_atB7v160006INS_6vectorIxNS_9allocatorIxEEEELi0EEEvPT_, symObjAddr: 0x2E50, symBinAddr: 0x100006A8C, symSize: 0x24 }
  - { offsetInCU: 0x887E, offset: 0x887E, size: 0x8, addend: 0x0, symName: __ZNSt3__112__destroy_atB7v160006INS_6vectorIxNS_9allocatorIxEEEELi0EEEvPT_, symObjAddr: 0x2E74, symBinAddr: 0x100006AB0, symSize: 0x24 }
  - { offsetInCU: 0x8E34, offset: 0x8E34, size: 0x8, addend: 0x0, symName: __ZNSt3__116__pad_and_outputB7v160006IcNS_11char_traitsIcEEEENS_19ostreambuf_iteratorIT_T0_EES6_PKS4_S8_S8_RNS_8ios_baseES4_, symObjAddr: 0x33CC, symBinAddr: 0x100007008, symSize: 0x240 }
  - { offsetInCU: 0x8F03, offset: 0x8F03, size: 0x8, addend: 0x0, symName: __ZNSt3__119__debug_db_insert_cB7v160006INS_12basic_stringIcNS_11char_traitsIcEENS_9allocatorIcEEEEEEvPT_, symObjAddr: 0x3854, symBinAddr: 0x100007490, symSize: 0x10 }
  - { offsetInCU: 0x8F34, offset: 0x8F34, size: 0x8, addend: 0x0, symName: __ZNSt3__112__to_addressB7v160006IcEEPT_S2_, symObjAddr: 0x3920, symBinAddr: 0x10000755C, symSize: 0x14 }
  - { offsetInCU: 0x8F69, offset: 0x8F69, size: 0x8, addend: 0x0, symName: __ZNSt3__19use_facetB7v160006INS_5ctypeIcEEEERKT_RKNS_6localeE, symObjAddr: 0x3B6C, symBinAddr: 0x1000077A8, symSize: 0x2C }
  - { offsetInCU: 0x9438, offset: 0x9438, size: 0x8, addend: 0x0, symName: __ZNSt3__118__constexpr_strlenB7v160006EPKc, symObjAddr: 0x3BD0, symBinAddr: 0x10000780C, symSize: 0x24 }
  - { offsetInCU: 0x97C5, offset: 0x97C5, size: 0x8, addend: 0x0, symName: __ZSt28__throw_bad_array_new_lengthB7v160006v, symObjAddr: 0x1028, symBinAddr: 0x100004C64, symSize: 0x34 }
  - { offsetInCU: 0xC46B, offset: 0xC46B, size: 0x8, addend: 0x0, symName: _main, symObjAddr: 0x0, symBinAddr: 0x100003C3C, symSize: 0x384 }
  - { offsetInCU: 0xC50E, offset: 0xC50E, size: 0x8, addend: 0x0, symName: __ZNSt3__19basic_iosIcNS_11char_traitsIcEEE3tieB7v160006EPNS_13basic_ostreamIcS2_EE, symObjAddr: 0x384, symBinAddr: 0x100003FC0, symSize: 0x2C }
  - { offsetInCU: 0xC554, offset: 0xC554, size: 0x8, addend: 0x0, symName: __ZNSt3__16vectorIxNS_9allocatorIxEEEC1Em, symObjAddr: 0x3B0, symBinAddr: 0x100003FEC, symSize: 0x34 }
  - { offsetInCU: 0xC58F, offset: 0xC58F, size: 0x8, addend: 0x0, symName: __ZNSt3__16vectorINS0_IxNS_9allocatorIxEEEENS1_IS3_EEEC1EmRKS3_, symObjAddr: 0x3E4, symBinAddr: 0x100004020, symSize: 0x3C }
  - { offsetInCU: 0xC5D9, offset: 0xC5D9, size: 0x8, addend: 0x0, symName: __ZNSt3__16vectorIxNS_9allocatorIxEEED1B7v160006Ev, symObjAddr: 0x420, symBinAddr: 0x10000405C, symSize: 0x2C }
  - { offsetInCU: 0xC603, offset: 0xC603, size: 0x8, addend: 0x0, symName: __ZNSt3__16vectorINS0_IxNS_9allocatorIxEEEENS1_IS3_EEEixB7v160006Em, symObjAddr: 0x5DC, symBinAddr: 0x100004218, symSize: 0x2C }
  - { offsetInCU: 0xC63A, offset: 0xC63A, size: 0x8, addend: 0x0, symName: __ZNSt3__16vectorIxNS_9allocatorIxEEEixB7v160006Em, symObjAddr: 0x608, symBinAddr: 0x100004244, symSize: 0x24 }
  - { offsetInCU: 0xC671, offset: 0xC671, size: 0x8, addend: 0x0, symName: __ZNSt3__16vectorINS0_IxNS_9allocatorIxEEEENS1_IS3_EEED1B7v160006Ev, symObjAddr: 0x674, symBinAddr: 0x1000042B0, symSize: 0x2C }
  - { offsetInCU: 0xC69B, offset: 0xC69B, size: 0x8, addend: 0x0, symName: __ZNSt3__16vectorIxNS_9allocatorIxEEEC2Em, symObjAddr: 0x6A0, symBinAddr: 0x1000042DC, symSize: 0xE0 }
  - { offsetInCU: 0xC6F7, offset: 0xC6F7, size: 0x8, addend: 0x0, symName: __ZNSt3__117__compressed_pairIPxNS_9allocatorIxEEEC1B7v160006IDnNS_18__default_init_tagEEEOT_OT0_, symObjAddr: 0x780, symBinAddr: 0x1000043BC, symSize: 0x3C }
  - { offsetInCU: 0xC74F, offset: 0xC74F, size: 0x8, addend: 0x0, symName: __ZNSt3__16vectorIxNS_9allocatorIxEEE16__destroy_vectorC1ERS3_, symObjAddr: 0x7FC, symBinAddr: 0x100004438, symSize: 0x34 }
  - { offsetInCU: 0xC788, offset: 0xC788, size: 0x8, addend: 0x0, symName: __ZNSt3__16vectorIxNS_9allocatorIxEEE11__vallocateB7v160006Em, symObjAddr: 0x840, symBinAddr: 0x10000447C, symSize: 0xAC }
  - { offsetInCU: 0xC7CC, offset: 0xC7CC, size: 0x8, addend: 0x0, symName: __ZNSt3__16vectorIxNS_9allocatorIxEEE18__construct_at_endEm, symObjAddr: 0x8EC, symBinAddr: 0x100004528, symSize: 0xC8 }
  - { offsetInCU: 0xC83E, offset: 0xC83E, size: 0x8, addend: 0x0, symName: __ZNSt3__128__exception_guard_exceptionsINS_6vectorIxNS_9allocatorIxEEE16__destroy_vectorEE10__completeB7v160006Ev, symObjAddr: 0x9B4, symBinAddr: 0x1000045F0, symSize: 0x1C }
  - { offsetInCU: 0xC864, offset: 0xC864, size: 0x8, addend: 0x0, symName: __ZNSt3__128__exception_guard_exceptionsINS_6vectorIxNS_9allocatorIxEEE16__destroy_vectorEED1B7v160006Ev, symObjAddr: 0x9D0, symBinAddr: 0x10000460C, symSize: 0x2C }
  - { offsetInCU: 0xC88E, offset: 0xC88E, size: 0x8, addend: 0x0, symName: __ZNSt3__117__compressed_pairIPxNS_9allocatorIxEEEC2B7v160006IDnNS_18__default_init_tagEEEOT_OT0_, symObjAddr: 0x9FC, symBinAddr: 0x100004638, symSize: 0x40 }
  - { offsetInCU: 0xC8E6, offset: 0xC8E6, size: 0x8, addend: 0x0, symName: __ZNSt3__122__compressed_pair_elemIPxLi0ELb0EEC2B7v160006IDnvEEOT_, symObjAddr: 0xA3C, symBinAddr: 0x100004678, symSize: 0x1C }
  - { offsetInCU: 0xC928, offset: 0xC928, size: 0x8, addend: 0x0, symName: __ZNSt3__122__compressed_pair_elemINS_9allocatorIxEELi1ELb1EEC2B7v160006ENS_18__default_init_tagE, symObjAddr: 0xA58, symBinAddr: 0x100004694, symSize: 0x2C }
  - { offsetInCU: 0xC95C, offset: 0xC95C, size: 0x8, addend: 0x0, symName: __ZNSt3__19allocatorIxEC2B7v160006Ev, symObjAddr: 0xA84, symBinAddr: 0x1000046C0, symSize: 0x2C }
  - { offsetInCU: 0xC986, offset: 0xC986, size: 0x8, addend: 0x0, symName: __ZNSt3__116__non_trivial_ifILb1ENS_9allocatorIxEEEC2B7v160006Ev, symObjAddr: 0xAB0, symBinAddr: 0x1000046EC, symSize: 0x14 }
  - { offsetInCU: 0xC9B0, offset: 0xC9B0, size: 0x8, addend: 0x0, symName: __ZNSt3__128__exception_guard_exceptionsINS_6vectorIxNS_9allocatorIxEEE16__destroy_vectorEEC1B7v160006ES5_, symObjAddr: 0xAC4, symBinAddr: 0x100004700, symSize: 0x34 }
  - { offsetInCU: 0xC9E8, offset: 0xC9E8, size: 0x8, addend: 0x0, symName: __ZNSt3__128__exception_guard_exceptionsINS_6vectorIxNS_9allocatorIxEEE16__destroy_vectorEEC2B7v160006ES5_, symObjAddr: 0xAF8, symBinAddr: 0x100004734, symSize: 0x24 }
  - { offsetInCU: 0xCA20, offset: 0xCA20, size: 0x8, addend: 0x0, symName: __ZNSt3__16vectorIxNS_9allocatorIxEEE16__destroy_vectorC2ERS3_, symObjAddr: 0xB1C, symBinAddr: 0x100004758, symSize: 0x20 }
  - { offsetInCU: 0xCA59, offset: 0xCA59, size: 0x8, addend: 0x0, symName: __ZNKSt3__16vectorIxNS_9allocatorIxEEE8max_sizeEv, symObjAddr: 0xB3C, symBinAddr: 0x100004778, symSize: 0x60 }
  - { offsetInCU: 0xCA81, offset: 0xCA81, size: 0x8, addend: 0x0, symName: __ZNKSt3__16vectorIxNS_9allocatorIxEEE20__throw_length_errorB7v160006Ev, symObjAddr: 0xB9C, symBinAddr: 0x1000047D8, symSize: 0x1C }
  - { offsetInCU: 0xCAA7, offset: 0xCAA7, size: 0x8, addend: 0x0, symName: __ZNSt3__16vectorIxNS_9allocatorIxEEE7__allocB7v160006Ev, symObjAddr: 0xBF4, symBinAddr: 0x100004830, symSize: 0x28 }
  - { offsetInCU: 0xCACD, offset: 0xCACD, size: 0x8, addend: 0x0, symName: __ZNSt3__16vectorIxNS_9allocatorIxEEE9__end_capB7v160006Ev, symObjAddr: 0xC1C, symBinAddr: 0x100004858, symSize: 0x28 }
  - { offsetInCU: 0xCAF3, offset: 0xCAF3, size: 0x8, addend: 0x0, symName: __ZNKSt3__16vectorIxNS_9allocatorIxEEE14__annotate_newB7v160006Em, symObjAddr: 0xC44, symBinAddr: 0x100004880, symSize: 0xAC }
  - { offsetInCU: 0xCB32, offset: 0xCB32, size: 0x8, addend: 0x0, symName: __ZNSt3__116allocator_traitsINS_9allocatorIxEEE8max_sizeB7v160006IS2_vvEEmRKS2_, symObjAddr: 0xD1C, symBinAddr: 0x100004958, symSize: 0x28 }
  - { offsetInCU: 0xCB5E, offset: 0xCB5E, size: 0x8, addend: 0x0, symName: __ZNKSt3__16vectorIxNS_9allocatorIxEEE7__allocB7v160006Ev, symObjAddr: 0xD44, symBinAddr: 0x100004980, symSize: 0x28 }
  - { offsetInCU: 0xCB84, offset: 0xCB84, size: 0x8, addend: 0x0, symName: __ZNSt3__114numeric_limitsIlE3maxB7v160006Ev, symObjAddr: 0xD6C, symBinAddr: 0x1000049A8, symSize: 0x14 }
  - { offsetInCU: 0xCBAC, offset: 0xCBAC, size: 0x8, addend: 0x0, symName: __ZNKSt3__16__lessImmEclB7v160006ERKmS3_, symObjAddr: 0xDE0, symBinAddr: 0x100004A1C, symSize: 0x34 }
  - { offsetInCU: 0xCBEE, offset: 0xCBEE, size: 0x8, addend: 0x0, symName: __ZNSt3__114numeric_limitsImE3maxB7v160006Ev, symObjAddr: 0xE14, symBinAddr: 0x100004A50, symSize: 0x14 }
  - { offsetInCU: 0xCC02, offset: 0xCC02, size: 0x8, addend: 0x0, symName: __ZNSt3__123__libcpp_numeric_limitsImLb1EE3maxB7v160006Ev, symObjAddr: 0xE28, symBinAddr: 0x100004A64, symSize: 0x8 }
  - { offsetInCU: 0xCC16, offset: 0xCC16, size: 0x8, addend: 0x0, symName: __ZNKSt3__117__compressed_pairIPxNS_9allocatorIxEEE6secondB7v160006Ev, symObjAddr: 0xE30, symBinAddr: 0x100004A6C, symSize: 0x24 }
  - { offsetInCU: 0xCC3C, offset: 0xCC3C, size: 0x8, addend: 0x0, symName: __ZNKSt3__122__compressed_pair_elemINS_9allocatorIxEELi1ELb1EE5__getB7v160006Ev, symObjAddr: 0xE54, symBinAddr: 0x100004A90, symSize: 0x14 }
  - { offsetInCU: 0xCC62, offset: 0xCC62, size: 0x8, addend: 0x0, symName: __ZNSt3__123__libcpp_numeric_limitsIlLb1EE3maxB7v160006Ev, symObjAddr: 0xE68, symBinAddr: 0x100004AA4, symSize: 0x8 }
  - { offsetInCU: 0xCC76, offset: 0xCC76, size: 0x8, addend: 0x0, symName: __ZNSt12length_errorC1B7v160006EPKc, symObjAddr: 0xED4, symBinAddr: 0x100004B10, symSize: 0x34 }
  - { offsetInCU: 0xCCAE, offset: 0xCCAE, size: 0x8, addend: 0x0, symName: __ZNSt12length_errorC2B7v160006EPKc, symObjAddr: 0xF08, symBinAddr: 0x100004B44, symSize: 0x4C }
  - { offsetInCU: 0xCCE6, offset: 0xCCE6, size: 0x8, addend: 0x0, symName: __ZNSt3__19allocatorIxE17allocate_at_leastB7v160006Em, symObjAddr: 0xF90, symBinAddr: 0x100004BCC, symSize: 0x40 }
  - { offsetInCU: 0xCD1A, offset: 0xCD1A, size: 0x8, addend: 0x0, symName: __ZNSt3__19allocatorIxE8allocateB7v160006Em, symObjAddr: 0xFD0, symBinAddr: 0x100004C0C, symSize: 0x58 }
  - { offsetInCU: 0xCD4E, offset: 0xCD4E, size: 0x8, addend: 0x0, symName: __ZNSt3__117__compressed_pairIPxNS_9allocatorIxEEE6secondB7v160006Ev, symObjAddr: 0x112C, symBinAddr: 0x100004D68, symSize: 0x24 }
  - { offsetInCU: 0xCD74, offset: 0xCD74, size: 0x8, addend: 0x0, symName: __ZNSt3__122__compressed_pair_elemINS_9allocatorIxEELi1ELb1EE5__getB7v160006Ev, symObjAddr: 0x1150, symBinAddr: 0x100004D8C, symSize: 0x14 }
  - { offsetInCU: 0xCD9A, offset: 0xCD9A, size: 0x8, addend: 0x0, symName: __ZNSt3__117__compressed_pairIPxNS_9allocatorIxEEE5firstB7v160006Ev, symObjAddr: 0x1164, symBinAddr: 0x100004DA0, symSize: 0x24 }
  - { offsetInCU: 0xCDC0, offset: 0xCDC0, size: 0x8, addend: 0x0, symName: __ZNSt3__122__compressed_pair_elemIPxLi0ELb0EE5__getB7v160006Ev, symObjAddr: 0x1188, symBinAddr: 0x100004DC4, symSize: 0x14 }
  - { offsetInCU: 0xCDE6, offset: 0xCDE6, size: 0x8, addend: 0x0, symName: __ZNKSt3__16vectorIxNS_9allocatorIxEEE31__annotate_contiguous_containerB7v160006EPKvS5_S5_S5_, symObjAddr: 0x119C, symBinAddr: 0x100004DD8, symSize: 0x20 }
  - { offsetInCU: 0xCE3C, offset: 0xCE3C, size: 0x8, addend: 0x0, symName: __ZNKSt3__16vectorIxNS_9allocatorIxEEE4dataB7v160006Ev, symObjAddr: 0x11BC, symBinAddr: 0x100004DF8, symSize: 0x28 }
  - { offsetInCU: 0xCE62, offset: 0xCE62, size: 0x8, addend: 0x0, symName: __ZNKSt3__16vectorIxNS_9allocatorIxEEE8capacityB7v160006Ev, symObjAddr: 0x11E4, symBinAddr: 0x100004E20, symSize: 0x40 }
  - { offsetInCU: 0xCE88, offset: 0xCE88, size: 0x8, addend: 0x0, symName: __ZNKSt3__16vectorIxNS_9allocatorIxEEE9__end_capB7v160006Ev, symObjAddr: 0x1238, symBinAddr: 0x100004E74, symSize: 0x28 }
  - { offsetInCU: 0xCEAE, offset: 0xCEAE, size: 0x8, addend: 0x0, symName: __ZNKSt3__117__compressed_pairIPxNS_9allocatorIxEEE5firstB7v160006Ev, symObjAddr: 0x1260, symBinAddr: 0x100004E9C, symSize: 0x24 }
  - { offsetInCU: 0xCED4, offset: 0xCED4, size: 0x8, addend: 0x0, symName: __ZNKSt3__122__compressed_pair_elemIPxLi0ELb0EE5__getB7v160006Ev, symObjAddr: 0x1284, symBinAddr: 0x100004EC0, symSize: 0x14 }
  - { offsetInCU: 0xCF13, offset: 0xCF13, size: 0x8, addend: 0x0, symName: __ZNSt3__16vectorIxNS_9allocatorIxEEE21_ConstructTransactionC1B7v160006ERS3_m, symObjAddr: 0x1298, symBinAddr: 0x100004ED4, symSize: 0x3C }
  - { offsetInCU: 0xCF5B, offset: 0xCF5B, size: 0x8, addend: 0x0, symName: __ZNSt3__116allocator_traitsINS_9allocatorIxEEE9constructB7v160006IxJEvvEEvRS2_PT_DpOT0_, symObjAddr: 0x12D4, symBinAddr: 0x100004F10, symSize: 0x28 }
  - { offsetInCU: 0xCF9B, offset: 0xCF9B, size: 0x8, addend: 0x0, symName: __ZNSt3__16vectorIxNS_9allocatorIxEEE21_ConstructTransactionD1B7v160006Ev, symObjAddr: 0x12FC, symBinAddr: 0x100004F38, symSize: 0x2C }
  - { offsetInCU: 0xCFC5, offset: 0xCFC5, size: 0x8, addend: 0x0, symName: __ZNSt3__16vectorIxNS_9allocatorIxEEE21_ConstructTransactionC2B7v160006ERS3_m, symObjAddr: 0x1328, symBinAddr: 0x100004F64, symSize: 0x44 }
  - { offsetInCU: 0xD00D, offset: 0xD00D, size: 0x8, addend: 0x0, symName: __ZNSt3__16vectorIxNS_9allocatorIxEEE21_ConstructTransactionD2B7v160006Ev, symObjAddr: 0x138C, symBinAddr: 0x100004FC8, symSize: 0x20 }
  - { offsetInCU: 0xD037, offset: 0xD037, size: 0x8, addend: 0x0, symName: __ZNSt3__128__exception_guard_exceptionsINS_6vectorIxNS_9allocatorIxEEE16__destroy_vectorEED2B7v160006Ev, symObjAddr: 0x13AC, symBinAddr: 0x100004FE8, symSize: 0x50 }
  - { offsetInCU: 0xD061, offset: 0xD061, size: 0x8, addend: 0x0, symName: __ZNSt3__16vectorIxNS_9allocatorIxEEE16__destroy_vectorclB7v160006Ev, symObjAddr: 0x13FC, symBinAddr: 0x100005038, symSize: 0x9C }
  - { offsetInCU: 0xD087, offset: 0xD087, size: 0x8, addend: 0x0, symName: __ZNKSt3__16vectorIxNS_9allocatorIxEEE17__annotate_deleteB7v160006Ev, symObjAddr: 0x1498, symBinAddr: 0x1000050D4, symSize: 0xB8 }
  - { offsetInCU: 0xD0AD, offset: 0xD0AD, size: 0x8, addend: 0x0, symName: __ZNSt3__16vectorIxNS_9allocatorIxEEE7__clearB7v160006Ev, symObjAddr: 0x1560, symBinAddr: 0x10000519C, symSize: 0x28 }
  - { offsetInCU: 0xD0D3, offset: 0xD0D3, size: 0x8, addend: 0x0, symName: __ZNSt3__116allocator_traitsINS_9allocatorIxEEE10deallocateB7v160006ERS2_Pxm, symObjAddr: 0x1588, symBinAddr: 0x1000051C4, symSize: 0x34 }
  - { offsetInCU: 0xD115, offset: 0xD115, size: 0x8, addend: 0x0, symName: __ZNKSt3__16vectorIxNS_9allocatorIxEEE4sizeB7v160006Ev, symObjAddr: 0x15BC, symBinAddr: 0x1000051F8, symSize: 0x28 }
  - { offsetInCU: 0xD13B, offset: 0xD13B, size: 0x8, addend: 0x0, symName: __ZNSt3__16vectorIxNS_9allocatorIxEEE22__base_destruct_at_endB7v160006EPx, symObjAddr: 0x15E4, symBinAddr: 0x100005220, symSize: 0x8C }
  - { offsetInCU: 0xD17F, offset: 0xD17F, size: 0x8, addend: 0x0, symName: __ZNSt3__116allocator_traitsINS_9allocatorIxEEE7destroyB7v160006IxvvEEvRS2_PT_, symObjAddr: 0x1670, symBinAddr: 0x1000052AC, symSize: 0x28 }
  - { offsetInCU: 0xD1BA, offset: 0xD1BA, size: 0x8, addend: 0x0, symName: __ZNSt3__19allocatorIxE10deallocateB7v160006EPxm, symObjAddr: 0x16CC, symBinAddr: 0x100005308, symSize: 0x40 }
  - { offsetInCU: 0xD1FC, offset: 0xD1FC, size: 0x8, addend: 0x0, symName: __ZNSt3__16vectorINS0_IxNS_9allocatorIxEEEENS1_IS3_EEEC2EmRKS3_, symObjAddr: 0x1814, symBinAddr: 0x100005450, symSize: 0xE8 }
  - { offsetInCU: 0xD25B, offset: 0xD25B, size: 0x8, addend: 0x0, symName: __ZNSt3__117__compressed_pairIPNS_6vectorIxNS_9allocatorIxEEEENS2_IS4_EEEC1B7v160006IDnNS_18__default_init_tagEEEOT_OT0_, symObjAddr: 0x18FC, symBinAddr: 0x100005538, symSize: 0x3C }
  - { offsetInCU: 0xD2B3, offset: 0xD2B3, size: 0x8, addend: 0x0, symName: __ZNSt3__16vectorINS0_IxNS_9allocatorIxEEEENS1_IS3_EEE16__destroy_vectorC1ERS5_, symObjAddr: 0x1978, symBinAddr: 0x1000055B4, symSize: 0x34 }
  - { offsetInCU: 0xD2EC, offset: 0xD2EC, size: 0x8, addend: 0x0, symName: __ZNSt3__16vectorINS0_IxNS_9allocatorIxEEEENS1_IS3_EEE11__vallocateB7v160006Em, symObjAddr: 0x19BC, symBinAddr: 0x1000055F8, symSize: 0xB4 }
  - { offsetInCU: 0xD330, offset: 0xD330, size: 0x8, addend: 0x0, symName: __ZNSt3__16vectorINS0_IxNS_9allocatorIxEEEENS1_IS3_EEE18__construct_at_endEmRKS3_, symObjAddr: 0x1A70, symBinAddr: 0x1000056AC, symSize: 0xD0 }
  - { offsetInCU: 0xD3B1, offset: 0xD3B1, size: 0x8, addend: 0x0, symName: __ZNSt3__128__exception_guard_exceptionsINS_6vectorINS1_IxNS_9allocatorIxEEEENS2_IS4_EEE16__destroy_vectorEE10__completeB7v160006Ev, symObjAddr: 0x1B40, symBinAddr: 0x10000577C, symSize: 0x1C }
  - { offsetInCU: 0xD3D7, offset: 0xD3D7, size: 0x8, addend: 0x0, symName: __ZNSt3__128__exception_guard_exceptionsINS_6vectorINS1_IxNS_9allocatorIxEEEENS2_IS4_EEE16__destroy_vectorEED1B7v160006Ev, symObjAddr: 0x1B5C, symBinAddr: 0x100005798, symSize: 0x2C }
  - { offsetInCU: 0xD401, offset: 0xD401, size: 0x8, addend: 0x0, symName: __ZNSt3__117__compressed_pairIPNS_6vectorIxNS_9allocatorIxEEEENS2_IS4_EEEC2B7v160006IDnNS_18__default_init_tagEEEOT_OT0_, symObjAddr: 0x1B88, symBinAddr: 0x1000057C4, symSize: 0x40 }
  - { offsetInCU: 0xD459, offset: 0xD459, size: 0x8, addend: 0x0, symName: __ZNSt3__122__compressed_pair_elemIPNS_6vectorIxNS_9allocatorIxEEEELi0ELb0EEC2B7v160006IDnvEEOT_, symObjAddr: 0x1BC8, symBinAddr: 0x100005804, symSize: 0x1C }
  - { offsetInCU: 0xD49B, offset: 0xD49B, size: 0x8, addend: 0x0, symName: __ZNSt3__122__compressed_pair_elemINS_9allocatorINS_6vectorIxNS1_IxEEEEEELi1ELb1EEC2B7v160006ENS_18__default_init_tagE, symObjAddr: 0x1BE4, symBinAddr: 0x100005820, symSize: 0x2C }
  - { offsetInCU: 0xD4CF, offset: 0xD4CF, size: 0x8, addend: 0x0, symName: __ZNSt3__19allocatorINS_6vectorIxNS0_IxEEEEEC2B7v160006Ev, symObjAddr: 0x1C10, symBinAddr: 0x10000584C, symSize: 0x2C }
  - { offsetInCU: 0xD4F9, offset: 0xD4F9, size: 0x8, addend: 0x0, symName: __ZNSt3__116__non_trivial_ifILb1ENS_9allocatorINS_6vectorIxNS1_IxEEEEEEEC2B7v160006Ev, symObjAddr: 0x1C3C, symBinAddr: 0x100005878, symSize: 0x14 }
  - { offsetInCU: 0xD523, offset: 0xD523, size: 0x8, addend: 0x0, symName: __ZNSt3__128__exception_guard_exceptionsINS_6vectorINS1_IxNS_9allocatorIxEEEENS2_IS4_EEE16__destroy_vectorEEC1B7v160006ES7_, symObjAddr: 0x1C50, symBinAddr: 0x10000588C, symSize: 0x34 }
  - { offsetInCU: 0xD55B, offset: 0xD55B, size: 0x8, addend: 0x0, symName: __ZNSt3__128__exception_guard_exceptionsINS_6vectorINS1_IxNS_9allocatorIxEEEENS2_IS4_EEE16__destroy_vectorEEC2B7v160006ES7_, symObjAddr: 0x1C84, symBinAddr: 0x1000058C0, symSize: 0x24 }
  - { offsetInCU: 0xD593, offset: 0xD593, size: 0x8, addend: 0x0, symName: __ZNSt3__16vectorINS0_IxNS_9allocatorIxEEEENS1_IS3_EEE16__destroy_vectorC2ERS5_, symObjAddr: 0x1CA8, symBinAddr: 0x1000058E4, symSize: 0x20 }
  - { offsetInCU: 0xD5CC, offset: 0xD5CC, size: 0x8, addend: 0x0, symName: __ZNKSt3__16vectorINS0_IxNS_9allocatorIxEEEENS1_IS3_EEE8max_sizeEv, symObjAddr: 0x1CC8, symBinAddr: 0x100005904, symSize: 0x60 }
  - { offsetInCU: 0xD5F4, offset: 0xD5F4, size: 0x8, addend: 0x0, symName: __ZNKSt3__16vectorINS0_IxNS_9allocatorIxEEEENS1_IS3_EEE20__throw_length_errorB7v160006Ev, symObjAddr: 0x1D28, symBinAddr: 0x100005964, symSize: 0x1C }
  - { offsetInCU: 0xD61A, offset: 0xD61A, size: 0x8, addend: 0x0, symName: __ZNSt3__16vectorINS0_IxNS_9allocatorIxEEEENS1_IS3_EEE7__allocB7v160006Ev, symObjAddr: 0x1D80, symBinAddr: 0x1000059BC, symSize: 0x28 }
  - { offsetInCU: 0xD640, offset: 0xD640, size: 0x8, addend: 0x0, symName: __ZNSt3__16vectorINS0_IxNS_9allocatorIxEEEENS1_IS3_EEE9__end_capB7v160006Ev, symObjAddr: 0x1DA8, symBinAddr: 0x1000059E4, symSize: 0x28 }
  - { offsetInCU: 0xD666, offset: 0xD666, size: 0x8, addend: 0x0, symName: __ZNKSt3__16vectorINS0_IxNS_9allocatorIxEEEENS1_IS3_EEE14__annotate_newB7v160006Em, symObjAddr: 0x1DD0, symBinAddr: 0x100005A0C, symSize: 0xC8 }
  - { offsetInCU: 0xD6A5, offset: 0xD6A5, size: 0x8, addend: 0x0, symName: __ZNSt3__116allocator_traitsINS_9allocatorINS_6vectorIxNS1_IxEEEEEEE8max_sizeB7v160006IS5_vvEEmRKS5_, symObjAddr: 0x1E98, symBinAddr: 0x100005AD4, symSize: 0x28 }
  - { offsetInCU: 0xD6D1, offset: 0xD6D1, size: 0x8, addend: 0x0, symName: __ZNKSt3__16vectorINS0_IxNS_9allocatorIxEEEENS1_IS3_EEE7__allocB7v160006Ev, symObjAddr: 0x1EC0, symBinAddr: 0x100005AFC, symSize: 0x28 }
  - { offsetInCU: 0xD6F7, offset: 0xD6F7, size: 0x8, addend: 0x0, symName: __ZNKSt3__117__compressed_pairIPNS_6vectorIxNS_9allocatorIxEEEENS2_IS4_EEE6secondB7v160006Ev, symObjAddr: 0x1EE8, symBinAddr: 0x100005B24, symSize: 0x24 }
  - { offsetInCU: 0xD71D, offset: 0xD71D, size: 0x8, addend: 0x0, symName: __ZNKSt3__122__compressed_pair_elemINS_9allocatorINS_6vectorIxNS1_IxEEEEEELi1ELb1EE5__getB7v160006Ev, symObjAddr: 0x1F0C, symBinAddr: 0x100005B48, symSize: 0x14 }
  - { offsetInCU: 0xD743, offset: 0xD743, size: 0x8, addend: 0x0, symName: __ZNSt3__19allocatorINS_6vectorIxNS0_IxEEEEE17allocate_at_leastB7v160006Em, symObjAddr: 0x1F5C, symBinAddr: 0x100005B98, symSize: 0x40 }
  - { offsetInCU: 0xD777, offset: 0xD777, size: 0x8, addend: 0x0, symName: __ZNSt3__19allocatorINS_6vectorIxNS0_IxEEEEE8allocateB7v160006Em, symObjAddr: 0x1F9C, symBinAddr: 0x100005BD8, symSize: 0x5C }
  - { offsetInCU: 0xD7AB, offset: 0xD7AB, size: 0x8, addend: 0x0, symName: __ZNSt3__117__compressed_pairIPNS_6vectorIxNS_9allocatorIxEEEENS2_IS4_EEE6secondB7v160006Ev, symObjAddr: 0x1FF8, symBinAddr: 0x100005C34, symSize: 0x24 }
  - { offsetInCU: 0xD7D1, offset: 0xD7D1, size: 0x8, addend: 0x0, symName: __ZNSt3__122__compressed_pair_elemINS_9allocatorINS_6vectorIxNS1_IxEEEEEELi1ELb1EE5__getB7v160006Ev, symObjAddr: 0x201C, symBinAddr: 0x100005C58, symSize: 0x14 }
  - { offsetInCU: 0xD7F7, offset: 0xD7F7, size: 0x8, addend: 0x0, symName: __ZNSt3__117__compressed_pairIPNS_6vectorIxNS_9allocatorIxEEEENS2_IS4_EEE5firstB7v160006Ev, symObjAddr: 0x2030, symBinAddr: 0x100005C6C, symSize: 0x24 }
  - { offsetInCU: 0xD81D, offset: 0xD81D, size: 0x8, addend: 0x0, symName: __ZNSt3__122__compressed_pair_elemIPNS_6vectorIxNS_9allocatorIxEEEELi0ELb0EE5__getB7v160006Ev, symObjAddr: 0x2054, symBinAddr: 0x100005C90, symSize: 0x14 }
  - { offsetInCU: 0xD843, offset: 0xD843, size: 0x8, addend: 0x0, symName: __ZNKSt3__16vectorINS0_IxNS_9allocatorIxEEEENS1_IS3_EEE31__annotate_contiguous_containerB7v160006EPKvS7_S7_S7_, symObjAddr: 0x2068, symBinAddr: 0x100005CA4, symSize: 0x20 }
  - { offsetInCU: 0xD899, offset: 0xD899, size: 0x8, addend: 0x0, symName: __ZNKSt3__16vectorINS0_IxNS_9allocatorIxEEEENS1_IS3_EEE4dataB7v160006Ev, symObjAddr: 0x2088, symBinAddr: 0x100005CC4, symSize: 0x28 }
  - { offsetInCU: 0xD8BF, offset: 0xD8BF, size: 0x8, addend: 0x0, symName: __ZNKSt3__16vectorINS0_IxNS_9allocatorIxEEEENS1_IS3_EEE8capacityB7v160006Ev, symObjAddr: 0x20B0, symBinAddr: 0x100005CEC, symSize: 0x40 }
  - { offsetInCU: 0xD8E5, offset: 0xD8E5, size: 0x8, addend: 0x0, symName: __ZNKSt3__16vectorINS0_IxNS_9allocatorIxEEEENS1_IS3_EEE9__end_capB7v160006Ev, symObjAddr: 0x2104, symBinAddr: 0x100005D40, symSize: 0x28 }
  - { offsetInCU: 0xD90B, offset: 0xD90B, size: 0x8, addend: 0x0, symName: __ZNKSt3__117__compressed_pairIPNS_6vectorIxNS_9allocatorIxEEEENS2_IS4_EEE5firstB7v160006Ev, symObjAddr: 0x212C, symBinAddr: 0x100005D68, symSize: 0x24 }
  - { offsetInCU: 0xD931, offset: 0xD931, size: 0x8, addend: 0x0, symName: __ZNKSt3__122__compressed_pair_elemIPNS_6vectorIxNS_9allocatorIxEEEELi0ELb0EE5__getB7v160006Ev, symObjAddr: 0x2150, symBinAddr: 0x100005D8C, symSize: 0x14 }
  - { offsetInCU: 0xD970, offset: 0xD970, size: 0x8, addend: 0x0, symName: __ZNSt3__16vectorINS0_IxNS_9allocatorIxEEEENS1_IS3_EEE21_ConstructTransactionC1B7v160006ERS5_m, symObjAddr: 0x2164, symBinAddr: 0x100005DA0, symSize: 0x3C }
  - { offsetInCU: 0xD9B8, offset: 0xD9B8, size: 0x8, addend: 0x0, symName: __ZNSt3__116allocator_traitsINS_9allocatorINS_6vectorIxNS1_IxEEEEEEE9constructB7v160006IS4_JRKS4_EvvEEvRS5_PT_DpOT0_, symObjAddr: 0x21A0, symBinAddr: 0x100005DDC, symSize: 0x30 }
  - { offsetInCU: 0xDA0D, offset: 0xDA0D, size: 0x8, addend: 0x0, symName: __ZNSt3__16vectorINS0_IxNS_9allocatorIxEEEENS1_IS3_EEE21_ConstructTransactionD1B7v160006Ev, symObjAddr: 0x21D0, symBinAddr: 0x100005E0C, symSize: 0x2C }
  - { offsetInCU: 0xDA37, offset: 0xDA37, size: 0x8, addend: 0x0, symName: __ZNSt3__16vectorINS0_IxNS_9allocatorIxEEEENS1_IS3_EEE21_ConstructTransactionC2B7v160006ERS5_m, symObjAddr: 0x21FC, symBinAddr: 0x100005E38, symSize: 0x4C }
  - { offsetInCU: 0xDA7F, offset: 0xDA7F, size: 0x8, addend: 0x0, symName: __ZNSt3__16vectorIxNS_9allocatorIxEEEC1ERKS3_, symObjAddr: 0x2284, symBinAddr: 0x100005EC0, symSize: 0x34 }
  - { offsetInCU: 0xDABA, offset: 0xDABA, size: 0x8, addend: 0x0, symName: __ZNSt3__16vectorIxNS_9allocatorIxEEEC2ERKS3_, symObjAddr: 0x22B8, symBinAddr: 0x100005EF4, symSize: 0x110 }
  - { offsetInCU: 0xDB19, offset: 0xDB19, size: 0x8, addend: 0x0, symName: __ZNSt3__116allocator_traitsINS_9allocatorIxEEE37select_on_container_copy_constructionB7v160006IS2_vvEES2_RKS2_, symObjAddr: 0x23C8, symBinAddr: 0x100006004, symSize: 0x10 }
  - { offsetInCU: 0xDB4E, offset: 0xDB4E, size: 0x8, addend: 0x0, symName: __ZNSt3__117__compressed_pairIPxNS_9allocatorIxEEEC1B7v160006IDnS3_EEOT_OT0_, symObjAddr: 0x23D8, symBinAddr: 0x100006014, symSize: 0x3C }
  - { offsetInCU: 0xDBA6, offset: 0xDBA6, size: 0x8, addend: 0x0, symName: __ZNSt3__16vectorIxNS_9allocatorIxEEE18__construct_at_endIPxLi0EEEvT_S6_m, symObjAddr: 0x2414, symBinAddr: 0x100006050, symSize: 0x8C }
  - { offsetInCU: 0xDC19, offset: 0xDC19, size: 0x8, addend: 0x0, symName: __ZNSt3__117__compressed_pairIPxNS_9allocatorIxEEEC2B7v160006IDnS3_EEOT_OT0_, symObjAddr: 0x24A0, symBinAddr: 0x1000060DC, symSize: 0x44 }
  - { offsetInCU: 0xDC71, offset: 0xDC71, size: 0x8, addend: 0x0, symName: __ZNSt3__122__compressed_pair_elemINS_9allocatorIxEELi1ELb1EEC2B7v160006IS2_vEEOT_, symObjAddr: 0x24E4, symBinAddr: 0x100006120, symSize: 0x18 }
  - { offsetInCU: 0xDCB3, offset: 0xDCB3, size: 0x8, addend: 0x0, symName: __ZNSt3__129_AllocatorDestroyRangeReverseINS_9allocatorIxEEPxEC1B7v160006ERS2_RS3_S6_, symObjAddr: 0x263C, symBinAddr: 0x100006278, symSize: 0x44 }
  - { offsetInCU: 0xDD0A, offset: 0xDD0A, size: 0x8, addend: 0x0, symName: __ZNSt3__116allocator_traitsINS_9allocatorIxEEE9constructB7v160006IxJRxEvvEEvRS2_PT_DpOT0_, symObjAddr: 0x2680, symBinAddr: 0x1000062BC, symSize: 0x30 }
  - { offsetInCU: 0xDD5F, offset: 0xDD5F, size: 0x8, addend: 0x0, symName: __ZNSt3__128__exception_guard_exceptionsINS_29_AllocatorDestroyRangeReverseINS_9allocatorIxEEPxEEE10__completeB7v160006Ev, symObjAddr: 0x26B0, symBinAddr: 0x1000062EC, symSize: 0x1C }
  - { offsetInCU: 0xDD85, offset: 0xDD85, size: 0x8, addend: 0x0, symName: __ZNSt3__128__exception_guard_exceptionsINS_29_AllocatorDestroyRangeReverseINS_9allocatorIxEEPxEEED1B7v160006Ev, symObjAddr: 0x26CC, symBinAddr: 0x100006308, symSize: 0x2C }
  - { offsetInCU: 0xDDAF, offset: 0xDDAF, size: 0x8, addend: 0x0, symName: __ZNSt3__128__exception_guard_exceptionsINS_29_AllocatorDestroyRangeReverseINS_9allocatorIxEEPxEEEC1B7v160006ES5_, symObjAddr: 0x26F8, symBinAddr: 0x100006334, symSize: 0x34 }
  - { offsetInCU: 0xDDE8, offset: 0xDDE8, size: 0x8, addend: 0x0, symName: __ZNSt3__128__exception_guard_exceptionsINS_29_AllocatorDestroyRangeReverseINS_9allocatorIxEEPxEEEC2B7v160006ES5_, symObjAddr: 0x272C, symBinAddr: 0x100006368, symSize: 0x30 }
  - { offsetInCU: 0xDE21, offset: 0xDE21, size: 0x8, addend: 0x0, symName: __ZNSt3__129_AllocatorDestroyRangeReverseINS_9allocatorIxEEPxEC2B7v160006ERS2_RS3_S6_, symObjAddr: 0x275C, symBinAddr: 0x100006398, symSize: 0x38 }
  - { offsetInCU: 0xDE78, offset: 0xDE78, size: 0x8, addend: 0x0, symName: __ZNSt3__128__exception_guard_exceptionsINS_29_AllocatorDestroyRangeReverseINS_9allocatorIxEEPxEEED2B7v160006Ev, symObjAddr: 0x27C0, symBinAddr: 0x1000063FC, symSize: 0x50 }
  - { offsetInCU: 0xDEA2, offset: 0xDEA2, size: 0x8, addend: 0x0, symName: __ZNKSt3__129_AllocatorDestroyRangeReverseINS_9allocatorIxEEPxEclB7v160006Ev, symObjAddr: 0x2810, symBinAddr: 0x10000644C, symSize: 0x68 }
  - { offsetInCU: 0xDEC8, offset: 0xDEC8, size: 0x8, addend: 0x0, symName: __ZNSt3__116reverse_iteratorIPxEC1B7v160006ES1_, symObjAddr: 0x28E8, symBinAddr: 0x100006524, symSize: 0x34 }
  - { offsetInCU: 0xDF00, offset: 0xDF00, size: 0x8, addend: 0x0, symName: __ZNSt3__116reverse_iteratorIPxEppB7v160006Ev, symObjAddr: 0x2988, symBinAddr: 0x1000065C4, symSize: 0x20 }
  - { offsetInCU: 0xDF26, offset: 0xDF26, size: 0x8, addend: 0x0, symName: __ZNKSt3__116reverse_iteratorIPxE4baseB7v160006Ev, symObjAddr: 0x29A8, symBinAddr: 0x1000065E4, symSize: 0x18 }
  - { offsetInCU: 0xDF51, offset: 0xDF51, size: 0x8, addend: 0x0, symName: __ZNSt3__119__to_address_helperINS_16reverse_iteratorIPxEEvE6__callB7v160006ERKS3_, symObjAddr: 0x29C0, symBinAddr: 0x1000065FC, symSize: 0x38 }
  - { offsetInCU: 0xDF74, offset: 0xDF74, size: 0x8, addend: 0x0, symName: __ZNKSt3__116reverse_iteratorIPxEptB7v160006Ev, symObjAddr: 0x29F8, symBinAddr: 0x100006634, symSize: 0x2C }
  - { offsetInCU: 0xDF9A, offset: 0xDF9A, size: 0x8, addend: 0x0, symName: __ZNSt3__116reverse_iteratorIPxEC2B7v160006ES1_, symObjAddr: 0x2B00, symBinAddr: 0x10000673C, symSize: 0x28 }
  - { offsetInCU: 0xDFD2, offset: 0xDFD2, size: 0x8, addend: 0x0, symName: __ZNSt3__16vectorINS0_IxNS_9allocatorIxEEEENS1_IS3_EEE21_ConstructTransactionD2B7v160006Ev, symObjAddr: 0x2B28, symBinAddr: 0x100006764, symSize: 0x20 }
  - { offsetInCU: 0xDFFC, offset: 0xDFFC, size: 0x8, addend: 0x0, symName: __ZNSt3__128__exception_guard_exceptionsINS_6vectorINS1_IxNS_9allocatorIxEEEENS2_IS4_EEE16__destroy_vectorEED2B7v160006Ev, symObjAddr: 0x2B48, symBinAddr: 0x100006784, symSize: 0x50 }
  - { offsetInCU: 0xE026, offset: 0xE026, size: 0x8, addend: 0x0, symName: __ZNSt3__16vectorINS0_IxNS_9allocatorIxEEEENS1_IS3_EEE16__destroy_vectorclB7v160006Ev, symObjAddr: 0x2B98, symBinAddr: 0x1000067D4, symSize: 0x9C }
  - { offsetInCU: 0xE04C, offset: 0xE04C, size: 0x8, addend: 0x0, symName: __ZNKSt3__16vectorINS0_IxNS_9allocatorIxEEEENS1_IS3_EEE17__annotate_deleteB7v160006Ev, symObjAddr: 0x2C34, symBinAddr: 0x100006870, symSize: 0xD4 }
  - { offsetInCU: 0xE072, offset: 0xE072, size: 0x8, addend: 0x0, symName: __ZNSt3__16vectorINS0_IxNS_9allocatorIxEEEENS1_IS3_EEE7__clearB7v160006Ev, symObjAddr: 0x2D18, symBinAddr: 0x100006954, symSize: 0x28 }
  - { offsetInCU: 0xE098, offset: 0xE098, size: 0x8, addend: 0x0, symName: __ZNSt3__116allocator_traitsINS_9allocatorINS_6vectorIxNS1_IxEEEEEEE10deallocateB7v160006ERS5_PS4_m, symObjAddr: 0x2D40, symBinAddr: 0x10000697C, symSize: 0x34 }
  - { offsetInCU: 0xE0DA, offset: 0xE0DA, size: 0x8, addend: 0x0, symName: __ZNKSt3__16vectorINS0_IxNS_9allocatorIxEEEENS1_IS3_EEE4sizeB7v160006Ev, symObjAddr: 0x2D74, symBinAddr: 0x1000069B0, symSize: 0x28 }
  - { offsetInCU: 0xE100, offset: 0xE100, size: 0x8, addend: 0x0, symName: __ZNSt3__16vectorINS0_IxNS_9allocatorIxEEEENS1_IS3_EEE22__base_destruct_at_endB7v160006EPS3_, symObjAddr: 0x2D9C, symBinAddr: 0x1000069D8, symSize: 0x8C }
  - { offsetInCU: 0xE144, offset: 0xE144, size: 0x8, addend: 0x0, symName: __ZNSt3__116allocator_traitsINS_9allocatorINS_6vectorIxNS1_IxEEEEEEE7destroyB7v160006IS4_vvEEvRS5_PT_, symObjAddr: 0x2E28, symBinAddr: 0x100006A64, symSize: 0x28 }
  - { offsetInCU: 0xE17F, offset: 0xE17F, size: 0x8, addend: 0x0, symName: __ZNSt3__19allocatorINS_6vectorIxNS0_IxEEEEE10deallocateB7v160006EPS3_m, symObjAddr: 0x2E98, symBinAddr: 0x100006AD4, symSize: 0x44 }
  - { offsetInCU: 0xE1C1, offset: 0xE1C1, size: 0x8, addend: 0x0, symName: __ZNSt3__16vectorIxNS_9allocatorIxEEED2B7v160006Ev, symObjAddr: 0x2EDC, symBinAddr: 0x100006B18, symSize: 0x44 }
  - { offsetInCU: 0xE1EB, offset: 0xE1EB, size: 0x8, addend: 0x0, symName: __ZNSt3__16vectorINS0_IxNS_9allocatorIxEEEENS1_IS3_EEED2B7v160006Ev, symObjAddr: 0x2F20, symBinAddr: 0x100006B5C, symSize: 0x44 }
  - { offsetInCU: 0xE29A, offset: 0xE29A, size: 0x8, addend: 0x0, symName: __ZNKSt3__113basic_istreamIcNS_11char_traitsIcEEE6sentrycvbB7v160006Ev, symObjAddr: 0x2F64, symBinAddr: 0x100006BA0, symSize: 0x1C }
  - { offsetInCU: 0xE2C0, offset: 0xE2C0, size: 0x8, addend: 0x0, symName: __ZNKSt3__19basic_iosIcNS_11char_traitsIcEEE5rdbufB7v160006Ev, symObjAddr: 0x2F80, symBinAddr: 0x100006BBC, symSize: 0x24 }
  - { offsetInCU: 0xE2E8, offset: 0xE2E8, size: 0x8, addend: 0x0, symName: __ZNSt3__115basic_streambufIcNS_11char_traitsIcEEE6sbumpcB7v160006Ev, symObjAddr: 0x2FA4, symBinAddr: 0x100006BE0, symSize: 0x78 }
  - { offsetInCU: 0xE30E, offset: 0xE30E, size: 0x8, addend: 0x0, symName: __ZNSt3__111char_traitsIcE11eq_int_typeEii, symObjAddr: 0x301C, symBinAddr: 0x100006C58, symSize: 0x28 }
  - { offsetInCU: 0xE33F, offset: 0xE33F, size: 0x8, addend: 0x0, symName: __ZNSt3__111char_traitsIcE3eofEv, symObjAddr: 0x3044, symBinAddr: 0x100006C80, symSize: 0x8 }
  - { offsetInCU: 0xE353, offset: 0xE353, size: 0x8, addend: 0x0, symName: __ZNSt3__111char_traitsIcE12to_char_typeEi, symObjAddr: 0x304C, symBinAddr: 0x100006C88, symSize: 0x18 }
  - { offsetInCU: 0xE376, offset: 0xE376, size: 0x8, addend: 0x0, symName: __ZNSt3__18ios_base18__setstate_nothrowB7v160006Ej, symObjAddr: 0x3064, symBinAddr: 0x100006CA0, symSize: 0x64 }
  - { offsetInCU: 0xE3AB, offset: 0xE3AB, size: 0x8, addend: 0x0, symName: __ZNKSt3__19basic_iosIcNS_11char_traitsIcEEE10exceptionsB7v160006Ev, symObjAddr: 0x30C8, symBinAddr: 0x100006D04, symSize: 0x24 }
  - { offsetInCU: 0xE3D1, offset: 0xE3D1, size: 0x8, addend: 0x0, symName: __ZNSt3__19basic_iosIcNS_11char_traitsIcEEE8setstateB7v160006Ej, symObjAddr: 0x30EC, symBinAddr: 0x100006D28, symSize: 0x2C }
  - { offsetInCU: 0xE406, offset: 0xE406, size: 0x8, addend: 0x0, symName: __ZNKSt3__18ios_base5rdbufB7v160006Ev, symObjAddr: 0x3118, symBinAddr: 0x100006D54, symSize: 0x18 }
  - { offsetInCU: 0xE42C, offset: 0xE42C, size: 0x8, addend: 0x0, symName: __ZNSt3__111char_traitsIcE11to_int_typeEc, symObjAddr: 0x3130, symBinAddr: 0x100006D6C, symSize: 0x14 }
  - { offsetInCU: 0xE44F, offset: 0xE44F, size: 0x8, addend: 0x0, symName: __ZNKSt3__18ios_base10exceptionsB7v160006Ev, symObjAddr: 0x3144, symBinAddr: 0x100006D80, symSize: 0x18 }
  - { offsetInCU: 0xE477, offset: 0xE477, size: 0x8, addend: 0x0, symName: __ZNSt3__18ios_base8setstateB7v160006Ej, symObjAddr: 0x315C, symBinAddr: 0x100006D98, symSize: 0x34 }
  - { offsetInCU: 0xE4AE, offset: 0xE4AE, size: 0x8, addend: 0x0, symName: __ZNSt3__111char_traitsIcE6lengthEPKc, symObjAddr: 0x337C, symBinAddr: 0x100006FB8, symSize: 0x34 }
  - { offsetInCU: 0xE4EA, offset: 0xE4EA, size: 0x8, addend: 0x0, symName: __ZNKSt3__113basic_ostreamIcNS_11char_traitsIcEEE6sentrycvbB7v160006Ev, symObjAddr: 0x33B0, symBinAddr: 0x100006FEC, symSize: 0x1C }
  - { offsetInCU: 0xE510, offset: 0xE510, size: 0x8, addend: 0x0, symName: __ZNSt3__119ostreambuf_iteratorIcNS_11char_traitsIcEEEC1B7v160006ERNS_13basic_ostreamIcS2_EE, symObjAddr: 0x360C, symBinAddr: 0x100007248, symSize: 0x34 }
  - { offsetInCU: 0xE548, offset: 0xE548, size: 0x8, addend: 0x0, symName: __ZNKSt3__18ios_base5flagsB7v160006Ev, symObjAddr: 0x3640, symBinAddr: 0x10000727C, symSize: 0x18 }
  - { offsetInCU: 0xE570, offset: 0xE570, size: 0x8, addend: 0x0, symName: __ZNKSt3__19basic_iosIcNS_11char_traitsIcEEE4fillB7v160006Ev, symObjAddr: 0x3658, symBinAddr: 0x100007294, symSize: 0x64 }
  - { offsetInCU: 0xE598, offset: 0xE598, size: 0x8, addend: 0x0, symName: __ZNKSt3__119ostreambuf_iteratorIcNS_11char_traitsIcEEE6failedB7v160006Ev, symObjAddr: 0x36BC, symBinAddr: 0x1000072F8, symSize: 0x24 }
  - { offsetInCU: 0xE5BE, offset: 0xE5BE, size: 0x8, addend: 0x0, symName: __ZNKSt3__18ios_base5widthB7v160006Ev, symObjAddr: 0x36E0, symBinAddr: 0x10000731C, symSize: 0x18 }
  - { offsetInCU: 0xE5E6, offset: 0xE5E6, size: 0x8, addend: 0x0, symName: __ZNSt3__115basic_streambufIcNS_11char_traitsIcEEE5sputnB7v160006EPKcl, symObjAddr: 0x36F8, symBinAddr: 0x100007334, symSize: 0x3C }
  - { offsetInCU: 0xE628, offset: 0xE628, size: 0x8, addend: 0x0, symName: __ZNSt3__112basic_stringIcNS_11char_traitsIcEENS_9allocatorIcEEEC1B7v160006Emc, symObjAddr: 0x3734, symBinAddr: 0x100007370, symSize: 0x3C }
  - { offsetInCU: 0xE670, offset: 0xE670, size: 0x8, addend: 0x0, symName: __ZNSt3__112basic_stringIcNS_11char_traitsIcEENS_9allocatorIcEEE4dataB7v160006Ev, symObjAddr: 0x3770, symBinAddr: 0x1000073AC, symSize: 0x28 }
  - { offsetInCU: 0xE696, offset: 0xE696, size: 0x8, addend: 0x0, symName: __ZNSt3__18ios_base5widthB7v160006El, symObjAddr: 0x3798, symBinAddr: 0x1000073D4, symSize: 0x2C }
  - { offsetInCU: 0xE6DC, offset: 0xE6DC, size: 0x8, addend: 0x0, symName: __ZNSt3__112basic_stringIcNS_11char_traitsIcEENS_9allocatorIcEEEC2B7v160006Emc, symObjAddr: 0x37C4, symBinAddr: 0x100007400, symSize: 0x54 }
  - { offsetInCU: 0xE724, offset: 0xE724, size: 0x8, addend: 0x0, symName: __ZNSt3__117__compressed_pairINS_12basic_stringIcNS_11char_traitsIcEENS_9allocatorIcEEE5__repES5_EC1B7v160006INS_18__default_init_tagESA_EEOT_OT0_, symObjAddr: 0x3818, symBinAddr: 0x100007454, symSize: 0x3C }
  - { offsetInCU: 0xE77C, offset: 0xE77C, size: 0x8, addend: 0x0, symName: __ZNSt3__117__compressed_pairINS_12basic_stringIcNS_11char_traitsIcEENS_9allocatorIcEEE5__repES5_EC2B7v160006INS_18__default_init_tagESA_EEOT_OT0_, symObjAddr: 0x3864, symBinAddr: 0x1000074A0, symSize: 0x3C }
  - { offsetInCU: 0xE7D4, offset: 0xE7D4, size: 0x8, addend: 0x0, symName: __ZNSt3__122__compressed_pair_elemINS_12basic_stringIcNS_11char_traitsIcEENS_9allocatorIcEEE5__repELi0ELb0EEC2B7v160006ENS_18__default_init_tagE, symObjAddr: 0x38A0, symBinAddr: 0x1000074DC, symSize: 0x14 }
  - { offsetInCU: 0xE808, offset: 0xE808, size: 0x8, addend: 0x0, symName: __ZNSt3__122__compressed_pair_elemINS_9allocatorIcEELi1ELb1EEC2B7v160006ENS_18__default_init_tagE, symObjAddr: 0x38B4, symBinAddr: 0x1000074F0, symSize: 0x2C }
  - { offsetInCU: 0xE83C, offset: 0xE83C, size: 0x8, addend: 0x0, symName: __ZNSt3__19allocatorIcEC2B7v160006Ev, symObjAddr: 0x38E0, symBinAddr: 0x10000751C, symSize: 0x2C }
  - { offsetInCU: 0xE866, offset: 0xE866, size: 0x8, addend: 0x0, symName: __ZNSt3__116__non_trivial_ifILb1ENS_9allocatorIcEEEC2B7v160006Ev, symObjAddr: 0x390C, symBinAddr: 0x100007548, symSize: 0x14 }
  - { offsetInCU: 0xE890, offset: 0xE890, size: 0x8, addend: 0x0, symName: __ZNSt3__112basic_stringIcNS_11char_traitsIcEENS_9allocatorIcEEE13__get_pointerB7v160006Ev, symObjAddr: 0x3934, symBinAddr: 0x100007570, symSize: 0x54 }
  - { offsetInCU: 0xE8B6, offset: 0xE8B6, size: 0x8, addend: 0x0, symName: __ZNKSt3__112basic_stringIcNS_11char_traitsIcEENS_9allocatorIcEEE9__is_longB7v160006Ev, symObjAddr: 0x3988, symBinAddr: 0x1000075C4, symSize: 0x38 }
  - { offsetInCU: 0xE8DC, offset: 0xE8DC, size: 0x8, addend: 0x0, symName: __ZNSt3__112basic_stringIcNS_11char_traitsIcEENS_9allocatorIcEEE18__get_long_pointerB7v160006Ev, symObjAddr: 0x39C0, symBinAddr: 0x1000075FC, symSize: 0x28 }
  - { offsetInCU: 0xE902, offset: 0xE902, size: 0x8, addend: 0x0, symName: __ZNSt3__112basic_stringIcNS_11char_traitsIcEENS_9allocatorIcEEE19__get_short_pointerB7v160006Ev, symObjAddr: 0x39E8, symBinAddr: 0x100007624, symSize: 0x28 }
  - { offsetInCU: 0xE928, offset: 0xE928, size: 0x8, addend: 0x0, symName: __ZNKSt3__117__compressed_pairINS_12basic_stringIcNS_11char_traitsIcEENS_9allocatorIcEEE5__repES5_E5firstB7v160006Ev, symObjAddr: 0x3A10, symBinAddr: 0x10000764C, symSize: 0x24 }
  - { offsetInCU: 0xE94E, offset: 0xE94E, size: 0x8, addend: 0x0, symName: __ZNKSt3__122__compressed_pair_elemINS_12basic_stringIcNS_11char_traitsIcEENS_9allocatorIcEEE5__repELi0ELb0EE5__getB7v160006Ev, symObjAddr: 0x3A34, symBinAddr: 0x100007670, symSize: 0x14 }
  - { offsetInCU: 0xE974, offset: 0xE974, size: 0x8, addend: 0x0, symName: __ZNSt3__117__compressed_pairINS_12basic_stringIcNS_11char_traitsIcEENS_9allocatorIcEEE5__repES5_E5firstB7v160006Ev, symObjAddr: 0x3A48, symBinAddr: 0x100007684, symSize: 0x24 }
  - { offsetInCU: 0xE99A, offset: 0xE99A, size: 0x8, addend: 0x0, symName: __ZNSt3__122__compressed_pair_elemINS_12basic_stringIcNS_11char_traitsIcEENS_9allocatorIcEEE5__repELi0ELb0EE5__getB7v160006Ev, symObjAddr: 0x3A6C, symBinAddr: 0x1000076A8, symSize: 0x14 }
  - { offsetInCU: 0xE9C0, offset: 0xE9C0, size: 0x8, addend: 0x0, symName: __ZNSt3__114pointer_traitsIPcE10pointer_toB7v160006ERc, symObjAddr: 0x3A80, symBinAddr: 0x1000076BC, symSize: 0x14 }
  - { offsetInCU: 0xE9E3, offset: 0xE9E3, size: 0x8, addend: 0x0, symName: __ZNSt3__119ostreambuf_iteratorIcNS_11char_traitsIcEEEC2B7v160006ERNS_13basic_ostreamIcS2_EE, symObjAddr: 0x3A94, symBinAddr: 0x1000076D0, symSize: 0x54 }
  - { offsetInCU: 0xEA1B, offset: 0xEA1B, size: 0x8, addend: 0x0, symName: __ZNKSt3__19basic_iosIcNS_11char_traitsIcEEE5widenB7v160006Ec, symObjAddr: 0x3AE8, symBinAddr: 0x100007724, symSize: 0x84 }
  - { offsetInCU: 0xEA89, offset: 0xEA89, size: 0x8, addend: 0x0, symName: __ZNKSt3__15ctypeIcE5widenB7v160006Ec, symObjAddr: 0x3B98, symBinAddr: 0x1000077D4, symSize: 0x38 }
...
