---
triple:          'arm64-apple-darwin'
binary-path:     '/Users/rohakdebnath/Desktop/Cpp /CodeForces/howdoestherookmove'
relocations:
  - { offsetInCU: 0x62, offset: 0x62, size: 0x8, addend: 0x0, symName: _fact, symObjAddr: 0x21A30, symBinAddr: 0x100008000, symSize: 0x0 }
  - { offsetInCU: 0x464D, offset: 0x464D, size: 0x8, addend: 0x0, symName: __ZNSt3__124__put_character_sequenceB7v160006IcNS_11char_traitsIcEEEERNS_13basic_ostreamIT_T0_EES7_PKS4_m, symObjAddr: 0x1DD4, symBinAddr: 0x100002F64, symSize: 0x1EC }
  - { offsetInCU: 0x6496, offset: 0x6496, size: 0x8, addend: 0x0, symName: __ZNSt3__1lsB7v160006INS_11char_traitsIcEEEERNS_13basic_ostreamIcT_EES6_c, symObjAddr: 0x858, symBinAddr: 0x1000019E8, symSize: 0x34 }
  - { offsetInCU: 0x64DC, offset: 0x64DC, size: 0x8, addend: 0x0, symName: __ZNSt3__122__make_exception_guardB7v160006INS_6vectorI2miNS_9allocatorIS2_EEE16__destroy_vectorEEENS_28__exception_guard_exceptionsIT_EES8_, symObjAddr: 0xAD8, symBinAddr: 0x100001C68, symSize: 0x40 }
  - { offsetInCU: 0x6511, offset: 0x6511, size: 0x8, addend: 0x0, symName: __ZNSt3__119__debug_db_insert_cB7v160006INS_6vectorI2miNS_9allocatorIS2_EEEEEEvPT_, symObjAddr: 0xB4C, symBinAddr: 0x100001CDC, symSize: 0x10 }
  - { offsetInCU: 0x6542, offset: 0x6542, size: 0x8, addend: 0x0, symName: __ZNSt3__119__allocate_at_leastB7v160006INS_9allocatorI2miEEEEDaRT_m, symObjAddr: 0xEDC, symBinAddr: 0x10000206C, symSize: 0x3C }
  - { offsetInCU: 0x6585, offset: 0x6585, size: 0x8, addend: 0x0, symName: __ZNSt3__13minB7v160006ImEERKT_S3_S3_, symObjAddr: 0x1014, symBinAddr: 0x1000021A4, symSize: 0x2C }
  - { offsetInCU: 0x67B2, offset: 0x67B2, size: 0x8, addend: 0x0, symName: __ZNSt3__13minB7v160006ImNS_6__lessImmEEEERKT_S5_S5_T0_, symObjAddr: 0x10B0, symBinAddr: 0x100002240, symSize: 0x54 }
  - { offsetInCU: 0x6A33, offset: 0x6A33, size: 0x8, addend: 0x0, symName: __ZNSt3__120__throw_length_errorB7v160006EPKc, symObjAddr: 0x1194, symBinAddr: 0x100002324, symSize: 0x64 }
  - { offsetInCU: 0x6A5B, offset: 0x6A5B, size: 0x8, addend: 0x0, symName: __ZNSt3__117allocate_at_leastB7v160006INS_9allocatorI2miEEEENS_17allocation_resultINS_16allocator_traitsIT_E7pointerEEERS6_m, symObjAddr: 0x1278, symBinAddr: 0x100002408, symSize: 0x3C }
  - { offsetInCU: 0x6A9E, offset: 0x6A9E, size: 0x8, addend: 0x0, symName: __ZNSt3__117__libcpp_allocateB7v160006Emm, symObjAddr: 0x1380, symBinAddr: 0x100002510, symSize: 0x60 }
  - { offsetInCU: 0x6AF8, offset: 0x6AF8, size: 0x8, addend: 0x0, symName: __ZNSt3__124__is_overaligned_for_newB7v160006Em, symObjAddr: 0x13E0, symBinAddr: 0x100002570, symSize: 0x20 }
  - { offsetInCU: 0x6B26, offset: 0x6B26, size: 0x8, addend: 0x0, symName: __ZNSt3__121__libcpp_operator_newB7v160006IJmSt11align_val_tEEEPvDpT_, symObjAddr: 0x1400, symBinAddr: 0x100002590, symSize: 0x2C }
  - { offsetInCU: 0x6B73, offset: 0x6B73, size: 0x8, addend: 0x0, symName: __ZNSt3__121__libcpp_operator_newB7v160006IJmEEEPvDpT_, symObjAddr: 0x142C, symBinAddr: 0x1000025BC, symSize: 0x24 }
  - { offsetInCU: 0x6BAC, offset: 0x6BAC, size: 0x8, addend: 0x0, symName: __ZNSt3__112__to_addressB7v160006I2miEEPT_S3_, symObjAddr: 0x1548, symBinAddr: 0x1000026D8, symSize: 0x14 }
  - { offsetInCU: 0x6C06, offset: 0x6C06, size: 0x8, addend: 0x0, symName: __ZNSt3__112construct_atB7v160006I2miJRKS1_EPS1_EEPT_S6_DpOT0_, symObjAddr: 0x1698, symBinAddr: 0x100002828, symSize: 0x2C }
  - { offsetInCU: 0x6C76, offset: 0x6C76, size: 0x8, addend: 0x0, symName: __ZNSt3__118__debug_db_erase_cB7v160006INS_6vectorI2miNS_9allocatorIS2_EEEEEEvPT_, symObjAddr: 0x1888, symBinAddr: 0x100002A18, symSize: 0x10 }
  - { offsetInCU: 0x6CA7, offset: 0x6CA7, size: 0x8, addend: 0x0, symName: __ZNSt3__110destroy_atB7v160006I2miLi0EEEvPT_, symObjAddr: 0x19D0, symBinAddr: 0x100002B60, symSize: 0x24 }
  - { offsetInCU: 0x6CDE, offset: 0x6CDE, size: 0x8, addend: 0x0, symName: __ZNSt3__112__destroy_atB7v160006I2miLi0EEEvPT_, symObjAddr: 0x19F4, symBinAddr: 0x100002B84, symSize: 0x10 }
  - { offsetInCU: 0x6D15, offset: 0x6D15, size: 0x8, addend: 0x0, symName: __ZNSt3__119__libcpp_deallocateB7v160006EPvmm, symObjAddr: 0x1A44, symBinAddr: 0x100002BD4, symSize: 0x60 }
  - { offsetInCU: 0x6D7A, offset: 0x6D7A, size: 0x8, addend: 0x0, symName: __ZNSt3__127__do_deallocate_handle_sizeB7v160006IJSt11align_val_tEEEvPvmDpT_, symObjAddr: 0x1AA4, symBinAddr: 0x100002C34, symSize: 0x30 }
  - { offsetInCU: 0x6DCD, offset: 0x6DCD, size: 0x8, addend: 0x0, symName: __ZNSt3__127__do_deallocate_handle_sizeB7v160006IJEEEvPvmDpT_, symObjAddr: 0x1AD4, symBinAddr: 0x100002C64, symSize: 0x28 }
  - { offsetInCU: 0x6E0B, offset: 0x6E0B, size: 0x8, addend: 0x0, symName: __ZNSt3__124__libcpp_operator_deleteB7v160006IJPvSt11align_val_tEEEvDpT_, symObjAddr: 0x1AFC, symBinAddr: 0x100002C8C, symSize: 0x2C }
  - { offsetInCU: 0x6E54, offset: 0x6E54, size: 0x8, addend: 0x0, symName: __ZNSt3__124__libcpp_operator_deleteB7v160006IJPvEEEvDpT_, symObjAddr: 0x1B28, symBinAddr: 0x100002CB8, symSize: 0x24 }
  - { offsetInCU: 0x6E89, offset: 0x6E89, size: 0x8, addend: 0x0, symName: __ZNSt3__112construct_atB7v160006I2miJEPS1_EEPT_S4_DpOT0_, symObjAddr: 0x1D5C, symBinAddr: 0x100002EEC, symSize: 0x34 }
  - { offsetInCU: 0x6EE5, offset: 0x6EE5, size: 0x8, addend: 0x0, symName: __ZNSt3__116__pad_and_outputB7v160006IcNS_11char_traitsIcEEEENS_19ostreambuf_iteratorIT_T0_EES6_PKS4_S8_S8_RNS_8ios_baseES4_, symObjAddr: 0x1FDC, symBinAddr: 0x10000316C, symSize: 0x240 }
  - { offsetInCU: 0x6FB4, offset: 0x6FB4, size: 0x8, addend: 0x0, symName: __ZNSt3__119__debug_db_insert_cB7v160006INS_12basic_stringIcNS_11char_traitsIcEENS_9allocatorIcEEEEEEvPT_, symObjAddr: 0x2490, symBinAddr: 0x100003620, symSize: 0x10 }
  - { offsetInCU: 0x6FE5, offset: 0x6FE5, size: 0x8, addend: 0x0, symName: __ZNSt3__112__to_addressB7v160006IcEEPT_S2_, symObjAddr: 0x255C, symBinAddr: 0x1000036EC, symSize: 0x14 }
  - { offsetInCU: 0x701A, offset: 0x701A, size: 0x8, addend: 0x0, symName: __ZNSt3__19use_facetB7v160006INS_5ctypeIcEEEERKT_RKNS_6localeE, symObjAddr: 0x2814, symBinAddr: 0x1000039A4, symSize: 0x2C }
  - { offsetInCU: 0x7794, offset: 0x7794, size: 0x8, addend: 0x0, symName: __ZSt28__throw_bad_array_new_lengthB7v160006v, symObjAddr: 0x134C, symBinAddr: 0x1000024DC, symSize: 0x34 }
  - { offsetInCU: 0xA340, offset: 0xA340, size: 0x8, addend: 0x0, symName: __ZpLR2miS_, symObjAddr: 0x0, symBinAddr: 0x100001190, symSize: 0x64 }
  - { offsetInCU: 0xA37A, offset: 0xA37A, size: 0x8, addend: 0x0, symName: __ZmIR2miS_, symObjAddr: 0x64, symBinAddr: 0x1000011F4, symSize: 0x5C }
  - { offsetInCU: 0xA3B4, offset: 0xA3B4, size: 0x8, addend: 0x0, symName: __Zpl2miS_, symObjAddr: 0xC0, symBinAddr: 0x100001250, symSize: 0x4C }
  - { offsetInCU: 0xA3EE, offset: 0xA3EE, size: 0x8, addend: 0x0, symName: __Zmi2miS_, symObjAddr: 0x10C, symBinAddr: 0x10000129C, symSize: 0x4C }
  - { offsetInCU: 0xA428, offset: 0xA428, size: 0x8, addend: 0x0, symName: __Zml2miS_, symObjAddr: 0x158, symBinAddr: 0x1000012E8, symSize: 0x40 }
  - { offsetInCU: 0xA463, offset: 0xA463, size: 0x8, addend: 0x0, symName: __ZN2miC1Ex, symObjAddr: 0x198, symBinAddr: 0x100001328, symSize: 0x34 }
  - { offsetInCU: 0xA49A, offset: 0xA49A, size: 0x8, addend: 0x0, symName: __ZmLR2miS_, symObjAddr: 0x1CC, symBinAddr: 0x10000135C, symSize: 0x5C }
  - { offsetInCU: 0xA4D4, offset: 0xA4D4, size: 0x8, addend: 0x0, symName: __Z3pow2mix, symObjAddr: 0x228, symBinAddr: 0x1000013B8, symSize: 0xA4 }
  - { offsetInCU: 0xA51D, offset: 0xA51D, size: 0x8, addend: 0x0, symName: __Z3inv2mi, symObjAddr: 0x2CC, symBinAddr: 0x10000145C, symSize: 0x44 }
  - { offsetInCU: 0xA549, offset: 0xA549, size: 0x8, addend: 0x0, symName: __Zdv2miS_, symObjAddr: 0x310, symBinAddr: 0x1000014A0, symSize: 0x64 }
  - { offsetInCU: 0xA584, offset: 0xA584, size: 0x8, addend: 0x0, symName: __ZNSt3__16vectorI2miNS_9allocatorIS1_EEEC1EmRKS1_, symObjAddr: 0x374, symBinAddr: 0x100001504, symSize: 0x3C }
  - { offsetInCU: 0xA5CE, offset: 0xA5CE, size: 0x8, addend: 0x0, symName: __ZNSt3__16vectorI2miNS_9allocatorIS1_EEED1B7v160006Ev, symObjAddr: 0x3B0, symBinAddr: 0x100001540, symSize: 0x2C }
  - { offsetInCU: 0xA5F7, offset: 0xA5F7, size: 0x8, addend: 0x0, symName: __Z21precompute_factorialsv, symObjAddr: 0x3DC, symBinAddr: 0x10000156C, symSize: 0xB8 }
  - { offsetInCU: 0xA62F, offset: 0xA62F, size: 0x8, addend: 0x0, symName: __ZNSt3__16vectorI2miNS_9allocatorIS1_EEEixB7v160006Em, symObjAddr: 0x494, symBinAddr: 0x100001624, symSize: 0x24 }
  - { offsetInCU: 0xA665, offset: 0xA665, size: 0x8, addend: 0x0, symName: __Z3nCrii, symObjAddr: 0x4B8, symBinAddr: 0x100001648, symSize: 0x100 }
  - { offsetInCU: 0xA69F, offset: 0xA69F, size: 0x8, addend: 0x0, symName: __Z5solvev, symObjAddr: 0x5B8, symBinAddr: 0x100001748, symSize: 0x26C }
  - { offsetInCU: 0xA74D, offset: 0xA74D, size: 0x8, addend: 0x0, symName: __ZNSt3__16vectorI2miNS_9allocatorIS1_EEEC1Em, symObjAddr: 0x824, symBinAddr: 0x1000019B4, symSize: 0x34 }
  - { offsetInCU: 0xA788, offset: 0xA788, size: 0x8, addend: 0x0, symName: __ZNK2micviEv, symObjAddr: 0x88C, symBinAddr: 0x100001A1C, symSize: 0x18 }
  - { offsetInCU: 0xA7AE, offset: 0xA7AE, size: 0x8, addend: 0x0, symName: _main, symObjAddr: 0x8A4, symBinAddr: 0x100001A34, symSize: 0x88 }
  - { offsetInCU: 0xA7D8, offset: 0xA7D8, size: 0x8, addend: 0x0, symName: __ZNSt3__19basic_iosIcNS_11char_traitsIcEEE3tieB7v160006EPNS_13basic_ostreamIcS2_EE, symObjAddr: 0x92C, symBinAddr: 0x100001ABC, symSize: 0x2C }
  - { offsetInCU: 0xA81E, offset: 0xA81E, size: 0x8, addend: 0x0, symName: __ZN2miC2Ex, symObjAddr: 0x958, symBinAddr: 0x100001AE8, symSize: 0x5C }
  - { offsetInCU: 0xA856, offset: 0xA856, size: 0x8, addend: 0x0, symName: __ZNSt3__16vectorI2miNS_9allocatorIS1_EEEC2EmRKS1_, symObjAddr: 0x9B4, symBinAddr: 0x100001B44, symSize: 0xE8 }
  - { offsetInCU: 0xA8BF, offset: 0xA8BF, size: 0x8, addend: 0x0, symName: __ZNSt3__117__compressed_pairIP2miNS_9allocatorIS1_EEEC1B7v160006IDnNS_18__default_init_tagEEEOT_OT0_, symObjAddr: 0xA9C, symBinAddr: 0x100001C2C, symSize: 0x3C }
  - { offsetInCU: 0xA917, offset: 0xA917, size: 0x8, addend: 0x0, symName: __ZNSt3__16vectorI2miNS_9allocatorIS1_EEE16__destroy_vectorC1ERS4_, symObjAddr: 0xB18, symBinAddr: 0x100001CA8, symSize: 0x34 }
  - { offsetInCU: 0xA950, offset: 0xA950, size: 0x8, addend: 0x0, symName: __ZNSt3__16vectorI2miNS_9allocatorIS1_EEE11__vallocateB7v160006Em, symObjAddr: 0xB5C, symBinAddr: 0x100001CEC, symSize: 0xAC }
  - { offsetInCU: 0xA994, offset: 0xA994, size: 0x8, addend: 0x0, symName: __ZNSt3__16vectorI2miNS_9allocatorIS1_EEE18__construct_at_endEmRKS1_, symObjAddr: 0xC08, symBinAddr: 0x100001D98, symSize: 0xD0 }
  - { offsetInCU: 0xAA15, offset: 0xAA15, size: 0x8, addend: 0x0, symName: __ZNSt3__128__exception_guard_exceptionsINS_6vectorI2miNS_9allocatorIS2_EEE16__destroy_vectorEE10__completeB7v160006Ev, symObjAddr: 0xCD8, symBinAddr: 0x100001E68, symSize: 0x1C }
  - { offsetInCU: 0xAA3B, offset: 0xAA3B, size: 0x8, addend: 0x0, symName: __ZNSt3__128__exception_guard_exceptionsINS_6vectorI2miNS_9allocatorIS2_EEE16__destroy_vectorEED1B7v160006Ev, symObjAddr: 0xCF4, symBinAddr: 0x100001E84, symSize: 0x2C }
  - { offsetInCU: 0xAA65, offset: 0xAA65, size: 0x8, addend: 0x0, symName: __ZNSt3__117__compressed_pairIP2miNS_9allocatorIS1_EEEC2B7v160006IDnNS_18__default_init_tagEEEOT_OT0_, symObjAddr: 0xD20, symBinAddr: 0x100001EB0, symSize: 0x40 }
  - { offsetInCU: 0xAABD, offset: 0xAABD, size: 0x8, addend: 0x0, symName: __ZNSt3__122__compressed_pair_elemIP2miLi0ELb0EEC2B7v160006IDnvEEOT_, symObjAddr: 0xD60, symBinAddr: 0x100001EF0, symSize: 0x1C }
  - { offsetInCU: 0xAAFF, offset: 0xAAFF, size: 0x8, addend: 0x0, symName: __ZNSt3__122__compressed_pair_elemINS_9allocatorI2miEELi1ELb1EEC2B7v160006ENS_18__default_init_tagE, symObjAddr: 0xD7C, symBinAddr: 0x100001F0C, symSize: 0x2C }
  - { offsetInCU: 0xAB34, offset: 0xAB34, size: 0x8, addend: 0x0, symName: __ZNSt3__19allocatorI2miEC2B7v160006Ev, symObjAddr: 0xDA8, symBinAddr: 0x100001F38, symSize: 0x2C }
  - { offsetInCU: 0xAB5E, offset: 0xAB5E, size: 0x8, addend: 0x0, symName: __ZNSt3__116__non_trivial_ifILb1ENS_9allocatorI2miEEEC2B7v160006Ev, symObjAddr: 0xDD4, symBinAddr: 0x100001F64, symSize: 0x14 }
  - { offsetInCU: 0xAB88, offset: 0xAB88, size: 0x8, addend: 0x0, symName: __ZNSt3__128__exception_guard_exceptionsINS_6vectorI2miNS_9allocatorIS2_EEE16__destroy_vectorEEC1B7v160006ES6_, symObjAddr: 0xDE8, symBinAddr: 0x100001F78, symSize: 0x34 }
  - { offsetInCU: 0xABC0, offset: 0xABC0, size: 0x8, addend: 0x0, symName: __ZNSt3__128__exception_guard_exceptionsINS_6vectorI2miNS_9allocatorIS2_EEE16__destroy_vectorEEC2B7v160006ES6_, symObjAddr: 0xE1C, symBinAddr: 0x100001FAC, symSize: 0x24 }
  - { offsetInCU: 0xABF8, offset: 0xABF8, size: 0x8, addend: 0x0, symName: __ZNSt3__16vectorI2miNS_9allocatorIS1_EEE16__destroy_vectorC2ERS4_, symObjAddr: 0xE40, symBinAddr: 0x100001FD0, symSize: 0x20 }
  - { offsetInCU: 0xAC31, offset: 0xAC31, size: 0x8, addend: 0x0, symName: __ZNKSt3__16vectorI2miNS_9allocatorIS1_EEE8max_sizeEv, symObjAddr: 0xE60, symBinAddr: 0x100001FF0, symSize: 0x60 }
  - { offsetInCU: 0xAC59, offset: 0xAC59, size: 0x8, addend: 0x0, symName: __ZNKSt3__16vectorI2miNS_9allocatorIS1_EEE20__throw_length_errorB7v160006Ev, symObjAddr: 0xEC0, symBinAddr: 0x100002050, symSize: 0x1C }
  - { offsetInCU: 0xAC7F, offset: 0xAC7F, size: 0x8, addend: 0x0, symName: __ZNSt3__16vectorI2miNS_9allocatorIS1_EEE7__allocB7v160006Ev, symObjAddr: 0xF18, symBinAddr: 0x1000020A8, symSize: 0x28 }
  - { offsetInCU: 0xACA5, offset: 0xACA5, size: 0x8, addend: 0x0, symName: __ZNSt3__16vectorI2miNS_9allocatorIS1_EEE9__end_capB7v160006Ev, symObjAddr: 0xF40, symBinAddr: 0x1000020D0, symSize: 0x28 }
  - { offsetInCU: 0xACCB, offset: 0xACCB, size: 0x8, addend: 0x0, symName: __ZNKSt3__16vectorI2miNS_9allocatorIS1_EEE14__annotate_newB7v160006Em, symObjAddr: 0xF68, symBinAddr: 0x1000020F8, symSize: 0xAC }
  - { offsetInCU: 0xAD0A, offset: 0xAD0A, size: 0x8, addend: 0x0, symName: __ZNSt3__116allocator_traitsINS_9allocatorI2miEEE8max_sizeB7v160006IS3_vvEEmRKS3_, symObjAddr: 0x1040, symBinAddr: 0x1000021D0, symSize: 0x28 }
  - { offsetInCU: 0xAD36, offset: 0xAD36, size: 0x8, addend: 0x0, symName: __ZNKSt3__16vectorI2miNS_9allocatorIS1_EEE7__allocB7v160006Ev, symObjAddr: 0x1068, symBinAddr: 0x1000021F8, symSize: 0x28 }
  - { offsetInCU: 0xAD5C, offset: 0xAD5C, size: 0x8, addend: 0x0, symName: __ZNSt3__114numeric_limitsIlE3maxB7v160006Ev, symObjAddr: 0x1090, symBinAddr: 0x100002220, symSize: 0x14 }
  - { offsetInCU: 0xAD84, offset: 0xAD84, size: 0x8, addend: 0x0, symName: __ZNKSt3__16__lessImmEclB7v160006ERKmS3_, symObjAddr: 0x1104, symBinAddr: 0x100002294, symSize: 0x34 }
  - { offsetInCU: 0xADC6, offset: 0xADC6, size: 0x8, addend: 0x0, symName: __ZNSt3__114numeric_limitsImE3maxB7v160006Ev, symObjAddr: 0x1138, symBinAddr: 0x1000022C8, symSize: 0x14 }
  - { offsetInCU: 0xADDA, offset: 0xADDA, size: 0x8, addend: 0x0, symName: __ZNSt3__123__libcpp_numeric_limitsImLb1EE3maxB7v160006Ev, symObjAddr: 0x114C, symBinAddr: 0x1000022DC, symSize: 0x8 }
  - { offsetInCU: 0xADEE, offset: 0xADEE, size: 0x8, addend: 0x0, symName: __ZNKSt3__117__compressed_pairIP2miNS_9allocatorIS1_EEE6secondB7v160006Ev, symObjAddr: 0x1154, symBinAddr: 0x1000022E4, symSize: 0x24 }
  - { offsetInCU: 0xAE14, offset: 0xAE14, size: 0x8, addend: 0x0, symName: __ZNKSt3__122__compressed_pair_elemINS_9allocatorI2miEELi1ELb1EE5__getB7v160006Ev, symObjAddr: 0x1178, symBinAddr: 0x100002308, symSize: 0x14 }
  - { offsetInCU: 0xAE3A, offset: 0xAE3A, size: 0x8, addend: 0x0, symName: __ZNSt3__123__libcpp_numeric_limitsIlLb1EE3maxB7v160006Ev, symObjAddr: 0x118C, symBinAddr: 0x10000231C, symSize: 0x8 }
  - { offsetInCU: 0xAE4E, offset: 0xAE4E, size: 0x8, addend: 0x0, symName: __ZNSt12length_errorC1B7v160006EPKc, symObjAddr: 0x11F8, symBinAddr: 0x100002388, symSize: 0x34 }
  - { offsetInCU: 0xAE86, offset: 0xAE86, size: 0x8, addend: 0x0, symName: __ZNSt12length_errorC2B7v160006EPKc, symObjAddr: 0x122C, symBinAddr: 0x1000023BC, symSize: 0x4C }
  - { offsetInCU: 0xAEBE, offset: 0xAEBE, size: 0x8, addend: 0x0, symName: __ZNSt3__19allocatorI2miE17allocate_at_leastB7v160006Em, symObjAddr: 0x12B4, symBinAddr: 0x100002444, symSize: 0x40 }
  - { offsetInCU: 0xAEF2, offset: 0xAEF2, size: 0x8, addend: 0x0, symName: __ZNSt3__19allocatorI2miE8allocateB7v160006Em, symObjAddr: 0x12F4, symBinAddr: 0x100002484, symSize: 0x58 }
  - { offsetInCU: 0xAF26, offset: 0xAF26, size: 0x8, addend: 0x0, symName: __ZNSt3__117__compressed_pairIP2miNS_9allocatorIS1_EEE6secondB7v160006Ev, symObjAddr: 0x1450, symBinAddr: 0x1000025E0, symSize: 0x24 }
  - { offsetInCU: 0xAF4C, offset: 0xAF4C, size: 0x8, addend: 0x0, symName: __ZNSt3__122__compressed_pair_elemINS_9allocatorI2miEELi1ELb1EE5__getB7v160006Ev, symObjAddr: 0x1474, symBinAddr: 0x100002604, symSize: 0x14 }
  - { offsetInCU: 0xAF72, offset: 0xAF72, size: 0x8, addend: 0x0, symName: __ZNSt3__117__compressed_pairIP2miNS_9allocatorIS1_EEE5firstB7v160006Ev, symObjAddr: 0x1488, symBinAddr: 0x100002618, symSize: 0x24 }
  - { offsetInCU: 0xAF98, offset: 0xAF98, size: 0x8, addend: 0x0, symName: __ZNSt3__122__compressed_pair_elemIP2miLi0ELb0EE5__getB7v160006Ev, symObjAddr: 0x14AC, symBinAddr: 0x10000263C, symSize: 0x14 }
  - { offsetInCU: 0xAFBE, offset: 0xAFBE, size: 0x8, addend: 0x0, symName: __ZNKSt3__16vectorI2miNS_9allocatorIS1_EEE31__annotate_contiguous_containerB7v160006EPKvS6_S6_S6_, symObjAddr: 0x14C0, symBinAddr: 0x100002650, symSize: 0x20 }
  - { offsetInCU: 0xB014, offset: 0xB014, size: 0x8, addend: 0x0, symName: __ZNKSt3__16vectorI2miNS_9allocatorIS1_EEE4dataB7v160006Ev, symObjAddr: 0x14E0, symBinAddr: 0x100002670, symSize: 0x28 }
  - { offsetInCU: 0xB03A, offset: 0xB03A, size: 0x8, addend: 0x0, symName: __ZNKSt3__16vectorI2miNS_9allocatorIS1_EEE8capacityB7v160006Ev, symObjAddr: 0x1508, symBinAddr: 0x100002698, symSize: 0x40 }
  - { offsetInCU: 0xB060, offset: 0xB060, size: 0x8, addend: 0x0, symName: __ZNKSt3__16vectorI2miNS_9allocatorIS1_EEE9__end_capB7v160006Ev, symObjAddr: 0x155C, symBinAddr: 0x1000026EC, symSize: 0x28 }
  - { offsetInCU: 0xB086, offset: 0xB086, size: 0x8, addend: 0x0, symName: __ZNKSt3__117__compressed_pairIP2miNS_9allocatorIS1_EEE5firstB7v160006Ev, symObjAddr: 0x1584, symBinAddr: 0x100002714, symSize: 0x24 }
  - { offsetInCU: 0xB0AC, offset: 0xB0AC, size: 0x8, addend: 0x0, symName: __ZNKSt3__122__compressed_pair_elemIP2miLi0ELb0EE5__getB7v160006Ev, symObjAddr: 0x15A8, symBinAddr: 0x100002738, symSize: 0x14 }
  - { offsetInCU: 0xB0EB, offset: 0xB0EB, size: 0x8, addend: 0x0, symName: __ZNSt3__16vectorI2miNS_9allocatorIS1_EEE21_ConstructTransactionC1B7v160006ERS4_m, symObjAddr: 0x15BC, symBinAddr: 0x10000274C, symSize: 0x3C }
  - { offsetInCU: 0xB138, offset: 0xB138, size: 0x8, addend: 0x0, symName: __ZNSt3__116allocator_traitsINS_9allocatorI2miEEE9constructB7v160006IS2_JRKS2_EvvEEvRS3_PT_DpOT0_, symObjAddr: 0x15F8, symBinAddr: 0x100002788, symSize: 0x30 }
  - { offsetInCU: 0xB18D, offset: 0xB18D, size: 0x8, addend: 0x0, symName: __ZNSt3__16vectorI2miNS_9allocatorIS1_EEE21_ConstructTransactionD1B7v160006Ev, symObjAddr: 0x1628, symBinAddr: 0x1000027B8, symSize: 0x2C }
  - { offsetInCU: 0xB1B7, offset: 0xB1B7, size: 0x8, addend: 0x0, symName: __ZNSt3__16vectorI2miNS_9allocatorIS1_EEE21_ConstructTransactionC2B7v160006ERS4_m, symObjAddr: 0x1654, symBinAddr: 0x1000027E4, symSize: 0x44 }
  - { offsetInCU: 0xB1FF, offset: 0xB1FF, size: 0x8, addend: 0x0, symName: __ZNSt3__16vectorI2miNS_9allocatorIS1_EEE21_ConstructTransactionD2B7v160006Ev, symObjAddr: 0x16C4, symBinAddr: 0x100002854, symSize: 0x20 }
  - { offsetInCU: 0xB229, offset: 0xB229, size: 0x8, addend: 0x0, symName: __ZNSt3__128__exception_guard_exceptionsINS_6vectorI2miNS_9allocatorIS2_EEE16__destroy_vectorEED2B7v160006Ev, symObjAddr: 0x16E4, symBinAddr: 0x100002874, symSize: 0x50 }
  - { offsetInCU: 0xB253, offset: 0xB253, size: 0x8, addend: 0x0, symName: __ZNSt3__16vectorI2miNS_9allocatorIS1_EEE16__destroy_vectorclB7v160006Ev, symObjAddr: 0x1734, symBinAddr: 0x1000028C4, symSize: 0x9C }
  - { offsetInCU: 0xB279, offset: 0xB279, size: 0x8, addend: 0x0, symName: __ZNKSt3__16vectorI2miNS_9allocatorIS1_EEE17__annotate_deleteB7v160006Ev, symObjAddr: 0x17D0, symBinAddr: 0x100002960, symSize: 0xB8 }
  - { offsetInCU: 0xB29F, offset: 0xB29F, size: 0x8, addend: 0x0, symName: __ZNSt3__16vectorI2miNS_9allocatorIS1_EEE7__clearB7v160006Ev, symObjAddr: 0x1898, symBinAddr: 0x100002A28, symSize: 0x28 }
  - { offsetInCU: 0xB2C5, offset: 0xB2C5, size: 0x8, addend: 0x0, symName: __ZNSt3__116allocator_traitsINS_9allocatorI2miEEE10deallocateB7v160006ERS3_PS2_m, symObjAddr: 0x18C0, symBinAddr: 0x100002A50, symSize: 0x34 }
  - { offsetInCU: 0xB307, offset: 0xB307, size: 0x8, addend: 0x0, symName: __ZNKSt3__16vectorI2miNS_9allocatorIS1_EEE4sizeB7v160006Ev, symObjAddr: 0x18F4, symBinAddr: 0x100002A84, symSize: 0x28 }
  - { offsetInCU: 0xB32D, offset: 0xB32D, size: 0x8, addend: 0x0, symName: __ZNSt3__16vectorI2miNS_9allocatorIS1_EEE22__base_destruct_at_endB7v160006EPS1_, symObjAddr: 0x191C, symBinAddr: 0x100002AAC, symSize: 0x8C }
  - { offsetInCU: 0xB371, offset: 0xB371, size: 0x8, addend: 0x0, symName: __ZNSt3__116allocator_traitsINS_9allocatorI2miEEE7destroyB7v160006IS2_vvEEvRS3_PT_, symObjAddr: 0x19A8, symBinAddr: 0x100002B38, symSize: 0x28 }
  - { offsetInCU: 0xB3AC, offset: 0xB3AC, size: 0x8, addend: 0x0, symName: __ZNSt3__19allocatorI2miE10deallocateB7v160006EPS1_m, symObjAddr: 0x1A04, symBinAddr: 0x100002B94, symSize: 0x40 }
  - { offsetInCU: 0xB3EE, offset: 0xB3EE, size: 0x8, addend: 0x0, symName: __ZNSt3__16vectorI2miNS_9allocatorIS1_EEED2B7v160006Ev, symObjAddr: 0x1B4C, symBinAddr: 0x100002CDC, symSize: 0x44 }
  - { offsetInCU: 0xB418, offset: 0xB418, size: 0x8, addend: 0x0, symName: __ZNSt3__16vectorI2miNS_9allocatorIS1_EEEC2Em, symObjAddr: 0x1B90, symBinAddr: 0x100002D20, symSize: 0xDC }
  - { offsetInCU: 0xB468, offset: 0xB468, size: 0x8, addend: 0x0, symName: __ZNSt3__16vectorI2miNS_9allocatorIS1_EEE18__construct_at_endEm, symObjAddr: 0x1C6C, symBinAddr: 0x100002DFC, symSize: 0xC8 }
  - { offsetInCU: 0xB4DA, offset: 0xB4DA, size: 0x8, addend: 0x0, symName: __ZNSt3__116allocator_traitsINS_9allocatorI2miEEE9constructB7v160006IS2_JEvvEEvRS3_PT_DpOT0_, symObjAddr: 0x1D34, symBinAddr: 0x100002EC4, symSize: 0x28 }
  - { offsetInCU: 0xB51A, offset: 0xB51A, size: 0x8, addend: 0x0, symName: __ZN2miC1Ev, symObjAddr: 0x1D90, symBinAddr: 0x100002F20, symSize: 0x2C }
  - { offsetInCU: 0xB544, offset: 0xB544, size: 0x8, addend: 0x0, symName: __ZN2miC2Ev, symObjAddr: 0x1DBC, symBinAddr: 0x100002F4C, symSize: 0x18 }
  - { offsetInCU: 0xB587, offset: 0xB587, size: 0x8, addend: 0x0, symName: __ZNKSt3__113basic_ostreamIcNS_11char_traitsIcEEE6sentrycvbB7v160006Ev, symObjAddr: 0x1FC0, symBinAddr: 0x100003150, symSize: 0x1C }
  - { offsetInCU: 0xB5AD, offset: 0xB5AD, size: 0x8, addend: 0x0, symName: __ZNSt3__119ostreambuf_iteratorIcNS_11char_traitsIcEEEC1B7v160006ERNS_13basic_ostreamIcS2_EE, symObjAddr: 0x221C, symBinAddr: 0x1000033AC, symSize: 0x34 }
  - { offsetInCU: 0xB5E5, offset: 0xB5E5, size: 0x8, addend: 0x0, symName: __ZNKSt3__18ios_base5flagsB7v160006Ev, symObjAddr: 0x2250, symBinAddr: 0x1000033E0, symSize: 0x18 }
  - { offsetInCU: 0xB60D, offset: 0xB60D, size: 0x8, addend: 0x0, symName: __ZNKSt3__19basic_iosIcNS_11char_traitsIcEEE4fillB7v160006Ev, symObjAddr: 0x2268, symBinAddr: 0x1000033F8, symSize: 0x64 }
  - { offsetInCU: 0xB635, offset: 0xB635, size: 0x8, addend: 0x0, symName: __ZNKSt3__119ostreambuf_iteratorIcNS_11char_traitsIcEEE6failedB7v160006Ev, symObjAddr: 0x22CC, symBinAddr: 0x10000345C, symSize: 0x24 }
  - { offsetInCU: 0xB65B, offset: 0xB65B, size: 0x8, addend: 0x0, symName: __ZNSt3__19basic_iosIcNS_11char_traitsIcEEE8setstateB7v160006Ej, symObjAddr: 0x22F0, symBinAddr: 0x100003480, symSize: 0x2C }
  - { offsetInCU: 0xB690, offset: 0xB690, size: 0x8, addend: 0x0, symName: __ZNKSt3__18ios_base5widthB7v160006Ev, symObjAddr: 0x231C, symBinAddr: 0x1000034AC, symSize: 0x18 }
  - { offsetInCU: 0xB6B8, offset: 0xB6B8, size: 0x8, addend: 0x0, symName: __ZNSt3__115basic_streambufIcNS_11char_traitsIcEEE5sputnB7v160006EPKcl, symObjAddr: 0x2334, symBinAddr: 0x1000034C4, symSize: 0x3C }
  - { offsetInCU: 0xB6FA, offset: 0xB6FA, size: 0x8, addend: 0x0, symName: __ZNSt3__112basic_stringIcNS_11char_traitsIcEENS_9allocatorIcEEEC1B7v160006Emc, symObjAddr: 0x2370, symBinAddr: 0x100003500, symSize: 0x3C }
  - { offsetInCU: 0xB742, offset: 0xB742, size: 0x8, addend: 0x0, symName: __ZNSt3__112basic_stringIcNS_11char_traitsIcEENS_9allocatorIcEEE4dataB7v160006Ev, symObjAddr: 0x23AC, symBinAddr: 0x10000353C, symSize: 0x28 }
  - { offsetInCU: 0xB768, offset: 0xB768, size: 0x8, addend: 0x0, symName: __ZNSt3__18ios_base5widthB7v160006El, symObjAddr: 0x23D4, symBinAddr: 0x100003564, symSize: 0x2C }
  - { offsetInCU: 0xB7AE, offset: 0xB7AE, size: 0x8, addend: 0x0, symName: __ZNSt3__112basic_stringIcNS_11char_traitsIcEENS_9allocatorIcEEEC2B7v160006Emc, symObjAddr: 0x2400, symBinAddr: 0x100003590, symSize: 0x54 }
  - { offsetInCU: 0xB7F6, offset: 0xB7F6, size: 0x8, addend: 0x0, symName: __ZNSt3__117__compressed_pairINS_12basic_stringIcNS_11char_traitsIcEENS_9allocatorIcEEE5__repES5_EC1B7v160006INS_18__default_init_tagESA_EEOT_OT0_, symObjAddr: 0x2454, symBinAddr: 0x1000035E4, symSize: 0x3C }
  - { offsetInCU: 0xB84E, offset: 0xB84E, size: 0x8, addend: 0x0, symName: __ZNSt3__117__compressed_pairINS_12basic_stringIcNS_11char_traitsIcEENS_9allocatorIcEEE5__repES5_EC2B7v160006INS_18__default_init_tagESA_EEOT_OT0_, symObjAddr: 0x24A0, symBinAddr: 0x100003630, symSize: 0x3C }
  - { offsetInCU: 0xB8A6, offset: 0xB8A6, size: 0x8, addend: 0x0, symName: __ZNSt3__122__compressed_pair_elemINS_12basic_stringIcNS_11char_traitsIcEENS_9allocatorIcEEE5__repELi0ELb0EEC2B7v160006ENS_18__default_init_tagE, symObjAddr: 0x24DC, symBinAddr: 0x10000366C, symSize: 0x14 }
  - { offsetInCU: 0xB8DB, offset: 0xB8DB, size: 0x8, addend: 0x0, symName: __ZNSt3__122__compressed_pair_elemINS_9allocatorIcEELi1ELb1EEC2B7v160006ENS_18__default_init_tagE, symObjAddr: 0x24F0, symBinAddr: 0x100003680, symSize: 0x2C }
  - { offsetInCU: 0xB910, offset: 0xB910, size: 0x8, addend: 0x0, symName: __ZNSt3__19allocatorIcEC2B7v160006Ev, symObjAddr: 0x251C, symBinAddr: 0x1000036AC, symSize: 0x2C }
  - { offsetInCU: 0xB93A, offset: 0xB93A, size: 0x8, addend: 0x0, symName: __ZNSt3__116__non_trivial_ifILb1ENS_9allocatorIcEEEC2B7v160006Ev, symObjAddr: 0x2548, symBinAddr: 0x1000036D8, symSize: 0x14 }
  - { offsetInCU: 0xB964, offset: 0xB964, size: 0x8, addend: 0x0, symName: __ZNSt3__112basic_stringIcNS_11char_traitsIcEENS_9allocatorIcEEE13__get_pointerB7v160006Ev, symObjAddr: 0x2570, symBinAddr: 0x100003700, symSize: 0x54 }
  - { offsetInCU: 0xB98A, offset: 0xB98A, size: 0x8, addend: 0x0, symName: __ZNKSt3__112basic_stringIcNS_11char_traitsIcEENS_9allocatorIcEEE9__is_longB7v160006Ev, symObjAddr: 0x25C4, symBinAddr: 0x100003754, symSize: 0x38 }
  - { offsetInCU: 0xB9B0, offset: 0xB9B0, size: 0x8, addend: 0x0, symName: __ZNSt3__112basic_stringIcNS_11char_traitsIcEENS_9allocatorIcEEE18__get_long_pointerB7v160006Ev, symObjAddr: 0x25FC, symBinAddr: 0x10000378C, symSize: 0x28 }
  - { offsetInCU: 0xB9D6, offset: 0xB9D6, size: 0x8, addend: 0x0, symName: __ZNSt3__112basic_stringIcNS_11char_traitsIcEENS_9allocatorIcEEE19__get_short_pointerB7v160006Ev, symObjAddr: 0x2624, symBinAddr: 0x1000037B4, symSize: 0x28 }
  - { offsetInCU: 0xB9FC, offset: 0xB9FC, size: 0x8, addend: 0x0, symName: __ZNKSt3__117__compressed_pairINS_12basic_stringIcNS_11char_traitsIcEENS_9allocatorIcEEE5__repES5_E5firstB7v160006Ev, symObjAddr: 0x264C, symBinAddr: 0x1000037DC, symSize: 0x24 }
  - { offsetInCU: 0xBA22, offset: 0xBA22, size: 0x8, addend: 0x0, symName: __ZNKSt3__122__compressed_pair_elemINS_12basic_stringIcNS_11char_traitsIcEENS_9allocatorIcEEE5__repELi0ELb0EE5__getB7v160006Ev, symObjAddr: 0x2670, symBinAddr: 0x100003800, symSize: 0x14 }
  - { offsetInCU: 0xBA48, offset: 0xBA48, size: 0x8, addend: 0x0, symName: __ZNSt3__117__compressed_pairINS_12basic_stringIcNS_11char_traitsIcEENS_9allocatorIcEEE5__repES5_E5firstB7v160006Ev, symObjAddr: 0x2684, symBinAddr: 0x100003814, symSize: 0x24 }
  - { offsetInCU: 0xBA6E, offset: 0xBA6E, size: 0x8, addend: 0x0, symName: __ZNSt3__122__compressed_pair_elemINS_12basic_stringIcNS_11char_traitsIcEENS_9allocatorIcEEE5__repELi0ELb0EE5__getB7v160006Ev, symObjAddr: 0x26A8, symBinAddr: 0x100003838, symSize: 0x14 }
  - { offsetInCU: 0xBA94, offset: 0xBA94, size: 0x8, addend: 0x0, symName: __ZNSt3__114pointer_traitsIPcE10pointer_toB7v160006ERc, symObjAddr: 0x26BC, symBinAddr: 0x10000384C, symSize: 0x14 }
  - { offsetInCU: 0xBAB7, offset: 0xBAB7, size: 0x8, addend: 0x0, symName: __ZNSt3__119ostreambuf_iteratorIcNS_11char_traitsIcEEEC2B7v160006ERNS_13basic_ostreamIcS2_EE, symObjAddr: 0x26D0, symBinAddr: 0x100003860, symSize: 0x54 }
  - { offsetInCU: 0xBAEF, offset: 0xBAEF, size: 0x8, addend: 0x0, symName: __ZNKSt3__19basic_iosIcNS_11char_traitsIcEEE5rdbufB7v160006Ev, symObjAddr: 0x2724, symBinAddr: 0x1000038B4, symSize: 0x24 }
  - { offsetInCU: 0xBB17, offset: 0xBB17, size: 0x8, addend: 0x0, symName: __ZNKSt3__18ios_base5rdbufB7v160006Ev, symObjAddr: 0x2748, symBinAddr: 0x1000038D8, symSize: 0x18 }
  - { offsetInCU: 0xBB3D, offset: 0xBB3D, size: 0x8, addend: 0x0, symName: __ZNSt3__111char_traitsIcE11eq_int_typeEii, symObjAddr: 0x2760, symBinAddr: 0x1000038F0, symSize: 0x28 }
  - { offsetInCU: 0xBB6E, offset: 0xBB6E, size: 0x8, addend: 0x0, symName: __ZNSt3__111char_traitsIcE3eofEv, symObjAddr: 0x2788, symBinAddr: 0x100003918, symSize: 0x8 }
  - { offsetInCU: 0xBB82, offset: 0xBB82, size: 0x8, addend: 0x0, symName: __ZNKSt3__19basic_iosIcNS_11char_traitsIcEEE5widenB7v160006Ec, symObjAddr: 0x2790, symBinAddr: 0x100003920, symSize: 0x84 }
  - { offsetInCU: 0xBBF0, offset: 0xBBF0, size: 0x8, addend: 0x0, symName: __ZNKSt3__15ctypeIcE5widenB7v160006Ec, symObjAddr: 0x2840, symBinAddr: 0x1000039D0, symSize: 0x38 }
  - { offsetInCU: 0xBC25, offset: 0xBC25, size: 0x8, addend: 0x0, symName: __ZNSt3__18ios_base8setstateB7v160006Ej, symObjAddr: 0x2878, symBinAddr: 0x100003A08, symSize: 0x34 }
...
