---
triple:          'arm64-apple-darwin'
binary-path:     '/Users/rohakdebnath/Desktop/Cpp /CSES/listremovals'
relocations:
  - { offsetInCU: 0xDF, offset: 0xDF, size: 0x8, addend: 0x0, symName: __ZSt23__is_constant_evaluatedv, symObjAddr: 0x0, symBinAddr: 0x100003BEC, symSize: 0x8 }
  - { offsetInCU: 0x1A91A, offset: 0x1A91A, size: 0x8, addend: 0x0, symName: __ZStL8__ioinit, symObjAddr: 0xDA068, symBinAddr: 0x10000C040, symSize: 0x0 }
  - { offsetInCU: 0x1FAF6, offset: 0x1FAF6, size: 0x8, addend: 0x0, symName: __ZN10__gnu_pbds6detailL9g_a_sizesE, symObjAddr: 0x2618, symBinAddr: 0x100006600, symSize: 0x0 }
  - { offsetInCU: 0x1FB87, offset: 0x1FB87, size: 0x8, addend: 0x0, symName: __ZNSt3tr112_GLOBAL__N_16ignoreE, symObjAddr: 0xDA069, symBinAddr: 0x10000C041, symSize: 0x0 }
  - { offsetInCU: 0x242C2, offset: 0x242C2, size: 0x8, addend: 0x0, symName: __ZN10__gnu_pbds6detail19bin_search_tree_setIiNS_9null_typeESt4lessIiENS0_11tree_traitsIiS2_S4_NS_33tree_order_statistics_node_updateENS_11rb_tree_tagESaIcEEES8_E16s_node_allocatorE, symObjAddr: 0x3088, symBinAddr: 0x10000C030, symSize: 0x0 }
  - { offsetInCU: 0x24ABE, offset: 0x24ABE, size: 0x8, addend: 0x0, symName: __ZNSt8__detail14__destructibleISt13_Bit_iteratorEE, symObjAddr: 0x2CB0, symBinAddr: 0x100006C98, symSize: 0x0 }
  - { offsetInCU: 0x24AD8, offset: 0x24AD8, size: 0x8, addend: 0x0, symName: __ZNSt8__detail19__destructible_implISt13_Bit_iteratorEE, symObjAddr: 0x2CB1, symBinAddr: 0x100006C99, symSize: 0x0 }
  - { offsetInCU: 0x24E8A, offset: 0x24E8A, size: 0x8, addend: 0x0, symName: __ZNSt8__detail14__destructibleISt19_Bit_const_iteratorEE, symObjAddr: 0x2CB2, symBinAddr: 0x100006C9A, symSize: 0x0 }
  - { offsetInCU: 0x24EA4, offset: 0x24EA4, size: 0x8, addend: 0x0, symName: __ZNSt8__detail19__destructible_implISt19_Bit_const_iteratorEE, symObjAddr: 0x2CB3, symBinAddr: 0x100006C9B, symSize: 0x0 }
  - { offsetInCU: 0x2560F, offset: 0x2560F, size: 0x8, addend: 0x0, symName: __ZNSt8__detail14__destructibleIN9__gnu_cxx17__normal_iteratorIPcSt4spanIcLm18446744073709551615EEEEEE, symObjAddr: 0x2CB4, symBinAddr: 0x100006C9C, symSize: 0x0 }
  - { offsetInCU: 0x25629, offset: 0x25629, size: 0x8, addend: 0x0, symName: __ZNSt8__detail19__destructible_implIN9__gnu_cxx17__normal_iteratorIPcSt4spanIcLm18446744073709551615EEEEEE, symObjAddr: 0x2CB5, symBinAddr: 0x100006C9D, symSize: 0x0 }
  - { offsetInCU: 0x259DB, offset: 0x259DB, size: 0x8, addend: 0x0, symName: __ZNSt8__detail14__destructibleISt16reverse_iteratorIN9__gnu_cxx17__normal_iteratorIPcSt4spanIcLm18446744073709551615EEEEEEE, symObjAddr: 0x2CB6, symBinAddr: 0x100006C9E, symSize: 0x0 }
  - { offsetInCU: 0x259F5, offset: 0x259F5, size: 0x8, addend: 0x0, symName: __ZNSt8__detail19__destructible_implISt16reverse_iteratorIN9__gnu_cxx17__normal_iteratorIPcSt4spanIcLm18446744073709551615EEEEEEE, symObjAddr: 0x2CB7, symBinAddr: 0x100006C9F, symSize: 0x0 }
  - { offsetInCU: 0x25B68, offset: 0x25B68, size: 0x8, addend: 0x0, symName: __ZNSt8__detail14__destructibleINSt8__format10_Sink_iterIcEEEE, symObjAddr: 0x2CB8, symBinAddr: 0x100006CA0, symSize: 0x0 }
  - { offsetInCU: 0x25B82, offset: 0x25B82, size: 0x8, addend: 0x0, symName: __ZNSt8__detail19__destructible_implINSt8__format10_Sink_iterIcEEEE, symObjAddr: 0x2CB9, symBinAddr: 0x100006CA1, symSize: 0x0 }
  - { offsetInCU: 0x25CB0, offset: 0x25CB0, size: 0x8, addend: 0x0, symName: __ZNSt8__detail14__destructibleIN9__gnu_cxx17__normal_iteratorIPwSt4spanIwLm18446744073709551615EEEEEE, symObjAddr: 0x2CBA, symBinAddr: 0x100006CA2, symSize: 0x0 }
  - { offsetInCU: 0x25CCA, offset: 0x25CCA, size: 0x8, addend: 0x0, symName: __ZNSt8__detail19__destructible_implIN9__gnu_cxx17__normal_iteratorIPwSt4spanIwLm18446744073709551615EEEEEE, symObjAddr: 0x2CBB, symBinAddr: 0x100006CA3, symSize: 0x0 }
  - { offsetInCU: 0x26020, offset: 0x26020, size: 0x8, addend: 0x0, symName: __ZNSt8__detail14__destructibleISt16reverse_iteratorIN9__gnu_cxx17__normal_iteratorIPwSt4spanIwLm18446744073709551615EEEEEEE, symObjAddr: 0x2CBC, symBinAddr: 0x100006CA4, symSize: 0x0 }
  - { offsetInCU: 0x2603A, offset: 0x2603A, size: 0x8, addend: 0x0, symName: __ZNSt8__detail19__destructible_implISt16reverse_iteratorIN9__gnu_cxx17__normal_iteratorIPwSt4spanIwLm18446744073709551615EEEEEEE, symObjAddr: 0x2CBD, symBinAddr: 0x100006CA5, symSize: 0x0 }
  - { offsetInCU: 0x261AD, offset: 0x261AD, size: 0x8, addend: 0x0, symName: __ZNSt8__detail14__destructibleINSt8__format10_Sink_iterIwEEEE, symObjAddr: 0x2CBE, symBinAddr: 0x100006CA6, symSize: 0x0 }
  - { offsetInCU: 0x261C7, offset: 0x261C7, size: 0x8, addend: 0x0, symName: __ZNSt8__detail19__destructible_implINSt8__format10_Sink_iterIwEEEE, symObjAddr: 0x2CBF, symBinAddr: 0x100006CA7, symSize: 0x0 }
  - { offsetInCU: 0x262DE, offset: 0x262DE, size: 0x8, addend: 0x0, symName: __ZNSt8__detail14__destructibleIPcEE, symObjAddr: 0x2CC0, symBinAddr: 0x100006CA8, symSize: 0x0 }
  - { offsetInCU: 0x262F8, offset: 0x262F8, size: 0x8, addend: 0x0, symName: __ZNSt8__detail19__destructible_implIPcEE, symObjAddr: 0x2CC1, symBinAddr: 0x100006CA9, symSize: 0x0 }
  - { offsetInCU: 0x26523, offset: 0x26523, size: 0x8, addend: 0x0, symName: __ZNSt8__detail14__destructibleIPwEE, symObjAddr: 0x2CC2, symBinAddr: 0x100006CAA, symSize: 0x0 }
  - { offsetInCU: 0x2653D, offset: 0x2653D, size: 0x8, addend: 0x0, symName: __ZNSt8__detail19__destructible_implIPwEE, symObjAddr: 0x2CC3, symBinAddr: 0x100006CAB, symSize: 0x0 }
  - { offsetInCU: 0x26B9F, offset: 0x26B9F, size: 0x8, addend: 0x0, symName: __ZNSt8__detail14__destructibleIiEE, symObjAddr: 0x2CC4, symBinAddr: 0x100006CAC, symSize: 0x0 }
  - { offsetInCU: 0x26BB9, offset: 0x26BB9, size: 0x8, addend: 0x0, symName: __ZNSt8__detail19__destructible_implIiEE, symObjAddr: 0x2CC5, symBinAddr: 0x100006CAD, symSize: 0x0 }
  - { offsetInCU: 0x26DFB, offset: 0x26DFB, size: 0x8, addend: 0x0, symName: __ZNSt8__detail14__destructibleIN9__gnu_cxx17__normal_iteratorIPKcNSt7__cxx1112basic_stringIcSt11char_traitsIcESaIcEEEEEEE, symObjAddr: 0x2CC6, symBinAddr: 0x100006CAE, symSize: 0x0 }
  - { offsetInCU: 0x26E15, offset: 0x26E15, size: 0x8, addend: 0x0, symName: __ZNSt8__detail19__destructible_implIN9__gnu_cxx17__normal_iteratorIPKcNSt7__cxx1112basic_stringIcSt11char_traitsIcESaIcEEEEEEE, symObjAddr: 0x2CC7, symBinAddr: 0x100006CAF, symSize: 0x0 }
  - { offsetInCU: 0x273C2, offset: 0x273C2, size: 0x8, addend: 0x0, symName: __ZNSt8__detail30__integer_to_chars_is_unsignedIjEE, symObjAddr: 0x2CC8, symBinAddr: 0x100006CB0, symSize: 0x0 }
  - { offsetInCU: 0x273DC, offset: 0x273DC, size: 0x8, addend: 0x0, symName: __ZNSt8__detail30__integer_to_chars_is_unsignedImEE, symObjAddr: 0x2CC9, symBinAddr: 0x100006CB1, symSize: 0x0 }
  - { offsetInCU: 0x273F6, offset: 0x273F6, size: 0x8, addend: 0x0, symName: __ZNSt8__detail30__integer_to_chars_is_unsignedIyEE, symObjAddr: 0x2CCA, symBinAddr: 0x100006CB2, symSize: 0x0 }
  - { offsetInCU: 0x27635, offset: 0x27635, size: 0x8, addend: 0x0, symName: __ZSt22__is_specialization_ofINSt7__cxx1112basic_stringIcSt11char_traitsIcESaIcEEES1_E, symObjAddr: 0x2CCB, symBinAddr: 0x100006CB3, symSize: 0x0 }
  - { offsetInCU: 0x276C1, offset: 0x276C1, size: 0x8, addend: 0x0, symName: __ZSt22__is_specialization_ofINSt7__cxx1112basic_stringIwSt11char_traitsIwESaIwEEES1_E, symObjAddr: 0x2CCC, symBinAddr: 0x100006CB4, symSize: 0x0 }
  - { offsetInCU: 0x27974, offset: 0x27974, size: 0x8, addend: 0x0, symName: __ZNSt8__detail14__destructibleImEE, symObjAddr: 0x2CCD, symBinAddr: 0x100006CB5, symSize: 0x0 }
  - { offsetInCU: 0x2798E, offset: 0x2798E, size: 0x8, addend: 0x0, symName: __ZNSt8__detail19__destructible_implImEE, symObjAddr: 0x2CCE, symBinAddr: 0x100006CB6, symSize: 0x0 }
  - { offsetInCU: 0x27CF8, offset: 0x27CF8, size: 0x8, addend: 0x0, symName: __ZNSt8__detail14__destructibleIPKcEE, symObjAddr: 0x2CCF, symBinAddr: 0x100006CB7, symSize: 0x0 }
  - { offsetInCU: 0x27D12, offset: 0x27D12, size: 0x8, addend: 0x0, symName: __ZNSt8__detail19__destructible_implIPKcEE, symObjAddr: 0x2CD0, symBinAddr: 0x100006CB8, symSize: 0x0 }
  - { offsetInCU: 0x27F0F, offset: 0x27F0F, size: 0x8, addend: 0x0, symName: __ZNSt8__detail14__destructibleIPKwEE, symObjAddr: 0x2CD1, symBinAddr: 0x100006CB9, symSize: 0x0 }
  - { offsetInCU: 0x27F29, offset: 0x27F29, size: 0x8, addend: 0x0, symName: __ZNSt8__detail19__destructible_implIPKwEE, symObjAddr: 0x2CD2, symBinAddr: 0x100006CBA, symSize: 0x0 }
  - { offsetInCU: 0x28E9C, offset: 0x28E9C, size: 0x8, addend: 0x0, symName: __ZNSt8__detail14__destructibleIjEE, symObjAddr: 0x2D23, symBinAddr: 0x100006D0B, symSize: 0x0 }
  - { offsetInCU: 0x28EB6, offset: 0x28EB6, size: 0x8, addend: 0x0, symName: __ZNSt8__detail19__destructible_implIjEE, symObjAddr: 0x2D24, symBinAddr: 0x100006D0C, symSize: 0x0 }
  - { offsetInCU: 0x29085, offset: 0x29085, size: 0x8, addend: 0x0, symName: __ZNSt8__detail14__destructibleIlEE, symObjAddr: 0x2D25, symBinAddr: 0x100006D0D, symSize: 0x0 }
  - { offsetInCU: 0x2909F, offset: 0x2909F, size: 0x8, addend: 0x0, symName: __ZNSt8__detail19__destructible_implIlEE, symObjAddr: 0x2D26, symBinAddr: 0x100006D0E, symSize: 0x0 }
  - { offsetInCU: 0x2971C, offset: 0x2971C, size: 0x8, addend: 0x0, symName: __ZNSt8__detail30__integer_to_chars_is_unsignedIoEE, symObjAddr: 0x2D27, symBinAddr: 0x100006D0F, symSize: 0x0 }
  - { offsetInCU: 0x2974B, offset: 0x2974B, size: 0x8, addend: 0x0, symName: __GLOBAL__sub_I_listremovals.cpp, symObjAddr: 0x2600, symBinAddr: 0x1000061EC, symSize: 0x14 }
  - { offsetInCU: 0x297AB, offset: 0x297AB, size: 0x8, addend: 0x0, symName: __ZNSaIN10__gnu_pbds6detail13rb_tree_node_IimSaIcEEEED1Ev, symObjAddr: 0x25EC, symBinAddr: 0x1000061D8, symSize: 0x14 }
  - { offsetInCU: 0x297B3, offset: 0x297B3, size: 0x8, addend: 0x0, symName: __GLOBAL__sub_I_listremovals.cpp, symObjAddr: 0x2600, symBinAddr: 0x1000061EC, symSize: 0x14 }
  - { offsetInCU: 0x297A2, offset: 0x297A2, size: 0x8, addend: 0x0, symName: __ZN10__gnu_pbds6detail19bin_search_tree_setIiNS_9null_typeESt4lessIiENS0_11tree_traitsIiS2_S4_NS_33tree_order_statistics_node_updateENS_11rb_tree_tagESaIcEEES8_E10get_cmp_fnEv, symObjAddr: 0x25D8, symBinAddr: 0x1000061C4, symSize: 0x14 }
  - { offsetInCU: 0x297AA, offset: 0x297AA, size: 0x8, addend: 0x0, symName: __ZNSaIN10__gnu_pbds6detail13rb_tree_node_IimSaIcEEEED1Ev, symObjAddr: 0x25EC, symBinAddr: 0x1000061D8, symSize: 0x14 }
  - { offsetInCU: 0x297D3, offset: 0x297D3, size: 0x8, addend: 0x0, symName: __ZN10__gnu_pbds6detail19bin_search_tree_setIiNS_9null_typeESt4lessIiENS0_11tree_traitsIiS2_S4_NS_33tree_order_statistics_node_updateENS_11rb_tree_tagESaIcEEES8_E8node_endEv, symObjAddr: 0x25B4, symBinAddr: 0x1000061A0, symSize: 0x24 }
  - { offsetInCU: 0x297DB, offset: 0x297DB, size: 0x8, addend: 0x0, symName: __ZN10__gnu_pbds6detail19bin_search_tree_setIiNS_9null_typeESt4lessIiENS0_11tree_traitsIiS2_S4_NS_33tree_order_statistics_node_updateENS_11rb_tree_tagESaIcEEES8_E10get_cmp_fnEv, symObjAddr: 0x25D8, symBinAddr: 0x1000061C4, symSize: 0x14 }
  - { offsetInCU: 0x29804, offset: 0x29804, size: 0x8, addend: 0x0, symName: __ZNK10__gnu_pbds6detail19bin_search_tree_setIiNS_9null_typeESt4lessIiENS0_11tree_traitsIiS2_S4_NS_33tree_order_statistics_node_updateENS_11rb_tree_tagESaIcEEES8_E8node_endEv, symObjAddr: 0x2590, symBinAddr: 0x10000617C, symSize: 0x24 }
  - { offsetInCU: 0x2980C, offset: 0x2980C, size: 0x8, addend: 0x0, symName: __ZN10__gnu_pbds6detail19bin_search_tree_setIiNS_9null_typeESt4lessIiENS0_11tree_traitsIiS2_S4_NS_33tree_order_statistics_node_updateENS_11rb_tree_tagESaIcEEES8_E8node_endEv, symObjAddr: 0x25B4, symBinAddr: 0x1000061A0, symSize: 0x24 }
  - { offsetInCU: 0x29835, offset: 0x29835, size: 0x8, addend: 0x0, symName: __ZN10__gnu_pbds6detail19bin_search_tree_setIiNS_9null_typeESt4lessIiENS0_11tree_traitsIiS2_S4_NS_33tree_order_statistics_node_updateENS_11rb_tree_tagESaIcEEES8_E10node_beginEv, symObjAddr: 0x2564, symBinAddr: 0x100006150, symSize: 0x2C }
  - { offsetInCU: 0x2983D, offset: 0x2983D, size: 0x8, addend: 0x0, symName: __ZNK10__gnu_pbds6detail19bin_search_tree_setIiNS_9null_typeESt4lessIiENS0_11tree_traitsIiS2_S4_NS_33tree_order_statistics_node_updateENS_11rb_tree_tagESaIcEEES8_E8node_endEv, symObjAddr: 0x2590, symBinAddr: 0x10000617C, symSize: 0x24 }
  - { offsetInCU: 0x29866, offset: 0x29866, size: 0x8, addend: 0x0, symName: __ZNK10__gnu_pbds6detail19bin_search_tree_setIiNS_9null_typeESt4lessIiENS0_11tree_traitsIiS2_S4_NS_33tree_order_statistics_node_updateENS_11rb_tree_tagESaIcEEES8_E10node_beginEv, symObjAddr: 0x2538, symBinAddr: 0x100006124, symSize: 0x2C }
  - { offsetInCU: 0x2986E, offset: 0x2986E, size: 0x8, addend: 0x0, symName: __ZN10__gnu_pbds6detail19bin_search_tree_setIiNS_9null_typeESt4lessIiENS0_11tree_traitsIiS2_S4_NS_33tree_order_statistics_node_updateENS_11rb_tree_tagESaIcEEES8_E10node_beginEv, symObjAddr: 0x2564, symBinAddr: 0x100006150, symSize: 0x2C }
  - { offsetInCU: 0x29897, offset: 0x29897, size: 0x8, addend: 0x0, symName: __ZNK10__gnu_pbds6detail19bin_search_tree_setIiNS_9null_typeESt4lessIiENS0_11tree_traitsIiS2_S4_NS_33tree_order_statistics_node_updateENS_11rb_tree_tagESaIcEEES8_E3endEv, symObjAddr: 0x2510, symBinAddr: 0x1000060FC, symSize: 0x28 }
  - { offsetInCU: 0x2989F, offset: 0x2989F, size: 0x8, addend: 0x0, symName: __ZNK10__gnu_pbds6detail19bin_search_tree_setIiNS_9null_typeESt4lessIiENS0_11tree_traitsIiS2_S4_NS_33tree_order_statistics_node_updateENS_11rb_tree_tagESaIcEEES8_E10node_beginEv, symObjAddr: 0x2538, symBinAddr: 0x100006124, symSize: 0x2C }
  - { offsetInCU: 0x298F0, offset: 0x298F0, size: 0x8, addend: 0x0, symName: __Z41__static_initialization_and_destruction_0v, symObjAddr: 0x2490, symBinAddr: 0x10000607C, symSize: 0x80 }
  - { offsetInCU: 0x298F8, offset: 0x298F8, size: 0x8, addend: 0x0, symName: __ZNK10__gnu_pbds6detail19bin_search_tree_setIiNS_9null_typeESt4lessIiENS0_11tree_traitsIiS2_S4_NS_33tree_order_statistics_node_updateENS_11rb_tree_tagESaIcEEES8_E3endEv, symObjAddr: 0x2510, symBinAddr: 0x1000060FC, symSize: 0x28 }
  - { offsetInCU: 0x298E3, offset: 0x298E3, size: 0x8, addend: 0x0, symName: __ZN10__gnu_pbds6detail25bin_search_tree_const_it_IPNS0_13rb_tree_node_IimSaIcEEEiPiPKiRiRS7_Lb1ES3_E3decENSt3tr117integral_constantIiLi1EEE, symObjAddr: 0x2350, symBinAddr: 0x100005F3C, symSize: 0x140 }
  - { offsetInCU: 0x298EB, offset: 0x298EB, size: 0x8, addend: 0x0, symName: __Z41__static_initialization_and_destruction_0v, symObjAddr: 0x2490, symBinAddr: 0x10000607C, symSize: 0x80 }
  - { offsetInCU: 0x29976, offset: 0x29976, size: 0x8, addend: 0x0, symName: __ZN10__gnu_pbds6detail11rb_tree_setIiNS_9null_typeESt4lessIiENS0_11tree_traitsIiS2_S4_NS_33tree_order_statistics_node_updateENS_11rb_tree_tagESaIcEEES8_E20is_effectively_blackEPNS0_13rb_tree_node_IimS8_EE, symObjAddr: 0x230C, symBinAddr: 0x100005EF8, symSize: 0x44 }
  - { offsetInCU: 0x2997E, offset: 0x2997E, size: 0x8, addend: 0x0, symName: __ZN10__gnu_pbds6detail25bin_search_tree_const_it_IPNS0_13rb_tree_node_IimSaIcEEEiPiPKiRiRS7_Lb1ES3_E3decENSt3tr117integral_constantIiLi1EEE, symObjAddr: 0x2350, symBinAddr: 0x100005F3C, symSize: 0x140 }
  - { offsetInCU: 0x299A9, offset: 0x299A9, size: 0x8, addend: 0x0, symName: __ZN10__gnu_pbds6detail25bin_search_tree_const_it_IPNS0_13rb_tree_node_IimSaIcEEEiPiPKiRiRS7_Lb1ES3_EmmEv, symObjAddr: 0x22EC, symBinAddr: 0x100005ED8, symSize: 0x20 }
  - { offsetInCU: 0x299B1, offset: 0x299B1, size: 0x8, addend: 0x0, symName: __ZN10__gnu_pbds6detail11rb_tree_setIiNS_9null_typeESt4lessIiENS0_11tree_traitsIiS2_S4_NS_33tree_order_statistics_node_updateENS_11rb_tree_tagESaIcEEES8_E20is_effectively_blackEPNS0_13rb_tree_node_IimS8_EE, symObjAddr: 0x230C, symBinAddr: 0x100005EF8, symSize: 0x44 }
  - { offsetInCU: 0x299DA, offset: 0x299DA, size: 0x8, addend: 0x0, symName: __ZNK10__gnu_pbds33tree_order_statistics_node_updateINS_6detail30bin_search_tree_const_node_it_INS1_13rb_tree_node_IimSaIcEEENS1_25bin_search_tree_const_it_IPS5_iPiPKiRiRS9_Lb1ES4_EESD_S4_EESE_St4lessIiES4_EclESE_SE_, symObjAddr: 0x2228, symBinAddr: 0x100005E14, symSize: 0xC4 }
  - { offsetInCU: 0x299E2, offset: 0x299E2, size: 0x8, addend: 0x0, symName: __ZN10__gnu_pbds6detail25bin_search_tree_const_it_IPNS0_13rb_tree_node_IimSaIcEEEiPiPKiRiRS7_Lb1ES3_EmmEv, symObjAddr: 0x22EC, symBinAddr: 0x100005ED8, symSize: 0x20 }
  - { offsetInCU: 0x29A7F, offset: 0x29A7F, size: 0x8, addend: 0x0, symName: __ZNSt15__new_allocatorIN10__gnu_pbds6detail13rb_tree_node_IimSaIcEEEE8allocateEmPKv, symObjAddr: 0x2198, symBinAddr: 0x100005D84, symSize: 0x90 }
  - { offsetInCU: 0x29A87, offset: 0x29A87, size: 0x8, addend: 0x0, symName: __ZNK10__gnu_pbds33tree_order_statistics_node_updateINS_6detail30bin_search_tree_const_node_it_INS1_13rb_tree_node_IimSaIcEEENS1_25bin_search_tree_const_it_IPS5_iPiPKiRiRS9_Lb1ES4_EESD_S4_EESE_St4lessIiES4_EclESE_SE_, symObjAddr: 0x2228, symBinAddr: 0x100005E14, symSize: 0xC4 }
  - { offsetInCU: 0x29B0D, offset: 0x29B0D, size: 0x8, addend: 0x0, symName: __ZNSt15__new_allocatorIN10__gnu_pbds6detail13rb_tree_node_IimSaIcEEEE10deallocateEPS4_m, symObjAddr: 0x215C, symBinAddr: 0x100005D48, symSize: 0x3C }
  - { offsetInCU: 0x29B15, offset: 0x29B15, size: 0x8, addend: 0x0, symName: __ZNSt15__new_allocatorIN10__gnu_pbds6detail13rb_tree_node_IimSaIcEEEE8allocateEmPKv, symObjAddr: 0x2198, symBinAddr: 0x100005D84, symSize: 0x90 }
  - { offsetInCU: 0x29B66, offset: 0x29B66, size: 0x8, addend: 0x0, symName: __ZN10__gnu_pbds6detail19bin_search_tree_setIiNS_9null_typeESt4lessIiENS0_11tree_traitsIiS2_S4_NS_33tree_order_statistics_node_updateENS_11rb_tree_tagESaIcEEES8_E9clear_impEPNS0_13rb_tree_node_IimS8_EE, symObjAddr: 0x20D8, symBinAddr: 0x100005CC4, symSize: 0x84 }
  - { offsetInCU: 0x29B6E, offset: 0x29B6E, size: 0x8, addend: 0x0, symName: __ZNSt15__new_allocatorIN10__gnu_pbds6detail13rb_tree_node_IimSaIcEEEE10deallocateEPS4_m, symObjAddr: 0x215C, symBinAddr: 0x100005D48, symSize: 0x3C }
  - { offsetInCU: 0x29BD8, offset: 0x29BD8, size: 0x8, addend: 0x0, symName: __ZN10__gnu_pbds6detail19bin_search_tree_setIiNS_9null_typeESt4lessIiENS0_11tree_traitsIiS2_S4_NS_33tree_order_statistics_node_updateENS_11rb_tree_tagESaIcEEES8_E10initializeEv, symObjAddr: 0x2088, symBinAddr: 0x100005C74, symSize: 0x50 }
  - { offsetInCU: 0x29BE0, offset: 0x29BE0, size: 0x8, addend: 0x0, symName: __ZN10__gnu_pbds6detail19bin_search_tree_setIiNS_9null_typeESt4lessIiENS0_11tree_traitsIiS2_S4_NS_33tree_order_statistics_node_updateENS_11rb_tree_tagESaIcEEES8_E9clear_impEPNS0_13rb_tree_node_IimS8_EE, symObjAddr: 0x20D8, symBinAddr: 0x100005CC4, symSize: 0x84 }
  - { offsetInCU: 0x29CE8, offset: 0x29CE8, size: 0x8, addend: 0x0, symName: __ZN10__gnu_pbds6detail13branch_policyINS0_30bin_search_tree_const_node_it_INS0_13rb_tree_node_IimSaIcEEENS0_25bin_search_tree_const_it_IPS5_iPiPKiRiRS9_Lb1ES4_EESD_S4_EESE_S4_ED2Ev, symObjAddr: 0x2060, symBinAddr: 0x100005C4C, symSize: 0x28 }
  - { offsetInCU: 0x29CF0, offset: 0x29CF0, size: 0x8, addend: 0x0, symName: __ZN10__gnu_pbds6detail19bin_search_tree_setIiNS_9null_typeESt4lessIiENS0_11tree_traitsIiS2_S4_NS_33tree_order_statistics_node_updateENS_11rb_tree_tagESaIcEEES8_E10initializeEv, symObjAddr: 0x2088, symBinAddr: 0x100005C74, symSize: 0x50 }
  - { offsetInCU: 0x29C63, offset: 0x29C63, size: 0x8, addend: 0x0, symName: __ZN10__gnu_pbds6detail11rb_tree_setIiNS_9null_typeESt4lessIiENS0_11tree_traitsIiS2_S4_NS_33tree_order_statistics_node_updateENS_11rb_tree_tagESaIcEEES8_E12remove_fixupEPNS0_13rb_tree_node_IimS8_EESD_, symObjAddr: 0x1CE8, symBinAddr: 0x1000058D4, symSize: 0x378 }
  - { offsetInCU: 0x29C6B, offset: 0x29C6B, size: 0x8, addend: 0x0, symName: __ZN10__gnu_pbds6detail13branch_policyINS0_30bin_search_tree_const_node_it_INS0_13rb_tree_node_IimSaIcEEENS0_25bin_search_tree_const_it_IPS5_iPiPKiRiRS9_Lb1ES4_EESD_S4_EESE_S4_ED2Ev, symObjAddr: 0x2060, symBinAddr: 0x100005C4C, symSize: 0x28 }
  - { offsetInCU: 0x29D08, offset: 0x29D08, size: 0x8, addend: 0x0, symName: __ZN10__gnu_pbds6detail19bin_search_tree_setIiNS_9null_typeESt4lessIiENS0_11tree_traitsIiS2_S4_NS_33tree_order_statistics_node_updateENS_11rb_tree_tagESaIcEEES8_E30update_min_max_for_erased_nodeEPNS0_13rb_tree_node_IimS8_EE, symObjAddr: 0x1C1C, symBinAddr: 0x100005808, symSize: 0xCC }
  - { offsetInCU: 0x29D10, offset: 0x29D10, size: 0x8, addend: 0x0, symName: __ZN10__gnu_pbds6detail11rb_tree_setIiNS_9null_typeESt4lessIiENS0_11tree_traitsIiS2_S4_NS_33tree_order_statistics_node_updateENS_11rb_tree_tagESaIcEEES8_E12remove_fixupEPNS0_13rb_tree_node_IimS8_EESD_, symObjAddr: 0x1CE8, symBinAddr: 0x1000058D4, symSize: 0x378 }
  - { offsetInCU: 0x29D99, offset: 0x29D99, size: 0x8, addend: 0x0, symName: __ZNK10__gnu_pbds6detail13rb_tree_node_IimSaIcEE7specialEv, symObjAddr: 0x1C04, symBinAddr: 0x1000057F0, symSize: 0x18 }
  - { offsetInCU: 0x29DA1, offset: 0x29DA1, size: 0x8, addend: 0x0, symName: __ZN10__gnu_pbds6detail19bin_search_tree_setIiNS_9null_typeESt4lessIiENS0_11tree_traitsIiS2_S4_NS_33tree_order_statistics_node_updateENS_11rb_tree_tagESaIcEEES8_E30update_min_max_for_erased_nodeEPNS0_13rb_tree_node_IimS8_EE, symObjAddr: 0x1C1C, symBinAddr: 0x100005808, symSize: 0xCC }
  - { offsetInCU: 0x29DCA, offset: 0x29DCA, size: 0x8, addend: 0x0, symName: __ZN10__gnu_pbds6detail19bin_search_tree_setIiNS_9null_typeESt4lessIiENS0_11tree_traitsIiS2_S4_NS_33tree_order_statistics_node_updateENS_11rb_tree_tagESaIcEEES8_E12apply_updateINS6_INS0_30bin_search_tree_const_node_it_INS0_13rb_tree_node_IimS8_EENS0_25bin_search_tree_const_it_IPSE_iPiPKiRiRSI_Lb1ES8_EESM_S8_EESN_S4_S8_EEEEvSG_PT_, symObjAddr: 0x1BB0, symBinAddr: 0x10000579C, symSize: 0x54 }
  - { offsetInCU: 0x29DD2, offset: 0x29DD2, size: 0x8, addend: 0x0, symName: __ZNK10__gnu_pbds6detail13rb_tree_node_IimSaIcEE7specialEv, symObjAddr: 0x1C04, symBinAddr: 0x1000057F0, symSize: 0x18 }
  - { offsetInCU: 0x29EEA, offset: 0x29EEA, size: 0x8, addend: 0x0, symName: __ZSt7forwardIPN10__gnu_pbds6detail13rb_tree_node_IimSaIcEEEEOT_RNSt16remove_referenceIS6_E4typeE, symObjAddr: 0x1B9C, symBinAddr: 0x100005788, symSize: 0x14 }
  - { offsetInCU: 0x29EF2, offset: 0x29EF2, size: 0x8, addend: 0x0, symName: __ZN10__gnu_pbds6detail19bin_search_tree_setIiNS_9null_typeESt4lessIiENS0_11tree_traitsIiS2_S4_NS_33tree_order_statistics_node_updateENS_11rb_tree_tagESaIcEEES8_E12apply_updateINS6_INS0_30bin_search_tree_const_node_it_INS0_13rb_tree_node_IimS8_EENS0_25bin_search_tree_const_it_IPSE_iPiPKiRiRSI_Lb1ES8_EESM_S8_EESN_S4_S8_EEEEvSG_PT_, symObjAddr: 0x1BB0, symBinAddr: 0x10000579C, symSize: 0x54 }
  - { offsetInCU: 0x29F39, offset: 0x29F39, size: 0x8, addend: 0x0, symName: __ZNSt4pairIPN10__gnu_pbds6detail13rb_tree_node_IimSaIcEEEbEC1IRS5_bEEOT_OT0_, symObjAddr: 0x1B54, symBinAddr: 0x100005740, symSize: 0x48 }
  - { offsetInCU: 0x29F41, offset: 0x29F41, size: 0x8, addend: 0x0, symName: __ZSt7forwardIPN10__gnu_pbds6detail13rb_tree_node_IimSaIcEEEEOT_RNSt16remove_referenceIS6_E4typeE, symObjAddr: 0x1B9C, symBinAddr: 0x100005788, symSize: 0x14 }
  - { offsetInCU: 0x2A013, offset: 0x2A013, size: 0x8, addend: 0x0, symName: __ZSt7forwardIRPN10__gnu_pbds6detail13rb_tree_node_IimSaIcEEEEOT_RNSt16remove_referenceIS7_E4typeE, symObjAddr: 0x1B40, symBinAddr: 0x10000572C, symSize: 0x14 }
  - { offsetInCU: 0x2A01B, offset: 0x2A01B, size: 0x8, addend: 0x0, symName: __ZNSt4pairIPN10__gnu_pbds6detail13rb_tree_node_IimSaIcEEEbEC1IRS5_bEEOT_OT0_, symObjAddr: 0x1B54, symBinAddr: 0x100005740, symSize: 0x48 }
  - { offsetInCU: 0x2A08A, offset: 0x2A08A, size: 0x8, addend: 0x0, symName: __ZNSt4pairIN10__gnu_pbds6detail25bin_search_tree_const_it_IPNS1_13rb_tree_node_IimSaIcEEEiPiPKiRiRS8_Lb1ES4_EEbEC1ISC_bEEOT_OT0_, symObjAddr: 0x1AF4, symBinAddr: 0x1000056E0, symSize: 0x4C }
  - { offsetInCU: 0x2A092, offset: 0x2A092, size: 0x8, addend: 0x0, symName: __ZSt7forwardIRPN10__gnu_pbds6detail13rb_tree_node_IimSaIcEEEEOT_RNSt16remove_referenceIS7_E4typeE, symObjAddr: 0x1B40, symBinAddr: 0x10000572C, symSize: 0x14 }
  - { offsetInCU: 0x2A1D9, offset: 0x2A1D9, size: 0x8, addend: 0x0, symName: __ZSt7forwardIN10__gnu_pbds6detail25bin_search_tree_const_it_IPNS1_13rb_tree_node_IimSaIcEEEiPiPKiRiRS8_Lb1ES4_EEEOT_RNSt16remove_referenceISD_E4typeE, symObjAddr: 0x1AE0, symBinAddr: 0x1000056CC, symSize: 0x14 }
  - { offsetInCU: 0x2A1E1, offset: 0x2A1E1, size: 0x8, addend: 0x0, symName: __ZNSt4pairIN10__gnu_pbds6detail25bin_search_tree_const_it_IPNS1_13rb_tree_node_IimSaIcEEEiPiPKiRiRS8_Lb1ES4_EEbEC1ISC_bEEOT_OT0_, symObjAddr: 0x1AF4, symBinAddr: 0x1000056E0, symSize: 0x4C }
  - { offsetInCU: 0x2A0C3, offset: 0x2A0C3, size: 0x8, addend: 0x0, symName: __ZN10__gnu_pbds6detail19bin_search_tree_setIiNS_9null_typeESt4lessIiENS0_11tree_traitsIiS2_S4_NS_33tree_order_statistics_node_updateENS_11rb_tree_tagESaIcEEES8_E28get_new_node_for_leaf_insertERKiNSt3tr117integral_constantIiLi1EEE, symObjAddr: 0x19C4, symBinAddr: 0x1000055B0, symSize: 0x11C }
  - { offsetInCU: 0x2A0CB, offset: 0x2A0CB, size: 0x8, addend: 0x0, symName: __ZSt7forwardIN10__gnu_pbds6detail25bin_search_tree_const_it_IPNS1_13rb_tree_node_IimSaIcEEEiPiPKiRiRS8_Lb1ES4_EEEOT_RNSt16remove_referenceISD_E4typeE, symObjAddr: 0x1AE0, symBinAddr: 0x1000056CC, symSize: 0x14 }
  - { offsetInCU: 0x2A1C3, offset: 0x2A1C3, size: 0x8, addend: 0x0, symName: __ZN10__gnu_pbds6detail19bin_search_tree_setIiNS_9null_typeESt4lessIiENS0_11tree_traitsIiS2_S4_NS_33tree_order_statistics_node_updateENS_11rb_tree_tagESaIcEEES8_E5clearEv, symObjAddr: 0x198C, symBinAddr: 0x100005578, symSize: 0x38 }
  - { offsetInCU: 0x2A1CB, offset: 0x2A1CB, size: 0x8, addend: 0x0, symName: __ZN10__gnu_pbds6detail19bin_search_tree_setIiNS_9null_typeESt4lessIiENS0_11tree_traitsIiS2_S4_NS_33tree_order_statistics_node_updateENS_11rb_tree_tagESaIcEEES8_E28get_new_node_for_leaf_insertERKiNSt3tr117integral_constantIiLi1EEE, symObjAddr: 0x19C4, symBinAddr: 0x1000055B0, symSize: 0x11C }
  - { offsetInCU: 0x2A2F0, offset: 0x2A2F0, size: 0x8, addend: 0x0, symName: __ZN10__gnu_pbds33tree_order_statistics_node_updateINS_6detail30bin_search_tree_const_node_it_INS1_13rb_tree_node_IimSaIcEEENS1_25bin_search_tree_const_it_IPS5_iPiPKiRiRS9_Lb1ES4_EESD_S4_EESE_St4lessIiES4_ED2Ev, symObjAddr: 0x1958, symBinAddr: 0x100005544, symSize: 0x34 }
  - { offsetInCU: 0x2A2F8, offset: 0x2A2F8, size: 0x8, addend: 0x0, symName: __ZN10__gnu_pbds6detail19bin_search_tree_setIiNS_9null_typeESt4lessIiENS0_11tree_traitsIiS2_S4_NS_33tree_order_statistics_node_updateENS_11rb_tree_tagESaIcEEES8_E5clearEv, symObjAddr: 0x198C, symBinAddr: 0x100005578, symSize: 0x38 }
  - { offsetInCU: 0x2A24E, offset: 0x2A24E, size: 0x8, addend: 0x0, symName: __ZN10__gnu_pbds6detail11rb_tree_setIiNS_9null_typeESt4lessIiENS0_11tree_traitsIiS2_S4_NS_33tree_order_statistics_node_updateENS_11rb_tree_tagESaIcEEES8_E10initializeEv, symObjAddr: 0x1934, symBinAddr: 0x100005520, symSize: 0x24 }
  - { offsetInCU: 0x2A256, offset: 0x2A256, size: 0x8, addend: 0x0, symName: __ZN10__gnu_pbds33tree_order_statistics_node_updateINS_6detail30bin_search_tree_const_node_it_INS1_13rb_tree_node_IimSaIcEEENS1_25bin_search_tree_const_it_IPS5_iPiPKiRiRS9_Lb1ES4_EESD_S4_EESE_St4lessIiES4_ED2Ev, symObjAddr: 0x1958, symBinAddr: 0x100005544, symSize: 0x34 }
  - { offsetInCU: 0x2A340, offset: 0x2A340, size: 0x8, addend: 0x0, symName: __ZN10__gnu_pbds6detail19bin_search_tree_setIiNS_9null_typeESt4lessIiENS0_11tree_traitsIiS2_S4_NS_33tree_order_statistics_node_updateENS_11rb_tree_tagESaIcEEES8_EC2Ev, symObjAddr: 0x181C, symBinAddr: 0x100005408, symSize: 0x118 }
  - { offsetInCU: 0x2A348, offset: 0x2A348, size: 0x8, addend: 0x0, symName: __ZN10__gnu_pbds6detail11rb_tree_setIiNS_9null_typeESt4lessIiENS0_11tree_traitsIiS2_S4_NS_33tree_order_statistics_node_updateENS_11rb_tree_tagESaIcEEES8_E10initializeEv, symObjAddr: 0x1934, symBinAddr: 0x100005520, symSize: 0x24 }
  - { offsetInCU: 0x2A3EC, offset: 0x2A3EC, size: 0x8, addend: 0x0, symName: __ZN10__gnu_pbds33tree_order_statistics_node_updateINS_6detail30bin_search_tree_const_node_it_INS1_13rb_tree_node_IimSaIcEEENS1_25bin_search_tree_const_it_IPS5_iPiPKiRiRS9_Lb1ES4_EESD_S4_EESE_St4lessIiES4_EC2Ev, symObjAddr: 0x17E8, symBinAddr: 0x1000053D4, symSize: 0x34 }
  - { offsetInCU: 0x2A3F4, offset: 0x2A3F4, size: 0x8, addend: 0x0, symName: __ZN10__gnu_pbds6detail19bin_search_tree_setIiNS_9null_typeESt4lessIiENS0_11tree_traitsIiS2_S4_NS_33tree_order_statistics_node_updateENS_11rb_tree_tagESaIcEEES8_EC2Ev, symObjAddr: 0x181C, symBinAddr: 0x100005408, symSize: 0x118 }
  - { offsetInCU: 0x2A41D, offset: 0x2A41D, size: 0x8, addend: 0x0, symName: __ZN10__gnu_pbds6detail13branch_policyINS0_30bin_search_tree_const_node_it_INS0_13rb_tree_node_IimSaIcEEENS0_25bin_search_tree_const_it_IPS5_iPiPKiRiRS9_Lb1ES4_EESD_S4_EESE_S4_EC2Ev, symObjAddr: 0x17C0, symBinAddr: 0x1000053AC, symSize: 0x28 }
  - { offsetInCU: 0x2A425, offset: 0x2A425, size: 0x8, addend: 0x0, symName: __ZN10__gnu_pbds33tree_order_statistics_node_updateINS_6detail30bin_search_tree_const_node_it_INS1_13rb_tree_node_IimSaIcEEENS1_25bin_search_tree_const_it_IPS5_iPiPKiRiRS9_Lb1ES4_EESD_S4_EESE_St4lessIiES4_EC2Ev, symObjAddr: 0x17E8, symBinAddr: 0x1000053D4, symSize: 0x34 }
  - { offsetInCU: 0x2A398, offset: 0x2A398, size: 0x8, addend: 0x0, symName: __ZN10__gnu_pbds6detail19bin_search_tree_setIiNS_9null_typeESt4lessIiENS0_11tree_traitsIiS2_S4_NS_33tree_order_statistics_node_updateENS_11rb_tree_tagESaIcEEES8_E17actual_erase_nodeEPNS0_13rb_tree_node_IimS8_EE, symObjAddr: 0x1748, symBinAddr: 0x100005334, symSize: 0x78 }
  - { offsetInCU: 0x2A3A0, offset: 0x2A3A0, size: 0x8, addend: 0x0, symName: __ZN10__gnu_pbds6detail13branch_policyINS0_30bin_search_tree_const_node_it_INS0_13rb_tree_node_IimSaIcEEENS0_25bin_search_tree_const_it_IPS5_iPiPKiRiRS9_Lb1ES4_EESD_S4_EESE_S4_EC2Ev, symObjAddr: 0x17C0, symBinAddr: 0x1000053AC, symSize: 0x28 }
  - { offsetInCU: 0x2A41C, offset: 0x2A41C, size: 0x8, addend: 0x0, symName: __ZN10__gnu_pbds6detail11rb_tree_setIiNS_9null_typeESt4lessIiENS0_11tree_traitsIiS2_S4_NS_33tree_order_statistics_node_updateENS_11rb_tree_tagESaIcEEES8_E11remove_nodeEPNS0_13rb_tree_node_IimS8_EE, symObjAddr: 0x146C, symBinAddr: 0x100005058, symSize: 0x2DC }
  - { offsetInCU: 0x2A424, offset: 0x2A424, size: 0x8, addend: 0x0, symName: __ZN10__gnu_pbds6detail19bin_search_tree_setIiNS_9null_typeESt4lessIiENS0_11tree_traitsIiS2_S4_NS_33tree_order_statistics_node_updateENS_11rb_tree_tagESaIcEEES8_E17actual_erase_nodeEPNS0_13rb_tree_node_IimS8_EE, symObjAddr: 0x1748, symBinAddr: 0x100005334, symSize: 0x78 }
  - { offsetInCU: 0x2A49A, offset: 0x2A49A, size: 0x8, addend: 0x0, symName: __ZN10__gnu_pbds6detail25bin_search_tree_const_it_IPNS0_13rb_tree_node_IimSaIcEEEiPiPKiRiRS7_Lb1ES3_E3incENSt3tr117integral_constantIiLi1EEE, symObjAddr: 0x1328, symBinAddr: 0x100004F14, symSize: 0x144 }
  - { offsetInCU: 0x2A4A2, offset: 0x2A4A2, size: 0x8, addend: 0x0, symName: __ZN10__gnu_pbds6detail11rb_tree_setIiNS_9null_typeESt4lessIiENS0_11tree_traitsIiS2_S4_NS_33tree_order_statistics_node_updateENS_11rb_tree_tagESaIcEEES8_E11remove_nodeEPNS0_13rb_tree_node_IimS8_EE, symObjAddr: 0x146C, symBinAddr: 0x100005058, symSize: 0x2DC }
  - { offsetInCU: 0x2A582, offset: 0x2A582, size: 0x8, addend: 0x0, symName: __ZN10__gnu_pbds6detail25bin_search_tree_const_it_IPNS0_13rb_tree_node_IimSaIcEEEiPiPKiRiRS7_Lb1ES3_EC1ES5_, symObjAddr: 0x1304, symBinAddr: 0x100004EF0, symSize: 0x24 }
  - { offsetInCU: 0x2A58A, offset: 0x2A58A, size: 0x8, addend: 0x0, symName: __ZN10__gnu_pbds6detail25bin_search_tree_const_it_IPNS0_13rb_tree_node_IimSaIcEEEiPiPKiRiRS7_Lb1ES3_E3incENSt3tr117integral_constantIiLi1EEE, symObjAddr: 0x1328, symBinAddr: 0x100004F14, symSize: 0x144 }
  - { offsetInCU: 0x2A554, offset: 0x2A554, size: 0x8, addend: 0x0, symName: __ZN10__gnu_pbds6detail13rb_tree_node_IimSaIcEE12get_metadataEv, symObjAddr: 0x12EC, symBinAddr: 0x100004ED8, symSize: 0x18 }
  - { offsetInCU: 0x2A55C, offset: 0x2A55C, size: 0x8, addend: 0x0, symName: __ZN10__gnu_pbds6detail25bin_search_tree_const_it_IPNS0_13rb_tree_node_IimSaIcEEEiPiPKiRiRS7_Lb1ES3_EC1ES5_, symObjAddr: 0x1304, symBinAddr: 0x100004EF0, symSize: 0x24 }
  - { offsetInCU: 0x2A64C, offset: 0x2A64C, size: 0x8, addend: 0x0, symName: __ZN10__gnu_pbds6detail30bin_search_tree_const_node_it_INS0_13rb_tree_node_IimSaIcEEENS0_25bin_search_tree_const_it_IPS4_iPiPKiRiRS8_Lb1ES3_EESC_S3_EC1ES6_, symObjAddr: 0x12C8, symBinAddr: 0x100004EB4, symSize: 0x24 }
  - { offsetInCU: 0x2A654, offset: 0x2A654, size: 0x8, addend: 0x0, symName: __ZN10__gnu_pbds6detail13rb_tree_node_IimSaIcEE12get_metadataEv, symObjAddr: 0x12EC, symBinAddr: 0x100004ED8, symSize: 0x18 }
  - { offsetInCU: 0x2A5EE, offset: 0x2A5EE, size: 0x8, addend: 0x0, symName: __ZN10__gnu_pbds6detail19bin_search_tree_setIiNS_9null_typeESt4lessIiENS0_11tree_traitsIiS2_S4_NS_33tree_order_statistics_node_updateENS_11rb_tree_tagESaIcEEES8_E13update_to_topINS6_INS0_30bin_search_tree_const_node_it_INS0_13rb_tree_node_IimS8_EENS0_25bin_search_tree_const_it_IPSE_iPiPKiRiRSI_Lb1ES8_EESM_S8_EESN_S4_S8_EEEEvSG_PT_, symObjAddr: 0x1270, symBinAddr: 0x100004E5C, symSize: 0x58 }
  - { offsetInCU: 0x2A5F6, offset: 0x2A5F6, size: 0x8, addend: 0x0, symName: __ZN10__gnu_pbds6detail30bin_search_tree_const_node_it_INS0_13rb_tree_node_IimSaIcEEENS0_25bin_search_tree_const_it_IPS4_iPiPKiRiRS8_Lb1ES3_EESC_S3_EC1ES6_, symObjAddr: 0x12C8, symBinAddr: 0x100004EB4, symSize: 0x24 }
  - { offsetInCU: 0x2A654, offset: 0x2A654, size: 0x8, addend: 0x0, symName: __ZN10__gnu_pbds6detail19bin_search_tree_setIiNS_9null_typeESt4lessIiENS0_11tree_traitsIiS2_S4_NS_33tree_order_statistics_node_updateENS_11rb_tree_tagESaIcEEES8_E12rotate_rightEPNS0_13rb_tree_node_IimS8_EE, symObjAddr: 0x1158, symBinAddr: 0x100004D44, symSize: 0x118 }
  - { offsetInCU: 0x2A65C, offset: 0x2A65C, size: 0x8, addend: 0x0, symName: __ZN10__gnu_pbds6detail19bin_search_tree_setIiNS_9null_typeESt4lessIiENS0_11tree_traitsIiS2_S4_NS_33tree_order_statistics_node_updateENS_11rb_tree_tagESaIcEEES8_E13update_to_topINS6_INS0_30bin_search_tree_const_node_it_INS0_13rb_tree_node_IimS8_EENS0_25bin_search_tree_const_it_IPSE_iPiPKiRiRSI_Lb1ES8_EESM_S8_EESN_S4_S8_EEEEvSG_PT_, symObjAddr: 0x1270, symBinAddr: 0x100004E5C, symSize: 0x58 }
  - { offsetInCU: 0x2A6AC, offset: 0x2A6AC, size: 0x8, addend: 0x0, symName: __ZN10__gnu_pbds6detail19bin_search_tree_setIiNS_9null_typeESt4lessIiENS0_11tree_traitsIiS2_S4_NS_33tree_order_statistics_node_updateENS_11rb_tree_tagESaIcEEES8_E11rotate_leftEPNS0_13rb_tree_node_IimS8_EE, symObjAddr: 0x1040, symBinAddr: 0x100004C2C, symSize: 0x118 }
  - { offsetInCU: 0x2A6B4, offset: 0x2A6B4, size: 0x8, addend: 0x0, symName: __ZN10__gnu_pbds6detail19bin_search_tree_setIiNS_9null_typeESt4lessIiENS0_11tree_traitsIiS2_S4_NS_33tree_order_statistics_node_updateENS_11rb_tree_tagESaIcEEES8_E12rotate_rightEPNS0_13rb_tree_node_IimS8_EE, symObjAddr: 0x1158, symBinAddr: 0x100004D44, symSize: 0x118 }
  - { offsetInCU: 0x2A7CF, offset: 0x2A7CF, size: 0x8, addend: 0x0, symName: __ZNSt4pairIN10__gnu_pbds6detail25bin_search_tree_const_it_IPNS1_13rb_tree_node_IimSaIcEEEiPiPKiRiRS8_Lb1ES4_EEbEC1IS6_bEEOS_IT_T0_E, symObjAddr: 0xFE8, symBinAddr: 0x100004BD4, symSize: 0x58 }
  - { offsetInCU: 0x2A7D7, offset: 0x2A7D7, size: 0x8, addend: 0x0, symName: __ZN10__gnu_pbds6detail19bin_search_tree_setIiNS_9null_typeESt4lessIiENS0_11tree_traitsIiS2_S4_NS_33tree_order_statistics_node_updateENS_11rb_tree_tagESaIcEEES8_E11rotate_leftEPNS0_13rb_tree_node_IimS8_EE, symObjAddr: 0x1040, symBinAddr: 0x100004C2C, symSize: 0x118 }
  - { offsetInCU: 0x2A8B6, offset: 0x2A8B6, size: 0x8, addend: 0x0, symName: __ZSt9make_pairIRPN10__gnu_pbds6detail13rb_tree_node_IimSaIcEEEbESt4pairINSt25__strip_reference_wrapperINSt5decayIT_E4typeEE6__typeENS8_INS9_IT0_E4typeEE6__typeEEOSA_OSF_, symObjAddr: 0xF9C, symBinAddr: 0x100004B88, symSize: 0x4C }
  - { offsetInCU: 0x2A8BE, offset: 0x2A8BE, size: 0x8, addend: 0x0, symName: __ZNSt4pairIN10__gnu_pbds6detail25bin_search_tree_const_it_IPNS1_13rb_tree_node_IimSaIcEEEiPiPKiRiRS8_Lb1ES4_EEbEC1IS6_bEEOS_IT_T0_E, symObjAddr: 0xFE8, symBinAddr: 0x100004BD4, symSize: 0x58 }
  - { offsetInCU: 0x2A812, offset: 0x2A812, size: 0x8, addend: 0x0, symName: __ZN10__gnu_pbds6detail19bin_search_tree_setIiNS_9null_typeESt4lessIiENS0_11tree_traitsIiS2_S4_NS_33tree_order_statistics_node_updateENS_11rb_tree_tagESaIcEEES8_E15insert_leaf_newERKiPNS0_13rb_tree_node_IimS8_EEb, symObjAddr: 0xEA4, symBinAddr: 0x100004A90, symSize: 0xF8 }
  - { offsetInCU: 0x2A81A, offset: 0x2A81A, size: 0x8, addend: 0x0, symName: __ZSt9make_pairIRPN10__gnu_pbds6detail13rb_tree_node_IimSaIcEEEbESt4pairINSt25__strip_reference_wrapperINSt5decayIT_E4typeEE6__typeENS8_INS9_IT0_E4typeEE6__typeEEOSA_OSF_, symObjAddr: 0xF9C, symBinAddr: 0x100004B88, symSize: 0x4C }
  - { offsetInCU: 0x2A892, offset: 0x2A892, size: 0x8, addend: 0x0, symName: __ZNKSt4lessIiEclERKiS2_, symObjAddr: 0xE70, symBinAddr: 0x100004A5C, symSize: 0x34 }
  - { offsetInCU: 0x2A89A, offset: 0x2A89A, size: 0x8, addend: 0x0, symName: __ZN10__gnu_pbds6detail19bin_search_tree_setIiNS_9null_typeESt4lessIiENS0_11tree_traitsIiS2_S4_NS_33tree_order_statistics_node_updateENS_11rb_tree_tagESaIcEEES8_E15insert_leaf_newERKiPNS0_13rb_tree_node_IimS8_EEb, symObjAddr: 0xEA4, symBinAddr: 0x100004A90, symSize: 0xF8 }
  - { offsetInCU: 0x2AAA9, offset: 0x2AAA9, size: 0x8, addend: 0x0, symName: __ZSt9make_pairIN10__gnu_pbds6detail25bin_search_tree_const_it_IPNS1_13rb_tree_node_IimSaIcEEEiPiPKiRiRS8_Lb1ES4_EEbESt4pairINSt25__strip_reference_wrapperINSt5decayIT_E4typeEE6__typeENSE_INSF_IT0_E4typeEE6__typeEEOSG_OSL_, symObjAddr: 0xE24, symBinAddr: 0x100004A10, symSize: 0x4C }
  - { offsetInCU: 0x2AAB1, offset: 0x2AAB1, size: 0x8, addend: 0x0, symName: __ZNKSt4lessIiEclERKiS2_, symObjAddr: 0xE70, symBinAddr: 0x100004A5C, symSize: 0x34 }
  - { offsetInCU: 0x2A95D, offset: 0x2A95D, size: 0x8, addend: 0x0, symName: __ZN10__gnu_pbds6detail19bin_search_tree_setIiNS_9null_typeESt4lessIiENS0_11tree_traitsIiS2_S4_NS_33tree_order_statistics_node_updateENS_11rb_tree_tagESaIcEEES8_E16insert_imp_emptyERKi, symObjAddr: 0xD74, symBinAddr: 0x100004960, symSize: 0xB0 }
  - { offsetInCU: 0x2A965, offset: 0x2A965, size: 0x8, addend: 0x0, symName: __ZSt9make_pairIN10__gnu_pbds6detail25bin_search_tree_const_it_IPNS1_13rb_tree_node_IimSaIcEEEiPiPKiRiRS8_Lb1ES4_EEbESt4pairINSt25__strip_reference_wrapperINSt5decayIT_E4typeEE6__typeENSE_INSF_IT0_E4typeEE6__typeEEOSG_OSL_, symObjAddr: 0xE24, symBinAddr: 0x100004A10, symSize: 0x4C }
  - { offsetInCU: 0x2AA85, offset: 0x2AA85, size: 0x8, addend: 0x0, symName: __ZN10__gnu_pbds6detail19bin_search_tree_setIiNS_9null_typeESt4lessIiENS0_11tree_traitsIiS2_S4_NS_33tree_order_statistics_node_updateENS_11rb_tree_tagESaIcEEES8_ED0Ev, symObjAddr: 0xD4C, symBinAddr: 0x100004938, symSize: 0x28 }
  - { offsetInCU: 0x2AA8D, offset: 0x2AA8D, size: 0x8, addend: 0x0, symName: __ZN10__gnu_pbds6detail19bin_search_tree_setIiNS_9null_typeESt4lessIiENS0_11tree_traitsIiS2_S4_NS_33tree_order_statistics_node_updateENS_11rb_tree_tagESaIcEEES8_E16insert_imp_emptyERKi, symObjAddr: 0xD74, symBinAddr: 0x100004960, symSize: 0xB0 }
  - { offsetInCU: 0x2AAB5, offset: 0x2AAB5, size: 0x8, addend: 0x0, symName: __ZN10__gnu_pbds6detail19bin_search_tree_setIiNS_9null_typeESt4lessIiENS0_11tree_traitsIiS2_S4_NS_33tree_order_statistics_node_updateENS_11rb_tree_tagESaIcEEES8_ED1Ev, symObjAddr: 0xCC8, symBinAddr: 0x1000048B4, symSize: 0x84 }
  - { offsetInCU: 0x2AABD, offset: 0x2AABD, size: 0x8, addend: 0x0, symName: __ZN10__gnu_pbds6detail19bin_search_tree_setIiNS_9null_typeESt4lessIiENS0_11tree_traitsIiS2_S4_NS_33tree_order_statistics_node_updateENS_11rb_tree_tagESaIcEEES8_ED0Ev, symObjAddr: 0xD4C, symBinAddr: 0x100004938, symSize: 0x28 }
  - { offsetInCU: 0x2AB24, offset: 0x2AB24, size: 0x8, addend: 0x0, symName: __ZN10__gnu_pbds6detail19bin_search_tree_setIiNS_9null_typeESt4lessIiENS0_11tree_traitsIiS2_S4_NS_33tree_order_statistics_node_updateENS_11rb_tree_tagESaIcEEES8_ED2Ev, symObjAddr: 0xC44, symBinAddr: 0x100004830, symSize: 0x84 }
  - { offsetInCU: 0x2AB2C, offset: 0x2AB2C, size: 0x8, addend: 0x0, symName: __ZN10__gnu_pbds6detail19bin_search_tree_setIiNS_9null_typeESt4lessIiENS0_11tree_traitsIiS2_S4_NS_33tree_order_statistics_node_updateENS_11rb_tree_tagESaIcEEES8_ED1Ev, symObjAddr: 0xCC8, symBinAddr: 0x1000048B4, symSize: 0x84 }
  - { offsetInCU: 0x2ABA6, offset: 0x2ABA6, size: 0x8, addend: 0x0, symName: __ZN10__gnu_pbds6detail11rb_tree_setIiNS_9null_typeESt4lessIiENS0_11tree_traitsIiS2_S4_NS_33tree_order_statistics_node_updateENS_11rb_tree_tagESaIcEEES8_EC2Ev, symObjAddr: 0xC08, symBinAddr: 0x1000047F4, symSize: 0x3C }
  - { offsetInCU: 0x2ABAE, offset: 0x2ABAE, size: 0x8, addend: 0x0, symName: __ZN10__gnu_pbds6detail19bin_search_tree_setIiNS_9null_typeESt4lessIiENS0_11tree_traitsIiS2_S4_NS_33tree_order_statistics_node_updateENS_11rb_tree_tagESaIcEEES8_ED2Ev, symObjAddr: 0xC44, symBinAddr: 0x100004830, symSize: 0x84 }
  - { offsetInCU: 0x2AB38, offset: 0x2AB38, size: 0x8, addend: 0x0, symName: __ZN10__gnu_pbds6detail11rb_tree_setIiNS_9null_typeESt4lessIiENS0_11tree_traitsIiS2_S4_NS_33tree_order_statistics_node_updateENS_11rb_tree_tagESaIcEEES8_E10erase_nodeEPNS0_13rb_tree_node_IimS8_EE, symObjAddr: 0xBD4, symBinAddr: 0x1000047C0, symSize: 0x34 }
  - { offsetInCU: 0x2AB40, offset: 0x2AB40, size: 0x8, addend: 0x0, symName: __ZN10__gnu_pbds6detail11rb_tree_setIiNS_9null_typeESt4lessIiENS0_11tree_traitsIiS2_S4_NS_33tree_order_statistics_node_updateENS_11rb_tree_tagESaIcEEES8_EC2Ev, symObjAddr: 0xC08, symBinAddr: 0x1000047F4, symSize: 0x3C }
  - { offsetInCU: 0x2AB7D, offset: 0x2AB7D, size: 0x8, addend: 0x0, symName: __ZN10__gnu_pbds6detail25bin_search_tree_const_it_IPNS0_13rb_tree_node_IimSaIcEEEiPiPKiRiRS7_Lb1ES3_EppEv, symObjAddr: 0xBB4, symBinAddr: 0x1000047A0, symSize: 0x20 }
  - { offsetInCU: 0x2AB85, offset: 0x2AB85, size: 0x8, addend: 0x0, symName: __ZN10__gnu_pbds6detail11rb_tree_setIiNS_9null_typeESt4lessIiENS0_11tree_traitsIiS2_S4_NS_33tree_order_statistics_node_updateENS_11rb_tree_tagESaIcEEES8_E10erase_nodeEPNS0_13rb_tree_node_IimS8_EE, symObjAddr: 0xBD4, symBinAddr: 0x1000047C0, symSize: 0x34 }
  - { offsetInCU: 0x2ABAE, offset: 0x2ABAE, size: 0x8, addend: 0x0, symName: __ZNK10__gnu_pbds6detail25bin_search_tree_const_it_IPNS0_13rb_tree_node_IimSaIcEEEiPiPKiRiRS7_Lb1ES3_EeqERKSB_, symObjAddr: 0xB84, symBinAddr: 0x100004770, symSize: 0x30 }
  - { offsetInCU: 0x2ABB6, offset: 0x2ABB6, size: 0x8, addend: 0x0, symName: __ZN10__gnu_pbds6detail25bin_search_tree_const_it_IPNS0_13rb_tree_node_IimSaIcEEEiPiPKiRiRS7_Lb1ES3_EppEv, symObjAddr: 0xBB4, symBinAddr: 0x1000047A0, symSize: 0x20 }
  - { offsetInCU: 0x2ABF3, offset: 0x2ABF3, size: 0x8, addend: 0x0, symName: __ZN10__gnu_pbds6detail19bin_search_tree_setIiNS_9null_typeESt4lessIiENS0_11tree_traitsIiS2_S4_NS_33tree_order_statistics_node_updateENS_11rb_tree_tagESaIcEEES8_E3endEv, symObjAddr: 0xB5C, symBinAddr: 0x100004748, symSize: 0x28 }
  - { offsetInCU: 0x2ABFB, offset: 0x2ABFB, size: 0x8, addend: 0x0, symName: __ZNK10__gnu_pbds6detail25bin_search_tree_const_it_IPNS0_13rb_tree_node_IimSaIcEEEiPiPKiRiRS7_Lb1ES3_EeqERKSB_, symObjAddr: 0xB84, symBinAddr: 0x100004770, symSize: 0x30 }
  - { offsetInCU: 0x2AC24, offset: 0x2AC24, size: 0x8, addend: 0x0, symName: __ZNK10__gnu_pbds6detail13branch_policyINS0_30bin_search_tree_const_node_it_INS0_13rb_tree_node_IimSaIcEEENS0_25bin_search_tree_const_it_IPS5_iPiPKiRiRS9_Lb1ES4_EESD_S4_EESE_S4_E12end_iteratorEv, symObjAddr: 0xB34, symBinAddr: 0x100004720, symSize: 0x28 }
  - { offsetInCU: 0x2AC2C, offset: 0x2AC2C, size: 0x8, addend: 0x0, symName: __ZN10__gnu_pbds6detail19bin_search_tree_setIiNS_9null_typeESt4lessIiENS0_11tree_traitsIiS2_S4_NS_33tree_order_statistics_node_updateENS_11rb_tree_tagESaIcEEES8_E3endEv, symObjAddr: 0xB5C, symBinAddr: 0x100004748, symSize: 0x28 }
  - { offsetInCU: 0x2AC55, offset: 0x2AC55, size: 0x8, addend: 0x0, symName: __ZNK10__gnu_pbds6detail30bin_search_tree_const_node_it_INS0_13rb_tree_node_IimSaIcEEENS0_25bin_search_tree_const_it_IPS4_iPiPKiRiRS8_Lb1ES3_EESC_S3_E11get_r_childEv, symObjAddr: 0xB08, symBinAddr: 0x1000046F4, symSize: 0x2C }
  - { offsetInCU: 0x2AC5D, offset: 0x2AC5D, size: 0x8, addend: 0x0, symName: __ZNK10__gnu_pbds6detail13branch_policyINS0_30bin_search_tree_const_node_it_INS0_13rb_tree_node_IimSaIcEEENS0_25bin_search_tree_const_it_IPS5_iPiPKiRiRS9_Lb1ES4_EESD_S4_EESE_S4_E12end_iteratorEv, symObjAddr: 0xB34, symBinAddr: 0x100004720, symSize: 0x28 }
  - { offsetInCU: 0x2AC86, offset: 0x2AC86, size: 0x8, addend: 0x0, symName: __ZNK10__gnu_pbds6detail30bin_search_tree_const_node_it_INS0_13rb_tree_node_IimSaIcEEENS0_25bin_search_tree_const_it_IPS4_iPiPKiRiRS8_Lb1ES3_EESC_S3_EdeEv, symObjAddr: 0xAE0, symBinAddr: 0x1000046CC, symSize: 0x28 }
  - { offsetInCU: 0x2AC8E, offset: 0x2AC8E, size: 0x8, addend: 0x0, symName: __ZNK10__gnu_pbds6detail30bin_search_tree_const_node_it_INS0_13rb_tree_node_IimSaIcEEENS0_25bin_search_tree_const_it_IPS4_iPiPKiRiRS8_Lb1ES3_EESC_S3_E11get_r_childEv, symObjAddr: 0xB08, symBinAddr: 0x1000046F4, symSize: 0x2C }
  - { offsetInCU: 0x2ACB7, offset: 0x2ACB7, size: 0x8, addend: 0x0, symName: __ZNK10__gnu_pbds6detail30bin_search_tree_const_node_it_INS0_13rb_tree_node_IimSaIcEEENS0_25bin_search_tree_const_it_IPS4_iPiPKiRiRS8_Lb1ES3_EESC_S3_E12get_metadataEv, symObjAddr: 0xAC0, symBinAddr: 0x1000046AC, symSize: 0x20 }
  - { offsetInCU: 0x2ACBF, offset: 0x2ACBF, size: 0x8, addend: 0x0, symName: __ZNK10__gnu_pbds6detail30bin_search_tree_const_node_it_INS0_13rb_tree_node_IimSaIcEEENS0_25bin_search_tree_const_it_IPS4_iPiPKiRiRS8_Lb1ES3_EESC_S3_EdeEv, symObjAddr: 0xAE0, symBinAddr: 0x1000046CC, symSize: 0x28 }
  - { offsetInCU: 0x2ACE8, offset: 0x2ACE8, size: 0x8, addend: 0x0, symName: __ZNK10__gnu_pbds6detail30bin_search_tree_const_node_it_INS0_13rb_tree_node_IimSaIcEEENS0_25bin_search_tree_const_it_IPS4_iPiPKiRiRS8_Lb1ES3_EESC_S3_EeqERKSD_, symObjAddr: 0xA90, symBinAddr: 0x10000467C, symSize: 0x30 }
  - { offsetInCU: 0x2ACF0, offset: 0x2ACF0, size: 0x8, addend: 0x0, symName: __ZNK10__gnu_pbds6detail30bin_search_tree_const_node_it_INS0_13rb_tree_node_IimSaIcEEENS0_25bin_search_tree_const_it_IPS4_iPiPKiRiRS8_Lb1ES3_EESC_S3_E12get_metadataEv, symObjAddr: 0xAC0, symBinAddr: 0x1000046AC, symSize: 0x20 }
  - { offsetInCU: 0x2AD2D, offset: 0x2AD2D, size: 0x8, addend: 0x0, symName: __ZNK10__gnu_pbds6detail30bin_search_tree_const_node_it_INS0_13rb_tree_node_IimSaIcEEENS0_25bin_search_tree_const_it_IPS4_iPiPKiRiRS8_Lb1ES3_EESC_S3_E11get_l_childEv, symObjAddr: 0xA64, symBinAddr: 0x100004650, symSize: 0x2C }
  - { offsetInCU: 0x2AD35, offset: 0x2AD35, size: 0x8, addend: 0x0, symName: __ZNK10__gnu_pbds6detail30bin_search_tree_const_node_it_INS0_13rb_tree_node_IimSaIcEEENS0_25bin_search_tree_const_it_IPS4_iPiPKiRiRS8_Lb1ES3_EESC_S3_EeqERKSD_, symObjAddr: 0xA90, symBinAddr: 0x10000467C, symSize: 0x30 }
  - { offsetInCU: 0x2AD5E, offset: 0x2AD5E, size: 0x8, addend: 0x0, symName: __ZNK10__gnu_pbds6detail30bin_search_tree_const_node_it_INS0_13rb_tree_node_IimSaIcEEENS0_25bin_search_tree_const_it_IPS4_iPiPKiRiRS8_Lb1ES3_EESC_S3_EneERKSD_, symObjAddr: 0xA34, symBinAddr: 0x100004620, symSize: 0x30 }
  - { offsetInCU: 0x2AD66, offset: 0x2AD66, size: 0x8, addend: 0x0, symName: __ZNK10__gnu_pbds6detail30bin_search_tree_const_node_it_INS0_13rb_tree_node_IimSaIcEEENS0_25bin_search_tree_const_it_IPS4_iPiPKiRiRS8_Lb1ES3_EESC_S3_E11get_l_childEv, symObjAddr: 0xA64, symBinAddr: 0x100004650, symSize: 0x2C }
  - { offsetInCU: 0x2ADA3, offset: 0x2ADA3, size: 0x8, addend: 0x0, symName: __ZN10__gnu_pbds6detail11rb_tree_setIiNS_9null_typeESt4lessIiENS0_11tree_traitsIiS2_S4_NS_33tree_order_statistics_node_updateENS_11rb_tree_tagESaIcEEES8_E12insert_fixupEPNS0_13rb_tree_node_IimS8_EE, symObjAddr: 0x7E4, symBinAddr: 0x1000043D0, symSize: 0x250 }
  - { offsetInCU: 0x2ADAB, offset: 0x2ADAB, size: 0x8, addend: 0x0, symName: __ZNK10__gnu_pbds6detail30bin_search_tree_const_node_it_INS0_13rb_tree_node_IimSaIcEEENS0_25bin_search_tree_const_it_IPS4_iPiPKiRiRS8_Lb1ES3_EESC_S3_EneERKSD_, symObjAddr: 0xA34, symBinAddr: 0x100004620, symSize: 0x30 }
  - { offsetInCU: 0x2AE34, offset: 0x2AE34, size: 0x8, addend: 0x0, symName: __ZN10__gnu_pbds6detail19bin_search_tree_setIiNS_9null_typeESt4lessIiENS0_11tree_traitsIiS2_S4_NS_33tree_order_statistics_node_updateENS_11rb_tree_tagESaIcEEES8_E11insert_leafERKi, symObjAddr: 0x5D4, symBinAddr: 0x1000041C0, symSize: 0x210 }
  - { offsetInCU: 0x2AE3C, offset: 0x2AE3C, size: 0x8, addend: 0x0, symName: __ZN10__gnu_pbds6detail11rb_tree_setIiNS_9null_typeESt4lessIiENS0_11tree_traitsIiS2_S4_NS_33tree_order_statistics_node_updateENS_11rb_tree_tagESaIcEEES8_E12insert_fixupEPNS0_13rb_tree_node_IimS8_EE, symObjAddr: 0x7E4, symBinAddr: 0x1000043D0, symSize: 0x250 }
  - { offsetInCU: 0x2B03B, offset: 0x2B03B, size: 0x8, addend: 0x0, symName: __ZN10__gnu_pbds12basic_branchIiNS_9null_typeENS_11rb_tree_tagENS_33tree_order_statistics_node_updateINS_6detail30bin_search_tree_const_node_it_INS4_13rb_tree_node_IimSaIcEEENS4_25bin_search_tree_const_it_IPS8_iPiPKiRiRSC_Lb1ES7_EESG_S7_EESH_St4lessIiES7_EEN9__gnu_cxx8typelist4nodeINSM_5chainISJ_NSO_INS4_11tree_traitsIiS1_SJ_S3_S2_S7_EENSM_9null_typeEEEEEEES7_ED0Ev, symObjAddr: 0x5AC, symBinAddr: 0x100004198, symSize: 0x28 }
  - { offsetInCU: 0x2B043, offset: 0x2B043, size: 0x8, addend: 0x0, symName: __ZN10__gnu_pbds6detail19bin_search_tree_setIiNS_9null_typeESt4lessIiENS0_11tree_traitsIiS2_S4_NS_33tree_order_statistics_node_updateENS_11rb_tree_tagESaIcEEES8_E11insert_leafERKi, symObjAddr: 0x5D4, symBinAddr: 0x1000041C0, symSize: 0x210 }
  - { offsetInCU: 0x2B06B, offset: 0x2B06B, size: 0x8, addend: 0x0, symName: __ZN10__gnu_pbds12basic_branchIiNS_9null_typeENS_11rb_tree_tagENS_33tree_order_statistics_node_updateINS_6detail30bin_search_tree_const_node_it_INS4_13rb_tree_node_IimSaIcEEENS4_25bin_search_tree_const_it_IPS8_iPiPKiRiRSC_Lb1ES7_EESG_S7_EESH_St4lessIiES7_EEN9__gnu_cxx8typelist4nodeINSM_5chainISJ_NSO_INS4_11tree_traitsIiS1_SJ_S3_S2_S7_EENSM_9null_typeEEEEEEES7_ED1Ev, symObjAddr: 0x578, symBinAddr: 0x100004164, symSize: 0x34 }
  - { offsetInCU: 0x2B073, offset: 0x2B073, size: 0x8, addend: 0x0, symName: __ZN10__gnu_pbds12basic_branchIiNS_9null_typeENS_11rb_tree_tagENS_33tree_order_statistics_node_updateINS_6detail30bin_search_tree_const_node_it_INS4_13rb_tree_node_IimSaIcEEENS4_25bin_search_tree_const_it_IPS8_iPiPKiRiRSC_Lb1ES7_EESG_S7_EESH_St4lessIiES7_EEN9__gnu_cxx8typelist4nodeINSM_5chainISJ_NSO_INS4_11tree_traitsIiS1_SJ_S3_S2_S7_EENSM_9null_typeEEEEEEES7_ED0Ev, symObjAddr: 0x5AC, symBinAddr: 0x100004198, symSize: 0x28 }
  - { offsetInCU: 0x2B09B, offset: 0x2B09B, size: 0x8, addend: 0x0, symName: __ZN10__gnu_pbds12basic_branchIiNS_9null_typeENS_11rb_tree_tagENS_33tree_order_statistics_node_updateINS_6detail30bin_search_tree_const_node_it_INS4_13rb_tree_node_IimSaIcEEENS4_25bin_search_tree_const_it_IPS8_iPiPKiRiRSC_Lb1ES7_EESG_S7_EESH_St4lessIiES7_EEN9__gnu_cxx8typelist4nodeINSM_5chainISJ_NSO_INS4_11tree_traitsIiS1_SJ_S3_S2_S7_EENSM_9null_typeEEEEEEES7_ED2Ev, symObjAddr: 0x544, symBinAddr: 0x100004130, symSize: 0x34 }
  - { offsetInCU: 0x2B0A3, offset: 0x2B0A3, size: 0x8, addend: 0x0, symName: __ZN10__gnu_pbds12basic_branchIiNS_9null_typeENS_11rb_tree_tagENS_33tree_order_statistics_node_updateINS_6detail30bin_search_tree_const_node_it_INS4_13rb_tree_node_IimSaIcEEENS4_25bin_search_tree_const_it_IPS8_iPiPKiRiRSC_Lb1ES7_EESG_S7_EESH_St4lessIiES7_EEN9__gnu_cxx8typelist4nodeINSM_5chainISJ_NSO_INS4_11tree_traitsIiS1_SJ_S3_S2_S7_EENSM_9null_typeEEEEEEES7_ED1Ev, symObjAddr: 0x578, symBinAddr: 0x100004164, symSize: 0x34 }
  - { offsetInCU: 0x2B0E6, offset: 0x2B0E6, size: 0x8, addend: 0x0, symName: __ZN10__gnu_pbds12basic_branchIiNS_9null_typeENS_11rb_tree_tagENS_33tree_order_statistics_node_updateINS_6detail30bin_search_tree_const_node_it_INS4_13rb_tree_node_IimSaIcEEENS4_25bin_search_tree_const_it_IPS8_iPiPKiRiRSC_Lb1ES7_EESG_S7_EESH_St4lessIiES7_EEN9__gnu_cxx8typelist4nodeINSM_5chainISJ_NSO_INS4_11tree_traitsIiS1_SJ_S3_S2_S7_EENSM_9null_typeEEEEEEES7_EC2Ev, symObjAddr: 0x510, symBinAddr: 0x1000040FC, symSize: 0x34 }
  - { offsetInCU: 0x2B0EE, offset: 0x2B0EE, size: 0x8, addend: 0x0, symName: __ZN10__gnu_pbds12basic_branchIiNS_9null_typeENS_11rb_tree_tagENS_33tree_order_statistics_node_updateINS_6detail30bin_search_tree_const_node_it_INS4_13rb_tree_node_IimSaIcEEENS4_25bin_search_tree_const_it_IPS8_iPiPKiRiRSC_Lb1ES7_EESG_S7_EESH_St4lessIiES7_EEN9__gnu_cxx8typelist4nodeINSM_5chainISJ_NSO_INS4_11tree_traitsIiS1_SJ_S3_S2_S7_EENSM_9null_typeEEEEEEES7_ED2Ev, symObjAddr: 0x544, symBinAddr: 0x100004130, symSize: 0x34 }
  - { offsetInCU: 0x2B072, offset: 0x2B072, size: 0x8, addend: 0x0, symName: __ZN10__gnu_pbds6detail11rb_tree_setIiNS_9null_typeESt4lessIiENS0_11tree_traitsIiS2_S4_NS_33tree_order_statistics_node_updateENS_11rb_tree_tagESaIcEEES8_ED0Ev, symObjAddr: 0x4E8, symBinAddr: 0x1000040D4, symSize: 0x28 }
  - { offsetInCU: 0x2B07A, offset: 0x2B07A, size: 0x8, addend: 0x0, symName: __ZN10__gnu_pbds12basic_branchIiNS_9null_typeENS_11rb_tree_tagENS_33tree_order_statistics_node_updateINS_6detail30bin_search_tree_const_node_it_INS4_13rb_tree_node_IimSaIcEEENS4_25bin_search_tree_const_it_IPS8_iPiPKiRiRSC_Lb1ES7_EESG_S7_EESH_St4lessIiES7_EEN9__gnu_cxx8typelist4nodeINSM_5chainISJ_NSO_INS4_11tree_traitsIiS1_SJ_S3_S2_S7_EENSM_9null_typeEEEEEEES7_EC2Ev, symObjAddr: 0x510, symBinAddr: 0x1000040FC, symSize: 0x34 }
  - { offsetInCU: 0x2B0A2, offset: 0x2B0A2, size: 0x8, addend: 0x0, symName: __ZN10__gnu_pbds6detail11rb_tree_setIiNS_9null_typeESt4lessIiENS0_11tree_traitsIiS2_S4_NS_33tree_order_statistics_node_updateENS_11rb_tree_tagESaIcEEES8_ED1Ev, symObjAddr: 0x4B4, symBinAddr: 0x1000040A0, symSize: 0x34 }
  - { offsetInCU: 0x2B0AA, offset: 0x2B0AA, size: 0x8, addend: 0x0, symName: __ZN10__gnu_pbds6detail11rb_tree_setIiNS_9null_typeESt4lessIiENS0_11tree_traitsIiS2_S4_NS_33tree_order_statistics_node_updateENS_11rb_tree_tagESaIcEEES8_ED0Ev, symObjAddr: 0x4E8, symBinAddr: 0x1000040D4, symSize: 0x28 }
  - { offsetInCU: 0x2B0D2, offset: 0x2B0D2, size: 0x8, addend: 0x0, symName: __ZN10__gnu_pbds6detail11rb_tree_setIiNS_9null_typeESt4lessIiENS0_11tree_traitsIiS2_S4_NS_33tree_order_statistics_node_updateENS_11rb_tree_tagESaIcEEES8_ED2Ev, symObjAddr: 0x480, symBinAddr: 0x10000406C, symSize: 0x34 }
  - { offsetInCU: 0x2B0DA, offset: 0x2B0DA, size: 0x8, addend: 0x0, symName: __ZN10__gnu_pbds6detail11rb_tree_setIiNS_9null_typeESt4lessIiENS0_11tree_traitsIiS2_S4_NS_33tree_order_statistics_node_updateENS_11rb_tree_tagESaIcEEES8_ED1Ev, symObjAddr: 0x4B4, symBinAddr: 0x1000040A0, symSize: 0x34 }
  - { offsetInCU: 0x2B0A7, offset: 0x2B0A7, size: 0x8, addend: 0x0, symName: __ZSt4moveIRbEONSt16remove_referenceIT_E4typeEOS2_, symObjAddr: 0x46C, symBinAddr: 0x100004058, symSize: 0x14 }
  - { offsetInCU: 0x2B0AF, offset: 0x2B0AF, size: 0x8, addend: 0x0, symName: __ZN10__gnu_pbds6detail11rb_tree_setIiNS_9null_typeESt4lessIiENS0_11tree_traitsIiS2_S4_NS_33tree_order_statistics_node_updateENS_11rb_tree_tagESaIcEEES8_ED2Ev, symObjAddr: 0x480, symBinAddr: 0x10000406C, symSize: 0x34 }
  - { offsetInCU: 0x2B101, offset: 0x2B101, size: 0x8, addend: 0x0, symName: __ZSt7forwardIbEOT_RNSt16remove_referenceIS0_E4typeE, symObjAddr: 0x458, symBinAddr: 0x100004044, symSize: 0x14 }
  - { offsetInCU: 0x2B109, offset: 0x2B109, size: 0x8, addend: 0x0, symName: __ZSt4moveIRbEONSt16remove_referenceIT_E4typeEOS2_, symObjAddr: 0x46C, symBinAddr: 0x100004058, symSize: 0x14 }
  - { offsetInCU: 0x2B110, offset: 0x2B110, size: 0x8, addend: 0x0, symName: __ZN10__gnu_pbds6detail11rb_tree_setIiNS_9null_typeESt4lessIiENS0_11tree_traitsIiS2_S4_NS_33tree_order_statistics_node_updateENS_11rb_tree_tagESaIcEEES8_E5eraseENS0_25bin_search_tree_const_it_IPNS0_13rb_tree_node_IimS8_EEiPiPKiRiRSG_Lb1ES8_EE, symObjAddr: 0x3EC, symBinAddr: 0x100003FD8, symSize: 0x6C }
  - { offsetInCU: 0x2B118, offset: 0x2B118, size: 0x8, addend: 0x0, symName: __ZSt7forwardIbEOT_RNSt16remove_referenceIS0_E4typeE, symObjAddr: 0x458, symBinAddr: 0x100004044, symSize: 0x14 }
  - { offsetInCU: 0x2B168, offset: 0x2B168, size: 0x8, addend: 0x0, symName: __ZNK10__gnu_pbds6detail25bin_search_tree_const_it_IPNS0_13rb_tree_node_IimSaIcEEEiPiPKiRiRS7_Lb1ES3_EdeEv, symObjAddr: 0x3D0, symBinAddr: 0x100003FBC, symSize: 0x1C }
  - { offsetInCU: 0x2B170, offset: 0x2B170, size: 0x8, addend: 0x0, symName: __ZN10__gnu_pbds6detail11rb_tree_setIiNS_9null_typeESt4lessIiENS0_11tree_traitsIiS2_S4_NS_33tree_order_statistics_node_updateENS_11rb_tree_tagESaIcEEES8_E5eraseENS0_25bin_search_tree_const_it_IPNS0_13rb_tree_node_IimS8_EEiPiPKiRiRSG_Lb1ES8_EE, symObjAddr: 0x3EC, symBinAddr: 0x100003FD8, symSize: 0x6C }
  - { offsetInCU: 0x2B199, offset: 0x2B199, size: 0x8, addend: 0x0, symName: __ZN10__gnu_pbds33tree_order_statistics_node_updateINS_6detail30bin_search_tree_const_node_it_INS1_13rb_tree_node_IimSaIcEEENS1_25bin_search_tree_const_it_IPS5_iPiPKiRiRS9_Lb1ES4_EESD_S4_EESE_St4lessIiES4_E13find_by_orderEm, symObjAddr: 0x2BC, symBinAddr: 0x100003EA8, symSize: 0x114 }
  - { offsetInCU: 0x2B1A1, offset: 0x2B1A1, size: 0x8, addend: 0x0, symName: __ZNK10__gnu_pbds6detail25bin_search_tree_const_it_IPNS0_13rb_tree_node_IimSaIcEEEiPiPKiRiRS7_Lb1ES3_EdeEv, symObjAddr: 0x3D0, symBinAddr: 0x100003FBC, symSize: 0x1C }
  - { offsetInCU: 0x2B23D, offset: 0x2B23D, size: 0x8, addend: 0x0, symName: __ZN10__gnu_pbds6detail11rb_tree_setIiNS_9null_typeESt4lessIiENS0_11tree_traitsIiS2_S4_NS_33tree_order_statistics_node_updateENS_11rb_tree_tagESaIcEEES8_E6insertERKi, symObjAddr: 0x268, symBinAddr: 0x100003E54, symSize: 0x54 }
  - { offsetInCU: 0x2B245, offset: 0x2B245, size: 0x8, addend: 0x0, symName: __ZN10__gnu_pbds33tree_order_statistics_node_updateINS_6detail30bin_search_tree_const_node_it_INS1_13rb_tree_node_IimSaIcEEENS1_25bin_search_tree_const_it_IPS5_iPiPKiRiRS9_Lb1ES4_EESD_S4_EESE_St4lessIiES4_E13find_by_orderEm, symObjAddr: 0x2BC, symBinAddr: 0x100003EA8, symSize: 0x114 }
  - { offsetInCU: 0x2B330, offset: 0x2B330, size: 0x8, addend: 0x0, symName: __ZN10__gnu_pbds4treeIiNS_9null_typeESt4lessIiENS_11rb_tree_tagENS_33tree_order_statistics_node_updateESaIcEED0Ev, symObjAddr: 0x240, symBinAddr: 0x100003E2C, symSize: 0x28 }
  - { offsetInCU: 0x2B338, offset: 0x2B338, size: 0x8, addend: 0x0, symName: __ZN10__gnu_pbds6detail11rb_tree_setIiNS_9null_typeESt4lessIiENS0_11tree_traitsIiS2_S4_NS_33tree_order_statistics_node_updateENS_11rb_tree_tagESaIcEEES8_E6insertERKi, symObjAddr: 0x268, symBinAddr: 0x100003E54, symSize: 0x54 }
  - { offsetInCU: 0x2B360, offset: 0x2B360, size: 0x8, addend: 0x0, symName: __ZN10__gnu_pbds4treeIiNS_9null_typeESt4lessIiENS_11rb_tree_tagENS_33tree_order_statistics_node_updateESaIcEED1Ev, symObjAddr: 0x20C, symBinAddr: 0x100003DF8, symSize: 0x34 }
  - { offsetInCU: 0x2B368, offset: 0x2B368, size: 0x8, addend: 0x0, symName: __ZN10__gnu_pbds4treeIiNS_9null_typeESt4lessIiENS_11rb_tree_tagENS_33tree_order_statistics_node_updateESaIcEED0Ev, symObjAddr: 0x240, symBinAddr: 0x100003E2C, symSize: 0x28 }
  - { offsetInCU: 0x2B3AB, offset: 0x2B3AB, size: 0x8, addend: 0x0, symName: __ZN10__gnu_pbds4treeIiNS_9null_typeESt4lessIiENS_11rb_tree_tagENS_33tree_order_statistics_node_updateESaIcEEC1Ev, symObjAddr: 0x1D8, symBinAddr: 0x100003DC4, symSize: 0x34 }
  - { offsetInCU: 0x2B3B3, offset: 0x2B3B3, size: 0x8, addend: 0x0, symName: __ZN10__gnu_pbds4treeIiNS_9null_typeESt4lessIiENS_11rb_tree_tagENS_33tree_order_statistics_node_updateESaIcEED1Ev, symObjAddr: 0x20C, symBinAddr: 0x100003DF8, symSize: 0x34 }
  - { offsetInCU: 0x2B412, offset: 0x2B412, size: 0x8, addend: 0x0, symName: __ZSt4swapIbENSt9enable_ifIXsrSt6__and_IJSt6__not_ISt15__is_tuple_likeIT_EESt21is_move_constructibleIS4_ESt18is_move_assignableIS4_EEE5valueEvE4typeERS4_SE_, symObjAddr: 0x184, symBinAddr: 0x100003D70, symSize: 0x54 }
  - { offsetInCU: 0x2B41A, offset: 0x2B41A, size: 0x8, addend: 0x0, symName: __ZN10__gnu_pbds4treeIiNS_9null_typeESt4lessIiENS_11rb_tree_tagENS_33tree_order_statistics_node_updateESaIcEEC1Ev, symObjAddr: 0x1D8, symBinAddr: 0x100003DC4, symSize: 0x34 }
  - { offsetInCU: 0x2B3DF, offset: 0x2B3DF, size: 0x8, addend: 0x0, symName: _main, symObjAddr: 0x20, symBinAddr: 0x100003C0C, symSize: 0x164 }
  - { offsetInCU: 0x2B3E7, offset: 0x2B3E7, size: 0x8, addend: 0x0, symName: __ZSt4swapIbENSt9enable_ifIXsrSt6__and_IJSt6__not_ISt15__is_tuple_likeIT_EESt21is_move_constructibleIS4_ESt18is_move_assignableIS4_EEE5valueEvE4typeERS4_SE_, symObjAddr: 0x184, symBinAddr: 0x100003D70, symSize: 0x54 }
  - { offsetInCU: 0x2B4EF, offset: 0x2B4EF, size: 0x8, addend: 0x0, symName: __ZnwmPv, symObjAddr: 0x8, symBinAddr: 0x100003BF4, symSize: 0x18 }
  - { offsetInCU: 0x2B4F7, offset: 0x2B4F7, size: 0x8, addend: 0x0, symName: _main, symObjAddr: 0x20, symBinAddr: 0x100003C0C, symSize: 0x164 }
  - { offsetInCU: 0x2B567, offset: 0x2B567, size: 0x8, addend: 0x0, symName: __ZSt23__is_constant_evaluatedv, symObjAddr: 0x0, symBinAddr: 0x100003BEC, symSize: 0x8 }
  - { offsetInCU: 0x2B56F, offset: 0x2B56F, size: 0x8, addend: 0x0, symName: __ZnwmPv, symObjAddr: 0x8, symBinAddr: 0x100003BF4, symSize: 0x18 }
...
