---
triple:          'arm64-apple-darwin'
binary-path:     '/Users/rohakdebnath/Desktop/Cpp /CodeForces/annandvalgift'
relocations:
  - { offsetInCU: 0xEC, offset: 0xEC, size: 0x8, addend: 0x0, symName: __ZSt23__is_constant_evaluatedv, symObjAddr: 0x0, symBinAddr: 0x100002658, symSize: 0x8 }
  - { offsetInCU: 0xF4, offset: 0xF4, size: 0x8, addend: 0x0, symName: __ZNSt8__detail11__synth3wayE, symObjAddr: 0x31AC, symBinAddr: 0x100005F4C, symSize: 0x0 }
  - { offsetInCU: 0x1E1E, offset: 0x1E1E, size: 0x8, addend: 0x0, symName: __ZNSt8__detail11__synth3wayE, symObjAddr: 0x31AC, symBinAddr: 0x100005F4C, symSize: 0x0 }
  - { offsetInCU: 0x1AE9B, offset: 0x1AE9B, size: 0x8, addend: 0x0, symName: __ZStL8__ioinit, symObjAddr: 0xCCE18, symBinAddr: 0x10000C02F, symSize: 0x0 }
  - { offsetInCU: 0x23F57, offset: 0x23F57, size: 0x8, addend: 0x0, symName: __ZNSt8__detail14__destructibleISt13_Bit_iteratorEE, symObjAddr: 0x31AD, symBinAddr: 0x100005F4D, symSize: 0x0 }
  - { offsetInCU: 0x23F71, offset: 0x23F71, size: 0x8, addend: 0x0, symName: __ZNSt8__detail19__destructible_implISt13_Bit_iteratorEE, symObjAddr: 0x31AE, symBinAddr: 0x100005F4E, symSize: 0x0 }
  - { offsetInCU: 0x24323, offset: 0x24323, size: 0x8, addend: 0x0, symName: __ZNSt8__detail14__destructibleISt19_Bit_const_iteratorEE, symObjAddr: 0x31AF, symBinAddr: 0x100005F4F, symSize: 0x0 }
  - { offsetInCU: 0x2433D, offset: 0x2433D, size: 0x8, addend: 0x0, symName: __ZNSt8__detail19__destructible_implISt19_Bit_const_iteratorEE, symObjAddr: 0x31B0, symBinAddr: 0x100005F50, symSize: 0x0 }
  - { offsetInCU: 0x24AA7, offset: 0x24AA7, size: 0x8, addend: 0x0, symName: __ZNSt8__detail14__destructibleIN9__gnu_cxx17__normal_iteratorIPcSt4spanIcLm18446744073709551615EEEEEE, symObjAddr: 0x31B1, symBinAddr: 0x100005F51, symSize: 0x0 }
  - { offsetInCU: 0x24AC1, offset: 0x24AC1, size: 0x8, addend: 0x0, symName: __ZNSt8__detail19__destructible_implIN9__gnu_cxx17__normal_iteratorIPcSt4spanIcLm18446744073709551615EEEEEE, symObjAddr: 0x31B2, symBinAddr: 0x100005F52, symSize: 0x0 }
  - { offsetInCU: 0x24E73, offset: 0x24E73, size: 0x8, addend: 0x0, symName: __ZNSt8__detail14__destructibleISt16reverse_iteratorIN9__gnu_cxx17__normal_iteratorIPcSt4spanIcLm18446744073709551615EEEEEEE, symObjAddr: 0x31B3, symBinAddr: 0x100005F53, symSize: 0x0 }
  - { offsetInCU: 0x24E8D, offset: 0x24E8D, size: 0x8, addend: 0x0, symName: __ZNSt8__detail19__destructible_implISt16reverse_iteratorIN9__gnu_cxx17__normal_iteratorIPcSt4spanIcLm18446744073709551615EEEEEEE, symObjAddr: 0x31B4, symBinAddr: 0x100005F54, symSize: 0x0 }
  - { offsetInCU: 0x25000, offset: 0x25000, size: 0x8, addend: 0x0, symName: __ZNSt8__detail14__destructibleINSt8__format10_Sink_iterIcEEEE, symObjAddr: 0x31B5, symBinAddr: 0x100005F55, symSize: 0x0 }
  - { offsetInCU: 0x2501A, offset: 0x2501A, size: 0x8, addend: 0x0, symName: __ZNSt8__detail19__destructible_implINSt8__format10_Sink_iterIcEEEE, symObjAddr: 0x31B6, symBinAddr: 0x100005F56, symSize: 0x0 }
  - { offsetInCU: 0x25148, offset: 0x25148, size: 0x8, addend: 0x0, symName: __ZNSt8__detail14__destructibleIN9__gnu_cxx17__normal_iteratorIPwSt4spanIwLm18446744073709551615EEEEEE, symObjAddr: 0x31B7, symBinAddr: 0x100005F57, symSize: 0x0 }
  - { offsetInCU: 0x25162, offset: 0x25162, size: 0x8, addend: 0x0, symName: __ZNSt8__detail19__destructible_implIN9__gnu_cxx17__normal_iteratorIPwSt4spanIwLm18446744073709551615EEEEEE, symObjAddr: 0x31B8, symBinAddr: 0x100005F58, symSize: 0x0 }
  - { offsetInCU: 0x254B8, offset: 0x254B8, size: 0x8, addend: 0x0, symName: __ZNSt8__detail14__destructibleISt16reverse_iteratorIN9__gnu_cxx17__normal_iteratorIPwSt4spanIwLm18446744073709551615EEEEEEE, symObjAddr: 0x31B9, symBinAddr: 0x100005F59, symSize: 0x0 }
  - { offsetInCU: 0x254D2, offset: 0x254D2, size: 0x8, addend: 0x0, symName: __ZNSt8__detail19__destructible_implISt16reverse_iteratorIN9__gnu_cxx17__normal_iteratorIPwSt4spanIwLm18446744073709551615EEEEEEE, symObjAddr: 0x31BA, symBinAddr: 0x100005F5A, symSize: 0x0 }
  - { offsetInCU: 0x25645, offset: 0x25645, size: 0x8, addend: 0x0, symName: __ZNSt8__detail14__destructibleINSt8__format10_Sink_iterIwEEEE, symObjAddr: 0x31BB, symBinAddr: 0x100005F5B, symSize: 0x0 }
  - { offsetInCU: 0x2565F, offset: 0x2565F, size: 0x8, addend: 0x0, symName: __ZNSt8__detail19__destructible_implINSt8__format10_Sink_iterIwEEEE, symObjAddr: 0x31BC, symBinAddr: 0x100005F5C, symSize: 0x0 }
  - { offsetInCU: 0x25776, offset: 0x25776, size: 0x8, addend: 0x0, symName: __ZNSt8__detail14__destructibleIPcEE, symObjAddr: 0x31BD, symBinAddr: 0x100005F5D, symSize: 0x0 }
  - { offsetInCU: 0x25790, offset: 0x25790, size: 0x8, addend: 0x0, symName: __ZNSt8__detail19__destructible_implIPcEE, symObjAddr: 0x31BE, symBinAddr: 0x100005F5E, symSize: 0x0 }
  - { offsetInCU: 0x259BB, offset: 0x259BB, size: 0x8, addend: 0x0, symName: __ZNSt8__detail14__destructibleIPwEE, symObjAddr: 0x31BF, symBinAddr: 0x100005F5F, symSize: 0x0 }
  - { offsetInCU: 0x259D5, offset: 0x259D5, size: 0x8, addend: 0x0, symName: __ZNSt8__detail19__destructible_implIPwEE, symObjAddr: 0x31C0, symBinAddr: 0x100005F60, symSize: 0x0 }
  - { offsetInCU: 0x26037, offset: 0x26037, size: 0x8, addend: 0x0, symName: __ZNSt8__detail14__destructibleIiEE, symObjAddr: 0x31C1, symBinAddr: 0x100005F61, symSize: 0x0 }
  - { offsetInCU: 0x26051, offset: 0x26051, size: 0x8, addend: 0x0, symName: __ZNSt8__detail19__destructible_implIiEE, symObjAddr: 0x31C2, symBinAddr: 0x100005F62, symSize: 0x0 }
  - { offsetInCU: 0x26293, offset: 0x26293, size: 0x8, addend: 0x0, symName: __ZNSt8__detail14__destructibleIN9__gnu_cxx17__normal_iteratorIPKcNSt7__cxx1112basic_stringIcSt11char_traitsIcESaIcEEEEEEE, symObjAddr: 0x31C3, symBinAddr: 0x100005F63, symSize: 0x0 }
  - { offsetInCU: 0x262AD, offset: 0x262AD, size: 0x8, addend: 0x0, symName: __ZNSt8__detail19__destructible_implIN9__gnu_cxx17__normal_iteratorIPKcNSt7__cxx1112basic_stringIcSt11char_traitsIcESaIcEEEEEEE, symObjAddr: 0x31C4, symBinAddr: 0x100005F64, symSize: 0x0 }
  - { offsetInCU: 0x26741, offset: 0x26741, size: 0x8, addend: 0x0, symName: __ZNSt8__detail30__integer_to_chars_is_unsignedIjEE, symObjAddr: 0x31C5, symBinAddr: 0x100005F65, symSize: 0x0 }
  - { offsetInCU: 0x2675B, offset: 0x2675B, size: 0x8, addend: 0x0, symName: __ZNSt8__detail30__integer_to_chars_is_unsignedImEE, symObjAddr: 0x31C6, symBinAddr: 0x100005F66, symSize: 0x0 }
  - { offsetInCU: 0x26775, offset: 0x26775, size: 0x8, addend: 0x0, symName: __ZNSt8__detail30__integer_to_chars_is_unsignedIyEE, symObjAddr: 0x31C7, symBinAddr: 0x100005F67, symSize: 0x0 }
  - { offsetInCU: 0x269B3, offset: 0x269B3, size: 0x8, addend: 0x0, symName: __ZSt22__is_specialization_ofINSt7__cxx1112basic_stringIcSt11char_traitsIcESaIcEEES1_E, symObjAddr: 0x31C8, symBinAddr: 0x100005F68, symSize: 0x0 }
  - { offsetInCU: 0x26A3F, offset: 0x26A3F, size: 0x8, addend: 0x0, symName: __ZSt22__is_specialization_ofINSt7__cxx1112basic_stringIwSt11char_traitsIwESaIwEEES1_E, symObjAddr: 0x31C9, symBinAddr: 0x100005F69, symSize: 0x0 }
  - { offsetInCU: 0x26B6C, offset: 0x26B6C, size: 0x8, addend: 0x0, symName: __ZNSt8__detail14__destructibleImEE, symObjAddr: 0x31CA, symBinAddr: 0x100005F6A, symSize: 0x0 }
  - { offsetInCU: 0x26B86, offset: 0x26B86, size: 0x8, addend: 0x0, symName: __ZNSt8__detail19__destructible_implImEE, symObjAddr: 0x31CB, symBinAddr: 0x100005F6B, symSize: 0x0 }
  - { offsetInCU: 0x26E38, offset: 0x26E38, size: 0x8, addend: 0x0, symName: __ZNSt8__detail14__destructibleIPKcEE, symObjAddr: 0x31CC, symBinAddr: 0x100005F6C, symSize: 0x0 }
  - { offsetInCU: 0x26E52, offset: 0x26E52, size: 0x8, addend: 0x0, symName: __ZNSt8__detail19__destructible_implIPKcEE, symObjAddr: 0x31CD, symBinAddr: 0x100005F6D, symSize: 0x0 }
  - { offsetInCU: 0x2704F, offset: 0x2704F, size: 0x8, addend: 0x0, symName: __ZNSt8__detail14__destructibleIPKwEE, symObjAddr: 0x31CE, symBinAddr: 0x100005F6E, symSize: 0x0 }
  - { offsetInCU: 0x27069, offset: 0x27069, size: 0x8, addend: 0x0, symName: __ZNSt8__detail19__destructible_implIPKwEE, symObjAddr: 0x31CF, symBinAddr: 0x100005F6F, symSize: 0x0 }
  - { offsetInCU: 0x28037, offset: 0x28037, size: 0x8, addend: 0x0, symName: __ZNSt8__detail14__destructibleIjEE, symObjAddr: 0x31D0, symBinAddr: 0x100005F70, symSize: 0x0 }
  - { offsetInCU: 0x28051, offset: 0x28051, size: 0x8, addend: 0x0, symName: __ZNSt8__detail19__destructible_implIjEE, symObjAddr: 0x31D1, symBinAddr: 0x100005F71, symSize: 0x0 }
  - { offsetInCU: 0x28220, offset: 0x28220, size: 0x8, addend: 0x0, symName: __ZNSt8__detail14__destructibleIlEE, symObjAddr: 0x31D2, symBinAddr: 0x100005F72, symSize: 0x0 }
  - { offsetInCU: 0x2823A, offset: 0x2823A, size: 0x8, addend: 0x0, symName: __ZNSt8__detail19__destructible_implIlEE, symObjAddr: 0x31D3, symBinAddr: 0x100005F73, symSize: 0x0 }
  - { offsetInCU: 0x288B6, offset: 0x288B6, size: 0x8, addend: 0x0, symName: __ZNSt8__detail30__integer_to_chars_is_unsignedIoEE, symObjAddr: 0x31D4, symBinAddr: 0x100005F74, symSize: 0x0 }
  - { offsetInCU: 0x288E6, offset: 0x288E6, size: 0x8, addend: 0x0, symName: __GLOBAL__sub_I_annandvalgift.cpp, symObjAddr: 0x3198, symBinAddr: 0x1000057F0, symSize: 0x14 }
  - { offsetInCU: 0x288EE, offset: 0x288EE, size: 0x8, addend: 0x0, symName: __ZNSt8__detail11__synth3wayE, symObjAddr: 0x31AC, symBinAddr: 0x100005F4C, symSize: 0x0 }
  - { offsetInCU: 0x28909, offset: 0x28909, size: 0x8, addend: 0x0, symName: __Z41__static_initialization_and_destruction_0v, symObjAddr: 0x315C, symBinAddr: 0x1000057B4, symSize: 0x3C }
  - { offsetInCU: 0x28911, offset: 0x28911, size: 0x8, addend: 0x0, symName: __GLOBAL__sub_I_annandvalgift.cpp, symObjAddr: 0x3198, symBinAddr: 0x1000057F0, symSize: 0x14 }
  - { offsetInCU: 0x288FB, offset: 0x288FB, size: 0x8, addend: 0x0, symName: __ZNSt11__copy_moveILb1ELb0ESt26random_access_iterator_tagE12__assign_oneIiiEEvPT_PT0_, symObjAddr: 0x312C, symBinAddr: 0x100005784, symSize: 0x30 }
  - { offsetInCU: 0x28903, offset: 0x28903, size: 0x8, addend: 0x0, symName: __Z41__static_initialization_and_destruction_0v, symObjAddr: 0x315C, symBinAddr: 0x1000057B4, symSize: 0x3C }
  - { offsetInCU: 0x2895B, offset: 0x2895B, size: 0x8, addend: 0x0, symName: __ZNSt20__copy_move_backwardILb1ELb1ESt26random_access_iterator_tagE13__copy_move_bIiiEEPT0_PT_S6_S4_, symObjAddr: 0x3080, symBinAddr: 0x1000056D8, symSize: 0xAC }
  - { offsetInCU: 0x28963, offset: 0x28963, size: 0x8, addend: 0x0, symName: __ZNSt11__copy_moveILb1ELb0ESt26random_access_iterator_tagE12__assign_oneIiiEEvPT_PT0_, symObjAddr: 0x312C, symBinAddr: 0x100005784, symSize: 0x30 }
  - { offsetInCU: 0x289E3, offset: 0x289E3, size: 0x8, addend: 0x0, symName: __ZNSt20__copy_move_backwardILb1ELb0ESt26random_access_iterator_tagE13__copy_move_bIPiS3_EET0_T_S5_S4_, symObjAddr: 0x3004, symBinAddr: 0x10000565C, symSize: 0x7C }
  - { offsetInCU: 0x289EB, offset: 0x289EB, size: 0x8, addend: 0x0, symName: __ZNSt20__copy_move_backwardILb1ELb1ESt26random_access_iterator_tagE13__copy_move_bIiiEEPT0_PT_S6_S4_, symObjAddr: 0x3080, symBinAddr: 0x1000056D8, symSize: 0xAC }
  - { offsetInCU: 0x28A6B, offset: 0x28A6B, size: 0x8, addend: 0x0, symName: __ZN9__gnu_cxx5__ops14_Iter_comp_valISt7greaterIiEEclINS_17__normal_iteratorIPiSt6vectorIiSaIiEEEEiEEbT_RT0_, symObjAddr: 0x2FC0, symBinAddr: 0x100005618, symSize: 0x44 }
  - { offsetInCU: 0x28A73, offset: 0x28A73, size: 0x8, addend: 0x0, symName: __ZNSt20__copy_move_backwardILb1ELb0ESt26random_access_iterator_tagE13__copy_move_bIPiS3_EET0_T_S5_S4_, symObjAddr: 0x3004, symBinAddr: 0x10000565C, symSize: 0x7C }
  - { offsetInCU: 0x28B3E, offset: 0x28B3E, size: 0x8, addend: 0x0, symName: __ZSt23__copy_move_backward_a2ILb1EPiS0_ET1_T0_S2_S1_, symObjAddr: 0x2F68, symBinAddr: 0x1000055C0, symSize: 0x58 }
  - { offsetInCU: 0x28B46, offset: 0x28B46, size: 0x8, addend: 0x0, symName: __ZN9__gnu_cxx5__ops14_Iter_comp_valISt7greaterIiEEclINS_17__normal_iteratorIPiSt6vectorIiSaIiEEEEiEEbT_RT0_, symObjAddr: 0x2FC0, symBinAddr: 0x100005618, symSize: 0x44 }
  - { offsetInCU: 0x28C76, offset: 0x28C76, size: 0x8, addend: 0x0, symName: __ZSt11__push_heapIN9__gnu_cxx17__normal_iteratorIPiSt6vectorIiSaIiEEEEliNS0_5__ops14_Iter_comp_valISt7greaterIiEEEEvT_T0_SD_T1_RT2_, symObjAddr: 0x2E40, symBinAddr: 0x100005498, symSize: 0x128 }
  - { offsetInCU: 0x28C7E, offset: 0x28C7E, size: 0x8, addend: 0x0, symName: __ZSt23__copy_move_backward_a2ILb1EPiS0_ET1_T0_S2_S1_, symObjAddr: 0x2F68, symBinAddr: 0x1000055C0, symSize: 0x58 }
  - { offsetInCU: 0x28CA1, offset: 0x28CA1, size: 0x8, addend: 0x0, symName: __ZSt19__relocate_object_aIiiSaIiEEvPT_PT0_RT1_, symObjAddr: 0x2DC4, symBinAddr: 0x10000541C, symSize: 0x7C }
  - { offsetInCU: 0x28CA9, offset: 0x28CA9, size: 0x8, addend: 0x0, symName: __ZSt11__push_heapIN9__gnu_cxx17__normal_iteratorIPiSt6vectorIiSaIiEEEEliNS0_5__ops14_Iter_comp_valISt7greaterIiEEEEvT_T0_SD_T1_RT2_, symObjAddr: 0x2E40, symBinAddr: 0x100005498, symSize: 0x128 }
  - { offsetInCU: 0x28D3C, offset: 0x28D3C, size: 0x8, addend: 0x0, symName: __ZNK9__gnu_cxx17__normal_iteratorIPivEdeEv, symObjAddr: 0x2DAC, symBinAddr: 0x100005404, symSize: 0x18 }
  - { offsetInCU: 0x28D44, offset: 0x28D44, size: 0x8, addend: 0x0, symName: __ZSt19__relocate_object_aIiiSaIiEEvPT_PT0_RT1_, symObjAddr: 0x2DC4, symBinAddr: 0x10000541C, symSize: 0x7C }
  - { offsetInCU: 0x28D6B, offset: 0x28D6B, size: 0x8, addend: 0x0, symName: __ZN9__gnu_cxx17__normal_iteratorIPivEppEv, symObjAddr: 0x2D84, symBinAddr: 0x1000053DC, symSize: 0x28 }
  - { offsetInCU: 0x28D73, offset: 0x28D73, size: 0x8, addend: 0x0, symName: __ZNK9__gnu_cxx17__normal_iteratorIPivEdeEv, symObjAddr: 0x2DAC, symBinAddr: 0x100005404, symSize: 0x18 }
  - { offsetInCU: 0x28E58, offset: 0x28E58, size: 0x8, addend: 0x0, symName: __ZSt12__niter_wrapIN9__gnu_cxx17__normal_iteratorIPiSt6vectorIiSaIiEEEES2_ET_S7_T0_, symObjAddr: 0x2D48, symBinAddr: 0x1000053A0, symSize: 0x3C }
  - { offsetInCU: 0x28E60, offset: 0x28E60, size: 0x8, addend: 0x0, symName: __ZN9__gnu_cxx17__normal_iteratorIPivEppEv, symObjAddr: 0x2D84, symBinAddr: 0x1000053DC, symSize: 0x28 }
  - { offsetInCU: 0x28E86, offset: 0x28E86, size: 0x8, addend: 0x0, symName: __ZSt23__copy_move_backward_a1ILb1EPiS0_ET1_T0_S2_S1_, symObjAddr: 0x2D1C, symBinAddr: 0x100005374, symSize: 0x2C }
  - { offsetInCU: 0x28E8E, offset: 0x28E8E, size: 0x8, addend: 0x0, symName: __ZSt12__niter_wrapIN9__gnu_cxx17__normal_iteratorIPiSt6vectorIiSaIiEEEES2_ET_S7_T0_, symObjAddr: 0x2D48, symBinAddr: 0x1000053A0, symSize: 0x3C }
  - { offsetInCU: 0x28F2D, offset: 0x28F2D, size: 0x8, addend: 0x0, symName: __ZSt12__niter_baseIPiSt6vectorIiSaIiEEET_N9__gnu_cxx17__normal_iteratorIS4_T0_EE, symObjAddr: 0x2CFC, symBinAddr: 0x100005354, symSize: 0x20 }
  - { offsetInCU: 0x28F35, offset: 0x28F35, size: 0x8, addend: 0x0, symName: __ZSt23__copy_move_backward_a1ILb1EPiS0_ET1_T0_S2_S1_, symObjAddr: 0x2D1C, symBinAddr: 0x100005374, symSize: 0x2C }
  - { offsetInCU: 0x28FB0, offset: 0x28FB0, size: 0x8, addend: 0x0, symName: __ZSt4swapIiENSt9enable_ifIXsrSt6__and_IJSt6__not_ISt15__is_tuple_likeIT_EESt21is_move_constructibleIS4_ESt18is_move_assignableIS4_EEE5valueEvE4typeERS4_SE_, symObjAddr: 0x2CA8, symBinAddr: 0x100005300, symSize: 0x54 }
  - { offsetInCU: 0x28FB8, offset: 0x28FB8, size: 0x8, addend: 0x0, symName: __ZSt12__niter_baseIPiSt6vectorIiSaIiEEET_N9__gnu_cxx17__normal_iteratorIS4_T0_EE, symObjAddr: 0x2CFC, symBinAddr: 0x100005354, symSize: 0x20 }
  - { offsetInCU: 0x29085, offset: 0x29085, size: 0x8, addend: 0x0, symName: __ZSt13__adjust_heapIN9__gnu_cxx17__normal_iteratorIPiSt6vectorIiSaIiEEEEliNS0_5__ops15_Iter_comp_iterISt7greaterIiEEEEvT_T0_SD_T1_T2_, symObjAddr: 0x2AE4, symBinAddr: 0x10000513C, symSize: 0x1C4 }
  - { offsetInCU: 0x2908D, offset: 0x2908D, size: 0x8, addend: 0x0, symName: __ZSt4swapIiENSt9enable_ifIXsrSt6__and_IJSt6__not_ISt15__is_tuple_likeIT_EESt21is_move_constructibleIS4_ESt18is_move_assignableIS4_EEE5valueEvE4typeERS4_SE_, symObjAddr: 0x2CA8, symBinAddr: 0x100005300, symSize: 0x54 }
  - { offsetInCU: 0x29067, offset: 0x29067, size: 0x8, addend: 0x0, symName: __ZNK9__gnu_cxx17__normal_iteratorIPivE4baseEv, symObjAddr: 0x2AD0, symBinAddr: 0x100005128, symSize: 0x14 }
  - { offsetInCU: 0x2906F, offset: 0x2906F, size: 0x8, addend: 0x0, symName: __ZSt13__adjust_heapIN9__gnu_cxx17__normal_iteratorIPiSt6vectorIiSaIiEEEEliNS0_5__ops15_Iter_comp_iterISt7greaterIiEEEEvT_T0_SD_T1_T2_, symObjAddr: 0x2AE4, symBinAddr: 0x10000513C, symSize: 0x1C4 }
  - { offsetInCU: 0x29142, offset: 0x29142, size: 0x8, addend: 0x0, symName: __ZSt14__relocate_a_1IPiN9__gnu_cxx17__normal_iteratorIS0_vEESaIiEET0_T_S6_S5_RT1_, symObjAddr: 0x2A4C, symBinAddr: 0x1000050A4, symSize: 0x84 }
  - { offsetInCU: 0x2914A, offset: 0x2914A, size: 0x8, addend: 0x0, symName: __ZNK9__gnu_cxx17__normal_iteratorIPivE4baseEv, symObjAddr: 0x2AD0, symBinAddr: 0x100005128, symSize: 0x14 }
  - { offsetInCU: 0x2914C, offset: 0x2914C, size: 0x8, addend: 0x0, symName: __ZNSt15__new_allocatorIiE8allocateEmPKv, symObjAddr: 0x29D0, symBinAddr: 0x100005028, symSize: 0x7C }
  - { offsetInCU: 0x29154, offset: 0x29154, size: 0x8, addend: 0x0, symName: __ZSt14__relocate_a_1IPiN9__gnu_cxx17__normal_iteratorIS0_vEESaIiEET0_T_S6_S5_RT1_, symObjAddr: 0x2A4C, symBinAddr: 0x1000050A4, symSize: 0x84 }
  - { offsetInCU: 0x291F2, offset: 0x291F2, size: 0x8, addend: 0x0, symName: __ZN9__gnu_cxx5__ops14_Val_comp_iterISt7greaterIiEEclIiNS_17__normal_iteratorIPiSt6vectorIiSaIiEEEEEEbRT_T0_, symObjAddr: 0x298C, symBinAddr: 0x100004FE4, symSize: 0x44 }
  - { offsetInCU: 0x291FA, offset: 0x291FA, size: 0x8, addend: 0x0, symName: __ZNSt15__new_allocatorIiE8allocateEmPKv, symObjAddr: 0x29D0, symBinAddr: 0x100005028, symSize: 0x7C }
  - { offsetInCU: 0x292DF, offset: 0x292DF, size: 0x8, addend: 0x0, symName: __ZN9__gnu_cxx5__ops14_Val_comp_iterISt7greaterIiEEC1EONS0_15_Iter_comp_iterIS3_EE, symObjAddr: 0x2968, symBinAddr: 0x100004FC0, symSize: 0x24 }
  - { offsetInCU: 0x292E7, offset: 0x292E7, size: 0x8, addend: 0x0, symName: __ZN9__gnu_cxx5__ops14_Val_comp_iterISt7greaterIiEEclIiNS_17__normal_iteratorIPiSt6vectorIiSaIiEEEEEEbRT_T0_, symObjAddr: 0x298C, symBinAddr: 0x100004FE4, symSize: 0x44 }
  - { offsetInCU: 0x2936E, offset: 0x2936E, size: 0x8, addend: 0x0, symName: __ZSt4moveIRN9__gnu_cxx5__ops15_Iter_comp_iterISt7greaterIiEEEEONSt16remove_referenceIT_E4typeEOS8_, symObjAddr: 0x2954, symBinAddr: 0x100004FAC, symSize: 0x14 }
  - { offsetInCU: 0x29376, offset: 0x29376, size: 0x8, addend: 0x0, symName: __ZN9__gnu_cxx5__ops14_Val_comp_iterISt7greaterIiEEC1EONS0_15_Iter_comp_iterIS3_EE, symObjAddr: 0x2968, symBinAddr: 0x100004FC0, symSize: 0x24 }
  - { offsetInCU: 0x29420, offset: 0x29420, size: 0x8, addend: 0x0, symName: __ZSt22__copy_move_backward_aILb1EN9__gnu_cxx17__normal_iteratorIPiSt6vectorIiSaIiEEEES6_ET1_T0_S8_S7_, symObjAddr: 0x28F4, symBinAddr: 0x100004F4C, symSize: 0x60 }
  - { offsetInCU: 0x29428, offset: 0x29428, size: 0x8, addend: 0x0, symName: __ZSt4moveIRN9__gnu_cxx5__ops15_Iter_comp_iterISt7greaterIiEEEEONSt16remove_referenceIT_E4typeEOS8_, symObjAddr: 0x2954, symBinAddr: 0x100004FAC, symSize: 0x14 }
  - { offsetInCU: 0x29450, offset: 0x29450, size: 0x8, addend: 0x0, symName: __ZSt12__miter_baseIN9__gnu_cxx17__normal_iteratorIPiSt6vectorIiSaIiEEEEET_S7_, symObjAddr: 0x28E0, symBinAddr: 0x100004F38, symSize: 0x14 }
  - { offsetInCU: 0x29458, offset: 0x29458, size: 0x8, addend: 0x0, symName: __ZSt22__copy_move_backward_aILb1EN9__gnu_cxx17__normal_iteratorIPiSt6vectorIiSaIiEEEES6_ET1_T0_S8_S7_, symObjAddr: 0x28F4, symBinAddr: 0x100004F4C, symSize: 0x60 }
  - { offsetInCU: 0x29404, offset: 0x29404, size: 0x8, addend: 0x0, symName: __ZNKSt7greaterIiEclERKiS2_, symObjAddr: 0x28AC, symBinAddr: 0x100004F04, symSize: 0x34 }
  - { offsetInCU: 0x2940C, offset: 0x2940C, size: 0x8, addend: 0x0, symName: __ZSt12__miter_baseIN9__gnu_cxx17__normal_iteratorIPiSt6vectorIiSaIiEEEEET_S7_, symObjAddr: 0x28E0, symBinAddr: 0x100004F38, symSize: 0x14 }
  - { offsetInCU: 0x29522, offset: 0x29522, size: 0x8, addend: 0x0, symName: __ZSt9iter_swapIN9__gnu_cxx17__normal_iteratorIPiSt6vectorIiSaIiEEEES6_EvT_T0_, symObjAddr: 0x2868, symBinAddr: 0x100004EC0, symSize: 0x44 }
  - { offsetInCU: 0x2952A, offset: 0x2952A, size: 0x8, addend: 0x0, symName: __ZNKSt7greaterIiEclERKiS2_, symObjAddr: 0x28AC, symBinAddr: 0x100004F04, symSize: 0x34 }
  - { offsetInCU: 0x294BE, offset: 0x294BE, size: 0x8, addend: 0x0, symName: __ZN9__gnu_cxx17__normal_iteratorIPiSt6vectorIiSaIiEEEmmEv, symObjAddr: 0x2840, symBinAddr: 0x100004E98, symSize: 0x28 }
  - { offsetInCU: 0x294C6, offset: 0x294C6, size: 0x8, addend: 0x0, symName: __ZSt9iter_swapIN9__gnu_cxx17__normal_iteratorIPiSt6vectorIiSaIiEEEES6_EvT_T0_, symObjAddr: 0x2868, symBinAddr: 0x100004EC0, symSize: 0x44 }
  - { offsetInCU: 0x295E6, offset: 0x295E6, size: 0x8, addend: 0x0, symName: __ZSt10__pop_heapIN9__gnu_cxx17__normal_iteratorIPiSt6vectorIiSaIiEEEENS0_5__ops15_Iter_comp_iterISt7greaterIiEEEEvT_SC_SC_RT0_, symObjAddr: 0x27AC, symBinAddr: 0x100004E04, symSize: 0x94 }
  - { offsetInCU: 0x295EE, offset: 0x295EE, size: 0x8, addend: 0x0, symName: __ZN9__gnu_cxx17__normal_iteratorIPiSt6vectorIiSaIiEEEmmEv, symObjAddr: 0x2840, symBinAddr: 0x100004E98, symSize: 0x28 }
  - { offsetInCU: 0x296A5, offset: 0x296A5, size: 0x8, addend: 0x0, symName: __ZSt11__make_heapIN9__gnu_cxx17__normal_iteratorIPiSt6vectorIiSaIiEEEENS0_5__ops15_Iter_comp_iterISt7greaterIiEEEEvT_SC_RT0_, symObjAddr: 0x26D0, symBinAddr: 0x100004D28, symSize: 0xDC }
  - { offsetInCU: 0x296AD, offset: 0x296AD, size: 0x8, addend: 0x0, symName: __ZSt10__pop_heapIN9__gnu_cxx17__normal_iteratorIPiSt6vectorIiSaIiEEEENS0_5__ops15_Iter_comp_iterISt7greaterIiEEEEvT_SC_SC_RT0_, symObjAddr: 0x27AC, symBinAddr: 0x100004E04, symSize: 0x94 }
  - { offsetInCU: 0x2973C, offset: 0x2973C, size: 0x8, addend: 0x0, symName: __ZSt14__relocate_a_1IiiENSt9enable_ifIXsrSt24__is_bitwise_relocatableIT_vE5valueEPS2_E4typeES4_S4_S4_RSaIT0_E, symObjAddr: 0x261C, symBinAddr: 0x100004C74, symSize: 0xB4 }
  - { offsetInCU: 0x29744, offset: 0x29744, size: 0x8, addend: 0x0, symName: __ZSt11__make_heapIN9__gnu_cxx17__normal_iteratorIPiSt6vectorIiSaIiEEEENS0_5__ops15_Iter_comp_iterISt7greaterIiEEEEvT_SC_RT0_, symObjAddr: 0x26D0, symBinAddr: 0x100004D28, symSize: 0xDC }
  - { offsetInCU: 0x297DB, offset: 0x297DB, size: 0x8, addend: 0x0, symName: __ZN9__gnu_cxx17__normal_iteratorIPivEC1ERKS1_, symObjAddr: 0x25F4, symBinAddr: 0x100004C4C, symSize: 0x28 }
  - { offsetInCU: 0x297E3, offset: 0x297E3, size: 0x8, addend: 0x0, symName: __ZSt14__relocate_a_1IiiENSt9enable_ifIXsrSt24__is_bitwise_relocatableIT_vE5valueEPS2_E4typeES4_S4_S4_RSaIT0_E, symObjAddr: 0x261C, symBinAddr: 0x100004C74, symSize: 0xB4 }
  - { offsetInCU: 0x2981E, offset: 0x2981E, size: 0x8, addend: 0x0, symName: __ZSt12__niter_baseIPiET_S1_, symObjAddr: 0x25E0, symBinAddr: 0x100004C38, symSize: 0x14 }
  - { offsetInCU: 0x29826, offset: 0x29826, size: 0x8, addend: 0x0, symName: __ZN9__gnu_cxx17__normal_iteratorIPivEC1ERKS1_, symObjAddr: 0x25F4, symBinAddr: 0x100004C4C, symSize: 0x28 }
  - { offsetInCU: 0x29862, offset: 0x29862, size: 0x8, addend: 0x0, symName: __ZNSt15__new_allocatorIcE8allocateEmPKv, symObjAddr: 0x257C, symBinAddr: 0x100004BD4, symSize: 0x64 }
  - { offsetInCU: 0x2986A, offset: 0x2986A, size: 0x8, addend: 0x0, symName: __ZSt12__niter_baseIPiET_S1_, symObjAddr: 0x25E0, symBinAddr: 0x100004C38, symSize: 0x14 }
  - { offsetInCU: 0x29926, offset: 0x29926, size: 0x8, addend: 0x0, symName: __ZSt11__addressofIKcEPT_RS1_, symObjAddr: 0x2568, symBinAddr: 0x100004BC0, symSize: 0x14 }
  - { offsetInCU: 0x2992E, offset: 0x2992E, size: 0x8, addend: 0x0, symName: __ZNSt15__new_allocatorIcE8allocateEmPKv, symObjAddr: 0x257C, symBinAddr: 0x100004BD4, symSize: 0x64 }
  - { offsetInCU: 0x29A47, offset: 0x29A47, size: 0x8, addend: 0x0, symName: __ZSt25__unguarded_linear_insertIN9__gnu_cxx17__normal_iteratorIPiSt6vectorIiSaIiEEEENS0_5__ops14_Val_comp_iterISt7greaterIiEEEEvT_T0_, symObjAddr: 0x24B8, symBinAddr: 0x100004B10, symSize: 0xB0 }
  - { offsetInCU: 0x29A4F, offset: 0x29A4F, size: 0x8, addend: 0x0, symName: __ZSt11__addressofIKcEPT_RS1_, symObjAddr: 0x2568, symBinAddr: 0x100004BC0, symSize: 0x14 }
  - { offsetInCU: 0x29A57, offset: 0x29A57, size: 0x8, addend: 0x0, symName: __ZN9__gnu_cxx5__ops15__val_comp_iterISt7greaterIiEEENS0_14_Val_comp_iterIT_EENS0_15_Iter_comp_iterIS5_EE, symObjAddr: 0x2480, symBinAddr: 0x100004AD8, symSize: 0x38 }
  - { offsetInCU: 0x29A5F, offset: 0x29A5F, size: 0x8, addend: 0x0, symName: __ZSt25__unguarded_linear_insertIN9__gnu_cxx17__normal_iteratorIPiSt6vectorIiSaIiEEEENS0_5__ops14_Val_comp_iterISt7greaterIiEEEEvT_T0_, symObjAddr: 0x24B8, symBinAddr: 0x100004B10, symSize: 0xB0 }
  - { offsetInCU: 0x29AEB, offset: 0x29AEB, size: 0x8, addend: 0x0, symName: __ZSt13move_backwardIN9__gnu_cxx17__normal_iteratorIPiSt6vectorIiSaIiEEEES6_ET0_T_S8_S7_, symObjAddr: 0x2438, symBinAddr: 0x100004A90, symSize: 0x48 }
  - { offsetInCU: 0x29AF3, offset: 0x29AF3, size: 0x8, addend: 0x0, symName: __ZN9__gnu_cxx5__ops15__val_comp_iterISt7greaterIiEEENS0_14_Val_comp_iterIT_EENS0_15_Iter_comp_iterIS5_EE, symObjAddr: 0x2480, symBinAddr: 0x100004AD8, symSize: 0x38 }
  - { offsetInCU: 0x29A92, offset: 0x29A92, size: 0x8, addend: 0x0, symName: __ZN9__gnu_cxx5__ops15_Iter_comp_iterISt7greaterIiEEclINS_17__normal_iteratorIPiSt6vectorIiSaIiEEEESB_EEbT_T0_, symObjAddr: 0x23E8, symBinAddr: 0x100004A40, symSize: 0x50 }
  - { offsetInCU: 0x29A9A, offset: 0x29A9A, size: 0x8, addend: 0x0, symName: __ZSt13move_backwardIN9__gnu_cxx17__normal_iteratorIPiSt6vectorIiSaIiEEEES6_ET0_T_S8_S7_, symObjAddr: 0x2438, symBinAddr: 0x100004A90, symSize: 0x48 }
  - { offsetInCU: 0x29B01, offset: 0x29B01, size: 0x8, addend: 0x0, symName: __ZN9__gnu_cxx17__normal_iteratorIPiSt6vectorIiSaIiEEEppEv, symObjAddr: 0x23C0, symBinAddr: 0x100004A18, symSize: 0x28 }
  - { offsetInCU: 0x29B09, offset: 0x29B09, size: 0x8, addend: 0x0, symName: __ZN9__gnu_cxx5__ops15_Iter_comp_iterISt7greaterIiEEclINS_17__normal_iteratorIPiSt6vectorIiSaIiEEEESB_EEbT_T0_, symObjAddr: 0x23E8, symBinAddr: 0x100004A40, symSize: 0x50 }
  - { offsetInCU: 0x29C45, offset: 0x29C45, size: 0x8, addend: 0x0, symName: __ZSt21__unguarded_partitionIN9__gnu_cxx17__normal_iteratorIPiSt6vectorIiSaIiEEEENS0_5__ops15_Iter_comp_iterISt7greaterIiEEEET_SC_SC_SC_T0_, symObjAddr: 0x22D8, symBinAddr: 0x100004930, symSize: 0xE8 }
  - { offsetInCU: 0x29C4D, offset: 0x29C4D, size: 0x8, addend: 0x0, symName: __ZN9__gnu_cxx17__normal_iteratorIPiSt6vectorIiSaIiEEEppEv, symObjAddr: 0x23C0, symBinAddr: 0x100004A18, symSize: 0x28 }
  - { offsetInCU: 0x29CD8, offset: 0x29CD8, size: 0x8, addend: 0x0, symName: __ZSt22__move_median_to_firstIN9__gnu_cxx17__normal_iteratorIPiSt6vectorIiSaIiEEEENS0_5__ops15_Iter_comp_iterISt7greaterIiEEEEvT_SC_SC_SC_T0_, symObjAddr: 0x21B4, symBinAddr: 0x10000480C, symSize: 0x124 }
  - { offsetInCU: 0x29CE0, offset: 0x29CE0, size: 0x8, addend: 0x0, symName: __ZSt21__unguarded_partitionIN9__gnu_cxx17__normal_iteratorIPiSt6vectorIiSaIiEEEENS0_5__ops15_Iter_comp_iterISt7greaterIiEEEET_SC_SC_SC_T0_, symObjAddr: 0x22D8, symBinAddr: 0x100004930, symSize: 0xE8 }
  - { offsetInCU: 0x29D5A, offset: 0x29D5A, size: 0x8, addend: 0x0, symName: __ZSt11__sort_heapIN9__gnu_cxx17__normal_iteratorIPiSt6vectorIiSaIiEEEENS0_5__ops15_Iter_comp_iterISt7greaterIiEEEEvT_SC_RT0_, symObjAddr: 0x214C, symBinAddr: 0x1000047A4, symSize: 0x68 }
  - { offsetInCU: 0x29D62, offset: 0x29D62, size: 0x8, addend: 0x0, symName: __ZSt22__move_median_to_firstIN9__gnu_cxx17__normal_iteratorIPiSt6vectorIiSaIiEEEENS0_5__ops15_Iter_comp_iterISt7greaterIiEEEEvT_SC_SC_SC_T0_, symObjAddr: 0x21B4, symBinAddr: 0x10000480C, symSize: 0x124 }
  - { offsetInCU: 0x29DDA, offset: 0x29DDA, size: 0x8, addend: 0x0, symName: __ZSt13__heap_selectIN9__gnu_cxx17__normal_iteratorIPiSt6vectorIiSaIiEEEENS0_5__ops15_Iter_comp_iterISt7greaterIiEEEEvT_SC_SC_T0_, symObjAddr: 0x2084, symBinAddr: 0x1000046DC, symSize: 0xC8 }
  - { offsetInCU: 0x29DE2, offset: 0x29DE2, size: 0x8, addend: 0x0, symName: __ZSt11__sort_heapIN9__gnu_cxx17__normal_iteratorIPiSt6vectorIiSaIiEEEENS0_5__ops15_Iter_comp_iterISt7greaterIiEEEEvT_SC_RT0_, symObjAddr: 0x214C, symBinAddr: 0x1000047A4, symSize: 0x68 }
  - { offsetInCU: 0x29E59, offset: 0x29E59, size: 0x8, addend: 0x0, symName: __ZN9__gnu_cxxssIPiSt6vectorIiSaIiEEEEDTclL_ZNSt8__detail11__synth3wayEEcl7declvalIRT_EEcl7declvalIS7_EEEERKNS_17__normal_iteratorIS6_T0_EESD_, symObjAddr: 0x203C, symBinAddr: 0x100004694, symSize: 0x48 }
  - { offsetInCU: 0x29E61, offset: 0x29E61, size: 0x8, addend: 0x0, symName: __ZSt13__heap_selectIN9__gnu_cxx17__normal_iteratorIPiSt6vectorIiSaIiEEEENS0_5__ops15_Iter_comp_iterISt7greaterIiEEEEvT_SC_SC_T0_, symObjAddr: 0x2084, symBinAddr: 0x1000046DC, symSize: 0xC8 }
  - { offsetInCU: 0x29E2B, offset: 0x29E2B, size: 0x8, addend: 0x0, symName: __ZNKSt8__detail10_Synth3wayclIPiS2_EEDaRKT_RKT0_, symObjAddr: 0x1FE0, symBinAddr: 0x100004638, symSize: 0x5C }
  - { offsetInCU: 0x29E33, offset: 0x29E33, size: 0x8, addend: 0x0, symName: __ZN9__gnu_cxxssIPiSt6vectorIiSaIiEEEEDTclL_ZNSt8__detail11__synth3wayEEcl7declvalIRT_EEcl7declvalIS7_EEEERKNS_17__normal_iteratorIS6_T0_EESD_, symObjAddr: 0x203C, symBinAddr: 0x100004694, symSize: 0x48 }
  - { offsetInCU: 0x29EC4, offset: 0x29EC4, size: 0x8, addend: 0x0, symName: __ZSt10destroy_atIiEvPT_, symObjAddr: 0x1FCC, symBinAddr: 0x100004624, symSize: 0x14 }
  - { offsetInCU: 0x29ECC, offset: 0x29ECC, size: 0x8, addend: 0x0, symName: __ZNKSt8__detail10_Synth3wayclIPiS2_EEDaRKT_RKT0_, symObjAddr: 0x1FE0, symBinAddr: 0x100004638, symSize: 0x5C }
  - { offsetInCU: 0x29F41, offset: 0x29F41, size: 0x8, addend: 0x0, symName: __ZSt12__relocate_aIPiS0_SaIiEET0_T_S3_S2_RT1_, symObjAddr: 0x1F70, symBinAddr: 0x1000045C8, symSize: 0x5C }
  - { offsetInCU: 0x29F49, offset: 0x29F49, size: 0x8, addend: 0x0, symName: __ZSt10destroy_atIiEvPT_, symObjAddr: 0x1FCC, symBinAddr: 0x100004624, symSize: 0x14 }
  - { offsetInCU: 0x29FB1, offset: 0x29FB1, size: 0x8, addend: 0x0, symName: __ZNKSt12_Vector_baseIiSaIiEE19_M_get_Tp_allocatorEv, symObjAddr: 0x1F5C, symBinAddr: 0x1000045B4, symSize: 0x14 }
  - { offsetInCU: 0x29FB9, offset: 0x29FB9, size: 0x8, addend: 0x0, symName: __ZSt12__relocate_aIPiS0_SaIiEET0_T_S3_S2_RT1_, symObjAddr: 0x1F70, symBinAddr: 0x1000045C8, symSize: 0x5C }
  - { offsetInCU: 0x29FE0, offset: 0x29FE0, size: 0x8, addend: 0x0, symName: __ZNSt6vectorIiSaIiEE11_S_max_sizeERKS0_, symObjAddr: 0x1F20, symBinAddr: 0x100004578, symSize: 0x3C }
  - { offsetInCU: 0x29FE8, offset: 0x29FE8, size: 0x8, addend: 0x0, symName: __ZNKSt12_Vector_baseIiSaIiEE19_M_get_Tp_allocatorEv, symObjAddr: 0x1F5C, symBinAddr: 0x1000045B4, symSize: 0x14 }
  - { offsetInCU: 0x2A0A3, offset: 0x2A0A3, size: 0x8, addend: 0x0, symName: __ZSt8_DestroyIiEvPT_, symObjAddr: 0x1F00, symBinAddr: 0x100004558, symSize: 0x20 }
  - { offsetInCU: 0x2A0AB, offset: 0x2A0AB, size: 0x8, addend: 0x0, symName: __ZNSt6vectorIiSaIiEE11_S_max_sizeERKS0_, symObjAddr: 0x1F20, symBinAddr: 0x100004578, symSize: 0x3C }
  - { offsetInCU: 0x2A0F4, offset: 0x2A0F4, size: 0x8, addend: 0x0, symName: __ZSt11__addressofIiEPT_RS0_, symObjAddr: 0x1EEC, symBinAddr: 0x100004544, symSize: 0x14 }
  - { offsetInCU: 0x2A0FC, offset: 0x2A0FC, size: 0x8, addend: 0x0, symName: __ZSt8_DestroyIiEvPT_, symObjAddr: 0x1F00, symBinAddr: 0x100004558, symSize: 0x20 }
  - { offsetInCU: 0x2A10E, offset: 0x2A10E, size: 0x8, addend: 0x0, symName: __ZNSt15__new_allocatorIiE10deallocateEPim, symObjAddr: 0x1EBC, symBinAddr: 0x100004514, symSize: 0x30 }
  - { offsetInCU: 0x2A116, offset: 0x2A116, size: 0x8, addend: 0x0, symName: __ZSt11__addressofIiEPT_RS0_, symObjAddr: 0x1EEC, symBinAddr: 0x100004544, symSize: 0x14 }
  - { offsetInCU: 0x2A18F, offset: 0x2A18F, size: 0x8, addend: 0x0, symName: __ZNSt15__new_allocatorIcE10deallocateEPcm, symObjAddr: 0x1E94, symBinAddr: 0x1000044EC, symSize: 0x28 }
  - { offsetInCU: 0x2A197, offset: 0x2A197, size: 0x8, addend: 0x0, symName: __ZNSt15__new_allocatorIiE10deallocateEPim, symObjAddr: 0x1EBC, symBinAddr: 0x100004514, symSize: 0x30 }
  - { offsetInCU: 0x2A218, offset: 0x2A218, size: 0x8, addend: 0x0, symName: __ZSt9addressofIKcEPT_RS1_, symObjAddr: 0x1E78, symBinAddr: 0x1000044D0, symSize: 0x1C }
  - { offsetInCU: 0x2A220, offset: 0x2A220, size: 0x8, addend: 0x0, symName: __ZNSt15__new_allocatorIcE10deallocateEPcm, symObjAddr: 0x1E94, symBinAddr: 0x1000044EC, symSize: 0x28 }
  - { offsetInCU: 0x2A27F, offset: 0x2A27F, size: 0x8, addend: 0x0, symName: __ZSt11__addressofIcEPT_RS0_, symObjAddr: 0x1E64, symBinAddr: 0x1000044BC, symSize: 0x14 }
  - { offsetInCU: 0x2A287, offset: 0x2A287, size: 0x8, addend: 0x0, symName: __ZSt9addressofIKcEPT_RS1_, symObjAddr: 0x1E78, symBinAddr: 0x1000044D0, symSize: 0x1C }
  - { offsetInCU: 0x2A3AE, offset: 0x2A3AE, size: 0x8, addend: 0x0, symName: __ZSt26__unguarded_insertion_sortIN9__gnu_cxx17__normal_iteratorIPiSt6vectorIiSaIiEEEENS0_5__ops15_Iter_comp_iterISt7greaterIiEEEEvT_SC_T0_, symObjAddr: 0x1DEC, symBinAddr: 0x100004444, symSize: 0x78 }
  - { offsetInCU: 0x2A3B6, offset: 0x2A3B6, size: 0x8, addend: 0x0, symName: __ZSt11__addressofIcEPT_RS0_, symObjAddr: 0x1E64, symBinAddr: 0x1000044BC, symSize: 0x14 }
  - { offsetInCU: 0x2A43B, offset: 0x2A43B, size: 0x8, addend: 0x0, symName: __ZSt16__insertion_sortIN9__gnu_cxx17__normal_iteratorIPiSt6vectorIiSaIiEEEENS0_5__ops15_Iter_comp_iterISt7greaterIiEEEEvT_SC_T0_, symObjAddr: 0x1CE4, symBinAddr: 0x10000433C, symSize: 0x108 }
  - { offsetInCU: 0x2A443, offset: 0x2A443, size: 0x8, addend: 0x0, symName: __ZSt26__unguarded_insertion_sortIN9__gnu_cxx17__normal_iteratorIPiSt6vectorIiSaIiEEEENS0_5__ops15_Iter_comp_iterISt7greaterIiEEEEvT_SC_T0_, symObjAddr: 0x1DEC, symBinAddr: 0x100004444, symSize: 0x78 }
  - { offsetInCU: 0x2A401, offset: 0x2A401, size: 0x8, addend: 0x0, symName: __ZNK9__gnu_cxx17__normal_iteratorIPiSt6vectorIiSaIiEEEplEl, symObjAddr: 0x1CA4, symBinAddr: 0x1000042FC, symSize: 0x40 }
  - { offsetInCU: 0x2A409, offset: 0x2A409, size: 0x8, addend: 0x0, symName: __ZSt16__insertion_sortIN9__gnu_cxx17__normal_iteratorIPiSt6vectorIiSaIiEEEENS0_5__ops15_Iter_comp_iterISt7greaterIiEEEEvT_SC_T0_, symObjAddr: 0x1CE4, symBinAddr: 0x10000433C, symSize: 0x108 }
  - { offsetInCU: 0x2A562, offset: 0x2A562, size: 0x8, addend: 0x0, symName: __ZSt27__unguarded_partition_pivotIN9__gnu_cxx17__normal_iteratorIPiSt6vectorIiSaIiEEEENS0_5__ops15_Iter_comp_iterISt7greaterIiEEEET_SC_SC_T0_, symObjAddr: 0x1C08, symBinAddr: 0x100004260, symSize: 0x9C }
  - { offsetInCU: 0x2A56A, offset: 0x2A56A, size: 0x8, addend: 0x0, symName: __ZNK9__gnu_cxx17__normal_iteratorIPiSt6vectorIiSaIiEEEplEl, symObjAddr: 0x1CA4, symBinAddr: 0x1000042FC, symSize: 0x40 }
  - { offsetInCU: 0x2A5DA, offset: 0x2A5DA, size: 0x8, addend: 0x0, symName: __ZSt14__partial_sortIN9__gnu_cxx17__normal_iteratorIPiSt6vectorIiSaIiEEEENS0_5__ops15_Iter_comp_iterISt7greaterIiEEEEvT_SC_SC_T0_, symObjAddr: 0x1BBC, symBinAddr: 0x100004214, symSize: 0x4C }
  - { offsetInCU: 0x2A5E2, offset: 0x2A5E2, size: 0x8, addend: 0x0, symName: __ZSt27__unguarded_partition_pivotIN9__gnu_cxx17__normal_iteratorIPiSt6vectorIiSaIiEEEENS0_5__ops15_Iter_comp_iterISt7greaterIiEEEET_SC_SC_T0_, symObjAddr: 0x1C08, symBinAddr: 0x100004260, symSize: 0x9C }
  - { offsetInCU: 0x2A567, offset: 0x2A567, size: 0x8, addend: 0x0, symName: __ZNK9__gnu_cxx17__normal_iteratorIPiSt6vectorIiSaIiEEEdeEv, symObjAddr: 0x1BA4, symBinAddr: 0x1000041FC, symSize: 0x18 }
  - { offsetInCU: 0x2A56F, offset: 0x2A56F, size: 0x8, addend: 0x0, symName: __ZSt14__partial_sortIN9__gnu_cxx17__normal_iteratorIPiSt6vectorIiSaIiEEEENS0_5__ops15_Iter_comp_iterISt7greaterIiEEEEvT_SC_SC_T0_, symObjAddr: 0x1BBC, symBinAddr: 0x100004214, symSize: 0x4C }
  - { offsetInCU: 0x2A596, offset: 0x2A596, size: 0x8, addend: 0x0, symName: __ZNK9__gnu_cxx17__normal_iteratorIPiSt6vectorIiSaIiEEEmiEl, symObjAddr: 0x1B60, symBinAddr: 0x1000041B8, symSize: 0x44 }
  - { offsetInCU: 0x2A59E, offset: 0x2A59E, size: 0x8, addend: 0x0, symName: __ZNK9__gnu_cxx17__normal_iteratorIPiSt6vectorIiSaIiEEEdeEv, symObjAddr: 0x1BA4, symBinAddr: 0x1000041FC, symSize: 0x18 }
  - { offsetInCU: 0x2A616, offset: 0x2A616, size: 0x8, addend: 0x0, symName: __ZNSt6vectorIiSaIiEE11_S_relocateEPiS2_S2_RS0_, symObjAddr: 0x1B2C, symBinAddr: 0x100004184, symSize: 0x34 }
  - { offsetInCU: 0x2A61E, offset: 0x2A61E, size: 0x8, addend: 0x0, symName: __ZNK9__gnu_cxx17__normal_iteratorIPiSt6vectorIiSaIiEEEmiEl, symObjAddr: 0x1B60, symBinAddr: 0x1000041B8, symSize: 0x44 }
  - { offsetInCU: 0x2A684, offset: 0x2A684, size: 0x8, addend: 0x0, symName: __ZNSt12_Vector_baseIiSaIiEE11_M_allocateEm, symObjAddr: 0x1A64, symBinAddr: 0x1000040BC, symSize: 0xC8 }
  - { offsetInCU: 0x2A68C, offset: 0x2A68C, size: 0x8, addend: 0x0, symName: __ZNSt6vectorIiSaIiEE11_S_relocateEPiS2_S2_RS0_, symObjAddr: 0x1B2C, symBinAddr: 0x100004184, symSize: 0x34 }
  - { offsetInCU: 0x2A731, offset: 0x2A731, size: 0x8, addend: 0x0, symName: __ZNKSt6vectorIiSaIiEE8max_sizeEv, symObjAddr: 0x1A44, symBinAddr: 0x10000409C, symSize: 0x20 }
  - { offsetInCU: 0x2A739, offset: 0x2A739, size: 0x8, addend: 0x0, symName: __ZNSt12_Vector_baseIiSaIiEE11_M_allocateEm, symObjAddr: 0x1A64, symBinAddr: 0x1000040BC, symSize: 0xC8 }
  - { offsetInCU: 0x2A7C5, offset: 0x2A7C5, size: 0x8, addend: 0x0, symName: __ZSt12construct_atIiJiEEDTgsnwcvPvLi0E_T_pispcl7declvalIT0_EEEEPS1_DpOS2_, symObjAddr: 0x19FC, symBinAddr: 0x100004054, symSize: 0x48 }
  - { offsetInCU: 0x2A7CD, offset: 0x2A7CD, size: 0x8, addend: 0x0, symName: __ZNKSt6vectorIiSaIiEE8max_sizeEv, symObjAddr: 0x1A44, symBinAddr: 0x10000409C, symSize: 0x20 }
  - { offsetInCU: 0x2A7CD, offset: 0x2A7CD, size: 0x8, addend: 0x0, symName: __ZNSt12_Destroy_auxILb1EE9__destroyIPiEEvT_S3_, symObjAddr: 0x19E4, symBinAddr: 0x10000403C, symSize: 0x18 }
  - { offsetInCU: 0x2A7D5, offset: 0x2A7D5, size: 0x8, addend: 0x0, symName: __ZSt12construct_atIiJiEEDTgsnwcvPvLi0E_T_pispcl7declvalIT0_EEEEPS1_DpOS2_, symObjAddr: 0x19FC, symBinAddr: 0x100004054, symSize: 0x48 }
  - { offsetInCU: 0x2A812, offset: 0x2A812, size: 0x8, addend: 0x0, symName: __ZNSt12_Destroy_auxILb0EE9__destroyIPiEEvT_S3_, symObjAddr: 0x1998, symBinAddr: 0x100003FF0, symSize: 0x4C }
  - { offsetInCU: 0x2A81A, offset: 0x2A81A, size: 0x8, addend: 0x0, symName: __ZNSt12_Destroy_auxILb1EE9__destroyIPiEEvT_S3_, symObjAddr: 0x19E4, symBinAddr: 0x10000403C, symSize: 0x18 }
  - { offsetInCU: 0x2A94C, offset: 0x2A94C, size: 0x8, addend: 0x0, symName: __ZSt13__countl_zeroImEiT_, symObjAddr: 0x1944, symBinAddr: 0x100003F9C, symSize: 0x54 }
  - { offsetInCU: 0x2A954, offset: 0x2A954, size: 0x8, addend: 0x0, symName: __ZNSt12_Destroy_auxILb0EE9__destroyIPiEEvT_S3_, symObjAddr: 0x1998, symBinAddr: 0x100003FF0, symSize: 0x4C }
  - { offsetInCU: 0x2A9CA, offset: 0x2A9CA, size: 0x8, addend: 0x0, symName: __ZNSt19__ptr_traits_ptr_toIPKcS0_Lb0EE10pointer_toERS0_, symObjAddr: 0x1928, symBinAddr: 0x100003F80, symSize: 0x1C }
  - { offsetInCU: 0x2A9D2, offset: 0x2A9D2, size: 0x8, addend: 0x0, symName: __ZSt13__countl_zeroImEiT_, symObjAddr: 0x1944, symBinAddr: 0x100003F9C, symSize: 0x54 }
  - { offsetInCU: 0x2A9FB, offset: 0x2A9FB, size: 0x8, addend: 0x0, symName: __ZNKSt7__cxx1112basic_stringIcSt11char_traitsIcESaIcEE8max_sizeEv, symObjAddr: 0x18FC, symBinAddr: 0x100003F54, symSize: 0x2C }
  - { offsetInCU: 0x2AA03, offset: 0x2AA03, size: 0x8, addend: 0x0, symName: __ZNSt19__ptr_traits_ptr_toIPKcS0_Lb0EE10pointer_toERS0_, symObjAddr: 0x1928, symBinAddr: 0x100003F80, symSize: 0x1C }
  - { offsetInCU: 0x2AAA3, offset: 0x2AAA3, size: 0x8, addend: 0x0, symName: __ZSt9addressofIcEPT_RS0_, symObjAddr: 0x18E0, symBinAddr: 0x100003F38, symSize: 0x1C }
  - { offsetInCU: 0x2AAAB, offset: 0x2AAAB, size: 0x8, addend: 0x0, symName: __ZNKSt7__cxx1112basic_stringIcSt11char_traitsIcESaIcEE8max_sizeEv, symObjAddr: 0x18FC, symBinAddr: 0x100003F54, symSize: 0x2C }
  - { offsetInCU: 0x2ABCF, offset: 0x2ABCF, size: 0x8, addend: 0x0, symName: __ZSt22__final_insertion_sortIN9__gnu_cxx17__normal_iteratorIPiSt6vectorIiSaIiEEEENS0_5__ops15_Iter_comp_iterISt7greaterIiEEEEvT_SC_T0_, symObjAddr: 0x1854, symBinAddr: 0x100003EAC, symSize: 0x8C }
  - { offsetInCU: 0x2ABD7, offset: 0x2ABD7, size: 0x8, addend: 0x0, symName: __ZSt9addressofIcEPT_RS0_, symObjAddr: 0x18E0, symBinAddr: 0x100003F38, symSize: 0x1C }
  - { offsetInCU: 0x2AC4B, offset: 0x2AC4B, size: 0x8, addend: 0x0, symName: __ZSt16__introsort_loopIN9__gnu_cxx17__normal_iteratorIPiSt6vectorIiSaIiEEEElNS0_5__ops15_Iter_comp_iterISt7greaterIiEEEEvT_SC_T0_T1_, symObjAddr: 0x17AC, symBinAddr: 0x100003E04, symSize: 0xA8 }
  - { offsetInCU: 0x2AC53, offset: 0x2AC53, size: 0x8, addend: 0x0, symName: __ZSt22__final_insertion_sortIN9__gnu_cxx17__normal_iteratorIPiSt6vectorIiSaIiEEEENS0_5__ops15_Iter_comp_iterISt7greaterIiEEEEvT_SC_T0_, symObjAddr: 0x1854, symBinAddr: 0x100003EAC, symSize: 0x8C }
  - { offsetInCU: 0x2AC23, offset: 0x2AC23, size: 0x8, addend: 0x0, symName: __ZSt4__lgIlET_S0_, symObjAddr: 0x1788, symBinAddr: 0x100003DE0, symSize: 0x24 }
  - { offsetInCU: 0x2AC2B, offset: 0x2AC2B, size: 0x8, addend: 0x0, symName: __ZSt16__introsort_loopIN9__gnu_cxx17__normal_iteratorIPiSt6vectorIiSaIiEEEElNS0_5__ops15_Iter_comp_iterISt7greaterIiEEEEvT_SC_T0_T1_, symObjAddr: 0x17AC, symBinAddr: 0x100003E04, symSize: 0xA8 }
  - { offsetInCU: 0x2ACAF, offset: 0x2ACAF, size: 0x8, addend: 0x0, symName: __ZN9__gnu_cxx5__ops15_Iter_comp_iterISt7greaterIiEEC1ES3_, symObjAddr: 0x1764, symBinAddr: 0x100003DBC, symSize: 0x24 }
  - { offsetInCU: 0x2ACB7, offset: 0x2ACB7, size: 0x8, addend: 0x0, symName: __ZSt4__lgIlET_S0_, symObjAddr: 0x1788, symBinAddr: 0x100003DE0, symSize: 0x24 }
  - { offsetInCU: 0x2AD0D, offset: 0x2AD0D, size: 0x8, addend: 0x0, symName: __ZSt4moveIRSt7greaterIiEEONSt16remove_referenceIT_E4typeEOS4_, symObjAddr: 0x1750, symBinAddr: 0x100003DA8, symSize: 0x14 }
  - { offsetInCU: 0x2AD15, offset: 0x2AD15, size: 0x8, addend: 0x0, symName: __ZN9__gnu_cxx5__ops15_Iter_comp_iterISt7greaterIiEEC1ES3_, symObjAddr: 0x1764, symBinAddr: 0x100003DBC, symSize: 0x24 }
  - { offsetInCU: 0x2AD11, offset: 0x2AD11, size: 0x8, addend: 0x0, symName: __ZNSt6vectorIiSaIiEE4backEv, symObjAddr: 0x1718, symBinAddr: 0x100003D70, symSize: 0x38 }
  - { offsetInCU: 0x2AD19, offset: 0x2AD19, size: 0x8, addend: 0x0, symName: __ZSt4moveIRSt7greaterIiEEONSt16remove_referenceIT_E4typeEOS4_, symObjAddr: 0x1750, symBinAddr: 0x100003DA8, symSize: 0x14 }
  - { offsetInCU: 0x2AD40, offset: 0x2AD40, size: 0x8, addend: 0x0, symName: __ZNSt6vectorIiSaIiEE17_M_realloc_insertIJiEEEvN9__gnu_cxx17__normal_iteratorIPiS1_EEDpOT_, symObjAddr: 0x158C, symBinAddr: 0x100003BE4, symSize: 0x18C }
  - { offsetInCU: 0x2AD48, offset: 0x2AD48, size: 0x8, addend: 0x0, symName: __ZNSt6vectorIiSaIiEE4backEv, symObjAddr: 0x1718, symBinAddr: 0x100003D70, symSize: 0x38 }
  - { offsetInCU: 0x2AE64, offset: 0x2AE64, size: 0x8, addend: 0x0, symName: __ZNKSt6vectorIiSaIiEE12_M_check_lenEmPKc, symObjAddr: 0x14BC, symBinAddr: 0x100003B14, symSize: 0xD0 }
  - { offsetInCU: 0x2AE6C, offset: 0x2AE6C, size: 0x8, addend: 0x0, symName: __ZNSt6vectorIiSaIiEE17_M_realloc_insertIJiEEEvN9__gnu_cxx17__normal_iteratorIPiS1_EEDpOT_, symObjAddr: 0x158C, symBinAddr: 0x100003BE4, symSize: 0x18C }
  - { offsetInCU: 0x2AECF, offset: 0x2AECF, size: 0x8, addend: 0x0, symName: __ZNKSt6vectorIiSaIiEE4sizeEv, symObjAddr: 0x1494, symBinAddr: 0x100003AEC, symSize: 0x28 }
  - { offsetInCU: 0x2AED7, offset: 0x2AED7, size: 0x8, addend: 0x0, symName: __ZNKSt6vectorIiSaIiEE12_M_check_lenEmPKc, symObjAddr: 0x14BC, symBinAddr: 0x100003B14, symSize: 0xD0 }
  - { offsetInCU: 0x2AF81, offset: 0x2AF81, size: 0x8, addend: 0x0, symName: __ZSt8_DestroyIPiEvT_S1_, symObjAddr: 0x144C, symBinAddr: 0x100003AA4, symSize: 0x48 }
  - { offsetInCU: 0x2AF89, offset: 0x2AF89, size: 0x8, addend: 0x0, symName: __ZNKSt6vectorIiSaIiEE4sizeEv, symObjAddr: 0x1494, symBinAddr: 0x100003AEC, symSize: 0x28 }
  - { offsetInCU: 0x2AFF2, offset: 0x2AFF2, size: 0x8, addend: 0x0, symName: __ZNSt7__cxx1112basic_stringIcSt11char_traitsIcESaIcEE11_S_allocateERS3_m, symObjAddr: 0x13AC, symBinAddr: 0x100003A04, symSize: 0xA0 }
  - { offsetInCU: 0x2AFFA, offset: 0x2AFFA, size: 0x8, addend: 0x0, symName: __ZSt8_DestroyIPiEvT_S1_, symObjAddr: 0x144C, symBinAddr: 0x100003AA4, symSize: 0x48 }
  - { offsetInCU: 0x2B131, offset: 0x2B131, size: 0x8, addend: 0x0, symName: __ZSt11__bit_widthImEiT_, symObjAddr: 0x137C, symBinAddr: 0x1000039D4, symSize: 0x30 }
  - { offsetInCU: 0x2B139, offset: 0x2B139, size: 0x8, addend: 0x0, symName: __ZNSt7__cxx1112basic_stringIcSt11char_traitsIcESaIcEE11_S_allocateERS3_m, symObjAddr: 0x13AC, symBinAddr: 0x100003A04, symSize: 0xA0 }
  - { offsetInCU: 0x2B155, offset: 0x2B155, size: 0x8, addend: 0x0, symName: __ZNKSt7__cxx1112basic_stringIcSt11char_traitsIcESaIcEE13_M_local_dataEv, symObjAddr: 0x135C, symBinAddr: 0x1000039B4, symSize: 0x20 }
  - { offsetInCU: 0x2B15D, offset: 0x2B15D, size: 0x8, addend: 0x0, symName: __ZSt11__bit_widthImEiT_, symObjAddr: 0x137C, symBinAddr: 0x1000039D4, symSize: 0x30 }
  - { offsetInCU: 0x2B184, offset: 0x2B184, size: 0x8, addend: 0x0, symName: __ZNSt7__cxx1112basic_stringIcSt11char_traitsIcESaIcEE9_S_assignEPcmc, symObjAddr: 0x1308, symBinAddr: 0x100003960, symSize: 0x54 }
  - { offsetInCU: 0x2B18C, offset: 0x2B18C, size: 0x8, addend: 0x0, symName: __ZNKSt7__cxx1112basic_stringIcSt11char_traitsIcESaIcEE13_M_local_dataEv, symObjAddr: 0x135C, symBinAddr: 0x1000039B4, symSize: 0x20 }
  - { offsetInCU: 0x2B1E2, offset: 0x2B1E2, size: 0x8, addend: 0x0, symName: __ZNSt7__cxx1112basic_stringIcSt11char_traitsIcESaIcEE9_M_createERmm, symObjAddr: 0x1214, symBinAddr: 0x10000386C, symSize: 0xF4 }
  - { offsetInCU: 0x2B1EA, offset: 0x2B1EA, size: 0x8, addend: 0x0, symName: __ZNSt7__cxx1112basic_stringIcSt11char_traitsIcESaIcEE9_S_assignEPcmc, symObjAddr: 0x1308, symBinAddr: 0x100003960, symSize: 0x54 }
  - { offsetInCU: 0x2B263, offset: 0x2B263, size: 0x8, addend: 0x0, symName: __ZNSt19__ptr_traits_ptr_toIPccLb0EE10pointer_toERc, symObjAddr: 0x11F8, symBinAddr: 0x100003850, symSize: 0x1C }
  - { offsetInCU: 0x2B26B, offset: 0x2B26B, size: 0x8, addend: 0x0, symName: __ZNSt7__cxx1112basic_stringIcSt11char_traitsIcESaIcEE9_M_createERmm, symObjAddr: 0x1214, symBinAddr: 0x10000386C, symSize: 0xF4 }
  - { offsetInCU: 0x2B2DC, offset: 0x2B2DC, size: 0x8, addend: 0x0, symName: __ZSt7forwardIRcEOT_RNSt16remove_referenceIS1_E4typeE, symObjAddr: 0x11E4, symBinAddr: 0x10000383C, symSize: 0x14 }
  - { offsetInCU: 0x2B2E4, offset: 0x2B2E4, size: 0x8, addend: 0x0, symName: __ZNSt19__ptr_traits_ptr_toIPccLb0EE10pointer_toERc, symObjAddr: 0x11F8, symBinAddr: 0x100003850, symSize: 0x1C }
  - { offsetInCU: 0x2B3D6, offset: 0x2B3D6, size: 0x8, addend: 0x0, symName: __ZSt6__sortIN9__gnu_cxx17__normal_iteratorIPiSt6vectorIiSaIiEEEENS0_5__ops15_Iter_comp_iterISt7greaterIiEEEEvT_SC_T0_, symObjAddr: 0x1168, symBinAddr: 0x1000037C0, symSize: 0x7C }
  - { offsetInCU: 0x2B3DE, offset: 0x2B3DE, size: 0x8, addend: 0x0, symName: __ZSt7forwardIRcEOT_RNSt16remove_referenceIS1_E4typeE, symObjAddr: 0x11E4, symBinAddr: 0x10000383C, symSize: 0x14 }
  - { offsetInCU: 0x2B3E8, offset: 0x2B3E8, size: 0x8, addend: 0x0, symName: __ZN9__gnu_cxxmiIPiSt6vectorIiSaIiEEEENS_17__normal_iteratorIT_T0_E15difference_typeERKS8_SB_, symObjAddr: 0x1128, symBinAddr: 0x100003780, symSize: 0x40 }
  - { offsetInCU: 0x2B3F0, offset: 0x2B3F0, size: 0x8, addend: 0x0, symName: __ZSt6__sortIN9__gnu_cxx17__normal_iteratorIPiSt6vectorIiSaIiEEEENS0_5__ops15_Iter_comp_iterISt7greaterIiEEEEvT_SC_T0_, symObjAddr: 0x1168, symBinAddr: 0x1000037C0, symSize: 0x7C }
  - { offsetInCU: 0x2B3D0, offset: 0x2B3D0, size: 0x8, addend: 0x0, symName: __ZNK9__gnu_cxx17__normal_iteratorIPiSt6vectorIiSaIiEEE4baseEv, symObjAddr: 0x1114, symBinAddr: 0x10000376C, symSize: 0x14 }
  - { offsetInCU: 0x2B3D8, offset: 0x2B3D8, size: 0x8, addend: 0x0, symName: __ZN9__gnu_cxxmiIPiSt6vectorIiSaIiEEEENS_17__normal_iteratorIT_T0_E15difference_typeERKS8_SB_, symObjAddr: 0x1128, symBinAddr: 0x100003780, symSize: 0x40 }
  - { offsetInCU: 0x2B472, offset: 0x2B472, size: 0x8, addend: 0x0, symName: __ZN9__gnu_cxxeqIPiSt6vectorIiSaIiEEEEbRKNS_17__normal_iteratorIT_T0_EESA_, symObjAddr: 0x10D0, symBinAddr: 0x100003728, symSize: 0x44 }
  - { offsetInCU: 0x2B47A, offset: 0x2B47A, size: 0x8, addend: 0x0, symName: __ZNK9__gnu_cxx17__normal_iteratorIPiSt6vectorIiSaIiEEE4baseEv, symObjAddr: 0x1114, symBinAddr: 0x10000376C, symSize: 0x14 }
  - { offsetInCU: 0x2B4E8, offset: 0x2B4E8, size: 0x8, addend: 0x0, symName: __ZN9__gnu_cxx5__ops16__iter_comp_iterISt7greaterIiEEENS0_15_Iter_comp_iterIT_EES5_, symObjAddr: 0x1098, symBinAddr: 0x1000036F0, symSize: 0x38 }
  - { offsetInCU: 0x2B4F0, offset: 0x2B4F0, size: 0x8, addend: 0x0, symName: __ZN9__gnu_cxxeqIPiSt6vectorIiSaIiEEEEbRKNS_17__normal_iteratorIT_T0_EESA_, symObjAddr: 0x10D0, symBinAddr: 0x100003728, symSize: 0x44 }
  - { offsetInCU: 0x2B522, offset: 0x2B522, size: 0x8, addend: 0x0, symName: __ZN9__gnu_cxx17__normal_iteratorIPiSt6vectorIiSaIiEEEC1ERKS1_, symObjAddr: 0x1070, symBinAddr: 0x1000036C8, symSize: 0x28 }
  - { offsetInCU: 0x2B52A, offset: 0x2B52A, size: 0x8, addend: 0x0, symName: __ZN9__gnu_cxx5__ops16__iter_comp_iterISt7greaterIiEEENS0_15_Iter_comp_iterIT_EES5_, symObjAddr: 0x1098, symBinAddr: 0x1000036F0, symSize: 0x38 }
  - { offsetInCU: 0x2B521, offset: 0x2B521, size: 0x8, addend: 0x0, symName: __ZNSt6vectorIiSaIiEE12emplace_backIJiEEERiDpOT_, symObjAddr: 0xFBC, symBinAddr: 0x100003614, symSize: 0xB4 }
  - { offsetInCU: 0x2B529, offset: 0x2B529, size: 0x8, addend: 0x0, symName: __ZN9__gnu_cxx17__normal_iteratorIPiSt6vectorIiSaIiEEEC1ERKS1_, symObjAddr: 0x1070, symBinAddr: 0x1000036C8, symSize: 0x28 }
  - { offsetInCU: 0x2B5F5, offset: 0x2B5F5, size: 0x8, addend: 0x0, symName: __ZSt4moveIRiEONSt16remove_referenceIT_E4typeEOS2_, symObjAddr: 0xFA8, symBinAddr: 0x100003600, symSize: 0x14 }
  - { offsetInCU: 0x2B5FD, offset: 0x2B5FD, size: 0x8, addend: 0x0, symName: __ZNSt6vectorIiSaIiEE12emplace_backIJiEEERiDpOT_, symObjAddr: 0xFBC, symBinAddr: 0x100003614, symSize: 0xB4 }
  - { offsetInCU: 0x2B661, offset: 0x2B661, size: 0x8, addend: 0x0, symName: __ZNSt12_Vector_baseIiSaIiEE19_M_get_Tp_allocatorEv, symObjAddr: 0xF94, symBinAddr: 0x1000035EC, symSize: 0x14 }
  - { offsetInCU: 0x2B669, offset: 0x2B669, size: 0x8, addend: 0x0, symName: __ZSt4moveIRiEONSt16remove_referenceIT_E4typeEOS2_, symObjAddr: 0xFA8, symBinAddr: 0x100003600, symSize: 0x14 }
  - { offsetInCU: 0x2B690, offset: 0x2B690, size: 0x8, addend: 0x0, symName: __ZNSt12_Vector_baseIiSaIiEE13_M_deallocateEPim, symObjAddr: 0xF04, symBinAddr: 0x10000355C, symSize: 0x90 }
  - { offsetInCU: 0x2B698, offset: 0x2B698, size: 0x8, addend: 0x0, symName: __ZNSt12_Vector_baseIiSaIiEE19_M_get_Tp_allocatorEv, symObjAddr: 0xF94, symBinAddr: 0x1000035EC, symSize: 0x14 }
  - { offsetInCU: 0x2B76C, offset: 0x2B76C, size: 0x8, addend: 0x0, symName: __ZNSt7__cxx1112basic_stringIcSt11char_traitsIcESaIcEE10_M_destroyEm, symObjAddr: 0xE68, symBinAddr: 0x1000034C0, symSize: 0x9C }
  - { offsetInCU: 0x2B774, offset: 0x2B774, size: 0x8, addend: 0x0, symName: __ZNSt12_Vector_baseIiSaIiEE13_M_deallocateEPim, symObjAddr: 0xF04, symBinAddr: 0x10000355C, symSize: 0x90 }
  - { offsetInCU: 0x2B833, offset: 0x2B833, size: 0x8, addend: 0x0, symName: __ZNKSt7__cxx1112basic_stringIcSt11char_traitsIcESaIcEE16_M_get_allocatorEv, symObjAddr: 0xE54, symBinAddr: 0x1000034AC, symSize: 0x14 }
  - { offsetInCU: 0x2B83B, offset: 0x2B83B, size: 0x8, addend: 0x0, symName: __ZNSt7__cxx1112basic_stringIcSt11char_traitsIcESaIcEE10_M_destroyEm, symObjAddr: 0xE68, symBinAddr: 0x1000034C0, symSize: 0x9C }
  - { offsetInCU: 0x2B8D7, offset: 0x2B8D7, size: 0x8, addend: 0x0, symName: __ZSt7forwardIiEOT_RNSt16remove_referenceIS0_E4typeE, symObjAddr: 0xE40, symBinAddr: 0x100003498, symSize: 0x14 }
  - { offsetInCU: 0x2B8DF, offset: 0x2B8DF, size: 0x8, addend: 0x0, symName: __ZNKSt7__cxx1112basic_stringIcSt11char_traitsIcESaIcEE16_M_get_allocatorEv, symObjAddr: 0xE54, symBinAddr: 0x1000034AC, symSize: 0x14 }
  - { offsetInCU: 0x2B8E7, offset: 0x2B8E7, size: 0x8, addend: 0x0, symName: __ZNSt7__cxx1112basic_stringIcSt11char_traitsIcESaIcEE13_M_set_lengthEm, symObjAddr: 0xDF8, symBinAddr: 0x100003450, symSize: 0x48 }
  - { offsetInCU: 0x2B8EF, offset: 0x2B8EF, size: 0x8, addend: 0x0, symName: __ZSt7forwardIiEOT_RNSt16remove_referenceIS0_E4typeE, symObjAddr: 0xE40, symBinAddr: 0x100003498, symSize: 0x14 }
  - { offsetInCU: 0x2B929, offset: 0x2B929, size: 0x8, addend: 0x0, symName: __ZNSt7__cxx1112basic_stringIcSt11char_traitsIcESaIcEE9_M_lengthEm, symObjAddr: 0xDD4, symBinAddr: 0x10000342C, symSize: 0x24 }
  - { offsetInCU: 0x2B931, offset: 0x2B931, size: 0x8, addend: 0x0, symName: __ZNSt7__cxx1112basic_stringIcSt11char_traitsIcESaIcEE13_M_set_lengthEm, symObjAddr: 0xDF8, symBinAddr: 0x100003450, symSize: 0x48 }
  - { offsetInCU: 0x2B96B, offset: 0x2B96B, size: 0x8, addend: 0x0, symName: __ZNSt7__cxx1112basic_stringIcSt11char_traitsIcESaIcEE11_M_capacityEm, symObjAddr: 0xDB0, symBinAddr: 0x100003408, symSize: 0x24 }
  - { offsetInCU: 0x2B973, offset: 0x2B973, size: 0x8, addend: 0x0, symName: __ZNSt7__cxx1112basic_stringIcSt11char_traitsIcESaIcEE9_M_lengthEm, symObjAddr: 0xDD4, symBinAddr: 0x10000342C, symSize: 0x24 }
  - { offsetInCU: 0x2B9AD, offset: 0x2B9AD, size: 0x8, addend: 0x0, symName: __ZNSt7__cxx1112basic_stringIcSt11char_traitsIcESaIcEE7_M_dataEPc, symObjAddr: 0xD8C, symBinAddr: 0x1000033E4, symSize: 0x24 }
  - { offsetInCU: 0x2B9B5, offset: 0x2B9B5, size: 0x8, addend: 0x0, symName: __ZNSt7__cxx1112basic_stringIcSt11char_traitsIcESaIcEE11_M_capacityEm, symObjAddr: 0xDB0, symBinAddr: 0x100003408, symSize: 0x24 }
  - { offsetInCU: 0x2B9EF, offset: 0x2B9EF, size: 0x8, addend: 0x0, symName: __ZNKSt7__cxx1112basic_stringIcSt11char_traitsIcESaIcEE11_M_is_localEv, symObjAddr: 0xD2C, symBinAddr: 0x100003384, symSize: 0x60 }
  - { offsetInCU: 0x2B9F7, offset: 0x2B9F7, size: 0x8, addend: 0x0, symName: __ZNSt7__cxx1112basic_stringIcSt11char_traitsIcESaIcEE7_M_dataEPc, symObjAddr: 0xD8C, symBinAddr: 0x1000033E4, symSize: 0x24 }
  - { offsetInCU: 0x2BA1E, offset: 0x2BA1E, size: 0x8, addend: 0x0, symName: __ZNSt7__cxx1112basic_stringIcSt11char_traitsIcESaIcEE10_M_disposeEv, symObjAddr: 0xCE0, symBinAddr: 0x100003338, symSize: 0x4C }
  - { offsetInCU: 0x2BA26, offset: 0x2BA26, size: 0x8, addend: 0x0, symName: __ZNKSt7__cxx1112basic_stringIcSt11char_traitsIcESaIcEE11_M_is_localEv, symObjAddr: 0xD2C, symBinAddr: 0x100003384, symSize: 0x60 }
  - { offsetInCU: 0x2BA51, offset: 0x2BA51, size: 0x8, addend: 0x0, symName: __ZNSt7__cxx1112basic_stringIcSt11char_traitsIcESaIcEE12_M_constructEmc, symObjAddr: 0xBEC, symBinAddr: 0x100003244, symSize: 0xF4 }
  - { offsetInCU: 0x2BA59, offset: 0x2BA59, size: 0x8, addend: 0x0, symName: __ZNSt7__cxx1112basic_stringIcSt11char_traitsIcESaIcEE10_M_disposeEv, symObjAddr: 0xCE0, symBinAddr: 0x100003338, symSize: 0x4C }
  - { offsetInCU: 0x2BB81, offset: 0x2BB81, size: 0x8, addend: 0x0, symName: __ZNSt7__cxx1112basic_stringIcSt11char_traitsIcESaIcEE12_Alloc_hiderC1EPcRKS3_, symObjAddr: 0xB9C, symBinAddr: 0x1000031F4, symSize: 0x50 }
  - { offsetInCU: 0x2BB89, offset: 0x2BB89, size: 0x8, addend: 0x0, symName: __ZNSt7__cxx1112basic_stringIcSt11char_traitsIcESaIcEE12_M_constructEmc, symObjAddr: 0xBEC, symBinAddr: 0x100003244, symSize: 0xF4 }
  - { offsetInCU: 0x2BBE7, offset: 0x2BBE7, size: 0x8, addend: 0x0, symName: __ZNSt7__cxx1112basic_stringIcSt11char_traitsIcESaIcEE13_M_local_dataEv, symObjAddr: 0xB7C, symBinAddr: 0x1000031D4, symSize: 0x20 }
  - { offsetInCU: 0x2BBEF, offset: 0x2BBEF, size: 0x8, addend: 0x0, symName: __ZNSt7__cxx1112basic_stringIcSt11char_traitsIcESaIcEE12_Alloc_hiderC1EPcRKS3_, symObjAddr: 0xB9C, symBinAddr: 0x1000031F4, symSize: 0x50 }
  - { offsetInCU: 0x2BC31, offset: 0x2BC31, size: 0x8, addend: 0x0, symName: __ZNKSt7__cxx1112basic_stringIcSt11char_traitsIcESaIcEE7_M_dataEv, symObjAddr: 0xB64, symBinAddr: 0x1000031BC, symSize: 0x18 }
  - { offsetInCU: 0x2BC39, offset: 0x2BC39, size: 0x8, addend: 0x0, symName: __ZNSt7__cxx1112basic_stringIcSt11char_traitsIcESaIcEE13_M_local_dataEv, symObjAddr: 0xB7C, symBinAddr: 0x1000031D4, symSize: 0x20 }
  - { offsetInCU: 0x2BCC9, offset: 0x2BCC9, size: 0x8, addend: 0x0, symName: __ZSt12construct_atIcJRcEEDTgsnwcvPvLi0E_T_pispcl7declvalIT0_EEEEPS2_DpOS3_, symObjAddr: 0xB1C, symBinAddr: 0x100003174, symSize: 0x48 }
  - { offsetInCU: 0x2BCD1, offset: 0x2BCD1, size: 0x8, addend: 0x0, symName: __ZNKSt7__cxx1112basic_stringIcSt11char_traitsIcESaIcEE7_M_dataEv, symObjAddr: 0xB64, symBinAddr: 0x1000031BC, symSize: 0x18 }
  - { offsetInCU: 0x2BD1C, offset: 0x2BD1C, size: 0x8, addend: 0x0, symName: __ZSt7forwardIRKcEOT_RNSt16remove_referenceIS2_E4typeE, symObjAddr: 0xB08, symBinAddr: 0x100003160, symSize: 0x14 }
  - { offsetInCU: 0x2BD24, offset: 0x2BD24, size: 0x8, addend: 0x0, symName: __ZSt12construct_atIcJRcEEDTgsnwcvPvLi0E_T_pispcl7declvalIT0_EEEEPS2_DpOS3_, symObjAddr: 0xB1C, symBinAddr: 0x100003174, symSize: 0x48 }
  - { offsetInCU: 0x2BD22, offset: 0x2BD22, size: 0x8, addend: 0x0, symName: __ZNSt6vectorIiSaIiEEixEm, symObjAddr: 0xAE0, symBinAddr: 0x100003138, symSize: 0x28 }
  - { offsetInCU: 0x2BD2A, offset: 0x2BD2A, size: 0x8, addend: 0x0, symName: __ZSt7forwardIRKcEOT_RNSt16remove_referenceIS2_E4typeE, symObjAddr: 0xB08, symBinAddr: 0x100003160, symSize: 0x14 }
  - { offsetInCU: 0x2BE0C, offset: 0x2BE0C, size: 0x8, addend: 0x0, symName: __ZSt4sortIN9__gnu_cxx17__normal_iteratorIPiSt6vectorIiSaIiEEEESt7greaterIiEEvT_S9_T0_, symObjAddr: 0xAA0, symBinAddr: 0x1000030F8, symSize: 0x40 }
  - { offsetInCU: 0x2BE14, offset: 0x2BE14, size: 0x8, addend: 0x0, symName: __ZNSt6vectorIiSaIiEEixEm, symObjAddr: 0xAE0, symBinAddr: 0x100003138, symSize: 0x28 }
  - { offsetInCU: 0x2BDDF, offset: 0x2BDDF, size: 0x8, addend: 0x0, symName: __ZNSt6vectorIiSaIiEE3endEv, symObjAddr: 0xA78, symBinAddr: 0x1000030D0, symSize: 0x28 }
  - { offsetInCU: 0x2BDE7, offset: 0x2BDE7, size: 0x8, addend: 0x0, symName: __ZSt4sortIN9__gnu_cxx17__normal_iteratorIPiSt6vectorIiSaIiEEEESt7greaterIiEEvT_S9_T0_, symObjAddr: 0xAA0, symBinAddr: 0x1000030F8, symSize: 0x40 }
  - { offsetInCU: 0x2BE0E, offset: 0x2BE0E, size: 0x8, addend: 0x0, symName: __ZNSt6vectorIiSaIiEE5beginEv, symObjAddr: 0xA54, symBinAddr: 0x1000030AC, symSize: 0x24 }
  - { offsetInCU: 0x2BE16, offset: 0x2BE16, size: 0x8, addend: 0x0, symName: __ZNSt6vectorIiSaIiEE3endEv, symObjAddr: 0xA78, symBinAddr: 0x1000030D0, symSize: 0x28 }
  - { offsetInCU: 0x2BE3D, offset: 0x2BE3D, size: 0x8, addend: 0x0, symName: __ZNSt6vectorIiSaIiEE9push_backEOi, symObjAddr: 0xA24, symBinAddr: 0x10000307C, symSize: 0x30 }
  - { offsetInCU: 0x2BE45, offset: 0x2BE45, size: 0x8, addend: 0x0, symName: __ZNSt6vectorIiSaIiEE5beginEv, symObjAddr: 0xA54, symBinAddr: 0x1000030AC, symSize: 0x24 }
  - { offsetInCU: 0x2BEC3, offset: 0x2BEC3, size: 0x8, addend: 0x0, symName: __ZNSt6vectorIiSaIiEED1Ev, symObjAddr: 0x9C8, symBinAddr: 0x100003020, symSize: 0x5C }
  - { offsetInCU: 0x2BECB, offset: 0x2BECB, size: 0x8, addend: 0x0, symName: __ZNSt6vectorIiSaIiEE9push_backEOi, symObjAddr: 0xA24, symBinAddr: 0x10000307C, symSize: 0x30 }
  - { offsetInCU: 0x2BF66, offset: 0x2BF66, size: 0x8, addend: 0x0, symName: __ZNSt12_Vector_baseIiSaIiEED2Ev, symObjAddr: 0x978, symBinAddr: 0x100002FD0, symSize: 0x50 }
  - { offsetInCU: 0x2BF6E, offset: 0x2BF6E, size: 0x8, addend: 0x0, symName: __ZNSt6vectorIiSaIiEED1Ev, symObjAddr: 0x9C8, symBinAddr: 0x100003020, symSize: 0x5C }
  - { offsetInCU: 0x2BFA0, offset: 0x2BFA0, size: 0x8, addend: 0x0, symName: __ZNSt7__cxx1112basic_stringIcSt11char_traitsIcESaIcEE16_M_get_allocatorEv, symObjAddr: 0x964, symBinAddr: 0x100002FBC, symSize: 0x14 }
  - { offsetInCU: 0x2BFA8, offset: 0x2BFA8, size: 0x8, addend: 0x0, symName: __ZNSt12_Vector_baseIiSaIiEED2Ev, symObjAddr: 0x978, symBinAddr: 0x100002FD0, symSize: 0x50 }
  - { offsetInCU: 0x2C001, offset: 0x2C001, size: 0x8, addend: 0x0, symName: __ZSt3maxImERKT_S2_S2_, symObjAddr: 0x92C, symBinAddr: 0x100002F84, symSize: 0x38 }
  - { offsetInCU: 0x2C009, offset: 0x2C009, size: 0x8, addend: 0x0, symName: __ZNSt7__cxx1112basic_stringIcSt11char_traitsIcESaIcEE16_M_get_allocatorEv, symObjAddr: 0x964, symBinAddr: 0x100002FBC, symSize: 0x14 }
  - { offsetInCU: 0x2C07D, offset: 0x2C07D, size: 0x8, addend: 0x0, symName: __ZNSt8__detail18__to_chars_10_implIjEEvPcjT_, symObjAddr: 0x7A8, symBinAddr: 0x100002E00, symSize: 0x184 }
  - { offsetInCU: 0x2C085, offset: 0x2C085, size: 0x8, addend: 0x0, symName: __ZSt3maxImERKT_S2_S2_, symObjAddr: 0x92C, symBinAddr: 0x100002F84, symSize: 0x38 }
  - { offsetInCU: 0x2C122, offset: 0x2C122, size: 0x8, addend: 0x0, symName: __ZNSt7__cxx1112basic_stringIcSt11char_traitsIcESaIcEEixEm, symObjAddr: 0x73C, symBinAddr: 0x100002D94, symSize: 0x6C }
  - { offsetInCU: 0x2C12A, offset: 0x2C12A, size: 0x8, addend: 0x0, symName: __ZNSt8__detail18__to_chars_10_implIjEEvPcjT_, symObjAddr: 0x7A8, symBinAddr: 0x100002E00, symSize: 0x184 }
  - { offsetInCU: 0x2C1C9, offset: 0x2C1C9, size: 0x8, addend: 0x0, symName: __ZNSt7__cxx1112basic_stringIcSt11char_traitsIcESaIcEED1Ev, symObjAddr: 0x714, symBinAddr: 0x100002D6C, symSize: 0x28 }
  - { offsetInCU: 0x2C1D1, offset: 0x2C1D1, size: 0x8, addend: 0x0, symName: __ZNSt7__cxx1112basic_stringIcSt11char_traitsIcESaIcEEixEm, symObjAddr: 0x73C, symBinAddr: 0x100002D94, symSize: 0x6C }
  - { offsetInCU: 0x2C255, offset: 0x2C255, size: 0x8, addend: 0x0, symName: __ZNSt7__cxx1112basic_stringIcSt11char_traitsIcESaIcEEC1IS3_EEmcRKS3_, symObjAddr: 0x6A8, symBinAddr: 0x100002D00, symSize: 0x6C }
  - { offsetInCU: 0x2C25D, offset: 0x2C25D, size: 0x8, addend: 0x0, symName: __ZNSt7__cxx1112basic_stringIcSt11char_traitsIcESaIcEED1Ev, symObjAddr: 0x714, symBinAddr: 0x100002D6C, symSize: 0x28 }
  - { offsetInCU: 0x2C2DC, offset: 0x2C2DC, size: 0x8, addend: 0x0, symName: __ZNSt7__cxx1112basic_stringIcSt11char_traitsIcESaIcEE12_Alloc_hiderD1Ev, symObjAddr: 0x688, symBinAddr: 0x100002CE0, symSize: 0x20 }
  - { offsetInCU: 0x2C2E4, offset: 0x2C2E4, size: 0x8, addend: 0x0, symName: __ZNSt7__cxx1112basic_stringIcSt11char_traitsIcESaIcEEC1IS3_EEmcRKS3_, symObjAddr: 0x6A8, symBinAddr: 0x100002D00, symSize: 0x6C }
  - { offsetInCU: 0x2C379, offset: 0x2C379, size: 0x8, addend: 0x0, symName: __ZNSt8__detail14__to_chars_lenIjEEjT_i, symObjAddr: 0x5B0, symBinAddr: 0x100002C08, symSize: 0xD8 }
  - { offsetInCU: 0x2C381, offset: 0x2C381, size: 0x8, addend: 0x0, symName: __ZNSt7__cxx1112basic_stringIcSt11char_traitsIcESaIcEE12_Alloc_hiderD1Ev, symObjAddr: 0x688, symBinAddr: 0x100002CE0, symSize: 0x20 }
  - { offsetInCU: 0x2C3DB, offset: 0x2C3DB, size: 0x8, addend: 0x0, symName: __ZN9__gnu_cxx11char_traitsIcE6assignEPcmc, symObjAddr: 0x514, symBinAddr: 0x100002B6C, symSize: 0x9C }
  - { offsetInCU: 0x2C3E3, offset: 0x2C3E3, size: 0x8, addend: 0x0, symName: __ZNSt8__detail14__to_chars_lenIjEEjT_i, symObjAddr: 0x5B0, symBinAddr: 0x100002C08, symSize: 0xD8 }
  - { offsetInCU: 0x2C4F3, offset: 0x2C4F3, size: 0x8, addend: 0x0, symName: __ZSt12construct_atIcJRKcEEDTgsnwcvPvLi0E_T_pispcl7declvalIT0_EEEEPS3_DpOS4_, symObjAddr: 0x4CC, symBinAddr: 0x100002B24, symSize: 0x48 }
  - { offsetInCU: 0x2C4FB, offset: 0x2C4FB, size: 0x8, addend: 0x0, symName: __ZN9__gnu_cxx11char_traitsIcE6assignEPcmc, symObjAddr: 0x514, symBinAddr: 0x100002B6C, symSize: 0x9C }
  - { offsetInCU: 0x2C4FA, offset: 0x2C4FA, size: 0x8, addend: 0x0, symName: _main, symObjAddr: 0x45C, symBinAddr: 0x100002AB4, symSize: 0x70 }
  - { offsetInCU: 0x2C502, offset: 0x2C502, size: 0x8, addend: 0x0, symName: __ZSt12construct_atIcJRKcEEDTgsnwcvPvLi0E_T_pispcl7declvalIT0_EEEEPS3_DpOS4_, symObjAddr: 0x4CC, symBinAddr: 0x100002B24, symSize: 0x48 }
  - { offsetInCU: 0x2C53A, offset: 0x2C53A, size: 0x8, addend: 0x0, symName: __Z5solvev, symObjAddr: 0x2D8, symBinAddr: 0x100002930, symSize: 0x184 }
  - { offsetInCU: 0x2C542, offset: 0x2C542, size: 0x8, addend: 0x0, symName: _main, symObjAddr: 0x45C, symBinAddr: 0x100002AB4, symSize: 0x70 }
  - { offsetInCU: 0x2C668, offset: 0x2C668, size: 0x8, addend: 0x0, symName: __ZNSt12_Vector_baseIiSaIiEE12_Vector_implD1Ev, symObjAddr: 0x2B8, symBinAddr: 0x100002910, symSize: 0x20 }
  - { offsetInCU: 0x2C670, offset: 0x2C670, size: 0x8, addend: 0x0, symName: __Z5solvev, symObjAddr: 0x2D8, symBinAddr: 0x100002930, symSize: 0x184 }
  - { offsetInCU: 0x2C6AA, offset: 0x2C6AA, size: 0x8, addend: 0x0, symName: __Z7trzerosi, symObjAddr: 0x230, symBinAddr: 0x100002888, symSize: 0x88 }
  - { offsetInCU: 0x2C6B2, offset: 0x2C6B2, size: 0x8, addend: 0x0, symName: __ZNSt12_Vector_baseIiSaIiEE12_Vector_implD1Ev, symObjAddr: 0x2B8, symBinAddr: 0x100002910, symSize: 0x20 }
  - { offsetInCU: 0x2C714, offset: 0x2C714, size: 0x8, addend: 0x0, symName: __ZSt3minImERKT_S2_S2_, symObjAddr: 0x1F8, symBinAddr: 0x100002850, symSize: 0x38 }
  - { offsetInCU: 0x2C71C, offset: 0x2C71C, size: 0x8, addend: 0x0, symName: __Z7trzerosi, symObjAddr: 0x230, symBinAddr: 0x100002888, symSize: 0x88 }
  - { offsetInCU: 0x2C741, offset: 0x2C741, size: 0x8, addend: 0x0, symName: __ZNKSt7__cxx1112basic_stringIcSt11char_traitsIcESaIcEE4sizeEv, symObjAddr: 0x1E0, symBinAddr: 0x100002838, symSize: 0x18 }
  - { offsetInCU: 0x2C749, offset: 0x2C749, size: 0x8, addend: 0x0, symName: __ZSt3minImERKT_S2_S2_, symObjAddr: 0x1F8, symBinAddr: 0x100002850, symSize: 0x38 }
  - { offsetInCU: 0x2C799, offset: 0x2C799, size: 0x8, addend: 0x0, symName: __ZNSt7__cxx119to_stringEi, symObjAddr: 0x124, symBinAddr: 0x10000277C, symSize: 0xBC }
  - { offsetInCU: 0x2C7A1, offset: 0x2C7A1, size: 0x8, addend: 0x0, symName: __ZNKSt7__cxx1112basic_stringIcSt11char_traitsIcESaIcEE4sizeEv, symObjAddr: 0x1E0, symBinAddr: 0x100002838, symSize: 0x18 }
  - { offsetInCU: 0x2C871, offset: 0x2C871, size: 0x8, addend: 0x0, symName: __ZNSt11char_traitsIcE6assignEPcmc, symObjAddr: 0xB4, symBinAddr: 0x10000270C, symSize: 0x70 }
  - { offsetInCU: 0x2C879, offset: 0x2C879, size: 0x8, addend: 0x0, symName: __ZNSt7__cxx119to_stringEi, symObjAddr: 0x124, symBinAddr: 0x10000277C, symSize: 0xBC }
  - { offsetInCU: 0x2C8CB, offset: 0x2C8CB, size: 0x8, addend: 0x0, symName: __ZNSt11char_traitsIcE6assignERcRKc, symObjAddr: 0x64, symBinAddr: 0x1000026BC, symSize: 0x50 }
  - { offsetInCU: 0x2C8D3, offset: 0x2C8D3, size: 0x8, addend: 0x0, symName: __ZNSt11char_traitsIcE6assignEPcmc, symObjAddr: 0xB4, symBinAddr: 0x10000270C, symSize: 0x70 }
  - { offsetInCU: 0x2C922, offset: 0x2C922, size: 0x8, addend: 0x0, symName: __ZnwmPv, symObjAddr: 0x4C, symBinAddr: 0x1000026A4, symSize: 0x18 }
  - { offsetInCU: 0x2C92A, offset: 0x2C92A, size: 0x8, addend: 0x0, symName: __ZNSt11char_traitsIcE6assignERcRKc, symObjAddr: 0x64, symBinAddr: 0x1000026BC, symSize: 0x50 }
  - { offsetInCU: 0x2C99C, offset: 0x2C99C, size: 0x8, addend: 0x0, symName: __ZStltSt15strong_orderingNSt9__cmp_cat8__unspecE, symObjAddr: 0x28, symBinAddr: 0x100002680, symSize: 0x24 }
  - { offsetInCU: 0x2C9A4, offset: 0x2C9A4, size: 0x8, addend: 0x0, symName: __ZnwmPv, symObjAddr: 0x4C, symBinAddr: 0x1000026A4, symSize: 0x18 }
  - { offsetInCU: 0x2C9EC, offset: 0x2C9EC, size: 0x8, addend: 0x0, symName: __ZNSt9__cmp_cat8__unspecC1EPS0_, symObjAddr: 0x10, symBinAddr: 0x100002668, symSize: 0x18 }
  - { offsetInCU: 0x2C9F4, offset: 0x2C9F4, size: 0x8, addend: 0x0, symName: __ZStltSt15strong_orderingNSt9__cmp_cat8__unspecE, symObjAddr: 0x28, symBinAddr: 0x100002680, symSize: 0x24 }
  - { offsetInCU: 0x2CA42, offset: 0x2CA42, size: 0x8, addend: 0x0, symName: __ZSt21is_constant_evaluatedv, symObjAddr: 0x8, symBinAddr: 0x100002660, symSize: 0x8 }
  - { offsetInCU: 0x2CA4A, offset: 0x2CA4A, size: 0x8, addend: 0x0, symName: __ZNSt9__cmp_cat8__unspecC1EPS0_, symObjAddr: 0x10, symBinAddr: 0x100002668, symSize: 0x18 }
  - { offsetInCU: 0x2CA70, offset: 0x2CA70, size: 0x8, addend: 0x0, symName: __ZSt23__is_constant_evaluatedv, symObjAddr: 0x0, symBinAddr: 0x100002658, symSize: 0x8 }
  - { offsetInCU: 0x2CA78, offset: 0x2CA78, size: 0x8, addend: 0x0, symName: __ZSt21is_constant_evaluatedv, symObjAddr: 0x8, symBinAddr: 0x100002660, symSize: 0x8 }
...
