---
triple:          'arm64-apple-darwin'
binary-path:     '/Users/rohakdebnath/Desktop/Cpp /CodeForces/1915F'
relocations:
  - { offsetInCU: 0xE4, offset: 0xE4, size: 0x8, addend: 0x0, symName: __ZSt23__is_constant_evaluatedv, symObjAddr: 0x0, symBinAddr: 0x100001280, symSize: 0x8 }
  - { offsetInCU: 0xEC, offset: 0xEC, size: 0x8, addend: 0x0, symName: __ZNSt8__detail11__synth3wayE, symObjAddr: 0x3A80, symBinAddr: 0x1000054C0, symSize: 0x0 }
  - { offsetInCU: 0x1E6C, offset: 0x1E6C, size: 0x8, addend: 0x0, symName: __ZNSt8__detail11__synth3wayE, symObjAddr: 0x3A80, symBinAddr: 0x1000054C0, symSize: 0x0 }
  - { offsetInCU: 0x1ACF0, offset: 0x1ACF0, size: 0x8, addend: 0x0, symName: __ZStL8__ioinit, symObjAddr: 0xEE7C8, symBinAddr: 0x10000C088, symSize: 0x0 }
  - { offsetInCU: 0x1FBA1, offset: 0x1FBA1, size: 0x8, addend: 0x0, symName: __ZN10__gnu_pbds6detailL9g_a_sizesE, symObjAddr: 0x3A88, symBinAddr: 0x1000054C8, symSize: 0x0 }
  - { offsetInCU: 0x1FC31, offset: 0x1FC31, size: 0x8, addend: 0x0, symName: __ZNSt3tr112_GLOBAL__N_16ignoreE, symObjAddr: 0xEE7C9, symBinAddr: 0x10000C089, symSize: 0x0 }
  - { offsetInCU: 0x26512, offset: 0x26512, size: 0x8, addend: 0x0, symName: __ZN10__gnu_pbds6detail19bin_search_tree_setIxNS_9null_typeESt4lessIxENS0_11tree_traitsIxS2_S4_NS_33tree_order_statistics_node_updateENS_11rb_tree_tagESaIcEEES8_E16s_node_allocatorE, symObjAddr: 0x4580, symBinAddr: 0x10000C078, symSize: 0x0 }
  - { offsetInCU: 0x26D0E, offset: 0x26D0E, size: 0x8, addend: 0x0, symName: __ZNSt8__detail14__destructibleISt13_Bit_iteratorEE, symObjAddr: 0x4120, symBinAddr: 0x100005B60, symSize: 0x0 }
  - { offsetInCU: 0x26D28, offset: 0x26D28, size: 0x8, addend: 0x0, symName: __ZNSt8__detail19__destructible_implISt13_Bit_iteratorEE, symObjAddr: 0x4121, symBinAddr: 0x100005B61, symSize: 0x0 }
  - { offsetInCU: 0x270DA, offset: 0x270DA, size: 0x8, addend: 0x0, symName: __ZNSt8__detail14__destructibleISt19_Bit_const_iteratorEE, symObjAddr: 0x4122, symBinAddr: 0x100005B62, symSize: 0x0 }
  - { offsetInCU: 0x270F4, offset: 0x270F4, size: 0x8, addend: 0x0, symName: __ZNSt8__detail19__destructible_implISt19_Bit_const_iteratorEE, symObjAddr: 0x4123, symBinAddr: 0x100005B63, symSize: 0x0 }
  - { offsetInCU: 0x2785F, offset: 0x2785F, size: 0x8, addend: 0x0, symName: __ZNSt8__detail14__destructibleIN9__gnu_cxx17__normal_iteratorIPcSt4spanIcLm18446744073709551615EEEEEE, symObjAddr: 0x4124, symBinAddr: 0x100005B64, symSize: 0x0 }
  - { offsetInCU: 0x27879, offset: 0x27879, size: 0x8, addend: 0x0, symName: __ZNSt8__detail19__destructible_implIN9__gnu_cxx17__normal_iteratorIPcSt4spanIcLm18446744073709551615EEEEEE, symObjAddr: 0x4125, symBinAddr: 0x100005B65, symSize: 0x0 }
  - { offsetInCU: 0x27C2B, offset: 0x27C2B, size: 0x8, addend: 0x0, symName: __ZNSt8__detail14__destructibleISt16reverse_iteratorIN9__gnu_cxx17__normal_iteratorIPcSt4spanIcLm18446744073709551615EEEEEEE, symObjAddr: 0x4126, symBinAddr: 0x100005B66, symSize: 0x0 }
  - { offsetInCU: 0x27C45, offset: 0x27C45, size: 0x8, addend: 0x0, symName: __ZNSt8__detail19__destructible_implISt16reverse_iteratorIN9__gnu_cxx17__normal_iteratorIPcSt4spanIcLm18446744073709551615EEEEEEE, symObjAddr: 0x4127, symBinAddr: 0x100005B67, symSize: 0x0 }
  - { offsetInCU: 0x27DB8, offset: 0x27DB8, size: 0x8, addend: 0x0, symName: __ZNSt8__detail14__destructibleINSt8__format10_Sink_iterIcEEEE, symObjAddr: 0x4128, symBinAddr: 0x100005B68, symSize: 0x0 }
  - { offsetInCU: 0x27DD2, offset: 0x27DD2, size: 0x8, addend: 0x0, symName: __ZNSt8__detail19__destructible_implINSt8__format10_Sink_iterIcEEEE, symObjAddr: 0x4129, symBinAddr: 0x100005B69, symSize: 0x0 }
  - { offsetInCU: 0x27F00, offset: 0x27F00, size: 0x8, addend: 0x0, symName: __ZNSt8__detail14__destructibleIN9__gnu_cxx17__normal_iteratorIPwSt4spanIwLm18446744073709551615EEEEEE, symObjAddr: 0x412A, symBinAddr: 0x100005B6A, symSize: 0x0 }
  - { offsetInCU: 0x27F1A, offset: 0x27F1A, size: 0x8, addend: 0x0, symName: __ZNSt8__detail19__destructible_implIN9__gnu_cxx17__normal_iteratorIPwSt4spanIwLm18446744073709551615EEEEEE, symObjAddr: 0x412B, symBinAddr: 0x100005B6B, symSize: 0x0 }
  - { offsetInCU: 0x28270, offset: 0x28270, size: 0x8, addend: 0x0, symName: __ZNSt8__detail14__destructibleISt16reverse_iteratorIN9__gnu_cxx17__normal_iteratorIPwSt4spanIwLm18446744073709551615EEEEEEE, symObjAddr: 0x412C, symBinAddr: 0x100005B6C, symSize: 0x0 }
  - { offsetInCU: 0x2828A, offset: 0x2828A, size: 0x8, addend: 0x0, symName: __ZNSt8__detail19__destructible_implISt16reverse_iteratorIN9__gnu_cxx17__normal_iteratorIPwSt4spanIwLm18446744073709551615EEEEEEE, symObjAddr: 0x412D, symBinAddr: 0x100005B6D, symSize: 0x0 }
  - { offsetInCU: 0x283FD, offset: 0x283FD, size: 0x8, addend: 0x0, symName: __ZNSt8__detail14__destructibleINSt8__format10_Sink_iterIwEEEE, symObjAddr: 0x412E, symBinAddr: 0x100005B6E, symSize: 0x0 }
  - { offsetInCU: 0x28417, offset: 0x28417, size: 0x8, addend: 0x0, symName: __ZNSt8__detail19__destructible_implINSt8__format10_Sink_iterIwEEEE, symObjAddr: 0x412F, symBinAddr: 0x100005B6F, symSize: 0x0 }
  - { offsetInCU: 0x2852E, offset: 0x2852E, size: 0x8, addend: 0x0, symName: __ZNSt8__detail14__destructibleIPcEE, symObjAddr: 0x4130, symBinAddr: 0x100005B70, symSize: 0x0 }
  - { offsetInCU: 0x28548, offset: 0x28548, size: 0x8, addend: 0x0, symName: __ZNSt8__detail19__destructible_implIPcEE, symObjAddr: 0x4131, symBinAddr: 0x100005B71, symSize: 0x0 }
  - { offsetInCU: 0x28773, offset: 0x28773, size: 0x8, addend: 0x0, symName: __ZNSt8__detail14__destructibleIPwEE, symObjAddr: 0x4132, symBinAddr: 0x100005B72, symSize: 0x0 }
  - { offsetInCU: 0x2878D, offset: 0x2878D, size: 0x8, addend: 0x0, symName: __ZNSt8__detail19__destructible_implIPwEE, symObjAddr: 0x4133, symBinAddr: 0x100005B73, symSize: 0x0 }
  - { offsetInCU: 0x28DEF, offset: 0x28DEF, size: 0x8, addend: 0x0, symName: __ZNSt8__detail14__destructibleIiEE, symObjAddr: 0x4134, symBinAddr: 0x100005B74, symSize: 0x0 }
  - { offsetInCU: 0x28E09, offset: 0x28E09, size: 0x8, addend: 0x0, symName: __ZNSt8__detail19__destructible_implIiEE, symObjAddr: 0x4135, symBinAddr: 0x100005B75, symSize: 0x0 }
  - { offsetInCU: 0x2904B, offset: 0x2904B, size: 0x8, addend: 0x0, symName: __ZNSt8__detail14__destructibleIN9__gnu_cxx17__normal_iteratorIPKcNSt7__cxx1112basic_stringIcSt11char_traitsIcESaIcEEEEEEE, symObjAddr: 0x4136, symBinAddr: 0x100005B76, symSize: 0x0 }
  - { offsetInCU: 0x29065, offset: 0x29065, size: 0x8, addend: 0x0, symName: __ZNSt8__detail19__destructible_implIN9__gnu_cxx17__normal_iteratorIPKcNSt7__cxx1112basic_stringIcSt11char_traitsIcESaIcEEEEEEE, symObjAddr: 0x4137, symBinAddr: 0x100005B77, symSize: 0x0 }
  - { offsetInCU: 0x2976B, offset: 0x2976B, size: 0x8, addend: 0x0, symName: __ZNSt8__detail30__integer_to_chars_is_unsignedIjEE, symObjAddr: 0x4138, symBinAddr: 0x100005B78, symSize: 0x0 }
  - { offsetInCU: 0x29785, offset: 0x29785, size: 0x8, addend: 0x0, symName: __ZNSt8__detail30__integer_to_chars_is_unsignedImEE, symObjAddr: 0x4139, symBinAddr: 0x100005B79, symSize: 0x0 }
  - { offsetInCU: 0x2979F, offset: 0x2979F, size: 0x8, addend: 0x0, symName: __ZNSt8__detail30__integer_to_chars_is_unsignedIyEE, symObjAddr: 0x413A, symBinAddr: 0x100005B7A, symSize: 0x0 }
  - { offsetInCU: 0x299DE, offset: 0x299DE, size: 0x8, addend: 0x0, symName: __ZSt22__is_specialization_ofINSt7__cxx1112basic_stringIcSt11char_traitsIcESaIcEEES1_E, symObjAddr: 0x413B, symBinAddr: 0x100005B7B, symSize: 0x0 }
  - { offsetInCU: 0x29A6A, offset: 0x29A6A, size: 0x8, addend: 0x0, symName: __ZSt22__is_specialization_ofINSt7__cxx1112basic_stringIwSt11char_traitsIwESaIwEEES1_E, symObjAddr: 0x413C, symBinAddr: 0x100005B7C, symSize: 0x0 }
  - { offsetInCU: 0x29D1D, offset: 0x29D1D, size: 0x8, addend: 0x0, symName: __ZNSt8__detail14__destructibleImEE, symObjAddr: 0x413D, symBinAddr: 0x100005B7D, symSize: 0x0 }
  - { offsetInCU: 0x29D37, offset: 0x29D37, size: 0x8, addend: 0x0, symName: __ZNSt8__detail19__destructible_implImEE, symObjAddr: 0x413E, symBinAddr: 0x100005B7E, symSize: 0x0 }
  - { offsetInCU: 0x2A0A1, offset: 0x2A0A1, size: 0x8, addend: 0x0, symName: __ZNSt8__detail14__destructibleIPKcEE, symObjAddr: 0x413F, symBinAddr: 0x100005B7F, symSize: 0x0 }
  - { offsetInCU: 0x2A0BB, offset: 0x2A0BB, size: 0x8, addend: 0x0, symName: __ZNSt8__detail19__destructible_implIPKcEE, symObjAddr: 0x4140, symBinAddr: 0x100005B80, symSize: 0x0 }
  - { offsetInCU: 0x2A2B8, offset: 0x2A2B8, size: 0x8, addend: 0x0, symName: __ZNSt8__detail14__destructibleIPKwEE, symObjAddr: 0x4141, symBinAddr: 0x100005B81, symSize: 0x0 }
  - { offsetInCU: 0x2A2D2, offset: 0x2A2D2, size: 0x8, addend: 0x0, symName: __ZNSt8__detail19__destructible_implIPKwEE, symObjAddr: 0x4142, symBinAddr: 0x100005B82, symSize: 0x0 }
  - { offsetInCU: 0x2B342, offset: 0x2B342, size: 0x8, addend: 0x0, symName: __ZNSt8__detail14__destructibleIjEE, symObjAddr: 0x4193, symBinAddr: 0x100005BD3, symSize: 0x0 }
  - { offsetInCU: 0x2B35C, offset: 0x2B35C, size: 0x8, addend: 0x0, symName: __ZNSt8__detail19__destructible_implIjEE, symObjAddr: 0x4194, symBinAddr: 0x100005BD4, symSize: 0x0 }
  - { offsetInCU: 0x2B52B, offset: 0x2B52B, size: 0x8, addend: 0x0, symName: __ZNSt8__detail14__destructibleIlEE, symObjAddr: 0x4195, symBinAddr: 0x100005BD5, symSize: 0x0 }
  - { offsetInCU: 0x2B545, offset: 0x2B545, size: 0x8, addend: 0x0, symName: __ZNSt8__detail19__destructible_implIlEE, symObjAddr: 0x4196, symBinAddr: 0x100005BD6, symSize: 0x0 }
  - { offsetInCU: 0x2BBC2, offset: 0x2BBC2, size: 0x8, addend: 0x0, symName: __ZNSt8__detail30__integer_to_chars_is_unsignedIoEE, symObjAddr: 0x4197, symBinAddr: 0x100005BD7, symSize: 0x0 }
  - { offsetInCU: 0x2BBEA, offset: 0x2BBEA, size: 0x8, addend: 0x0, symName: __GLOBAL__sub_I_1915F.cpp, symObjAddr: 0x3A6C, symBinAddr: 0x100004CEC, symSize: 0x14 }
  - { offsetInCU: 0x2BBF2, offset: 0x2BBF2, size: 0x8, addend: 0x0, symName: __ZNSt8__detail11__synth3wayE, symObjAddr: 0x3A80, symBinAddr: 0x1000054C0, symSize: 0x0 }
  - { offsetInCU: 0x2BC51, offset: 0x2BC51, size: 0x8, addend: 0x0, symName: __ZNSaIN10__gnu_pbds6detail13rb_tree_node_IxmSaIcEEEED1Ev, symObjAddr: 0x3A58, symBinAddr: 0x100004CD8, symSize: 0x14 }
  - { offsetInCU: 0x2BC59, offset: 0x2BC59, size: 0x8, addend: 0x0, symName: __GLOBAL__sub_I_1915F.cpp, symObjAddr: 0x3A6C, symBinAddr: 0x100004CEC, symSize: 0x14 }
  - { offsetInCU: 0x2BC48, offset: 0x2BC48, size: 0x8, addend: 0x0, symName: __ZN10__gnu_pbds6detail19bin_search_tree_setIxNS_9null_typeESt4lessIxENS0_11tree_traitsIxS2_S4_NS_33tree_order_statistics_node_updateENS_11rb_tree_tagESaIcEEES8_E10get_cmp_fnEv, symObjAddr: 0x3A44, symBinAddr: 0x100004CC4, symSize: 0x14 }
  - { offsetInCU: 0x2BC50, offset: 0x2BC50, size: 0x8, addend: 0x0, symName: __ZNSaIN10__gnu_pbds6detail13rb_tree_node_IxmSaIcEEEED1Ev, symObjAddr: 0x3A58, symBinAddr: 0x100004CD8, symSize: 0x14 }
  - { offsetInCU: 0x2BC79, offset: 0x2BC79, size: 0x8, addend: 0x0, symName: __ZN10__gnu_pbds6detail19bin_search_tree_setIxNS_9null_typeESt4lessIxENS0_11tree_traitsIxS2_S4_NS_33tree_order_statistics_node_updateENS_11rb_tree_tagESaIcEEES8_E8node_endEv, symObjAddr: 0x3A20, symBinAddr: 0x100004CA0, symSize: 0x24 }
  - { offsetInCU: 0x2BC81, offset: 0x2BC81, size: 0x8, addend: 0x0, symName: __ZN10__gnu_pbds6detail19bin_search_tree_setIxNS_9null_typeESt4lessIxENS0_11tree_traitsIxS2_S4_NS_33tree_order_statistics_node_updateENS_11rb_tree_tagESaIcEEES8_E10get_cmp_fnEv, symObjAddr: 0x3A44, symBinAddr: 0x100004CC4, symSize: 0x14 }
  - { offsetInCU: 0x2BCAA, offset: 0x2BCAA, size: 0x8, addend: 0x0, symName: __ZNK10__gnu_pbds6detail19bin_search_tree_setIxNS_9null_typeESt4lessIxENS0_11tree_traitsIxS2_S4_NS_33tree_order_statistics_node_updateENS_11rb_tree_tagESaIcEEES8_E8node_endEv, symObjAddr: 0x39FC, symBinAddr: 0x100004C7C, symSize: 0x24 }
  - { offsetInCU: 0x2BCB2, offset: 0x2BCB2, size: 0x8, addend: 0x0, symName: __ZN10__gnu_pbds6detail19bin_search_tree_setIxNS_9null_typeESt4lessIxENS0_11tree_traitsIxS2_S4_NS_33tree_order_statistics_node_updateENS_11rb_tree_tagESaIcEEES8_E8node_endEv, symObjAddr: 0x3A20, symBinAddr: 0x100004CA0, symSize: 0x24 }
  - { offsetInCU: 0x2BCDB, offset: 0x2BCDB, size: 0x8, addend: 0x0, symName: __ZN10__gnu_pbds6detail19bin_search_tree_setIxNS_9null_typeESt4lessIxENS0_11tree_traitsIxS2_S4_NS_33tree_order_statistics_node_updateENS_11rb_tree_tagESaIcEEES8_E10node_beginEv, symObjAddr: 0x39D0, symBinAddr: 0x100004C50, symSize: 0x2C }
  - { offsetInCU: 0x2BCE3, offset: 0x2BCE3, size: 0x8, addend: 0x0, symName: __ZNK10__gnu_pbds6detail19bin_search_tree_setIxNS_9null_typeESt4lessIxENS0_11tree_traitsIxS2_S4_NS_33tree_order_statistics_node_updateENS_11rb_tree_tagESaIcEEES8_E8node_endEv, symObjAddr: 0x39FC, symBinAddr: 0x100004C7C, symSize: 0x24 }
  - { offsetInCU: 0x2BD0C, offset: 0x2BD0C, size: 0x8, addend: 0x0, symName: __ZNK10__gnu_pbds6detail19bin_search_tree_setIxNS_9null_typeESt4lessIxENS0_11tree_traitsIxS2_S4_NS_33tree_order_statistics_node_updateENS_11rb_tree_tagESaIcEEES8_E10node_beginEv, symObjAddr: 0x39A4, symBinAddr: 0x100004C24, symSize: 0x2C }
  - { offsetInCU: 0x2BD14, offset: 0x2BD14, size: 0x8, addend: 0x0, symName: __ZN10__gnu_pbds6detail19bin_search_tree_setIxNS_9null_typeESt4lessIxENS0_11tree_traitsIxS2_S4_NS_33tree_order_statistics_node_updateENS_11rb_tree_tagESaIcEEES8_E10node_beginEv, symObjAddr: 0x39D0, symBinAddr: 0x100004C50, symSize: 0x2C }
  - { offsetInCU: 0x2BD3D, offset: 0x2BD3D, size: 0x8, addend: 0x0, symName: __ZNK10__gnu_pbds6detail19bin_search_tree_setIxNS_9null_typeESt4lessIxENS0_11tree_traitsIxS2_S4_NS_33tree_order_statistics_node_updateENS_11rb_tree_tagESaIcEEES8_E3endEv, symObjAddr: 0x397C, symBinAddr: 0x100004BFC, symSize: 0x28 }
  - { offsetInCU: 0x2BD45, offset: 0x2BD45, size: 0x8, addend: 0x0, symName: __ZNK10__gnu_pbds6detail19bin_search_tree_setIxNS_9null_typeESt4lessIxENS0_11tree_traitsIxS2_S4_NS_33tree_order_statistics_node_updateENS_11rb_tree_tagESaIcEEES8_E10node_beginEv, symObjAddr: 0x39A4, symBinAddr: 0x100004C24, symSize: 0x2C }
  - { offsetInCU: 0x2BD96, offset: 0x2BD96, size: 0x8, addend: 0x0, symName: __Z41__static_initialization_and_destruction_0v, symObjAddr: 0x38FC, symBinAddr: 0x100004B7C, symSize: 0x80 }
  - { offsetInCU: 0x2BD9E, offset: 0x2BD9E, size: 0x8, addend: 0x0, symName: __ZNK10__gnu_pbds6detail19bin_search_tree_setIxNS_9null_typeESt4lessIxENS0_11tree_traitsIxS2_S4_NS_33tree_order_statistics_node_updateENS_11rb_tree_tagESaIcEEES8_E3endEv, symObjAddr: 0x397C, symBinAddr: 0x100004BFC, symSize: 0x28 }
  - { offsetInCU: 0x2BDD4, offset: 0x2BDD4, size: 0x8, addend: 0x0, symName: __ZSt4moveIRxEONSt16remove_referenceIT_E4typeEOS2_, symObjAddr: 0x38E8, symBinAddr: 0x100004B68, symSize: 0x14 }
  - { offsetInCU: 0x2BDDC, offset: 0x2BDDC, size: 0x8, addend: 0x0, symName: __Z41__static_initialization_and_destruction_0v, symObjAddr: 0x38FC, symBinAddr: 0x100004B7C, symSize: 0x80 }
  - { offsetInCU: 0x2BDDF, offset: 0x2BDDF, size: 0x8, addend: 0x0, symName: __ZNSt20__copy_move_backwardILb1ELb0ESt26random_access_iterator_tagE13__copy_move_bIPSt4pairIxxES5_EET0_T_S7_S6_, symObjAddr: 0x386C, symBinAddr: 0x100004AEC, symSize: 0x7C }
  - { offsetInCU: 0x2BDE7, offset: 0x2BDE7, size: 0x8, addend: 0x0, symName: __ZSt4moveIRxEONSt16remove_referenceIT_E4typeEOS2_, symObjAddr: 0x38E8, symBinAddr: 0x100004B68, symSize: 0x14 }
  - { offsetInCU: 0x2BF1B, offset: 0x2BF1B, size: 0x8, addend: 0x0, symName: __ZSt4swapIxENSt9enable_ifIXsrSt6__and_IJSt6__not_ISt15__is_tuple_likeIT_EESt21is_move_constructibleIS4_ESt18is_move_assignableIS4_EEE5valueEvE4typeERS4_SE_, symObjAddr: 0x3818, symBinAddr: 0x100004A98, symSize: 0x54 }
  - { offsetInCU: 0x2BF23, offset: 0x2BF23, size: 0x8, addend: 0x0, symName: __ZNSt20__copy_move_backwardILb1ELb0ESt26random_access_iterator_tagE13__copy_move_bIPSt4pairIxxES5_EET0_T_S7_S6_, symObjAddr: 0x386C, symBinAddr: 0x100004AEC, symSize: 0x7C }
  - { offsetInCU: 0x2BEE9, offset: 0x2BEE9, size: 0x8, addend: 0x0, symName: __ZNK9__gnu_cxx5__ops14_Iter_less_valclINS_17__normal_iteratorIPSt4pairIxxESt6vectorIS5_SaIS5_EEEES5_EEbT_RT0_, symObjAddr: 0x37C4, symBinAddr: 0x100004A44, symSize: 0x54 }
  - { offsetInCU: 0x2BEF1, offset: 0x2BEF1, size: 0x8, addend: 0x0, symName: __ZSt4swapIxENSt9enable_ifIXsrSt6__and_IJSt6__not_ISt15__is_tuple_likeIT_EESt21is_move_constructibleIS4_ESt18is_move_assignableIS4_EEE5valueEvE4typeERS4_SE_, symObjAddr: 0x3818, symBinAddr: 0x100004A98, symSize: 0x54 }
  - { offsetInCU: 0x2C012, offset: 0x2C012, size: 0x8, addend: 0x0, symName: __ZSt23__copy_move_backward_a2ILb1EPSt4pairIxxES2_ET1_T0_S4_S3_, symObjAddr: 0x376C, symBinAddr: 0x1000049EC, symSize: 0x58 }
  - { offsetInCU: 0x2C01A, offset: 0x2C01A, size: 0x8, addend: 0x0, symName: __ZNK9__gnu_cxx5__ops14_Iter_less_valclINS_17__normal_iteratorIPSt4pairIxxESt6vectorIS5_SaIS5_EEEES5_EEbT_RT0_, symObjAddr: 0x37C4, symBinAddr: 0x100004A44, symSize: 0x54 }
  - { offsetInCU: 0x2BFEF, offset: 0x2BFEF, size: 0x8, addend: 0x0, symName: __ZNSt4pairIxxE4swapERS0_, symObjAddr: 0x3728, symBinAddr: 0x1000049A8, symSize: 0x44 }
  - { offsetInCU: 0x2BFF7, offset: 0x2BFF7, size: 0x8, addend: 0x0, symName: __ZSt23__copy_move_backward_a2ILb1EPSt4pairIxxES2_ET1_T0_S4_S3_, symObjAddr: 0x376C, symBinAddr: 0x1000049EC, symSize: 0x58 }
  - { offsetInCU: 0x2C19A, offset: 0x2C19A, size: 0x8, addend: 0x0, symName: __ZSt11__push_heapIN9__gnu_cxx17__normal_iteratorIPSt4pairIxxESt6vectorIS3_SaIS3_EEEElS3_NS0_5__ops14_Iter_less_valEEvT_T0_SC_T1_RT2_, symObjAddr: 0x35F8, symBinAddr: 0x100004878, symSize: 0x130 }
  - { offsetInCU: 0x2C1A2, offset: 0x2C1A2, size: 0x8, addend: 0x0, symName: __ZNSt4pairIxxE4swapERS0_, symObjAddr: 0x3728, symBinAddr: 0x1000049A8, symSize: 0x44 }
  - { offsetInCU: 0x2C247, offset: 0x2C247, size: 0x8, addend: 0x0, symName: __ZSt12__niter_wrapIN9__gnu_cxx17__normal_iteratorIPSt4pairIxxESt6vectorIS3_SaIS3_EEEES4_ET_S9_T0_, symObjAddr: 0x35BC, symBinAddr: 0x10000483C, symSize: 0x3C }
  - { offsetInCU: 0x2C24F, offset: 0x2C24F, size: 0x8, addend: 0x0, symName: __ZSt11__push_heapIN9__gnu_cxx17__normal_iteratorIPSt4pairIxxESt6vectorIS3_SaIS3_EEEElS3_NS0_5__ops14_Iter_less_valEEvT_T0_SC_T1_RT2_, symObjAddr: 0x35F8, symBinAddr: 0x100004878, symSize: 0x130 }
  - { offsetInCU: 0x2C24F, offset: 0x2C24F, size: 0x8, addend: 0x0, symName: __ZSt23__copy_move_backward_a1ILb1EPSt4pairIxxES2_ET1_T0_S4_S3_, symObjAddr: 0x3590, symBinAddr: 0x100004810, symSize: 0x2C }
  - { offsetInCU: 0x2C257, offset: 0x2C257, size: 0x8, addend: 0x0, symName: __ZSt12__niter_wrapIN9__gnu_cxx17__normal_iteratorIPSt4pairIxxESt6vectorIS3_SaIS3_EEEES4_ET_S9_T0_, symObjAddr: 0x35BC, symBinAddr: 0x10000483C, symSize: 0x3C }
  - { offsetInCU: 0x2C2FF, offset: 0x2C2FF, size: 0x8, addend: 0x0, symName: __ZSt12__niter_baseIPSt4pairIxxESt6vectorIS1_SaIS1_EEET_N9__gnu_cxx17__normal_iteratorIS6_T0_EE, symObjAddr: 0x3570, symBinAddr: 0x1000047F0, symSize: 0x20 }
  - { offsetInCU: 0x2C307, offset: 0x2C307, size: 0x8, addend: 0x0, symName: __ZSt23__copy_move_backward_a1ILb1EPSt4pairIxxES2_ET1_T0_S4_S3_, symObjAddr: 0x3590, symBinAddr: 0x100004810, symSize: 0x2C }
  - { offsetInCU: 0x2C317, offset: 0x2C317, size: 0x8, addend: 0x0, symName: __ZSt4swapIxxENSt9enable_ifIXsrSt6__and_IJSt14__is_swappableIT_ES2_IT0_EEE5valueEvE4typeERSt4pairIS3_S5_ESC_, symObjAddr: 0x3548, symBinAddr: 0x1000047C8, symSize: 0x28 }
  - { offsetInCU: 0x2C31F, offset: 0x2C31F, size: 0x8, addend: 0x0, symName: __ZSt12__niter_baseIPSt4pairIxxESt6vectorIS1_SaIS1_EEET_N9__gnu_cxx17__normal_iteratorIS6_T0_EE, symObjAddr: 0x3570, symBinAddr: 0x1000047F0, symSize: 0x20 }
  - { offsetInCU: 0x2C45A, offset: 0x2C45A, size: 0x8, addend: 0x0, symName: __ZSt13__adjust_heapIN9__gnu_cxx17__normal_iteratorIPSt4pairIxxESt6vectorIS3_SaIS3_EEEElS3_NS0_5__ops15_Iter_less_iterEEvT_T0_SC_T1_T2_, symObjAddr: 0x3380, symBinAddr: 0x100004600, symSize: 0x1C8 }
  - { offsetInCU: 0x2C462, offset: 0x2C462, size: 0x8, addend: 0x0, symName: __ZSt4swapIxxENSt9enable_ifIXsrSt6__and_IJSt14__is_swappableIT_ES2_IT0_EEE5valueEvE4typeERSt4pairIS3_S5_ESC_, symObjAddr: 0x3548, symBinAddr: 0x1000047C8, symSize: 0x28 }
  - { offsetInCU: 0x2C416, offset: 0x2C416, size: 0x8, addend: 0x0, symName: __ZNSt4pairIxxEC1Ev, symObjAddr: 0x335C, symBinAddr: 0x1000045DC, symSize: 0x24 }
  - { offsetInCU: 0x2C41E, offset: 0x2C41E, size: 0x8, addend: 0x0, symName: __ZSt13__adjust_heapIN9__gnu_cxx17__normal_iteratorIPSt4pairIxxESt6vectorIS3_SaIS3_EEEElS3_NS0_5__ops15_Iter_less_iterEEvT_T0_SC_T1_T2_, symObjAddr: 0x3380, symBinAddr: 0x100004600, symSize: 0x1C8 }
  - { offsetInCU: 0x2C4C1, offset: 0x2C4C1, size: 0x8, addend: 0x0, symName: __ZSt12construct_atISt4pairIxxEJEEDTgsnwcvPvLi0E_T_pispcl7declvalIT0_EEEEPS3_DpOS4_, symObjAddr: 0x3320, symBinAddr: 0x1000045A0, symSize: 0x3C }
  - { offsetInCU: 0x2C4C9, offset: 0x2C4C9, size: 0x8, addend: 0x0, symName: __ZNSt4pairIxxEC1Ev, symObjAddr: 0x335C, symBinAddr: 0x1000045DC, symSize: 0x24 }
  - { offsetInCU: 0x2C48A, offset: 0x2C48A, size: 0x8, addend: 0x0, symName: __ZNSt15__new_allocatorISt4pairIxxEE8allocateEmPKv, symObjAddr: 0x32A4, symBinAddr: 0x100004524, symSize: 0x7C }
  - { offsetInCU: 0x2C492, offset: 0x2C492, size: 0x8, addend: 0x0, symName: __ZSt12construct_atISt4pairIxxEJEEDTgsnwcvPvLi0E_T_pispcl7declvalIT0_EEEEPS3_DpOS4_, symObjAddr: 0x3320, symBinAddr: 0x1000045A0, symSize: 0x3C }
  - { offsetInCU: 0x2C546, offset: 0x2C546, size: 0x8, addend: 0x0, symName: __ZNK9__gnu_cxx5__ops14_Val_less_iterclISt4pairIxxENS_17__normal_iteratorIPS4_St6vectorIS4_SaIS4_EEEEEEbRT_T0_, symObjAddr: 0x324C, symBinAddr: 0x1000044CC, symSize: 0x58 }
  - { offsetInCU: 0x2C54E, offset: 0x2C54E, size: 0x8, addend: 0x0, symName: __ZNSt15__new_allocatorISt4pairIxxEE8allocateEmPKv, symObjAddr: 0x32A4, symBinAddr: 0x100004524, symSize: 0x7C }
  - { offsetInCU: 0x2C608, offset: 0x2C608, size: 0x8, addend: 0x0, symName: __ZSt7forwardIxEOT_RNSt16remove_referenceIS0_E4typeE, symObjAddr: 0x3238, symBinAddr: 0x1000044B8, symSize: 0x14 }
  - { offsetInCU: 0x2C610, offset: 0x2C610, size: 0x8, addend: 0x0, symName: __ZNK9__gnu_cxx5__ops14_Val_less_iterclISt4pairIxxENS_17__normal_iteratorIPS4_St6vectorIS4_SaIS4_EEEEEEbRT_T0_, symObjAddr: 0x324C, symBinAddr: 0x1000044CC, symSize: 0x58 }
  - { offsetInCU: 0x2C7A6, offset: 0x2C7A6, size: 0x8, addend: 0x0, symName: __ZSt22__copy_move_backward_aILb1EN9__gnu_cxx17__normal_iteratorIPSt4pairIxxESt6vectorIS3_SaIS3_EEEES8_ET1_T0_SA_S9_, symObjAddr: 0x31D8, symBinAddr: 0x100004458, symSize: 0x60 }
  - { offsetInCU: 0x2C7AE, offset: 0x2C7AE, size: 0x8, addend: 0x0, symName: __ZSt7forwardIxEOT_RNSt16remove_referenceIS0_E4typeE, symObjAddr: 0x3238, symBinAddr: 0x1000044B8, symSize: 0x14 }
  - { offsetInCU: 0x2C791, offset: 0x2C791, size: 0x8, addend: 0x0, symName: __ZSt12__miter_baseIN9__gnu_cxx17__normal_iteratorIPSt4pairIxxESt6vectorIS3_SaIS3_EEEEET_S9_, symObjAddr: 0x31C4, symBinAddr: 0x100004444, symSize: 0x14 }
  - { offsetInCU: 0x2C799, offset: 0x2C799, size: 0x8, addend: 0x0, symName: __ZSt22__copy_move_backward_aILb1EN9__gnu_cxx17__normal_iteratorIPSt4pairIxxESt6vectorIS3_SaIS3_EEEES8_ET1_T0_SA_S9_, symObjAddr: 0x31D8, symBinAddr: 0x100004458, symSize: 0x60 }
  - { offsetInCU: 0x2C7F9, offset: 0x2C7F9, size: 0x8, addend: 0x0, symName: __ZStssIxxENSt26common_comparison_categoryIJDTclL_ZNSt8__detail11__synth3wayEEcl7declvalIRT_EEcl7declvalIS3_EEEEDTclL_ZNS1_11__synth3wayEEcl7declvalIRT0_EEcl7declvalIS6_EEEEEE4typeERKSt4pairIS2_S5_ESD_, symObjAddr: 0x3130, symBinAddr: 0x1000043B0, symSize: 0x94 }
  - { offsetInCU: 0x2C801, offset: 0x2C801, size: 0x8, addend: 0x0, symName: __ZSt12__miter_baseIN9__gnu_cxx17__normal_iteratorIPSt4pairIxxESt6vectorIS3_SaIS3_EEEEET_S9_, symObjAddr: 0x31C4, symBinAddr: 0x100004444, symSize: 0x14 }
  - { offsetInCU: 0x2C8FF, offset: 0x2C8FF, size: 0x8, addend: 0x0, symName: __ZSt9iter_swapIN9__gnu_cxx17__normal_iteratorIPSt4pairIxxESt6vectorIS3_SaIS3_EEEES8_EvT_T0_, symObjAddr: 0x30EC, symBinAddr: 0x10000436C, symSize: 0x44 }
  - { offsetInCU: 0x2C907, offset: 0x2C907, size: 0x8, addend: 0x0, symName: __ZStssIxxENSt26common_comparison_categoryIJDTclL_ZNSt8__detail11__synth3wayEEcl7declvalIRT_EEcl7declvalIS3_EEEEDTclL_ZNS1_11__synth3wayEEcl7declvalIRT0_EEcl7declvalIS6_EEEEEE4typeERKSt4pairIS2_S5_ESD_, symObjAddr: 0x3130, symBinAddr: 0x1000043B0, symSize: 0x94 }
  - { offsetInCU: 0x2C7FD, offset: 0x2C7FD, size: 0x8, addend: 0x0, symName: __ZN9__gnu_cxx17__normal_iteratorIPSt4pairIxxESt6vectorIS2_SaIS2_EEEmmEv, symObjAddr: 0x30C4, symBinAddr: 0x100004344, symSize: 0x28 }
  - { offsetInCU: 0x2C805, offset: 0x2C805, size: 0x8, addend: 0x0, symName: __ZSt9iter_swapIN9__gnu_cxx17__normal_iteratorIPSt4pairIxxESt6vectorIS3_SaIS3_EEEES8_EvT_T0_, symObjAddr: 0x30EC, symBinAddr: 0x10000436C, symSize: 0x44 }
  - { offsetInCU: 0x2C95A, offset: 0x2C95A, size: 0x8, addend: 0x0, symName: __ZSt10__pop_heapIN9__gnu_cxx17__normal_iteratorIPSt4pairIxxESt6vectorIS3_SaIS3_EEEENS0_5__ops15_Iter_less_iterEEvT_SB_SB_RT0_, symObjAddr: 0x3034, symBinAddr: 0x1000042B4, symSize: 0x90 }
  - { offsetInCU: 0x2C962, offset: 0x2C962, size: 0x8, addend: 0x0, symName: __ZN9__gnu_cxx17__normal_iteratorIPSt4pairIxxESt6vectorIS2_SaIS2_EEEmmEv, symObjAddr: 0x30C4, symBinAddr: 0x100004344, symSize: 0x28 }
  - { offsetInCU: 0x2CA27, offset: 0x2CA27, size: 0x8, addend: 0x0, symName: __ZSt11__make_heapIN9__gnu_cxx17__normal_iteratorIPSt4pairIxxESt6vectorIS3_SaIS3_EEEENS0_5__ops15_Iter_less_iterEEvT_SB_RT0_, symObjAddr: 0x2F58, symBinAddr: 0x1000041D8, symSize: 0xDC }
  - { offsetInCU: 0x2CA2F, offset: 0x2CA2F, size: 0x8, addend: 0x0, symName: __ZSt10__pop_heapIN9__gnu_cxx17__normal_iteratorIPSt4pairIxxESt6vectorIS3_SaIS3_EEEENS0_5__ops15_Iter_less_iterEEvT_SB_SB_RT0_, symObjAddr: 0x3034, symBinAddr: 0x1000042B4, symSize: 0x90 }
  - { offsetInCU: 0x2CA4A, offset: 0x2CA4A, size: 0x8, addend: 0x0, symName: __ZSt10destroy_atISt4pairIxxEEvPT_, symObjAddr: 0x2F44, symBinAddr: 0x1000041C4, symSize: 0x14 }
  - { offsetInCU: 0x2CA52, offset: 0x2CA52, size: 0x8, addend: 0x0, symName: __ZSt11__make_heapIN9__gnu_cxx17__normal_iteratorIPSt4pairIxxESt6vectorIS3_SaIS3_EEEENS0_5__ops15_Iter_less_iterEEvT_SB_RT0_, symObjAddr: 0x2F58, symBinAddr: 0x1000041D8, symSize: 0xDC }
  - { offsetInCU: 0x2CA96, offset: 0x2CA96, size: 0x8, addend: 0x0, symName: __ZSt10_ConstructISt4pairIxxEJEEvPT_DpOT0_, symObjAddr: 0x2EFC, symBinAddr: 0x10000417C, symSize: 0x48 }
  - { offsetInCU: 0x2CA9E, offset: 0x2CA9E, size: 0x8, addend: 0x0, symName: __ZSt10destroy_atISt4pairIxxEEvPT_, symObjAddr: 0x2F44, symBinAddr: 0x1000041C4, symSize: 0x14 }
  - { offsetInCU: 0x2CA86, offset: 0x2CA86, size: 0x8, addend: 0x0, symName: __ZNSt15__new_allocatorISt4pairIxxEE10deallocateEPS1_m, symObjAddr: 0x2ECC, symBinAddr: 0x10000414C, symSize: 0x30 }
  - { offsetInCU: 0x2CA8E, offset: 0x2CA8E, size: 0x8, addend: 0x0, symName: __ZSt10_ConstructISt4pairIxxEJEEvPT_DpOT0_, symObjAddr: 0x2EFC, symBinAddr: 0x10000417C, symSize: 0x48 }
  - { offsetInCU: 0x2CB0B, offset: 0x2CB0B, size: 0x8, addend: 0x0, symName: __ZNK10__gnu_pbds33tree_order_statistics_node_updateINS_6detail30bin_search_tree_const_node_it_INS1_13rb_tree_node_IxmSaIcEEENS1_25bin_search_tree_const_it_IPS5_xPxPKxRxRS9_Lb1ES4_EESD_S4_EESE_St4lessIxES4_EclESE_SE_, symObjAddr: 0x2E08, symBinAddr: 0x100004088, symSize: 0xC4 }
  - { offsetInCU: 0x2CB13, offset: 0x2CB13, size: 0x8, addend: 0x0, symName: __ZNSt15__new_allocatorISt4pairIxxEE10deallocateEPS1_m, symObjAddr: 0x2ECC, symBinAddr: 0x10000414C, symSize: 0x30 }
  - { offsetInCU: 0x2CBB0, offset: 0x2CBB0, size: 0x8, addend: 0x0, symName: __ZNSt15__new_allocatorIN10__gnu_pbds6detail13rb_tree_node_IxmSaIcEEEE8allocateEmPKv, symObjAddr: 0x2D78, symBinAddr: 0x100003FF8, symSize: 0x90 }
  - { offsetInCU: 0x2CBB8, offset: 0x2CBB8, size: 0x8, addend: 0x0, symName: __ZNK10__gnu_pbds33tree_order_statistics_node_updateINS_6detail30bin_search_tree_const_node_it_INS1_13rb_tree_node_IxmSaIcEEENS1_25bin_search_tree_const_it_IPS5_xPxPKxRxRS9_Lb1ES4_EESD_S4_EESE_St4lessIxES4_EclESE_SE_, symObjAddr: 0x2E08, symBinAddr: 0x100004088, symSize: 0xC4 }
  - { offsetInCU: 0x2CC3E, offset: 0x2CC3E, size: 0x8, addend: 0x0, symName: __ZNSt15__new_allocatorIN10__gnu_pbds6detail13rb_tree_node_IxmSaIcEEEE10deallocateEPS4_m, symObjAddr: 0x2D3C, symBinAddr: 0x100003FBC, symSize: 0x3C }
  - { offsetInCU: 0x2CC46, offset: 0x2CC46, size: 0x8, addend: 0x0, symName: __ZNSt15__new_allocatorIN10__gnu_pbds6detail13rb_tree_node_IxmSaIcEEEE8allocateEmPKv, symObjAddr: 0x2D78, symBinAddr: 0x100003FF8, symSize: 0x90 }
  - { offsetInCU: 0x2CC97, offset: 0x2CC97, size: 0x8, addend: 0x0, symName: __ZN10__gnu_pbds6detail19bin_search_tree_setIxNS_9null_typeESt4lessIxENS0_11tree_traitsIxS2_S4_NS_33tree_order_statistics_node_updateENS_11rb_tree_tagESaIcEEES8_E9clear_impEPNS0_13rb_tree_node_IxmS8_EE, symObjAddr: 0x2CB8, symBinAddr: 0x100003F38, symSize: 0x84 }
  - { offsetInCU: 0x2CC9F, offset: 0x2CC9F, size: 0x8, addend: 0x0, symName: __ZNSt15__new_allocatorIN10__gnu_pbds6detail13rb_tree_node_IxmSaIcEEEE10deallocateEPS4_m, symObjAddr: 0x2D3C, symBinAddr: 0x100003FBC, symSize: 0x3C }
  - { offsetInCU: 0x2CD09, offset: 0x2CD09, size: 0x8, addend: 0x0, symName: __ZN10__gnu_pbds6detail19bin_search_tree_setIxNS_9null_typeESt4lessIxENS0_11tree_traitsIxS2_S4_NS_33tree_order_statistics_node_updateENS_11rb_tree_tagESaIcEEES8_E10initializeEv, symObjAddr: 0x2C68, symBinAddr: 0x100003EE8, symSize: 0x50 }
  - { offsetInCU: 0x2CD11, offset: 0x2CD11, size: 0x8, addend: 0x0, symName: __ZN10__gnu_pbds6detail19bin_search_tree_setIxNS_9null_typeESt4lessIxENS0_11tree_traitsIxS2_S4_NS_33tree_order_statistics_node_updateENS_11rb_tree_tagESaIcEEES8_E9clear_impEPNS0_13rb_tree_node_IxmS8_EE, symObjAddr: 0x2CB8, symBinAddr: 0x100003F38, symSize: 0x84 }
  - { offsetInCU: 0x2CE19, offset: 0x2CE19, size: 0x8, addend: 0x0, symName: __ZN10__gnu_pbds6detail13branch_policyINS0_30bin_search_tree_const_node_it_INS0_13rb_tree_node_IxmSaIcEEENS0_25bin_search_tree_const_it_IPS5_xPxPKxRxRS9_Lb1ES4_EESD_S4_EESE_S4_ED2Ev, symObjAddr: 0x2C40, symBinAddr: 0x100003EC0, symSize: 0x28 }
  - { offsetInCU: 0x2CE21, offset: 0x2CE21, size: 0x8, addend: 0x0, symName: __ZN10__gnu_pbds6detail19bin_search_tree_setIxNS_9null_typeESt4lessIxENS0_11tree_traitsIxS2_S4_NS_33tree_order_statistics_node_updateENS_11rb_tree_tagESaIcEEES8_E10initializeEv, symObjAddr: 0x2C68, symBinAddr: 0x100003EE8, symSize: 0x50 }
  - { offsetInCU: 0x2CED6, offset: 0x2CED6, size: 0x8, addend: 0x0, symName: __ZSt25__unguarded_linear_insertIN9__gnu_cxx17__normal_iteratorIPSt4pairIxxESt6vectorIS3_SaIS3_EEEENS0_5__ops14_Val_less_iterEEvT_T0_, symObjAddr: 0x2B88, symBinAddr: 0x100003E08, symSize: 0xB8 }
  - { offsetInCU: 0x2CEDE, offset: 0x2CEDE, size: 0x8, addend: 0x0, symName: __ZN10__gnu_pbds6detail13branch_policyINS0_30bin_search_tree_const_node_it_INS0_13rb_tree_node_IxmSaIcEEENS0_25bin_search_tree_const_it_IPS5_xPxPKxRxRS9_Lb1ES4_EESD_S4_EESE_S4_ED2Ev, symObjAddr: 0x2C40, symBinAddr: 0x100003EC0, symSize: 0x28 }
  - { offsetInCU: 0x2CE24, offset: 0x2CE24, size: 0x8, addend: 0x0, symName: __ZNSt4pairIxxEaSEOS0_, symObjAddr: 0x2B40, symBinAddr: 0x100003DC0, symSize: 0x48 }
  - { offsetInCU: 0x2CE2C, offset: 0x2CE2C, size: 0x8, addend: 0x0, symName: __ZSt25__unguarded_linear_insertIN9__gnu_cxx17__normal_iteratorIPSt4pairIxxESt6vectorIS3_SaIS3_EEEENS0_5__ops14_Val_less_iterEEvT_T0_, symObjAddr: 0x2B88, symBinAddr: 0x100003E08, symSize: 0xB8 }
  - { offsetInCU: 0x2CFE4, offset: 0x2CFE4, size: 0x8, addend: 0x0, symName: __ZSt13move_backwardIN9__gnu_cxx17__normal_iteratorIPSt4pairIxxESt6vectorIS3_SaIS3_EEEES8_ET0_T_SA_S9_, symObjAddr: 0x2AF8, symBinAddr: 0x100003D78, symSize: 0x48 }
  - { offsetInCU: 0x2CFEC, offset: 0x2CFEC, size: 0x8, addend: 0x0, symName: __ZNSt4pairIxxEaSEOS0_, symObjAddr: 0x2B40, symBinAddr: 0x100003DC0, symSize: 0x48 }
  - { offsetInCU: 0x2CF5E, offset: 0x2CF5E, size: 0x8, addend: 0x0, symName: __ZSt4moveIRSt4pairIxxEEONSt16remove_referenceIT_E4typeEOS4_, symObjAddr: 0x2AE4, symBinAddr: 0x100003D64, symSize: 0x14 }
  - { offsetInCU: 0x2CF66, offset: 0x2CF66, size: 0x8, addend: 0x0, symName: __ZSt13move_backwardIN9__gnu_cxx17__normal_iteratorIPSt4pairIxxESt6vectorIS3_SaIS3_EEEES8_ET0_T_SA_S9_, symObjAddr: 0x2AF8, symBinAddr: 0x100003D78, symSize: 0x48 }
  - { offsetInCU: 0x2CF58, offset: 0x2CF58, size: 0x8, addend: 0x0, symName: __ZNK9__gnu_cxx5__ops15_Iter_less_iterclINS_17__normal_iteratorIPSt4pairIxxESt6vectorIS5_SaIS5_EEEESA_EEbT_T0_, symObjAddr: 0x2A80, symBinAddr: 0x100003D00, symSize: 0x64 }
  - { offsetInCU: 0x2CF60, offset: 0x2CF60, size: 0x8, addend: 0x0, symName: __ZSt4moveIRSt4pairIxxEEONSt16remove_referenceIT_E4typeEOS4_, symObjAddr: 0x2AE4, symBinAddr: 0x100003D64, symSize: 0x14 }
  - { offsetInCU: 0x2CFDE, offset: 0x2CFDE, size: 0x8, addend: 0x0, symName: __ZNKSt8__detail10_Synth3wayclIxxEEDaRKT_RKT0_, symObjAddr: 0x2A24, symBinAddr: 0x100003CA4, symSize: 0x5C }
  - { offsetInCU: 0x2CFE6, offset: 0x2CFE6, size: 0x8, addend: 0x0, symName: __ZNK9__gnu_cxx5__ops15_Iter_less_iterclINS_17__normal_iteratorIPSt4pairIxxESt6vectorIS5_SaIS5_EEEESA_EEbT_T0_, symObjAddr: 0x2A80, symBinAddr: 0x100003D00, symSize: 0x64 }
  - { offsetInCU: 0x2D19B, offset: 0x2D19B, size: 0x8, addend: 0x0, symName: __ZSt21__unguarded_partitionIN9__gnu_cxx17__normal_iteratorIPSt4pairIxxESt6vectorIS3_SaIS3_EEEENS0_5__ops15_Iter_less_iterEET_SB_SB_SB_T0_, symObjAddr: 0x293C, symBinAddr: 0x100003BBC, symSize: 0xE8 }
  - { offsetInCU: 0x2D1A3, offset: 0x2D1A3, size: 0x8, addend: 0x0, symName: __ZNKSt8__detail10_Synth3wayclIxxEEDaRKT_RKT0_, symObjAddr: 0x2A24, symBinAddr: 0x100003CA4, symSize: 0x5C }
  - { offsetInCU: 0x2D233, offset: 0x2D233, size: 0x8, addend: 0x0, symName: __ZSt22__move_median_to_firstIN9__gnu_cxx17__normal_iteratorIPSt4pairIxxESt6vectorIS3_SaIS3_EEEENS0_5__ops15_Iter_less_iterEEvT_SB_SB_SB_T0_, symObjAddr: 0x2818, symBinAddr: 0x100003A98, symSize: 0x124 }
  - { offsetInCU: 0x2D23B, offset: 0x2D23B, size: 0x8, addend: 0x0, symName: __ZSt21__unguarded_partitionIN9__gnu_cxx17__normal_iteratorIPSt4pairIxxESt6vectorIS3_SaIS3_EEEENS0_5__ops15_Iter_less_iterEET_SB_SB_SB_T0_, symObjAddr: 0x293C, symBinAddr: 0x100003BBC, symSize: 0xE8 }
  - { offsetInCU: 0x2D18E, offset: 0x2D18E, size: 0x8, addend: 0x0, symName: __ZNK9__gnu_cxx17__normal_iteratorIPSt4pairIxxESt6vectorIS2_SaIS2_EEEmiEl, symObjAddr: 0x27D4, symBinAddr: 0x100003A54, symSize: 0x44 }
  - { offsetInCU: 0x2D196, offset: 0x2D196, size: 0x8, addend: 0x0, symName: __ZSt22__move_median_to_firstIN9__gnu_cxx17__normal_iteratorIPSt4pairIxxESt6vectorIS3_SaIS3_EEEENS0_5__ops15_Iter_less_iterEEvT_SB_SB_SB_T0_, symObjAddr: 0x2818, symBinAddr: 0x100003A98, symSize: 0x124 }
  - { offsetInCU: 0x2D300, offset: 0x2D300, size: 0x8, addend: 0x0, symName: __ZSt11__sort_heapIN9__gnu_cxx17__normal_iteratorIPSt4pairIxxESt6vectorIS3_SaIS3_EEEENS0_5__ops15_Iter_less_iterEEvT_SB_RT0_, symObjAddr: 0x276C, symBinAddr: 0x1000039EC, symSize: 0x68 }
  - { offsetInCU: 0x2D308, offset: 0x2D308, size: 0x8, addend: 0x0, symName: __ZNK9__gnu_cxx17__normal_iteratorIPSt4pairIxxESt6vectorIS2_SaIS2_EEEmiEl, symObjAddr: 0x27D4, symBinAddr: 0x100003A54, symSize: 0x44 }
  - { offsetInCU: 0x2D383, offset: 0x2D383, size: 0x8, addend: 0x0, symName: __ZSt13__heap_selectIN9__gnu_cxx17__normal_iteratorIPSt4pairIxxESt6vectorIS3_SaIS3_EEEENS0_5__ops15_Iter_less_iterEEvT_SB_SB_T0_, symObjAddr: 0x26A4, symBinAddr: 0x100003924, symSize: 0xC8 }
  - { offsetInCU: 0x2D38B, offset: 0x2D38B, size: 0x8, addend: 0x0, symName: __ZSt11__sort_heapIN9__gnu_cxx17__normal_iteratorIPSt4pairIxxESt6vectorIS3_SaIS3_EEEENS0_5__ops15_Iter_less_iterEEvT_SB_RT0_, symObjAddr: 0x276C, symBinAddr: 0x1000039EC, symSize: 0x68 }
  - { offsetInCU: 0x2D42A, offset: 0x2D42A, size: 0x8, addend: 0x0, symName: __ZN9__gnu_cxxssIPSt4pairIxxESt6vectorIS2_SaIS2_EEEEDTclL_ZNSt8__detail11__synth3wayEEcl7declvalIRT_EEcl7declvalIS9_EEEERKNS_17__normal_iteratorIS8_T0_EESF_, symObjAddr: 0x265C, symBinAddr: 0x1000038DC, symSize: 0x48 }
  - { offsetInCU: 0x2D432, offset: 0x2D432, size: 0x8, addend: 0x0, symName: __ZSt13__heap_selectIN9__gnu_cxx17__normal_iteratorIPSt4pairIxxESt6vectorIS3_SaIS3_EEEENS0_5__ops15_Iter_less_iterEEvT_SB_SB_T0_, symObjAddr: 0x26A4, symBinAddr: 0x100003924, symSize: 0xC8 }
  - { offsetInCU: 0x2D395, offset: 0x2D395, size: 0x8, addend: 0x0, symName: __ZNKSt8__detail10_Synth3wayclIPSt4pairIxxES4_EEDaRKT_RKT0_, symObjAddr: 0x2600, symBinAddr: 0x100003880, symSize: 0x5C }
  - { offsetInCU: 0x2D39D, offset: 0x2D39D, size: 0x8, addend: 0x0, symName: __ZN9__gnu_cxxssIPSt4pairIxxESt6vectorIS2_SaIS2_EEEEDTclL_ZNSt8__detail11__synth3wayEEcl7declvalIRT_EEcl7declvalIS9_EEEERKNS_17__normal_iteratorIS8_T0_EESF_, symObjAddr: 0x265C, symBinAddr: 0x1000038DC, symSize: 0x48 }
  - { offsetInCU: 0x2D45C, offset: 0x2D45C, size: 0x8, addend: 0x0, symName: __ZSt8_DestroyISt4pairIxxEEvPT_, symObjAddr: 0x25E0, symBinAddr: 0x100003860, symSize: 0x20 }
  - { offsetInCU: 0x2D464, offset: 0x2D464, size: 0x8, addend: 0x0, symName: __ZNKSt8__detail10_Synth3wayclIPSt4pairIxxES4_EEDaRKT_RKT0_, symObjAddr: 0x2600, symBinAddr: 0x100003880, symSize: 0x5C }
  - { offsetInCU: 0x2D4AE, offset: 0x2D4AE, size: 0x8, addend: 0x0, symName: __ZSt11__addressofISt4pairIxxEEPT_RS2_, symObjAddr: 0x25CC, symBinAddr: 0x10000384C, symSize: 0x14 }
  - { offsetInCU: 0x2D4B6, offset: 0x2D4B6, size: 0x8, addend: 0x0, symName: __ZSt8_DestroyISt4pairIxxEEvPT_, symObjAddr: 0x25E0, symBinAddr: 0x100003860, symSize: 0x20 }
  - { offsetInCU: 0x2D49A, offset: 0x2D49A, size: 0x8, addend: 0x0, symName: __ZNSt27__uninitialized_default_n_1ILb0EE18__uninit_default_nIPSt4pairIxxEmEET_S5_T0_, symObjAddr: 0x2544, symBinAddr: 0x1000037C4, symSize: 0x88 }
  - { offsetInCU: 0x2D4A2, offset: 0x2D4A2, size: 0x8, addend: 0x0, symName: __ZSt11__addressofISt4pairIxxEEPT_RS2_, symObjAddr: 0x25CC, symBinAddr: 0x10000384C, symSize: 0x14 }
  - { offsetInCU: 0x2D57E, offset: 0x2D57E, size: 0x8, addend: 0x0, symName: __ZN10__gnu_pbds6detail19bin_search_tree_setIxNS_9null_typeESt4lessIxENS0_11tree_traitsIxS2_S4_NS_33tree_order_statistics_node_updateENS_11rb_tree_tagESaIcEEES8_E12apply_updateINS6_INS0_30bin_search_tree_const_node_it_INS0_13rb_tree_node_IxmS8_EENS0_25bin_search_tree_const_it_IPSE_xPxPKxRxRSI_Lb1ES8_EESM_S8_EESN_S4_S8_EEEEvSG_PT_, symObjAddr: 0x24F0, symBinAddr: 0x100003770, symSize: 0x54 }
  - { offsetInCU: 0x2D586, offset: 0x2D586, size: 0x8, addend: 0x0, symName: __ZNSt27__uninitialized_default_n_1ILb0EE18__uninit_default_nIPSt4pairIxxEmEET_S5_T0_, symObjAddr: 0x2544, symBinAddr: 0x1000037C4, symSize: 0x88 }
  - { offsetInCU: 0x2D6A7, offset: 0x2D6A7, size: 0x8, addend: 0x0, symName: __ZSt7forwardIPN10__gnu_pbds6detail13rb_tree_node_IxmSaIcEEEEOT_RNSt16remove_referenceIS6_E4typeE, symObjAddr: 0x24DC, symBinAddr: 0x10000375C, symSize: 0x14 }
  - { offsetInCU: 0x2D6AF, offset: 0x2D6AF, size: 0x8, addend: 0x0, symName: __ZN10__gnu_pbds6detail19bin_search_tree_setIxNS_9null_typeESt4lessIxENS0_11tree_traitsIxS2_S4_NS_33tree_order_statistics_node_updateENS_11rb_tree_tagESaIcEEES8_E12apply_updateINS6_INS0_30bin_search_tree_const_node_it_INS0_13rb_tree_node_IxmS8_EENS0_25bin_search_tree_const_it_IPSE_xPxPKxRxRSI_Lb1ES8_EESM_S8_EESN_S4_S8_EEEEvSG_PT_, symObjAddr: 0x24F0, symBinAddr: 0x100003770, symSize: 0x54 }
  - { offsetInCU: 0x2D6ED, offset: 0x2D6ED, size: 0x8, addend: 0x0, symName: __ZNSt4pairIPN10__gnu_pbds6detail13rb_tree_node_IxmSaIcEEEbEC1IRS5_bEEOT_OT0_, symObjAddr: 0x2494, symBinAddr: 0x100003714, symSize: 0x48 }
  - { offsetInCU: 0x2D6F5, offset: 0x2D6F5, size: 0x8, addend: 0x0, symName: __ZSt7forwardIPN10__gnu_pbds6detail13rb_tree_node_IxmSaIcEEEEOT_RNSt16remove_referenceIS6_E4typeE, symObjAddr: 0x24DC, symBinAddr: 0x10000375C, symSize: 0x14 }
  - { offsetInCU: 0x2D7D0, offset: 0x2D7D0, size: 0x8, addend: 0x0, symName: __ZSt7forwardIRPN10__gnu_pbds6detail13rb_tree_node_IxmSaIcEEEEOT_RNSt16remove_referenceIS7_E4typeE, symObjAddr: 0x2480, symBinAddr: 0x100003700, symSize: 0x14 }
  - { offsetInCU: 0x2D7D8, offset: 0x2D7D8, size: 0x8, addend: 0x0, symName: __ZNSt4pairIPN10__gnu_pbds6detail13rb_tree_node_IxmSaIcEEEbEC1IRS5_bEEOT_OT0_, symObjAddr: 0x2494, symBinAddr: 0x100003714, symSize: 0x48 }
  - { offsetInCU: 0x2D83E, offset: 0x2D83E, size: 0x8, addend: 0x0, symName: __ZNSt4pairIN10__gnu_pbds6detail25bin_search_tree_const_it_IPNS1_13rb_tree_node_IxmSaIcEEExPxPKxRxRS8_Lb1ES4_EEbEC1ISC_bEEOT_OT0_, symObjAddr: 0x2434, symBinAddr: 0x1000036B4, symSize: 0x4C }
  - { offsetInCU: 0x2D846, offset: 0x2D846, size: 0x8, addend: 0x0, symName: __ZSt7forwardIRPN10__gnu_pbds6detail13rb_tree_node_IxmSaIcEEEEOT_RNSt16remove_referenceIS7_E4typeE, symObjAddr: 0x2480, symBinAddr: 0x100003700, symSize: 0x14 }
  - { offsetInCU: 0x2D9C8, offset: 0x2D9C8, size: 0x8, addend: 0x0, symName: __ZSt7forwardIN10__gnu_pbds6detail25bin_search_tree_const_it_IPNS1_13rb_tree_node_IxmSaIcEEExPxPKxRxRS8_Lb1ES4_EEEOT_RNSt16remove_referenceISD_E4typeE, symObjAddr: 0x2420, symBinAddr: 0x1000036A0, symSize: 0x14 }
  - { offsetInCU: 0x2D9D0, offset: 0x2D9D0, size: 0x8, addend: 0x0, symName: __ZNSt4pairIN10__gnu_pbds6detail25bin_search_tree_const_it_IPNS1_13rb_tree_node_IxmSaIcEEExPxPKxRxRS8_Lb1ES4_EEbEC1ISC_bEEOT_OT0_, symObjAddr: 0x2434, symBinAddr: 0x1000036B4, symSize: 0x4C }
  - { offsetInCU: 0x2D877, offset: 0x2D877, size: 0x8, addend: 0x0, symName: __ZN10__gnu_pbds6detail19bin_search_tree_setIxNS_9null_typeESt4lessIxENS0_11tree_traitsIxS2_S4_NS_33tree_order_statistics_node_updateENS_11rb_tree_tagESaIcEEES8_E28get_new_node_for_leaf_insertERKxNSt3tr117integral_constantIiLi1EEE, symObjAddr: 0x2304, symBinAddr: 0x100003584, symSize: 0x11C }
  - { offsetInCU: 0x2D87F, offset: 0x2D87F, size: 0x8, addend: 0x0, symName: __ZSt7forwardIN10__gnu_pbds6detail25bin_search_tree_const_it_IPNS1_13rb_tree_node_IxmSaIcEEExPxPKxRxRS8_Lb1ES4_EEEOT_RNSt16remove_referenceISD_E4typeE, symObjAddr: 0x2420, symBinAddr: 0x1000036A0, symSize: 0x14 }
  - { offsetInCU: 0x2D977, offset: 0x2D977, size: 0x8, addend: 0x0, symName: __ZN10__gnu_pbds6detail19bin_search_tree_setIxNS_9null_typeESt4lessIxENS0_11tree_traitsIxS2_S4_NS_33tree_order_statistics_node_updateENS_11rb_tree_tagESaIcEEES8_E5clearEv, symObjAddr: 0x22CC, symBinAddr: 0x10000354C, symSize: 0x38 }
  - { offsetInCU: 0x2D97F, offset: 0x2D97F, size: 0x8, addend: 0x0, symName: __ZN10__gnu_pbds6detail19bin_search_tree_setIxNS_9null_typeESt4lessIxENS0_11tree_traitsIxS2_S4_NS_33tree_order_statistics_node_updateENS_11rb_tree_tagESaIcEEES8_E28get_new_node_for_leaf_insertERKxNSt3tr117integral_constantIiLi1EEE, symObjAddr: 0x2304, symBinAddr: 0x100003584, symSize: 0x11C }
  - { offsetInCU: 0x2DAA4, offset: 0x2DAA4, size: 0x8, addend: 0x0, symName: __ZN10__gnu_pbds33tree_order_statistics_node_updateINS_6detail30bin_search_tree_const_node_it_INS1_13rb_tree_node_IxmSaIcEEENS1_25bin_search_tree_const_it_IPS5_xPxPKxRxRS9_Lb1ES4_EESD_S4_EESE_St4lessIxES4_ED2Ev, symObjAddr: 0x2298, symBinAddr: 0x100003518, symSize: 0x34 }
  - { offsetInCU: 0x2DAAC, offset: 0x2DAAC, size: 0x8, addend: 0x0, symName: __ZN10__gnu_pbds6detail19bin_search_tree_setIxNS_9null_typeESt4lessIxENS0_11tree_traitsIxS2_S4_NS_33tree_order_statistics_node_updateENS_11rb_tree_tagESaIcEEES8_E5clearEv, symObjAddr: 0x22CC, symBinAddr: 0x10000354C, symSize: 0x38 }
  - { offsetInCU: 0x2DA02, offset: 0x2DA02, size: 0x8, addend: 0x0, symName: __ZN10__gnu_pbds6detail11rb_tree_setIxNS_9null_typeESt4lessIxENS0_11tree_traitsIxS2_S4_NS_33tree_order_statistics_node_updateENS_11rb_tree_tagESaIcEEES8_E10initializeEv, symObjAddr: 0x2274, symBinAddr: 0x1000034F4, symSize: 0x24 }
  - { offsetInCU: 0x2DA0A, offset: 0x2DA0A, size: 0x8, addend: 0x0, symName: __ZN10__gnu_pbds33tree_order_statistics_node_updateINS_6detail30bin_search_tree_const_node_it_INS1_13rb_tree_node_IxmSaIcEEENS1_25bin_search_tree_const_it_IPS5_xPxPKxRxRS9_Lb1ES4_EESD_S4_EESE_St4lessIxES4_ED2Ev, symObjAddr: 0x2298, symBinAddr: 0x100003518, symSize: 0x34 }
  - { offsetInCU: 0x2DAF4, offset: 0x2DAF4, size: 0x8, addend: 0x0, symName: __ZN10__gnu_pbds6detail19bin_search_tree_setIxNS_9null_typeESt4lessIxENS0_11tree_traitsIxS2_S4_NS_33tree_order_statistics_node_updateENS_11rb_tree_tagESaIcEEES8_EC2Ev, symObjAddr: 0x215C, symBinAddr: 0x1000033DC, symSize: 0x118 }
  - { offsetInCU: 0x2DAFC, offset: 0x2DAFC, size: 0x8, addend: 0x0, symName: __ZN10__gnu_pbds6detail11rb_tree_setIxNS_9null_typeESt4lessIxENS0_11tree_traitsIxS2_S4_NS_33tree_order_statistics_node_updateENS_11rb_tree_tagESaIcEEES8_E10initializeEv, symObjAddr: 0x2274, symBinAddr: 0x1000034F4, symSize: 0x24 }
  - { offsetInCU: 0x2DBA0, offset: 0x2DBA0, size: 0x8, addend: 0x0, symName: __ZN10__gnu_pbds33tree_order_statistics_node_updateINS_6detail30bin_search_tree_const_node_it_INS1_13rb_tree_node_IxmSaIcEEENS1_25bin_search_tree_const_it_IPS5_xPxPKxRxRS9_Lb1ES4_EESD_S4_EESE_St4lessIxES4_EC2Ev, symObjAddr: 0x2128, symBinAddr: 0x1000033A8, symSize: 0x34 }
  - { offsetInCU: 0x2DBA8, offset: 0x2DBA8, size: 0x8, addend: 0x0, symName: __ZN10__gnu_pbds6detail19bin_search_tree_setIxNS_9null_typeESt4lessIxENS0_11tree_traitsIxS2_S4_NS_33tree_order_statistics_node_updateENS_11rb_tree_tagESaIcEEES8_EC2Ev, symObjAddr: 0x215C, symBinAddr: 0x1000033DC, symSize: 0x118 }
  - { offsetInCU: 0x2DBD1, offset: 0x2DBD1, size: 0x8, addend: 0x0, symName: __ZN10__gnu_pbds6detail13branch_policyINS0_30bin_search_tree_const_node_it_INS0_13rb_tree_node_IxmSaIcEEENS0_25bin_search_tree_const_it_IPS5_xPxPKxRxRS9_Lb1ES4_EESD_S4_EESE_S4_EC2Ev, symObjAddr: 0x2100, symBinAddr: 0x100003380, symSize: 0x28 }
  - { offsetInCU: 0x2DBD9, offset: 0x2DBD9, size: 0x8, addend: 0x0, symName: __ZN10__gnu_pbds33tree_order_statistics_node_updateINS_6detail30bin_search_tree_const_node_it_INS1_13rb_tree_node_IxmSaIcEEENS1_25bin_search_tree_const_it_IPS5_xPxPKxRxRS9_Lb1ES4_EESD_S4_EESE_St4lessIxES4_EC2Ev, symObjAddr: 0x2128, symBinAddr: 0x1000033A8, symSize: 0x34 }
  - { offsetInCU: 0x2DC95, offset: 0x2DC95, size: 0x8, addend: 0x0, symName: __ZSt26__unguarded_insertion_sortIN9__gnu_cxx17__normal_iteratorIPSt4pairIxxESt6vectorIS3_SaIS3_EEEENS0_5__ops15_Iter_less_iterEEvT_SB_T0_, symObjAddr: 0x2088, symBinAddr: 0x100003308, symSize: 0x78 }
  - { offsetInCU: 0x2DC9D, offset: 0x2DC9D, size: 0x8, addend: 0x0, symName: __ZN10__gnu_pbds6detail13branch_policyINS0_30bin_search_tree_const_node_it_INS0_13rb_tree_node_IxmSaIcEEENS0_25bin_search_tree_const_it_IPS5_xPxPKxRxRS9_Lb1ES4_EESD_S4_EESE_S4_EC2Ev, symObjAddr: 0x2100, symBinAddr: 0x100003380, symSize: 0x28 }
  - { offsetInCU: 0x2DD25, offset: 0x2DD25, size: 0x8, addend: 0x0, symName: __ZSt16__insertion_sortIN9__gnu_cxx17__normal_iteratorIPSt4pairIxxESt6vectorIS3_SaIS3_EEEENS0_5__ops15_Iter_less_iterEEvT_SB_T0_, symObjAddr: 0x1F74, symBinAddr: 0x1000031F4, symSize: 0x114 }
  - { offsetInCU: 0x2DD2D, offset: 0x2DD2D, size: 0x8, addend: 0x0, symName: __ZSt26__unguarded_insertion_sortIN9__gnu_cxx17__normal_iteratorIPSt4pairIxxESt6vectorIS3_SaIS3_EEEENS0_5__ops15_Iter_less_iterEEvT_SB_T0_, symObjAddr: 0x2088, symBinAddr: 0x100003308, symSize: 0x78 }
  - { offsetInCU: 0x2DCBB, offset: 0x2DCBB, size: 0x8, addend: 0x0, symName: __ZNK9__gnu_cxx17__normal_iteratorIPSt4pairIxxESt6vectorIS2_SaIS2_EEEplEl, symObjAddr: 0x1F34, symBinAddr: 0x1000031B4, symSize: 0x40 }
  - { offsetInCU: 0x2DCC3, offset: 0x2DCC3, size: 0x8, addend: 0x0, symName: __ZSt16__insertion_sortIN9__gnu_cxx17__normal_iteratorIPSt4pairIxxESt6vectorIS3_SaIS3_EEEENS0_5__ops15_Iter_less_iterEEvT_SB_T0_, symObjAddr: 0x1F74, symBinAddr: 0x1000031F4, symSize: 0x114 }
  - { offsetInCU: 0x2DE52, offset: 0x2DE52, size: 0x8, addend: 0x0, symName: __ZSt27__unguarded_partition_pivotIN9__gnu_cxx17__normal_iteratorIPSt4pairIxxESt6vectorIS3_SaIS3_EEEENS0_5__ops15_Iter_less_iterEET_SB_SB_T0_, symObjAddr: 0x1E90, symBinAddr: 0x100003110, symSize: 0xA4 }
  - { offsetInCU: 0x2DE5A, offset: 0x2DE5A, size: 0x8, addend: 0x0, symName: __ZNK9__gnu_cxx17__normal_iteratorIPSt4pairIxxESt6vectorIS2_SaIS2_EEEplEl, symObjAddr: 0x1F34, symBinAddr: 0x1000031B4, symSize: 0x40 }
  - { offsetInCU: 0x2DECE, offset: 0x2DECE, size: 0x8, addend: 0x0, symName: __ZSt14__partial_sortIN9__gnu_cxx17__normal_iteratorIPSt4pairIxxESt6vectorIS3_SaIS3_EEEENS0_5__ops15_Iter_less_iterEEvT_SB_SB_T0_, symObjAddr: 0x1E44, symBinAddr: 0x1000030C4, symSize: 0x4C }
  - { offsetInCU: 0x2DED6, offset: 0x2DED6, size: 0x8, addend: 0x0, symName: __ZSt27__unguarded_partition_pivotIN9__gnu_cxx17__normal_iteratorIPSt4pairIxxESt6vectorIS3_SaIS3_EEEENS0_5__ops15_Iter_less_iterEET_SB_SB_T0_, symObjAddr: 0x1E90, symBinAddr: 0x100003110, symSize: 0xA4 }
  - { offsetInCU: 0x2DE2C, offset: 0x2DE2C, size: 0x8, addend: 0x0, symName: __ZNSt12_Destroy_auxILb1EE9__destroyIPSt4pairIxxEEEvT_S5_, symObjAddr: 0x1E2C, symBinAddr: 0x1000030AC, symSize: 0x18 }
  - { offsetInCU: 0x2DE34, offset: 0x2DE34, size: 0x8, addend: 0x0, symName: __ZSt14__partial_sortIN9__gnu_cxx17__normal_iteratorIPSt4pairIxxESt6vectorIS3_SaIS3_EEEENS0_5__ops15_Iter_less_iterEEvT_SB_SB_T0_, symObjAddr: 0x1E44, symBinAddr: 0x1000030C4, symSize: 0x4C }
  - { offsetInCU: 0x2DE72, offset: 0x2DE72, size: 0x8, addend: 0x0, symName: __ZNSt12_Destroy_auxILb0EE9__destroyIPSt4pairIxxEEEvT_S5_, symObjAddr: 0x1DE0, symBinAddr: 0x100003060, symSize: 0x4C }
  - { offsetInCU: 0x2DE7A, offset: 0x2DE7A, size: 0x8, addend: 0x0, symName: __ZNSt12_Destroy_auxILb1EE9__destroyIPSt4pairIxxEEEvT_S5_, symObjAddr: 0x1E2C, symBinAddr: 0x1000030AC, symSize: 0x18 }
  - { offsetInCU: 0x2DF59, offset: 0x2DF59, size: 0x8, addend: 0x0, symName: __ZSt25__uninitialized_default_nIPSt4pairIxxEmET_S3_T0_, symObjAddr: 0x1D8C, symBinAddr: 0x10000300C, symSize: 0x54 }
  - { offsetInCU: 0x2DF61, offset: 0x2DF61, size: 0x8, addend: 0x0, symName: __ZNSt12_Destroy_auxILb0EE9__destroyIPSt4pairIxxEEEvT_S5_, symObjAddr: 0x1DE0, symBinAddr: 0x100003060, symSize: 0x4C }
  - { offsetInCU: 0x2DF8C, offset: 0x2DF8C, size: 0x8, addend: 0x0, symName: __ZNSt12_Vector_baseISt4pairIxxESaIS1_EE11_M_allocateEm, symObjAddr: 0x1CC4, symBinAddr: 0x100002F44, symSize: 0xC8 }
  - { offsetInCU: 0x2DF94, offset: 0x2DF94, size: 0x8, addend: 0x0, symName: __ZSt25__uninitialized_default_nIPSt4pairIxxEmET_S3_T0_, symObjAddr: 0x1D8C, symBinAddr: 0x10000300C, symSize: 0x54 }
  - { offsetInCU: 0x2E096, offset: 0x2E096, size: 0x8, addend: 0x0, symName: __ZNSt12_Vector_baseISt4pairIxxESaIS1_EE17_Vector_impl_dataC2Ev, symObjAddr: 0x1C98, symBinAddr: 0x100002F18, symSize: 0x2C }
  - { offsetInCU: 0x2E09E, offset: 0x2E09E, size: 0x8, addend: 0x0, symName: __ZNSt12_Vector_baseISt4pairIxxESaIS1_EE11_M_allocateEm, symObjAddr: 0x1CC4, symBinAddr: 0x100002F44, symSize: 0xC8 }
  - { offsetInCU: 0x2E0EA, offset: 0x2E0EA, size: 0x8, addend: 0x0, symName: __ZSt13__countl_zeroImEiT_, symObjAddr: 0x1C44, symBinAddr: 0x100002EC4, symSize: 0x54 }
  - { offsetInCU: 0x2E0F2, offset: 0x2E0F2, size: 0x8, addend: 0x0, symName: __ZNSt12_Vector_baseISt4pairIxxESaIS1_EE17_Vector_impl_dataC2Ev, symObjAddr: 0x1C98, symBinAddr: 0x100002F18, symSize: 0x2C }
  - { offsetInCU: 0x2E169, offset: 0x2E169, size: 0x8, addend: 0x0, symName: __ZN10__gnu_pbds6detail19bin_search_tree_setIxNS_9null_typeESt4lessIxENS0_11tree_traitsIxS2_S4_NS_33tree_order_statistics_node_updateENS_11rb_tree_tagESaIcEEES8_E13update_to_topINS6_INS0_30bin_search_tree_const_node_it_INS0_13rb_tree_node_IxmS8_EENS0_25bin_search_tree_const_it_IPSE_xPxPKxRxRSI_Lb1ES8_EESM_S8_EESN_S4_S8_EEEEvSG_PT_, symObjAddr: 0x1BEC, symBinAddr: 0x100002E6C, symSize: 0x58 }
  - { offsetInCU: 0x2E171, offset: 0x2E171, size: 0x8, addend: 0x0, symName: __ZSt13__countl_zeroImEiT_, symObjAddr: 0x1C44, symBinAddr: 0x100002EC4, symSize: 0x54 }
  - { offsetInCU: 0x2E1CF, offset: 0x2E1CF, size: 0x8, addend: 0x0, symName: __ZN10__gnu_pbds6detail19bin_search_tree_setIxNS_9null_typeESt4lessIxENS0_11tree_traitsIxS2_S4_NS_33tree_order_statistics_node_updateENS_11rb_tree_tagESaIcEEES8_E12rotate_rightEPNS0_13rb_tree_node_IxmS8_EE, symObjAddr: 0x1AD4, symBinAddr: 0x100002D54, symSize: 0x118 }
  - { offsetInCU: 0x2E1D7, offset: 0x2E1D7, size: 0x8, addend: 0x0, symName: __ZN10__gnu_pbds6detail19bin_search_tree_setIxNS_9null_typeESt4lessIxENS0_11tree_traitsIxS2_S4_NS_33tree_order_statistics_node_updateENS_11rb_tree_tagESaIcEEES8_E13update_to_topINS6_INS0_30bin_search_tree_const_node_it_INS0_13rb_tree_node_IxmS8_EENS0_25bin_search_tree_const_it_IPSE_xPxPKxRxRSI_Lb1ES8_EESM_S8_EESN_S4_S8_EEEEvSG_PT_, symObjAddr: 0x1BEC, symBinAddr: 0x100002E6C, symSize: 0x58 }
  - { offsetInCU: 0x2E227, offset: 0x2E227, size: 0x8, addend: 0x0, symName: __ZN10__gnu_pbds6detail19bin_search_tree_setIxNS_9null_typeESt4lessIxENS0_11tree_traitsIxS2_S4_NS_33tree_order_statistics_node_updateENS_11rb_tree_tagESaIcEEES8_E11rotate_leftEPNS0_13rb_tree_node_IxmS8_EE, symObjAddr: 0x19BC, symBinAddr: 0x100002C3C, symSize: 0x118 }
  - { offsetInCU: 0x2E22F, offset: 0x2E22F, size: 0x8, addend: 0x0, symName: __ZN10__gnu_pbds6detail19bin_search_tree_setIxNS_9null_typeESt4lessIxENS0_11tree_traitsIxS2_S4_NS_33tree_order_statistics_node_updateENS_11rb_tree_tagESaIcEEES8_E12rotate_rightEPNS0_13rb_tree_node_IxmS8_EE, symObjAddr: 0x1AD4, symBinAddr: 0x100002D54, symSize: 0x118 }
  - { offsetInCU: 0x2E34A, offset: 0x2E34A, size: 0x8, addend: 0x0, symName: __ZNSt4pairIN10__gnu_pbds6detail25bin_search_tree_const_it_IPNS1_13rb_tree_node_IxmSaIcEEExPxPKxRxRS8_Lb1ES4_EEbEC1IS6_bEEOS_IT_T0_E, symObjAddr: 0x1964, symBinAddr: 0x100002BE4, symSize: 0x58 }
  - { offsetInCU: 0x2E352, offset: 0x2E352, size: 0x8, addend: 0x0, symName: __ZN10__gnu_pbds6detail19bin_search_tree_setIxNS_9null_typeESt4lessIxENS0_11tree_traitsIxS2_S4_NS_33tree_order_statistics_node_updateENS_11rb_tree_tagESaIcEEES8_E11rotate_leftEPNS0_13rb_tree_node_IxmS8_EE, symObjAddr: 0x19BC, symBinAddr: 0x100002C3C, symSize: 0x118 }
  - { offsetInCU: 0x2E43A, offset: 0x2E43A, size: 0x8, addend: 0x0, symName: __ZSt9make_pairIRPN10__gnu_pbds6detail13rb_tree_node_IxmSaIcEEEbESt4pairINSt25__strip_reference_wrapperINSt5decayIT_E4typeEE6__typeENS8_INS9_IT0_E4typeEE6__typeEEOSA_OSF_, symObjAddr: 0x1918, symBinAddr: 0x100002B98, symSize: 0x4C }
  - { offsetInCU: 0x2E442, offset: 0x2E442, size: 0x8, addend: 0x0, symName: __ZNSt4pairIN10__gnu_pbds6detail25bin_search_tree_const_it_IPNS1_13rb_tree_node_IxmSaIcEEExPxPKxRxRS8_Lb1ES4_EEbEC1IS6_bEEOS_IT_T0_E, symObjAddr: 0x1964, symBinAddr: 0x100002BE4, symSize: 0x58 }
  - { offsetInCU: 0x2E38D, offset: 0x2E38D, size: 0x8, addend: 0x0, symName: __ZN10__gnu_pbds6detail19bin_search_tree_setIxNS_9null_typeESt4lessIxENS0_11tree_traitsIxS2_S4_NS_33tree_order_statistics_node_updateENS_11rb_tree_tagESaIcEEES8_E15insert_leaf_newERKxPNS0_13rb_tree_node_IxmS8_EEb, symObjAddr: 0x1820, symBinAddr: 0x100002AA0, symSize: 0xF8 }
  - { offsetInCU: 0x2E395, offset: 0x2E395, size: 0x8, addend: 0x0, symName: __ZSt9make_pairIRPN10__gnu_pbds6detail13rb_tree_node_IxmSaIcEEEbESt4pairINSt25__strip_reference_wrapperINSt5decayIT_E4typeEE6__typeENS8_INS9_IT0_E4typeEE6__typeEEOSA_OSF_, symObjAddr: 0x1918, symBinAddr: 0x100002B98, symSize: 0x4C }
  - { offsetInCU: 0x2E604, offset: 0x2E604, size: 0x8, addend: 0x0, symName: __ZSt9make_pairIN10__gnu_pbds6detail25bin_search_tree_const_it_IPNS1_13rb_tree_node_IxmSaIcEEExPxPKxRxRS8_Lb1ES4_EEbESt4pairINSt25__strip_reference_wrapperINSt5decayIT_E4typeEE6__typeENSE_INSF_IT0_E4typeEE6__typeEEOSG_OSL_, symObjAddr: 0x17D4, symBinAddr: 0x100002A54, symSize: 0x4C }
  - { offsetInCU: 0x2E60C, offset: 0x2E60C, size: 0x8, addend: 0x0, symName: __ZN10__gnu_pbds6detail19bin_search_tree_setIxNS_9null_typeESt4lessIxENS0_11tree_traitsIxS2_S4_NS_33tree_order_statistics_node_updateENS_11rb_tree_tagESaIcEEES8_E15insert_leaf_newERKxPNS0_13rb_tree_node_IxmS8_EEb, symObjAddr: 0x1820, symBinAddr: 0x100002AA0, symSize: 0xF8 }
  - { offsetInCU: 0x2E47D, offset: 0x2E47D, size: 0x8, addend: 0x0, symName: __ZN10__gnu_pbds6detail19bin_search_tree_setIxNS_9null_typeESt4lessIxENS0_11tree_traitsIxS2_S4_NS_33tree_order_statistics_node_updateENS_11rb_tree_tagESaIcEEES8_E16insert_imp_emptyERKx, symObjAddr: 0x1724, symBinAddr: 0x1000029A4, symSize: 0xB0 }
  - { offsetInCU: 0x2E485, offset: 0x2E485, size: 0x8, addend: 0x0, symName: __ZSt9make_pairIN10__gnu_pbds6detail25bin_search_tree_const_it_IPNS1_13rb_tree_node_IxmSaIcEEExPxPKxRxRS8_Lb1ES4_EEbESt4pairINSt25__strip_reference_wrapperINSt5decayIT_E4typeEE6__typeENSE_INSF_IT0_E4typeEE6__typeEEOSG_OSL_, symObjAddr: 0x17D4, symBinAddr: 0x100002A54, symSize: 0x4C }
  - { offsetInCU: 0x2E4D5, offset: 0x2E4D5, size: 0x8, addend: 0x0, symName: __ZN10__gnu_pbds6detail13rb_tree_node_IxmSaIcEE12get_metadataEv, symObjAddr: 0x170C, symBinAddr: 0x10000298C, symSize: 0x18 }
  - { offsetInCU: 0x2E4DD, offset: 0x2E4DD, size: 0x8, addend: 0x0, symName: __ZN10__gnu_pbds6detail19bin_search_tree_setIxNS_9null_typeESt4lessIxENS0_11tree_traitsIxS2_S4_NS_33tree_order_statistics_node_updateENS_11rb_tree_tagESaIcEEES8_E16insert_imp_emptyERKx, symObjAddr: 0x1724, symBinAddr: 0x1000029A4, symSize: 0xB0 }
  - { offsetInCU: 0x2E59D, offset: 0x2E59D, size: 0x8, addend: 0x0, symName: __ZN10__gnu_pbds6detail25bin_search_tree_const_it_IPNS0_13rb_tree_node_IxmSaIcEEExPxPKxRxRS7_Lb1ES3_EC1ES5_, symObjAddr: 0x16E8, symBinAddr: 0x100002968, symSize: 0x24 }
  - { offsetInCU: 0x2E5A5, offset: 0x2E5A5, size: 0x8, addend: 0x0, symName: __ZN10__gnu_pbds6detail13rb_tree_node_IxmSaIcEE12get_metadataEv, symObjAddr: 0x170C, symBinAddr: 0x10000298C, symSize: 0x18 }
  - { offsetInCU: 0x2E636, offset: 0x2E636, size: 0x8, addend: 0x0, symName: __ZN10__gnu_pbds6detail30bin_search_tree_const_node_it_INS0_13rb_tree_node_IxmSaIcEEENS0_25bin_search_tree_const_it_IPS4_xPxPKxRxRS8_Lb1ES3_EESC_S3_EC1ES6_, symObjAddr: 0x16C4, symBinAddr: 0x100002944, symSize: 0x24 }
  - { offsetInCU: 0x2E63E, offset: 0x2E63E, size: 0x8, addend: 0x0, symName: __ZN10__gnu_pbds6detail25bin_search_tree_const_it_IPNS0_13rb_tree_node_IxmSaIcEEExPxPKxRxRS7_Lb1ES3_EC1ES5_, symObjAddr: 0x16E8, symBinAddr: 0x100002968, symSize: 0x24 }
  - { offsetInCU: 0x2E6A8, offset: 0x2E6A8, size: 0x8, addend: 0x0, symName: __ZN10__gnu_pbds6detail19bin_search_tree_setIxNS_9null_typeESt4lessIxENS0_11tree_traitsIxS2_S4_NS_33tree_order_statistics_node_updateENS_11rb_tree_tagESaIcEEES8_ED0Ev, symObjAddr: 0x169C, symBinAddr: 0x10000291C, symSize: 0x28 }
  - { offsetInCU: 0x2E6B0, offset: 0x2E6B0, size: 0x8, addend: 0x0, symName: __ZN10__gnu_pbds6detail30bin_search_tree_const_node_it_INS0_13rb_tree_node_IxmSaIcEEENS0_25bin_search_tree_const_it_IPS4_xPxPKxRxRS8_Lb1ES3_EESC_S3_EC1ES6_, symObjAddr: 0x16C4, symBinAddr: 0x100002944, symSize: 0x24 }
  - { offsetInCU: 0x2E6D8, offset: 0x2E6D8, size: 0x8, addend: 0x0, symName: __ZN10__gnu_pbds6detail19bin_search_tree_setIxNS_9null_typeESt4lessIxENS0_11tree_traitsIxS2_S4_NS_33tree_order_statistics_node_updateENS_11rb_tree_tagESaIcEEES8_ED1Ev, symObjAddr: 0x1618, symBinAddr: 0x100002898, symSize: 0x84 }
  - { offsetInCU: 0x2E6E0, offset: 0x2E6E0, size: 0x8, addend: 0x0, symName: __ZN10__gnu_pbds6detail19bin_search_tree_setIxNS_9null_typeESt4lessIxENS0_11tree_traitsIxS2_S4_NS_33tree_order_statistics_node_updateENS_11rb_tree_tagESaIcEEES8_ED0Ev, symObjAddr: 0x169C, symBinAddr: 0x10000291C, symSize: 0x28 }
  - { offsetInCU: 0x2E747, offset: 0x2E747, size: 0x8, addend: 0x0, symName: __ZN10__gnu_pbds6detail19bin_search_tree_setIxNS_9null_typeESt4lessIxENS0_11tree_traitsIxS2_S4_NS_33tree_order_statistics_node_updateENS_11rb_tree_tagESaIcEEES8_ED2Ev, symObjAddr: 0x1594, symBinAddr: 0x100002814, symSize: 0x84 }
  - { offsetInCU: 0x2E74F, offset: 0x2E74F, size: 0x8, addend: 0x0, symName: __ZN10__gnu_pbds6detail19bin_search_tree_setIxNS_9null_typeESt4lessIxENS0_11tree_traitsIxS2_S4_NS_33tree_order_statistics_node_updateENS_11rb_tree_tagESaIcEEES8_ED1Ev, symObjAddr: 0x1618, symBinAddr: 0x100002898, symSize: 0x84 }
  - { offsetInCU: 0x2E7C9, offset: 0x2E7C9, size: 0x8, addend: 0x0, symName: __ZN10__gnu_pbds6detail11rb_tree_setIxNS_9null_typeESt4lessIxENS0_11tree_traitsIxS2_S4_NS_33tree_order_statistics_node_updateENS_11rb_tree_tagESaIcEEES8_EC2Ev, symObjAddr: 0x1558, symBinAddr: 0x1000027D8, symSize: 0x3C }
  - { offsetInCU: 0x2E7D1, offset: 0x2E7D1, size: 0x8, addend: 0x0, symName: __ZN10__gnu_pbds6detail19bin_search_tree_setIxNS_9null_typeESt4lessIxENS0_11tree_traitsIxS2_S4_NS_33tree_order_statistics_node_updateENS_11rb_tree_tagESaIcEEES8_ED2Ev, symObjAddr: 0x1594, symBinAddr: 0x100002814, symSize: 0x84 }
  - { offsetInCU: 0x2E89C, offset: 0x2E89C, size: 0x8, addend: 0x0, symName: __ZSt22__final_insertion_sortIN9__gnu_cxx17__normal_iteratorIPSt4pairIxxESt6vectorIS3_SaIS3_EEEENS0_5__ops15_Iter_less_iterEEvT_SB_T0_, symObjAddr: 0x14BC, symBinAddr: 0x10000273C, symSize: 0x9C }
  - { offsetInCU: 0x2E8A4, offset: 0x2E8A4, size: 0x8, addend: 0x0, symName: __ZN10__gnu_pbds6detail11rb_tree_setIxNS_9null_typeESt4lessIxENS0_11tree_traitsIxS2_S4_NS_33tree_order_statistics_node_updateENS_11rb_tree_tagESaIcEEES8_EC2Ev, symObjAddr: 0x1558, symBinAddr: 0x1000027D8, symSize: 0x3C }
  - { offsetInCU: 0x2E91B, offset: 0x2E91B, size: 0x8, addend: 0x0, symName: __ZSt16__introsort_loopIN9__gnu_cxx17__normal_iteratorIPSt4pairIxxESt6vectorIS3_SaIS3_EEEElNS0_5__ops15_Iter_less_iterEEvT_SB_T0_T1_, symObjAddr: 0x1404, symBinAddr: 0x100002684, symSize: 0xB8 }
  - { offsetInCU: 0x2E923, offset: 0x2E923, size: 0x8, addend: 0x0, symName: __ZSt22__final_insertion_sortIN9__gnu_cxx17__normal_iteratorIPSt4pairIxxESt6vectorIS3_SaIS3_EEEENS0_5__ops15_Iter_less_iterEEvT_SB_T0_, symObjAddr: 0x14BC, symBinAddr: 0x10000273C, symSize: 0x9C }
  - { offsetInCU: 0x2E8C4, offset: 0x2E8C4, size: 0x8, addend: 0x0, symName: __ZSt4__lgIlET_S0_, symObjAddr: 0x13E0, symBinAddr: 0x100002660, symSize: 0x24 }
  - { offsetInCU: 0x2E8CC, offset: 0x2E8CC, size: 0x8, addend: 0x0, symName: __ZSt16__introsort_loopIN9__gnu_cxx17__normal_iteratorIPSt4pairIxxESt6vectorIS3_SaIS3_EEEElNS0_5__ops15_Iter_less_iterEEvT_SB_T0_T1_, symObjAddr: 0x1404, symBinAddr: 0x100002684, symSize: 0xB8 }
  - { offsetInCU: 0x2E941, offset: 0x2E941, size: 0x8, addend: 0x0, symName: __ZSt8_DestroyIPSt4pairIxxEEvT_S3_, symObjAddr: 0x1398, symBinAddr: 0x100002618, symSize: 0x48 }
  - { offsetInCU: 0x2E949, offset: 0x2E949, size: 0x8, addend: 0x0, symName: __ZSt4__lgIlET_S0_, symObjAddr: 0x13E0, symBinAddr: 0x100002660, symSize: 0x24 }
  - { offsetInCU: 0x2EA10, offset: 0x2EA10, size: 0x8, addend: 0x0, symName: __ZSt27__uninitialized_default_n_aIPSt4pairIxxEmS1_ET_S3_T0_RSaIT1_E, symObjAddr: 0x1370, symBinAddr: 0x1000025F0, symSize: 0x28 }
  - { offsetInCU: 0x2EA18, offset: 0x2EA18, size: 0x8, addend: 0x0, symName: __ZSt8_DestroyIPSt4pairIxxEEvT_S3_, symObjAddr: 0x1398, symBinAddr: 0x100002618, symSize: 0x48 }
  - { offsetInCU: 0x2E9CE, offset: 0x2E9CE, size: 0x8, addend: 0x0, symName: __ZNSt12_Vector_baseISt4pairIxxESaIS1_EE13_M_deallocateEPS1_m, symObjAddr: 0x12E0, symBinAddr: 0x100002560, symSize: 0x90 }
  - { offsetInCU: 0x2E9D6, offset: 0x2E9D6, size: 0x8, addend: 0x0, symName: __ZSt27__uninitialized_default_n_aIPSt4pairIxxEmS1_ET_S3_T0_RSaIT1_E, symObjAddr: 0x1370, symBinAddr: 0x1000025F0, symSize: 0x28 }
  - { offsetInCU: 0x2EAAE, offset: 0x2EAAE, size: 0x8, addend: 0x0, symName: __ZNSt12_Vector_baseISt4pairIxxESaIS1_EE17_M_create_storageEm, symObjAddr: 0x1280, symBinAddr: 0x100002500, symSize: 0x60 }
  - { offsetInCU: 0x2EAB6, offset: 0x2EAB6, size: 0x8, addend: 0x0, symName: __ZNSt12_Vector_baseISt4pairIxxESaIS1_EE13_M_deallocateEPS1_m, symObjAddr: 0x12E0, symBinAddr: 0x100002560, symSize: 0x90 }
  - { offsetInCU: 0x2EB5E, offset: 0x2EB5E, size: 0x8, addend: 0x0, symName: __ZNSt12_Vector_baseISt4pairIxxESaIS1_EE12_Vector_implC1ERKS2_, symObjAddr: 0x1234, symBinAddr: 0x1000024B4, symSize: 0x4C }
  - { offsetInCU: 0x2EB66, offset: 0x2EB66, size: 0x8, addend: 0x0, symName: __ZNSt12_Vector_baseISt4pairIxxESaIS1_EE17_M_create_storageEm, symObjAddr: 0x1280, symBinAddr: 0x100002500, symSize: 0x60 }
  - { offsetInCU: 0x2EBF3, offset: 0x2EBF3, size: 0x8, addend: 0x0, symName: __ZNSt6vectorISt4pairIxxESaIS1_EE11_S_max_sizeERKS2_, symObjAddr: 0x11F8, symBinAddr: 0x100002478, symSize: 0x3C }
  - { offsetInCU: 0x2EBFB, offset: 0x2EBFB, size: 0x8, addend: 0x0, symName: __ZNSt12_Vector_baseISt4pairIxxESaIS1_EE12_Vector_implC1ERKS2_, symObjAddr: 0x1234, symBinAddr: 0x1000024B4, symSize: 0x4C }
  - { offsetInCU: 0x2ECD1, offset: 0x2ECD1, size: 0x8, addend: 0x0, symName: __ZSt11__bit_widthImEiT_, symObjAddr: 0x11C8, symBinAddr: 0x100002448, symSize: 0x30 }
  - { offsetInCU: 0x2ECD9, offset: 0x2ECD9, size: 0x8, addend: 0x0, symName: __ZNSt6vectorISt4pairIxxESaIS1_EE11_S_max_sizeERKS2_, symObjAddr: 0x11F8, symBinAddr: 0x100002478, symSize: 0x3C }
  - { offsetInCU: 0x2ECF7, offset: 0x2ECF7, size: 0x8, addend: 0x0, symName: __ZN10__gnu_pbds6detail11rb_tree_setIxNS_9null_typeESt4lessIxENS0_11tree_traitsIxS2_S4_NS_33tree_order_statistics_node_updateENS_11rb_tree_tagESaIcEEES8_E12insert_fixupEPNS0_13rb_tree_node_IxmS8_EE, symObjAddr: 0xF78, symBinAddr: 0x1000021F8, symSize: 0x250 }
  - { offsetInCU: 0x2ECFF, offset: 0x2ECFF, size: 0x8, addend: 0x0, symName: __ZSt11__bit_widthImEiT_, symObjAddr: 0x11C8, symBinAddr: 0x100002448, symSize: 0x30 }
  - { offsetInCU: 0x2ED88, offset: 0x2ED88, size: 0x8, addend: 0x0, symName: __ZN10__gnu_pbds6detail19bin_search_tree_setIxNS_9null_typeESt4lessIxENS0_11tree_traitsIxS2_S4_NS_33tree_order_statistics_node_updateENS_11rb_tree_tagESaIcEEES8_E11insert_leafERKx, symObjAddr: 0xD68, symBinAddr: 0x100001FE8, symSize: 0x210 }
  - { offsetInCU: 0x2ED90, offset: 0x2ED90, size: 0x8, addend: 0x0, symName: __ZN10__gnu_pbds6detail11rb_tree_setIxNS_9null_typeESt4lessIxENS0_11tree_traitsIxS2_S4_NS_33tree_order_statistics_node_updateENS_11rb_tree_tagESaIcEEES8_E12insert_fixupEPNS0_13rb_tree_node_IxmS8_EE, symObjAddr: 0xF78, symBinAddr: 0x1000021F8, symSize: 0x250 }
  - { offsetInCU: 0x2EDF6, offset: 0x2EDF6, size: 0x8, addend: 0x0, symName: __ZNK10__gnu_pbds6detail30bin_search_tree_const_node_it_INS0_13rb_tree_node_IxmSaIcEEENS0_25bin_search_tree_const_it_IPS4_xPxPKxRxRS8_Lb1ES3_EESC_S3_E11get_r_childEv, symObjAddr: 0xD3C, symBinAddr: 0x100001FBC, symSize: 0x2C }
  - { offsetInCU: 0x2EDFE, offset: 0x2EDFE, size: 0x8, addend: 0x0, symName: __ZN10__gnu_pbds6detail19bin_search_tree_setIxNS_9null_typeESt4lessIxENS0_11tree_traitsIxS2_S4_NS_33tree_order_statistics_node_updateENS_11rb_tree_tagESaIcEEES8_E11insert_leafERKx, symObjAddr: 0xD68, symBinAddr: 0x100001FE8, symSize: 0x210 }
  - { offsetInCU: 0x2EE27, offset: 0x2EE27, size: 0x8, addend: 0x0, symName: __ZNK10__gnu_pbds6detail30bin_search_tree_const_node_it_INS0_13rb_tree_node_IxmSaIcEEENS0_25bin_search_tree_const_it_IPS4_xPxPKxRxRS8_Lb1ES3_EESC_S3_E12get_metadataEv, symObjAddr: 0xD1C, symBinAddr: 0x100001F9C, symSize: 0x20 }
  - { offsetInCU: 0x2EE2F, offset: 0x2EE2F, size: 0x8, addend: 0x0, symName: __ZNK10__gnu_pbds6detail30bin_search_tree_const_node_it_INS0_13rb_tree_node_IxmSaIcEEENS0_25bin_search_tree_const_it_IPS4_xPxPKxRxRS8_Lb1ES3_EESC_S3_E11get_r_childEv, symObjAddr: 0xD3C, symBinAddr: 0x100001FBC, symSize: 0x2C }
  - { offsetInCU: 0x2EE58, offset: 0x2EE58, size: 0x8, addend: 0x0, symName: __ZNK10__gnu_pbds6detail30bin_search_tree_const_node_it_INS0_13rb_tree_node_IxmSaIcEEENS0_25bin_search_tree_const_it_IPS4_xPxPKxRxRS8_Lb1ES3_EESC_S3_EeqERKSD_, symObjAddr: 0xCEC, symBinAddr: 0x100001F6C, symSize: 0x30 }
  - { offsetInCU: 0x2EE60, offset: 0x2EE60, size: 0x8, addend: 0x0, symName: __ZNK10__gnu_pbds6detail30bin_search_tree_const_node_it_INS0_13rb_tree_node_IxmSaIcEEENS0_25bin_search_tree_const_it_IPS4_xPxPKxRxRS8_Lb1ES3_EESC_S3_E12get_metadataEv, symObjAddr: 0xD1C, symBinAddr: 0x100001F9C, symSize: 0x20 }
  - { offsetInCU: 0x2EE9D, offset: 0x2EE9D, size: 0x8, addend: 0x0, symName: __ZNKSt4lessIxEclERKxS2_, symObjAddr: 0xCB8, symBinAddr: 0x100001F38, symSize: 0x34 }
  - { offsetInCU: 0x2EEA5, offset: 0x2EEA5, size: 0x8, addend: 0x0, symName: __ZNK10__gnu_pbds6detail30bin_search_tree_const_node_it_INS0_13rb_tree_node_IxmSaIcEEENS0_25bin_search_tree_const_it_IPS4_xPxPKxRxRS8_Lb1ES3_EESC_S3_EeqERKSD_, symObjAddr: 0xCEC, symBinAddr: 0x100001F6C, symSize: 0x30 }
  - { offsetInCU: 0x2EEF8, offset: 0x2EEF8, size: 0x8, addend: 0x0, symName: __ZN10__gnu_pbds6detail13branch_policyINS0_30bin_search_tree_const_node_it_INS0_13rb_tree_node_IxmSaIcEEENS0_25bin_search_tree_const_it_IPS5_xPxPKxRxRS9_Lb1ES4_EESD_S4_EESE_S4_E11extract_keyESC_, symObjAddr: 0xCA4, symBinAddr: 0x100001F24, symSize: 0x14 }
  - { offsetInCU: 0x2EF00, offset: 0x2EF00, size: 0x8, addend: 0x0, symName: __ZNKSt4lessIxEclERKxS2_, symObjAddr: 0xCB8, symBinAddr: 0x100001F38, symSize: 0x34 }
  - { offsetInCU: 0x2EF2B, offset: 0x2EF2B, size: 0x8, addend: 0x0, symName: __ZNK10__gnu_pbds6detail25bin_search_tree_const_it_IPNS0_13rb_tree_node_IxmSaIcEEExPxPKxRxRS7_Lb1ES3_EdeEv, symObjAddr: 0xC88, symBinAddr: 0x100001F08, symSize: 0x1C }
  - { offsetInCU: 0x2EF33, offset: 0x2EF33, size: 0x8, addend: 0x0, symName: __ZN10__gnu_pbds6detail13branch_policyINS0_30bin_search_tree_const_node_it_INS0_13rb_tree_node_IxmSaIcEEENS0_25bin_search_tree_const_it_IPS5_xPxPKxRxRS9_Lb1ES4_EESD_S4_EESE_S4_E11extract_keyESC_, symObjAddr: 0xCA4, symBinAddr: 0x100001F24, symSize: 0x14 }
  - { offsetInCU: 0x2EF5C, offset: 0x2EF5C, size: 0x8, addend: 0x0, symName: __ZNK10__gnu_pbds6detail30bin_search_tree_const_node_it_INS0_13rb_tree_node_IxmSaIcEEENS0_25bin_search_tree_const_it_IPS4_xPxPKxRxRS8_Lb1ES3_EESC_S3_EdeEv, symObjAddr: 0xC60, symBinAddr: 0x100001EE0, symSize: 0x28 }
  - { offsetInCU: 0x2EF64, offset: 0x2EF64, size: 0x8, addend: 0x0, symName: __ZNK10__gnu_pbds6detail25bin_search_tree_const_it_IPNS0_13rb_tree_node_IxmSaIcEEExPxPKxRxRS7_Lb1ES3_EdeEv, symObjAddr: 0xC88, symBinAddr: 0x100001F08, symSize: 0x1C }
  - { offsetInCU: 0x2EF8D, offset: 0x2EF8D, size: 0x8, addend: 0x0, symName: __ZNK10__gnu_pbds6detail30bin_search_tree_const_node_it_INS0_13rb_tree_node_IxmSaIcEEENS0_25bin_search_tree_const_it_IPS4_xPxPKxRxRS8_Lb1ES3_EESC_S3_E11get_l_childEv, symObjAddr: 0xC34, symBinAddr: 0x100001EB4, symSize: 0x2C }
  - { offsetInCU: 0x2EF95, offset: 0x2EF95, size: 0x8, addend: 0x0, symName: __ZNK10__gnu_pbds6detail30bin_search_tree_const_node_it_INS0_13rb_tree_node_IxmSaIcEEENS0_25bin_search_tree_const_it_IPS4_xPxPKxRxRS8_Lb1ES3_EESC_S3_EdeEv, symObjAddr: 0xC60, symBinAddr: 0x100001EE0, symSize: 0x28 }
  - { offsetInCU: 0x2EFBE, offset: 0x2EFBE, size: 0x8, addend: 0x0, symName: __ZNK10__gnu_pbds6detail30bin_search_tree_const_node_it_INS0_13rb_tree_node_IxmSaIcEEENS0_25bin_search_tree_const_it_IPS4_xPxPKxRxRS8_Lb1ES3_EESC_S3_EneERKSD_, symObjAddr: 0xC04, symBinAddr: 0x100001E84, symSize: 0x30 }
  - { offsetInCU: 0x2EFC6, offset: 0x2EFC6, size: 0x8, addend: 0x0, symName: __ZNK10__gnu_pbds6detail30bin_search_tree_const_node_it_INS0_13rb_tree_node_IxmSaIcEEENS0_25bin_search_tree_const_it_IPS4_xPxPKxRxRS8_Lb1ES3_EESC_S3_E11get_l_childEv, symObjAddr: 0xC34, symBinAddr: 0x100001EB4, symSize: 0x2C }
  - { offsetInCU: 0x2F19C, offset: 0x2F19C, size: 0x8, addend: 0x0, symName: __ZN10__gnu_pbds12basic_branchIxNS_9null_typeENS_11rb_tree_tagENS_33tree_order_statistics_node_updateINS_6detail30bin_search_tree_const_node_it_INS4_13rb_tree_node_IxmSaIcEEENS4_25bin_search_tree_const_it_IPS8_xPxPKxRxRSC_Lb1ES7_EESG_S7_EESH_St4lessIxES7_EEN9__gnu_cxx8typelist4nodeINSM_5chainISJ_NSO_INS4_11tree_traitsIxS1_SJ_S3_S2_S7_EENSM_9null_typeEEEEEEES7_ED0Ev, symObjAddr: 0xBDC, symBinAddr: 0x100001E5C, symSize: 0x28 }
  - { offsetInCU: 0x2F1A4, offset: 0x2F1A4, size: 0x8, addend: 0x0, symName: __ZNK10__gnu_pbds6detail30bin_search_tree_const_node_it_INS0_13rb_tree_node_IxmSaIcEEENS0_25bin_search_tree_const_it_IPS4_xPxPKxRxRS8_Lb1ES3_EESC_S3_EneERKSD_, symObjAddr: 0xC04, symBinAddr: 0x100001E84, symSize: 0x30 }
  - { offsetInCU: 0x2F1CC, offset: 0x2F1CC, size: 0x8, addend: 0x0, symName: __ZN10__gnu_pbds12basic_branchIxNS_9null_typeENS_11rb_tree_tagENS_33tree_order_statistics_node_updateINS_6detail30bin_search_tree_const_node_it_INS4_13rb_tree_node_IxmSaIcEEENS4_25bin_search_tree_const_it_IPS8_xPxPKxRxRSC_Lb1ES7_EESG_S7_EESH_St4lessIxES7_EEN9__gnu_cxx8typelist4nodeINSM_5chainISJ_NSO_INS4_11tree_traitsIxS1_SJ_S3_S2_S7_EENSM_9null_typeEEEEEEES7_ED1Ev, symObjAddr: 0xBA8, symBinAddr: 0x100001E28, symSize: 0x34 }
  - { offsetInCU: 0x2F1D4, offset: 0x2F1D4, size: 0x8, addend: 0x0, symName: __ZN10__gnu_pbds12basic_branchIxNS_9null_typeENS_11rb_tree_tagENS_33tree_order_statistics_node_updateINS_6detail30bin_search_tree_const_node_it_INS4_13rb_tree_node_IxmSaIcEEENS4_25bin_search_tree_const_it_IPS8_xPxPKxRxRSC_Lb1ES7_EESG_S7_EESH_St4lessIxES7_EEN9__gnu_cxx8typelist4nodeINSM_5chainISJ_NSO_INS4_11tree_traitsIxS1_SJ_S3_S2_S7_EENSM_9null_typeEEEEEEES7_ED0Ev, symObjAddr: 0xBDC, symBinAddr: 0x100001E5C, symSize: 0x28 }
  - { offsetInCU: 0x2F1FC, offset: 0x2F1FC, size: 0x8, addend: 0x0, symName: __ZN10__gnu_pbds12basic_branchIxNS_9null_typeENS_11rb_tree_tagENS_33tree_order_statistics_node_updateINS_6detail30bin_search_tree_const_node_it_INS4_13rb_tree_node_IxmSaIcEEENS4_25bin_search_tree_const_it_IPS8_xPxPKxRxRSC_Lb1ES7_EESG_S7_EESH_St4lessIxES7_EEN9__gnu_cxx8typelist4nodeINSM_5chainISJ_NSO_INS4_11tree_traitsIxS1_SJ_S3_S2_S7_EENSM_9null_typeEEEEEEES7_ED2Ev, symObjAddr: 0xB74, symBinAddr: 0x100001DF4, symSize: 0x34 }
  - { offsetInCU: 0x2F204, offset: 0x2F204, size: 0x8, addend: 0x0, symName: __ZN10__gnu_pbds12basic_branchIxNS_9null_typeENS_11rb_tree_tagENS_33tree_order_statistics_node_updateINS_6detail30bin_search_tree_const_node_it_INS4_13rb_tree_node_IxmSaIcEEENS4_25bin_search_tree_const_it_IPS8_xPxPKxRxRSC_Lb1ES7_EESG_S7_EESH_St4lessIxES7_EEN9__gnu_cxx8typelist4nodeINSM_5chainISJ_NSO_INS4_11tree_traitsIxS1_SJ_S3_S2_S7_EENSM_9null_typeEEEEEEES7_ED1Ev, symObjAddr: 0xBA8, symBinAddr: 0x100001E28, symSize: 0x34 }
  - { offsetInCU: 0x2F247, offset: 0x2F247, size: 0x8, addend: 0x0, symName: __ZN10__gnu_pbds12basic_branchIxNS_9null_typeENS_11rb_tree_tagENS_33tree_order_statistics_node_updateINS_6detail30bin_search_tree_const_node_it_INS4_13rb_tree_node_IxmSaIcEEENS4_25bin_search_tree_const_it_IPS8_xPxPKxRxRSC_Lb1ES7_EESG_S7_EESH_St4lessIxES7_EEN9__gnu_cxx8typelist4nodeINSM_5chainISJ_NSO_INS4_11tree_traitsIxS1_SJ_S3_S2_S7_EENSM_9null_typeEEEEEEES7_EC2Ev, symObjAddr: 0xB40, symBinAddr: 0x100001DC0, symSize: 0x34 }
  - { offsetInCU: 0x2F24F, offset: 0x2F24F, size: 0x8, addend: 0x0, symName: __ZN10__gnu_pbds12basic_branchIxNS_9null_typeENS_11rb_tree_tagENS_33tree_order_statistics_node_updateINS_6detail30bin_search_tree_const_node_it_INS4_13rb_tree_node_IxmSaIcEEENS4_25bin_search_tree_const_it_IPS8_xPxPKxRxRSC_Lb1ES7_EESG_S7_EESH_St4lessIxES7_EEN9__gnu_cxx8typelist4nodeINSM_5chainISJ_NSO_INS4_11tree_traitsIxS1_SJ_S3_S2_S7_EENSM_9null_typeEEEEEEES7_ED2Ev, symObjAddr: 0xB74, symBinAddr: 0x100001DF4, symSize: 0x34 }
  - { offsetInCU: 0x2F1D3, offset: 0x2F1D3, size: 0x8, addend: 0x0, symName: __ZN10__gnu_pbds6detail11rb_tree_setIxNS_9null_typeESt4lessIxENS0_11tree_traitsIxS2_S4_NS_33tree_order_statistics_node_updateENS_11rb_tree_tagESaIcEEES8_ED0Ev, symObjAddr: 0xB18, symBinAddr: 0x100001D98, symSize: 0x28 }
  - { offsetInCU: 0x2F1DB, offset: 0x2F1DB, size: 0x8, addend: 0x0, symName: __ZN10__gnu_pbds12basic_branchIxNS_9null_typeENS_11rb_tree_tagENS_33tree_order_statistics_node_updateINS_6detail30bin_search_tree_const_node_it_INS4_13rb_tree_node_IxmSaIcEEENS4_25bin_search_tree_const_it_IPS8_xPxPKxRxRSC_Lb1ES7_EESG_S7_EESH_St4lessIxES7_EEN9__gnu_cxx8typelist4nodeINSM_5chainISJ_NSO_INS4_11tree_traitsIxS1_SJ_S3_S2_S7_EENSM_9null_typeEEEEEEES7_EC2Ev, symObjAddr: 0xB40, symBinAddr: 0x100001DC0, symSize: 0x34 }
  - { offsetInCU: 0x2F203, offset: 0x2F203, size: 0x8, addend: 0x0, symName: __ZN10__gnu_pbds6detail11rb_tree_setIxNS_9null_typeESt4lessIxENS0_11tree_traitsIxS2_S4_NS_33tree_order_statistics_node_updateENS_11rb_tree_tagESaIcEEES8_ED1Ev, symObjAddr: 0xAE4, symBinAddr: 0x100001D64, symSize: 0x34 }
  - { offsetInCU: 0x2F20B, offset: 0x2F20B, size: 0x8, addend: 0x0, symName: __ZN10__gnu_pbds6detail11rb_tree_setIxNS_9null_typeESt4lessIxENS0_11tree_traitsIxS2_S4_NS_33tree_order_statistics_node_updateENS_11rb_tree_tagESaIcEEES8_ED0Ev, symObjAddr: 0xB18, symBinAddr: 0x100001D98, symSize: 0x28 }
  - { offsetInCU: 0x2F233, offset: 0x2F233, size: 0x8, addend: 0x0, symName: __ZN10__gnu_pbds6detail11rb_tree_setIxNS_9null_typeESt4lessIxENS0_11tree_traitsIxS2_S4_NS_33tree_order_statistics_node_updateENS_11rb_tree_tagESaIcEEES8_ED2Ev, symObjAddr: 0xAB0, symBinAddr: 0x100001D30, symSize: 0x34 }
  - { offsetInCU: 0x2F23B, offset: 0x2F23B, size: 0x8, addend: 0x0, symName: __ZN10__gnu_pbds6detail11rb_tree_setIxNS_9null_typeESt4lessIxENS0_11tree_traitsIxS2_S4_NS_33tree_order_statistics_node_updateENS_11rb_tree_tagESaIcEEES8_ED1Ev, symObjAddr: 0xAE4, symBinAddr: 0x100001D64, symSize: 0x34 }
  - { offsetInCU: 0x2F2E5, offset: 0x2F2E5, size: 0x8, addend: 0x0, symName: __ZSt6__sortIN9__gnu_cxx17__normal_iteratorIPSt4pairIxxESt6vectorIS3_SaIS3_EEEENS0_5__ops15_Iter_less_iterEEvT_SB_T0_, symObjAddr: 0xA2C, symBinAddr: 0x100001CAC, symSize: 0x84 }
  - { offsetInCU: 0x2F2ED, offset: 0x2F2ED, size: 0x8, addend: 0x0, symName: __ZN10__gnu_pbds6detail11rb_tree_setIxNS_9null_typeESt4lessIxENS0_11tree_traitsIxS2_S4_NS_33tree_order_statistics_node_updateENS_11rb_tree_tagESaIcEEES8_ED2Ev, symObjAddr: 0xAB0, symBinAddr: 0x100001D30, symSize: 0x34 }
  - { offsetInCU: 0x2F31E, offset: 0x2F31E, size: 0x8, addend: 0x0, symName: __ZN9__gnu_cxxmiIPSt4pairIxxESt6vectorIS2_SaIS2_EEEENS_17__normal_iteratorIT_T0_E15difference_typeERKSA_SD_, symObjAddr: 0x9EC, symBinAddr: 0x100001C6C, symSize: 0x40 }
  - { offsetInCU: 0x2F326, offset: 0x2F326, size: 0x8, addend: 0x0, symName: __ZSt6__sortIN9__gnu_cxx17__normal_iteratorIPSt4pairIxxESt6vectorIS3_SaIS3_EEEENS0_5__ops15_Iter_less_iterEEvT_SB_T0_, symObjAddr: 0xA2C, symBinAddr: 0x100001CAC, symSize: 0x84 }
  - { offsetInCU: 0x2F32B, offset: 0x2F32B, size: 0x8, addend: 0x0, symName: __ZN9__gnu_cxx17__normal_iteratorIPSt4pairIxxESt6vectorIS2_SaIS2_EEEC1ERKS3_, symObjAddr: 0x9C4, symBinAddr: 0x100001C44, symSize: 0x28 }
  - { offsetInCU: 0x2F333, offset: 0x2F333, size: 0x8, addend: 0x0, symName: __ZN9__gnu_cxxmiIPSt4pairIxxESt6vectorIS2_SaIS2_EEEENS_17__normal_iteratorIT_T0_E15difference_typeERKSA_SD_, symObjAddr: 0x9EC, symBinAddr: 0x100001C6C, symSize: 0x40 }
  - { offsetInCU: 0x2F374, offset: 0x2F374, size: 0x8, addend: 0x0, symName: __ZNSt12_Vector_baseISt4pairIxxESaIS1_EE19_M_get_Tp_allocatorEv, symObjAddr: 0x9B0, symBinAddr: 0x100001C30, symSize: 0x14 }
  - { offsetInCU: 0x2F37C, offset: 0x2F37C, size: 0x8, addend: 0x0, symName: __ZN9__gnu_cxx17__normal_iteratorIPSt4pairIxxESt6vectorIS2_SaIS2_EEEC1ERKS3_, symObjAddr: 0x9C4, symBinAddr: 0x100001C44, symSize: 0x28 }
  - { offsetInCU: 0x2F3A5, offset: 0x2F3A5, size: 0x8, addend: 0x0, symName: __ZNSt6vectorISt4pairIxxESaIS1_EE21_M_default_initializeEm, symObjAddr: 0x960, symBinAddr: 0x100001BE0, symSize: 0x50 }
  - { offsetInCU: 0x2F3AD, offset: 0x2F3AD, size: 0x8, addend: 0x0, symName: __ZNSt12_Vector_baseISt4pairIxxESaIS1_EE19_M_get_Tp_allocatorEv, symObjAddr: 0x9B0, symBinAddr: 0x100001C30, symSize: 0x14 }
  - { offsetInCU: 0x2F441, offset: 0x2F441, size: 0x8, addend: 0x0, symName: __ZNSt12_Vector_baseISt4pairIxxESaIS1_EED2Ev, symObjAddr: 0x910, symBinAddr: 0x100001B90, symSize: 0x50 }
  - { offsetInCU: 0x2F449, offset: 0x2F449, size: 0x8, addend: 0x0, symName: __ZNSt6vectorISt4pairIxxESaIS1_EE21_M_default_initializeEm, symObjAddr: 0x960, symBinAddr: 0x100001BE0, symSize: 0x50 }
  - { offsetInCU: 0x2F4B5, offset: 0x2F4B5, size: 0x8, addend: 0x0, symName: __ZNSt12_Vector_baseISt4pairIxxESaIS1_EEC2EmRKS2_, symObjAddr: 0x8BC, symBinAddr: 0x100001B3C, symSize: 0x54 }
  - { offsetInCU: 0x2F4BD, offset: 0x2F4BD, size: 0x8, addend: 0x0, symName: __ZNSt12_Vector_baseISt4pairIxxESaIS1_EED2Ev, symObjAddr: 0x910, symBinAddr: 0x100001B90, symSize: 0x50 }
  - { offsetInCU: 0x2F535, offset: 0x2F535, size: 0x8, addend: 0x0, symName: __ZNSt12_Vector_baseISt4pairIxxESaIS1_EE12_Vector_implD1Ev, symObjAddr: 0x89C, symBinAddr: 0x100001B1C, symSize: 0x20 }
  - { offsetInCU: 0x2F53D, offset: 0x2F53D, size: 0x8, addend: 0x0, symName: __ZNSt12_Vector_baseISt4pairIxxESaIS1_EEC2EmRKS2_, symObjAddr: 0x8BC, symBinAddr: 0x100001B3C, symSize: 0x54 }
  - { offsetInCU: 0x2F553, offset: 0x2F553, size: 0x8, addend: 0x0, symName: __ZNSt6vectorISt4pairIxxESaIS1_EE17_S_check_init_lenEmRKS2_, symObjAddr: 0x828, symBinAddr: 0x100001AA8, symSize: 0x74 }
  - { offsetInCU: 0x2F55B, offset: 0x2F55B, size: 0x8, addend: 0x0, symName: __ZNSt12_Vector_baseISt4pairIxxESaIS1_EE12_Vector_implD1Ev, symObjAddr: 0x89C, symBinAddr: 0x100001B1C, symSize: 0x20 }
  - { offsetInCU: 0x2F689, offset: 0x2F689, size: 0x8, addend: 0x0, symName: __ZSt7forwardIbEOT_RNSt16remove_referenceIS0_E4typeE, symObjAddr: 0x814, symBinAddr: 0x100001A94, symSize: 0x14 }
  - { offsetInCU: 0x2F691, offset: 0x2F691, size: 0x8, addend: 0x0, symName: __ZNSt6vectorISt4pairIxxESaIS1_EE17_S_check_init_lenEmRKS2_, symObjAddr: 0x828, symBinAddr: 0x100001AA8, symSize: 0x74 }
  - { offsetInCU: 0x2F699, offset: 0x2F699, size: 0x8, addend: 0x0, symName: __ZN10__gnu_pbds6detail11rb_tree_setIxNS_9null_typeESt4lessIxENS0_11tree_traitsIxS2_S4_NS_33tree_order_statistics_node_updateENS_11rb_tree_tagESaIcEEES8_E6insertERKx, symObjAddr: 0x7C0, symBinAddr: 0x100001A40, symSize: 0x54 }
  - { offsetInCU: 0x2F6A1, offset: 0x2F6A1, size: 0x8, addend: 0x0, symName: __ZSt7forwardIbEOT_RNSt16remove_referenceIS0_E4typeE, symObjAddr: 0x814, symBinAddr: 0x100001A94, symSize: 0x14 }
  - { offsetInCU: 0x2F6F1, offset: 0x2F6F1, size: 0x8, addend: 0x0, symName: __ZNK10__gnu_pbds33tree_order_statistics_node_updateINS_6detail30bin_search_tree_const_node_it_INS1_13rb_tree_node_IxmSaIcEEENS1_25bin_search_tree_const_it_IPS5_xPxPKxRxRS9_Lb1ES4_EESD_S4_EESE_St4lessIxES4_E12order_of_keyESC_, symObjAddr: 0x610, symBinAddr: 0x100001890, symSize: 0x1B0 }
  - { offsetInCU: 0x2F6F9, offset: 0x2F6F9, size: 0x8, addend: 0x0, symName: __ZN10__gnu_pbds6detail11rb_tree_setIxNS_9null_typeESt4lessIxENS0_11tree_traitsIxS2_S4_NS_33tree_order_statistics_node_updateENS_11rb_tree_tagESaIcEEES8_E6insertERKx, symObjAddr: 0x7C0, symBinAddr: 0x100001A40, symSize: 0x54 }
  - { offsetInCU: 0x2F7B4, offset: 0x2F7B4, size: 0x8, addend: 0x0, symName: __ZNK10__gnu_pbds6detail19bin_search_tree_setIxNS_9null_typeESt4lessIxENS0_11tree_traitsIxS2_S4_NS_33tree_order_statistics_node_updateENS_11rb_tree_tagESaIcEEES8_E4sizeEv, symObjAddr: 0x5F8, symBinAddr: 0x100001878, symSize: 0x18 }
  - { offsetInCU: 0x2F7BC, offset: 0x2F7BC, size: 0x8, addend: 0x0, symName: __ZNK10__gnu_pbds33tree_order_statistics_node_updateINS_6detail30bin_search_tree_const_node_it_INS1_13rb_tree_node_IxmSaIcEEENS1_25bin_search_tree_const_it_IPS5_xPxPKxRxRS9_Lb1ES4_EESD_S4_EESE_St4lessIxES4_E12order_of_keyESC_, symObjAddr: 0x610, symBinAddr: 0x100001890, symSize: 0x1B0 }
  - { offsetInCU: 0x2F84C, offset: 0x2F84C, size: 0x8, addend: 0x0, symName: __ZNSt4pairIxxEC1IxxEERS_IT_T0_E, symObjAddr: 0x5C0, symBinAddr: 0x100001840, symSize: 0x38 }
  - { offsetInCU: 0x2F854, offset: 0x2F854, size: 0x8, addend: 0x0, symName: __ZNK10__gnu_pbds6detail19bin_search_tree_setIxNS_9null_typeESt4lessIxENS0_11tree_traitsIxS2_S4_NS_33tree_order_statistics_node_updateENS_11rb_tree_tagESaIcEEES8_E4sizeEv, symObjAddr: 0x5F8, symBinAddr: 0x100001878, symSize: 0x18 }
  - { offsetInCU: 0x2F883, offset: 0x2F883, size: 0x8, addend: 0x0, symName: __ZN9__gnu_cxx17__normal_iteratorIPSt4pairIxxESt6vectorIS2_SaIS2_EEEppEv, symObjAddr: 0x598, symBinAddr: 0x100001818, symSize: 0x28 }
  - { offsetInCU: 0x2F88B, offset: 0x2F88B, size: 0x8, addend: 0x0, symName: __ZNSt4pairIxxEC1IxxEERS_IT_T0_E, symObjAddr: 0x5C0, symBinAddr: 0x100001840, symSize: 0x38 }
  - { offsetInCU: 0x2F94F, offset: 0x2F94F, size: 0x8, addend: 0x0, symName: __ZN10__gnu_pbds4treeIxNS_9null_typeESt4lessIxENS_11rb_tree_tagENS_33tree_order_statistics_node_updateESaIcEED0Ev, symObjAddr: 0x570, symBinAddr: 0x1000017F0, symSize: 0x28 }
  - { offsetInCU: 0x2F957, offset: 0x2F957, size: 0x8, addend: 0x0, symName: __ZN9__gnu_cxx17__normal_iteratorIPSt4pairIxxESt6vectorIS2_SaIS2_EEEppEv, symObjAddr: 0x598, symBinAddr: 0x100001818, symSize: 0x28 }
  - { offsetInCU: 0x2F97F, offset: 0x2F97F, size: 0x8, addend: 0x0, symName: __ZN10__gnu_pbds4treeIxNS_9null_typeESt4lessIxENS_11rb_tree_tagENS_33tree_order_statistics_node_updateESaIcEED1Ev, symObjAddr: 0x53C, symBinAddr: 0x1000017BC, symSize: 0x34 }
  - { offsetInCU: 0x2F987, offset: 0x2F987, size: 0x8, addend: 0x0, symName: __ZN10__gnu_pbds4treeIxNS_9null_typeESt4lessIxENS_11rb_tree_tagENS_33tree_order_statistics_node_updateESaIcEED0Ev, symObjAddr: 0x570, symBinAddr: 0x1000017F0, symSize: 0x28 }
  - { offsetInCU: 0x2F9CA, offset: 0x2F9CA, size: 0x8, addend: 0x0, symName: __ZN10__gnu_pbds4treeIxNS_9null_typeESt4lessIxENS_11rb_tree_tagENS_33tree_order_statistics_node_updateESaIcEEC1Ev, symObjAddr: 0x508, symBinAddr: 0x100001788, symSize: 0x34 }
  - { offsetInCU: 0x2F9D2, offset: 0x2F9D2, size: 0x8, addend: 0x0, symName: __ZN10__gnu_pbds4treeIxNS_9null_typeESt4lessIxENS_11rb_tree_tagENS_33tree_order_statistics_node_updateESaIcEED1Ev, symObjAddr: 0x53C, symBinAddr: 0x1000017BC, symSize: 0x34 }
  - { offsetInCU: 0x2FA64, offset: 0x2FA64, size: 0x8, addend: 0x0, symName: __ZSt4sortIN9__gnu_cxx17__normal_iteratorIPSt4pairIxxESt6vectorIS3_SaIS3_EEEEEvT_S9_, symObjAddr: 0x4D0, symBinAddr: 0x100001750, symSize: 0x38 }
  - { offsetInCU: 0x2FA6C, offset: 0x2FA6C, size: 0x8, addend: 0x0, symName: __ZN10__gnu_pbds4treeIxNS_9null_typeESt4lessIxENS_11rb_tree_tagENS_33tree_order_statistics_node_updateESaIcEEC1Ev, symObjAddr: 0x508, symBinAddr: 0x100001788, symSize: 0x34 }
  - { offsetInCU: 0x2F9E4, offset: 0x2F9E4, size: 0x8, addend: 0x0, symName: __ZNSt6vectorISt4pairIxxESaIS1_EE3endEv, symObjAddr: 0x4A8, symBinAddr: 0x100001728, symSize: 0x28 }
  - { offsetInCU: 0x2F9EC, offset: 0x2F9EC, size: 0x8, addend: 0x0, symName: __ZSt4sortIN9__gnu_cxx17__normal_iteratorIPSt4pairIxxESt6vectorIS3_SaIS3_EEEEEvT_S9_, symObjAddr: 0x4D0, symBinAddr: 0x100001750, symSize: 0x38 }
  - { offsetInCU: 0x2FA15, offset: 0x2FA15, size: 0x8, addend: 0x0, symName: __ZNSt6vectorISt4pairIxxESaIS1_EE5beginEv, symObjAddr: 0x484, symBinAddr: 0x100001704, symSize: 0x24 }
  - { offsetInCU: 0x2FA1D, offset: 0x2FA1D, size: 0x8, addend: 0x0, symName: __ZNSt6vectorISt4pairIxxESaIS1_EE3endEv, symObjAddr: 0x4A8, symBinAddr: 0x100001728, symSize: 0x28 }
  - { offsetInCU: 0x2FA46, offset: 0x2FA46, size: 0x8, addend: 0x0, symName: __ZNSt6vectorISt4pairIxxESaIS1_EEixEm, symObjAddr: 0x45C, symBinAddr: 0x1000016DC, symSize: 0x28 }
  - { offsetInCU: 0x2FA4E, offset: 0x2FA4E, size: 0x8, addend: 0x0, symName: __ZNSt6vectorISt4pairIxxESaIS1_EE5beginEv, symObjAddr: 0x484, symBinAddr: 0x100001704, symSize: 0x24 }
  - { offsetInCU: 0x2FADB, offset: 0x2FADB, size: 0x8, addend: 0x0, symName: __ZNSt6vectorISt4pairIxxESaIS1_EED1Ev, symObjAddr: 0x400, symBinAddr: 0x100001680, symSize: 0x5C }
  - { offsetInCU: 0x2FAE3, offset: 0x2FAE3, size: 0x8, addend: 0x0, symName: __ZNSt6vectorISt4pairIxxESaIS1_EEixEm, symObjAddr: 0x45C, symBinAddr: 0x1000016DC, symSize: 0x28 }
  - { offsetInCU: 0x2FB91, offset: 0x2FB91, size: 0x8, addend: 0x0, symName: __ZNSt6vectorISt4pairIxxESaIS1_EEC1EmRKS2_, symObjAddr: 0x398, symBinAddr: 0x100001618, symSize: 0x68 }
  - { offsetInCU: 0x2FB99, offset: 0x2FB99, size: 0x8, addend: 0x0, symName: __ZNSt6vectorISt4pairIxxESaIS1_EED1Ev, symObjAddr: 0x400, symBinAddr: 0x100001680, symSize: 0x5C }
  - { offsetInCU: 0x2FC00, offset: 0x2FC00, size: 0x8, addend: 0x0, symName: _main, symObjAddr: 0x328, symBinAddr: 0x1000015A8, symSize: 0x70 }
  - { offsetInCU: 0x2FC08, offset: 0x2FC08, size: 0x8, addend: 0x0, symName: __ZNSt6vectorISt4pairIxxESaIS1_EEC1EmRKS2_, symObjAddr: 0x398, symBinAddr: 0x100001618, symSize: 0x68 }
  - { offsetInCU: 0x2FC40, offset: 0x2FC40, size: 0x8, addend: 0x0, symName: __Z5solvev, symObjAddr: 0x150, symBinAddr: 0x1000013D0, symSize: 0x1D8 }
  - { offsetInCU: 0x2FC48, offset: 0x2FC48, size: 0x8, addend: 0x0, symName: _main, symObjAddr: 0x328, symBinAddr: 0x1000015A8, symSize: 0x70 }
  - { offsetInCU: 0x2FDA8, offset: 0x2FDA8, size: 0x8, addend: 0x0, symName: __ZNK9__gnu_cxx17__normal_iteratorIPSt4pairIxxESt6vectorIS2_SaIS2_EEEdeEv, symObjAddr: 0x138, symBinAddr: 0x1000013B8, symSize: 0x18 }
  - { offsetInCU: 0x2FDB0, offset: 0x2FDB0, size: 0x8, addend: 0x0, symName: __Z5solvev, symObjAddr: 0x150, symBinAddr: 0x1000013D0, symSize: 0x1D8 }
  - { offsetInCU: 0x2FDD9, offset: 0x2FDD9, size: 0x8, addend: 0x0, symName: __ZNK9__gnu_cxx17__normal_iteratorIPSt4pairIxxESt6vectorIS2_SaIS2_EEE4baseEv, symObjAddr: 0x124, symBinAddr: 0x1000013A4, symSize: 0x14 }
  - { offsetInCU: 0x2FDE1, offset: 0x2FDE1, size: 0x8, addend: 0x0, symName: __ZNK9__gnu_cxx17__normal_iteratorIPSt4pairIxxESt6vectorIS2_SaIS2_EEEdeEv, symObjAddr: 0x138, symBinAddr: 0x1000013B8, symSize: 0x18 }
  - { offsetInCU: 0x2FED4, offset: 0x2FED4, size: 0x8, addend: 0x0, symName: __ZN9__gnu_cxxeqIPSt4pairIxxESt6vectorIS2_SaIS2_EEEEbRKNS_17__normal_iteratorIT_T0_EESC_, symObjAddr: 0xE0, symBinAddr: 0x100001360, symSize: 0x44 }
  - { offsetInCU: 0x2FEDC, offset: 0x2FEDC, size: 0x8, addend: 0x0, symName: __ZNK9__gnu_cxx17__normal_iteratorIPSt4pairIxxESt6vectorIS2_SaIS2_EEE4baseEv, symObjAddr: 0x124, symBinAddr: 0x1000013A4, symSize: 0x14 }
  - { offsetInCU: 0x2FEAB, offset: 0x2FEAB, size: 0x8, addend: 0x0, symName: __ZSt3minImERKT_S2_S2_, symObjAddr: 0xA8, symBinAddr: 0x100001328, symSize: 0x38 }
  - { offsetInCU: 0x2FEB3, offset: 0x2FEB3, size: 0x8, addend: 0x0, symName: __ZN9__gnu_cxxeqIPSt4pairIxxESt6vectorIS2_SaIS2_EEEEbRKNS_17__normal_iteratorIT_T0_EESC_, symObjAddr: 0xE0, symBinAddr: 0x100001360, symSize: 0x44 }
  - { offsetInCU: 0x2FF2A, offset: 0x2FF2A, size: 0x8, addend: 0x0, symName: __ZN9__gnu_cxx5__ops15__val_comp_iterENS0_15_Iter_less_iterE, symObjAddr: 0x90, symBinAddr: 0x100001310, symSize: 0x18 }
  - { offsetInCU: 0x2FF32, offset: 0x2FF32, size: 0x8, addend: 0x0, symName: __ZSt3minImERKT_S2_S2_, symObjAddr: 0xA8, symBinAddr: 0x100001328, symSize: 0x38 }
  - { offsetInCU: 0x2FF50, offset: 0x2FF50, size: 0x8, addend: 0x0, symName: __ZN9__gnu_cxx5__ops16__iter_less_iterEv, symObjAddr: 0x88, symBinAddr: 0x100001308, symSize: 0x8 }
  - { offsetInCU: 0x2FF58, offset: 0x2FF58, size: 0x8, addend: 0x0, symName: __ZN9__gnu_cxx5__ops15__val_comp_iterENS0_15_Iter_less_iterE, symObjAddr: 0x90, symBinAddr: 0x100001310, symSize: 0x18 }
  - { offsetInCU: 0x2FF4C, offset: 0x2FF4C, size: 0x8, addend: 0x0, symName: __ZnwmPv, symObjAddr: 0x70, symBinAddr: 0x1000012F0, symSize: 0x18 }
  - { offsetInCU: 0x2FF54, offset: 0x2FF54, size: 0x8, addend: 0x0, symName: __ZN9__gnu_cxx5__ops16__iter_less_iterEv, symObjAddr: 0x88, symBinAddr: 0x100001308, symSize: 0x8 }
  - { offsetInCU: 0x2FFC7, offset: 0x2FFC7, size: 0x8, addend: 0x0, symName: __ZStltSt15strong_orderingNSt9__cmp_cat8__unspecE, symObjAddr: 0x4C, symBinAddr: 0x1000012CC, symSize: 0x24 }
  - { offsetInCU: 0x2FFCF, offset: 0x2FFCF, size: 0x8, addend: 0x0, symName: __ZnwmPv, symObjAddr: 0x70, symBinAddr: 0x1000012F0, symSize: 0x18 }
  - { offsetInCU: 0x30010, offset: 0x30010, size: 0x8, addend: 0x0, symName: __ZSteqSt15strong_orderingNSt9__cmp_cat8__unspecE, symObjAddr: 0x28, symBinAddr: 0x1000012A8, symSize: 0x24 }
  - { offsetInCU: 0x30018, offset: 0x30018, size: 0x8, addend: 0x0, symName: __ZStltSt15strong_orderingNSt9__cmp_cat8__unspecE, symObjAddr: 0x4C, symBinAddr: 0x1000012CC, symSize: 0x24 }
  - { offsetInCU: 0x30067, offset: 0x30067, size: 0x8, addend: 0x0, symName: __ZNSt9__cmp_cat8__unspecC1EPS0_, symObjAddr: 0x10, symBinAddr: 0x100001290, symSize: 0x18 }
  - { offsetInCU: 0x3006F, offset: 0x3006F, size: 0x8, addend: 0x0, symName: __ZSteqSt15strong_orderingNSt9__cmp_cat8__unspecE, symObjAddr: 0x28, symBinAddr: 0x1000012A8, symSize: 0x24 }
  - { offsetInCU: 0x300BD, offset: 0x300BD, size: 0x8, addend: 0x0, symName: __ZSt21is_constant_evaluatedv, symObjAddr: 0x8, symBinAddr: 0x100001288, symSize: 0x8 }
  - { offsetInCU: 0x300C5, offset: 0x300C5, size: 0x8, addend: 0x0, symName: __ZNSt9__cmp_cat8__unspecC1EPS0_, symObjAddr: 0x10, symBinAddr: 0x100001290, symSize: 0x18 }
  - { offsetInCU: 0x300EB, offset: 0x300EB, size: 0x8, addend: 0x0, symName: __ZSt23__is_constant_evaluatedv, symObjAddr: 0x0, symBinAddr: 0x100001280, symSize: 0x8 }
  - { offsetInCU: 0x300F3, offset: 0x300F3, size: 0x8, addend: 0x0, symName: __ZSt21is_constant_evaluatedv, symObjAddr: 0x8, symBinAddr: 0x100001288, symSize: 0x8 }
...
