---
triple:          'arm64-apple-darwin'
binary-path:     '/Users/rohakdebnath/Desktop/Cpp /CodeForces/1933D'
relocations:
  - { offsetInCU: 0x5032, offset: 0x5032, size: 0x8, addend: 0x0, symName: __ZNSt3__124__put_character_sequenceB7v160006IcNS_11char_traitsIcEEEERNS_13basic_ostreamIT_T0_EES7_PKS4_m, symObjAddr: 0x1EAC, symBinAddr: 0x100002FFC, symSize: 0x1EC }
  - { offsetInCU: 0x7A24, offset: 0x7A24, size: 0x8, addend: 0x0, symName: __ZNSt3__1lsB7v160006INS_11char_traitsIcEEEERNS_13basic_ostreamIcT_EES6_c, symObjAddr: 0x230, symBinAddr: 0x100001380, symSize: 0x34 }
  - { offsetInCU: 0x7A9D, offset: 0x7A9D, size: 0x8, addend: 0x0, symName: __ZNSt3__110destroy_atB7v160006IxLi0EEEvPT_, symObjAddr: 0x90C, symBinAddr: 0x100001A5C, symSize: 0x24 }
  - { offsetInCU: 0x7AD4, offset: 0x7AD4, size: 0x8, addend: 0x0, symName: __ZNSt3__112__destroy_atB7v160006IxLi0EEEvPT_, symObjAddr: 0x930, symBinAddr: 0x100001A80, symSize: 0x10 }
  - { offsetInCU: 0x7B0B, offset: 0x7B0B, size: 0x8, addend: 0x0, symName: __ZNSt3__119__libcpp_deallocateB7v160006EPvmm, symObjAddr: 0x984, symBinAddr: 0x100001AD4, symSize: 0x60 }
  - { offsetInCU: 0x7B70, offset: 0x7B70, size: 0x8, addend: 0x0, symName: __ZNSt3__124__is_overaligned_for_newB7v160006Em, symObjAddr: 0x9E4, symBinAddr: 0x100001B34, symSize: 0x20 }
  - { offsetInCU: 0x7B9E, offset: 0x7B9E, size: 0x8, addend: 0x0, symName: __ZNSt3__127__do_deallocate_handle_sizeB7v160006IJSt11align_val_tEEEvPvmDpT_, symObjAddr: 0xA04, symBinAddr: 0x100001B54, symSize: 0x30 }
  - { offsetInCU: 0x7BF1, offset: 0x7BF1, size: 0x8, addend: 0x0, symName: __ZNSt3__127__do_deallocate_handle_sizeB7v160006IJEEEvPvmDpT_, symObjAddr: 0xA34, symBinAddr: 0x100001B84, symSize: 0x28 }
  - { offsetInCU: 0x7C2F, offset: 0x7C2F, size: 0x8, addend: 0x0, symName: __ZNSt3__124__libcpp_operator_deleteB7v160006IJPvSt11align_val_tEEEvDpT_, symObjAddr: 0xA5C, symBinAddr: 0x100001BAC, symSize: 0x2C }
  - { offsetInCU: 0x7C78, offset: 0x7C78, size: 0x8, addend: 0x0, symName: __ZNSt3__124__libcpp_operator_deleteB7v160006IJPvEEEvDpT_, symObjAddr: 0xA88, symBinAddr: 0x100001BD8, symSize: 0x24 }
  - { offsetInCU: 0x7CCB, offset: 0x7CCB, size: 0x8, addend: 0x0, symName: __ZNSt3__117__libcpp_allocateB7v160006Emm, symObjAddr: 0x1394, symBinAddr: 0x1000024E4, symSize: 0x60 }
  - { offsetInCU: 0x7F11, offset: 0x7F11, size: 0x8, addend: 0x0, symName: __ZNSt3__121__libcpp_operator_newB7v160006IJmSt11align_val_tEEEPvDpT_, symObjAddr: 0x1410, symBinAddr: 0x100002560, symSize: 0x2C }
  - { offsetInCU: 0x7F5E, offset: 0x7F5E, size: 0x8, addend: 0x0, symName: __ZNSt3__121__libcpp_operator_newB7v160006IJmEEEPvDpT_, symObjAddr: 0x143C, symBinAddr: 0x10000258C, symSize: 0x24 }
  - { offsetInCU: 0x7FBC, offset: 0x7FBC, size: 0x8, addend: 0x0, symName: __ZNSt3__112construct_atB7v160006IxJxEPxEEPT_S3_DpOT0_, symObjAddr: 0x15AC, symBinAddr: 0x1000026FC, symSize: 0x2C }
  - { offsetInCU: 0x802C, offset: 0x802C, size: 0x8, addend: 0x0, symName: __ZNSt3__127__tree_balance_after_insertB7v160006IPNS_16__tree_node_baseIPvEEEEvT_S5_, symObjAddr: 0x164C, symBinAddr: 0x10000279C, symSize: 0x32C }
  - { offsetInCU: 0x80A8, offset: 0x80A8, size: 0x8, addend: 0x0, symName: __ZNSt3__120__tree_is_left_childB7v160006IPNS_16__tree_node_baseIPvEEEEbT_, symObjAddr: 0x19B8, symBinAddr: 0x100002B08, symSize: 0x2C }
  - { offsetInCU: 0x80DD, offset: 0x80DD, size: 0x8, addend: 0x0, symName: __ZNSt3__118__tree_left_rotateB7v160006IPNS_16__tree_node_baseIPvEEEEvT_, symObjAddr: 0x19E4, symBinAddr: 0x100002B34, symSize: 0xD8 }
  - { offsetInCU: 0x811F, offset: 0x811F, size: 0x8, addend: 0x0, symName: __ZNSt3__119__tree_right_rotateB7v160006IPNS_16__tree_node_baseIPvEEEEvT_, symObjAddr: 0x1ABC, symBinAddr: 0x100002C0C, symSize: 0xCC }
  - { offsetInCU: 0x8161, offset: 0x8161, size: 0x8, addend: 0x0, symName: __ZNSt3__116__pad_and_outputB7v160006IcNS_11char_traitsIcEEEENS_19ostreambuf_iteratorIT_T0_EES6_PKS4_S8_S8_RNS_8ios_baseES4_, symObjAddr: 0x20B4, symBinAddr: 0x100003204, symSize: 0x240 }
  - { offsetInCU: 0x8230, offset: 0x8230, size: 0x8, addend: 0x0, symName: __ZNSt3__119__debug_db_insert_cB7v160006INS_12basic_stringIcNS_11char_traitsIcEENS_9allocatorIcEEEEEEvPT_, symObjAddr: 0x2568, symBinAddr: 0x1000036B8, symSize: 0x10 }
  - { offsetInCU: 0x8261, offset: 0x8261, size: 0x8, addend: 0x0, symName: __ZNSt3__112__to_addressB7v160006IcEEPT_S2_, symObjAddr: 0x2634, symBinAddr: 0x100003784, symSize: 0x14 }
  - { offsetInCU: 0x8296, offset: 0x8296, size: 0x8, addend: 0x0, symName: __ZNSt3__19use_facetB7v160006INS_5ctypeIcEEEERKT_RKNS_6localeE, symObjAddr: 0x28EC, symBinAddr: 0x100003A3C, symSize: 0x2C }
  - { offsetInCU: 0x888A, offset: 0x888A, size: 0x8, addend: 0x0, symName: __ZSt28__throw_bad_array_new_lengthB7v160006v, symObjAddr: 0x1360, symBinAddr: 0x1000024B0, symSize: 0x34 }
  - { offsetInCU: 0xB556, offset: 0xB556, size: 0x8, addend: 0x0, symName: __Z5solvev, symObjAddr: 0x0, symBinAddr: 0x100001150, symSize: 0x1B8 }
  - { offsetInCU: 0xB729, offset: 0xB729, size: 0x8, addend: 0x0, symName: __ZNSt3__13setIxNS_4lessIxEENS_9allocatorIxEEEC1B7v160006Ev, symObjAddr: 0x1B8, symBinAddr: 0x100001308, symSize: 0x2C }
  - { offsetInCU: 0xB753, offset: 0xB753, size: 0x8, addend: 0x0, symName: __ZNSt3__13setIxNS_4lessIxEENS_9allocatorIxEEE6insertB7v160006EOx, symObjAddr: 0x1E4, symBinAddr: 0x100001334, symSize: 0x4C }
  - { offsetInCU: 0xB788, offset: 0xB788, size: 0x8, addend: 0x0, symName: __ZNKSt3__13setIxNS_4lessIxEENS_9allocatorIxEEE4sizeB7v160006Ev, symObjAddr: 0x264, symBinAddr: 0x1000013B4, symSize: 0x28 }
  - { offsetInCU: 0xB7AE, offset: 0xB7AE, size: 0x8, addend: 0x0, symName: __ZNSt3__13setIxNS_4lessIxEENS_9allocatorIxEEED1B7v160006Ev, symObjAddr: 0x28C, symBinAddr: 0x1000013DC, symSize: 0x2C }
  - { offsetInCU: 0xB7D8, offset: 0xB7D8, size: 0x8, addend: 0x0, symName: _main, symObjAddr: 0x2B8, symBinAddr: 0x100001408, symSize: 0x84 }
  - { offsetInCU: 0xB802, offset: 0xB802, size: 0x8, addend: 0x0, symName: __ZNSt3__19basic_iosIcNS_11char_traitsIcEEE3tieB7v160006EPNS_13basic_ostreamIcS2_EE, symObjAddr: 0x33C, symBinAddr: 0x10000148C, symSize: 0x2C }
  - { offsetInCU: 0xB848, offset: 0xB848, size: 0x8, addend: 0x0, symName: __ZNSt3__13setIxNS_4lessIxEENS_9allocatorIxEEEC2B7v160006Ev, symObjAddr: 0x368, symBinAddr: 0x1000014B8, symSize: 0x30 }
  - { offsetInCU: 0xB872, offset: 0xB872, size: 0x8, addend: 0x0, symName: __ZNSt3__16__treeIxNS_4lessIxEENS_9allocatorIxEEEC1ERKS2_, symObjAddr: 0x398, symBinAddr: 0x1000014E8, symSize: 0x34 }
  - { offsetInCU: 0xB8AD, offset: 0xB8AD, size: 0x8, addend: 0x0, symName: __ZNSt3__16__treeIxNS_4lessIxEENS_9allocatorIxEEEC2ERKS2_, symObjAddr: 0x3CC, symBinAddr: 0x10000151C, symSize: 0x7C }
  - { offsetInCU: 0xB8E8, offset: 0xB8E8, size: 0x8, addend: 0x0, symName: __ZNSt3__117__compressed_pairINS_15__tree_end_nodeIPNS_16__tree_node_baseIPvEEEENS_9allocatorINS_11__tree_nodeIxS3_EEEEEC1B7v160006ILb1EvEEv, symObjAddr: 0x448, symBinAddr: 0x100001598, symSize: 0x2C }
  - { offsetInCU: 0xB922, offset: 0xB922, size: 0x8, addend: 0x0, symName: __ZNSt3__117__compressed_pairImNS_4lessIxEEEC1B7v160006IiRKS2_EEOT_OT0_, symObjAddr: 0x480, symBinAddr: 0x1000015D0, symSize: 0x3C }
  - { offsetInCU: 0xB97A, offset: 0xB97A, size: 0x8, addend: 0x0, symName: __ZNSt3__16__treeIxNS_4lessIxEENS_9allocatorIxEEE10__end_nodeB7v160006Ev, symObjAddr: 0x4BC, symBinAddr: 0x10000160C, symSize: 0x2C }
  - { offsetInCU: 0xB9A0, offset: 0xB9A0, size: 0x8, addend: 0x0, symName: __ZNSt3__16__treeIxNS_4lessIxEENS_9allocatorIxEEE12__begin_nodeB7v160006Ev, symObjAddr: 0x4E8, symBinAddr: 0x100001638, symSize: 0x14 }
  - { offsetInCU: 0xB9C6, offset: 0xB9C6, size: 0x8, addend: 0x0, symName: __ZNSt3__117__compressed_pairINS_15__tree_end_nodeIPNS_16__tree_node_baseIPvEEEENS_9allocatorINS_11__tree_nodeIxS3_EEEEEC2B7v160006ILb1EvEEv, symObjAddr: 0x4FC, symBinAddr: 0x10000164C, symSize: 0x34 }
  - { offsetInCU: 0xB9FB, offset: 0xB9FB, size: 0x8, addend: 0x0, symName: __ZNSt3__122__compressed_pair_elemINS_15__tree_end_nodeIPNS_16__tree_node_baseIPvEEEELi0ELb0EEC2B7v160006ENS_16__value_init_tagE, symObjAddr: 0x530, symBinAddr: 0x100001680, symSize: 0x2C }
  - { offsetInCU: 0xBA30, offset: 0xBA30, size: 0x8, addend: 0x0, symName: __ZNSt3__122__compressed_pair_elemINS_9allocatorINS_11__tree_nodeIxPvEEEELi1ELb1EEC2B7v160006ENS_16__value_init_tagE, symObjAddr: 0x55C, symBinAddr: 0x1000016AC, symSize: 0x2C }
  - { offsetInCU: 0xBA65, offset: 0xBA65, size: 0x8, addend: 0x0, symName: __ZNSt3__115__tree_end_nodeIPNS_16__tree_node_baseIPvEEEC1B7v160006Ev, symObjAddr: 0x588, symBinAddr: 0x1000016D8, symSize: 0x2C }
  - { offsetInCU: 0xBA8F, offset: 0xBA8F, size: 0x8, addend: 0x0, symName: __ZNSt3__115__tree_end_nodeIPNS_16__tree_node_baseIPvEEEC2B7v160006Ev, symObjAddr: 0x5B4, symBinAddr: 0x100001704, symSize: 0x18 }
  - { offsetInCU: 0xBAB9, offset: 0xBAB9, size: 0x8, addend: 0x0, symName: __ZNSt3__19allocatorINS_11__tree_nodeIxPvEEEC2B7v160006Ev, symObjAddr: 0x5CC, symBinAddr: 0x10000171C, symSize: 0x2C }
  - { offsetInCU: 0xBAE3, offset: 0xBAE3, size: 0x8, addend: 0x0, symName: __ZNSt3__116__non_trivial_ifILb1ENS_9allocatorINS_11__tree_nodeIxPvEEEEEC2B7v160006Ev, symObjAddr: 0x5F8, symBinAddr: 0x100001748, symSize: 0x14 }
  - { offsetInCU: 0xBB0D, offset: 0xBB0D, size: 0x8, addend: 0x0, symName: __ZNSt3__117__compressed_pairImNS_4lessIxEEEC2B7v160006IiRKS2_EEOT_OT0_, symObjAddr: 0x60C, symBinAddr: 0x10000175C, symSize: 0x44 }
  - { offsetInCU: 0xBB65, offset: 0xBB65, size: 0x8, addend: 0x0, symName: __ZNSt3__122__compressed_pair_elemImLi0ELb0EEC2B7v160006IivEEOT_, symObjAddr: 0x650, symBinAddr: 0x1000017A0, symSize: 0x24 }
  - { offsetInCU: 0xBBA7, offset: 0xBBA7, size: 0x8, addend: 0x0, symName: __ZNSt3__122__compressed_pair_elemINS_4lessIxEELi1ELb1EEC2B7v160006IRKS2_vEEOT_, symObjAddr: 0x674, symBinAddr: 0x1000017C4, symSize: 0x18 }
  - { offsetInCU: 0xBBE9, offset: 0xBBE9, size: 0x8, addend: 0x0, symName: __ZNSt3__114pointer_traitsIPNS_15__tree_end_nodeIPNS_16__tree_node_baseIPvEEEEE10pointer_toB7v160006ERS6_, symObjAddr: 0x68C, symBinAddr: 0x1000017DC, symSize: 0x14 }
  - { offsetInCU: 0xBC0C, offset: 0xBC0C, size: 0x8, addend: 0x0, symName: __ZNSt3__117__compressed_pairINS_15__tree_end_nodeIPNS_16__tree_node_baseIPvEEEENS_9allocatorINS_11__tree_nodeIxS3_EEEEE5firstB7v160006Ev, symObjAddr: 0x6A0, symBinAddr: 0x1000017F0, symSize: 0x24 }
  - { offsetInCU: 0xBC32, offset: 0xBC32, size: 0x8, addend: 0x0, symName: __ZNSt3__122__compressed_pair_elemINS_15__tree_end_nodeIPNS_16__tree_node_baseIPvEEEELi0ELb0EE5__getB7v160006Ev, symObjAddr: 0x6C4, symBinAddr: 0x100001814, symSize: 0x14 }
  - { offsetInCU: 0xBC58, offset: 0xBC58, size: 0x8, addend: 0x0, symName: __ZNSt3__13setIxNS_4lessIxEENS_9allocatorIxEEED2B7v160006Ev, symObjAddr: 0x6D8, symBinAddr: 0x100001828, symSize: 0x2C }
  - { offsetInCU: 0xBC82, offset: 0xBC82, size: 0x8, addend: 0x0, symName: __ZNSt3__16__treeIxNS_4lessIxEENS_9allocatorIxEEED1Ev, symObjAddr: 0x704, symBinAddr: 0x100001854, symSize: 0x2C }
  - { offsetInCU: 0xBCAE, offset: 0xBCAE, size: 0x8, addend: 0x0, symName: __ZNSt3__16__treeIxNS_4lessIxEENS_9allocatorIxEEED2Ev, symObjAddr: 0x730, symBinAddr: 0x100001880, symSize: 0x38 }
  - { offsetInCU: 0xBCDA, offset: 0xBCDA, size: 0x8, addend: 0x0, symName: __ZNSt3__16__treeIxNS_4lessIxEENS_9allocatorIxEEE7destroyEPNS_11__tree_nodeIxPvEE, symObjAddr: 0x768, symBinAddr: 0x1000018B8, symSize: 0xAC }
  - { offsetInCU: 0xBD26, offset: 0xBD26, size: 0x8, addend: 0x0, symName: __ZNKSt3__16__treeIxNS_4lessIxEENS_9allocatorIxEEE6__rootB7v160006Ev, symObjAddr: 0x814, symBinAddr: 0x100001964, symSize: 0x28 }
  - { offsetInCU: 0xBD4C, offset: 0xBD4C, size: 0x8, addend: 0x0, symName: __ZNSt3__16__treeIxNS_4lessIxEENS_9allocatorIxEEE12__node_allocB7v160006Ev, symObjAddr: 0x83C, symBinAddr: 0x10000198C, symSize: 0x28 }
  - { offsetInCU: 0xBD72, offset: 0xBD72, size: 0x8, addend: 0x0, symName: __ZNSt3__116allocator_traitsINS_9allocatorINS_11__tree_nodeIxPvEEEEE7destroyB7v160006IxvvEEvRS5_PT_, symObjAddr: 0x864, symBinAddr: 0x1000019B4, symSize: 0x28 }
  - { offsetInCU: 0xBDAD, offset: 0xBDAD, size: 0x8, addend: 0x0, symName: __ZNSt3__122__tree_key_value_typesIxE9__get_ptrB7v160006ERx, symObjAddr: 0x88C, symBinAddr: 0x1000019DC, symSize: 0x14 }
  - { offsetInCU: 0xBDD1, offset: 0xBDD1, size: 0x8, addend: 0x0, symName: __ZNSt3__116allocator_traitsINS_9allocatorINS_11__tree_nodeIxPvEEEEE10deallocateB7v160006ERS5_PS4_m, symObjAddr: 0x8A0, symBinAddr: 0x1000019F0, symSize: 0x34 }
  - { offsetInCU: 0xBE13, offset: 0xBE13, size: 0x8, addend: 0x0, symName: __ZNSt3__117__compressed_pairINS_15__tree_end_nodeIPNS_16__tree_node_baseIPvEEEENS_9allocatorINS_11__tree_nodeIxS3_EEEEE6secondB7v160006Ev, symObjAddr: 0x8D4, symBinAddr: 0x100001A24, symSize: 0x24 }
  - { offsetInCU: 0xBE39, offset: 0xBE39, size: 0x8, addend: 0x0, symName: __ZNSt3__122__compressed_pair_elemINS_9allocatorINS_11__tree_nodeIxPvEEEELi1ELb1EE5__getB7v160006Ev, symObjAddr: 0x8F8, symBinAddr: 0x100001A48, symSize: 0x14 }
  - { offsetInCU: 0xBE5F, offset: 0xBE5F, size: 0x8, addend: 0x0, symName: __ZNSt3__19allocatorINS_11__tree_nodeIxPvEEE10deallocateB7v160006EPS3_m, symObjAddr: 0x940, symBinAddr: 0x100001A90, symSize: 0x44 }
  - { offsetInCU: 0xBEA1, offset: 0xBEA1, size: 0x8, addend: 0x0, symName: __ZNKSt3__16__treeIxNS_4lessIxEENS_9allocatorIxEEE10__end_nodeB7v160006Ev, symObjAddr: 0xAAC, symBinAddr: 0x100001BFC, symSize: 0x2C }
  - { offsetInCU: 0xBEC7, offset: 0xBEC7, size: 0x8, addend: 0x0, symName: __ZNKSt3__117__compressed_pairINS_15__tree_end_nodeIPNS_16__tree_node_baseIPvEEEENS_9allocatorINS_11__tree_nodeIxS3_EEEEE5firstB7v160006Ev, symObjAddr: 0xAD8, symBinAddr: 0x100001C28, symSize: 0x24 }
  - { offsetInCU: 0xBEED, offset: 0xBEED, size: 0x8, addend: 0x0, symName: __ZNKSt3__122__compressed_pair_elemINS_15__tree_end_nodeIPNS_16__tree_node_baseIPvEEEELi0ELb0EE5__getB7v160006Ev, symObjAddr: 0xAFC, symBinAddr: 0x100001C4C, symSize: 0x14 }
  - { offsetInCU: 0xBF13, offset: 0xBF13, size: 0x8, addend: 0x0, symName: __ZNSt3__16__treeIxNS_4lessIxEENS_9allocatorIxEEE15__insert_uniqueB7v160006EOx, symObjAddr: 0xB10, symBinAddr: 0x100001C60, symSize: 0x50 }
  - { offsetInCU: 0xBF48, offset: 0xBF48, size: 0x8, addend: 0x0, symName: __ZNSt3__14pairINS_21__tree_const_iteratorIxPNS_11__tree_nodeIxPvEElEEbEC1B7v160006INS_15__tree_iteratorIxS5_lEEbLS3_0EEEONS0_IT_T0_EE, symObjAddr: 0xB60, symBinAddr: 0x100001CB0, symSize: 0x34 }
  - { offsetInCU: 0xBF9E, offset: 0xBF9E, size: 0x8, addend: 0x0, symName: __ZNSt3__16__treeIxNS_4lessIxEENS_9allocatorIxEEE25__emplace_unique_key_argsIxJxEEENS_4pairINS_15__tree_iteratorIxPNS_11__tree_nodeIxPvEElEEbEERKT_DpOT0_, symObjAddr: 0xB94, symBinAddr: 0x100001CE4, symSize: 0xF0 }
  - { offsetInCU: 0xC04A, offset: 0xC04A, size: 0x8, addend: 0x0, symName: __ZNSt3__122__tree_key_value_typesIxE9__get_keyB7v160006ERKx, symObjAddr: 0xC84, symBinAddr: 0x100001DD4, symSize: 0x14 }
  - { offsetInCU: 0xC06E, offset: 0xC06E, size: 0x8, addend: 0x0, symName: __ZNSt3__16__treeIxNS_4lessIxEENS_9allocatorIxEEE12__find_equalIxEERPNS_16__tree_node_baseIPvEERPNS_15__tree_end_nodeISA_EERKT_, symObjAddr: 0xC98, symBinAddr: 0x100001DE8, symSize: 0x184 }
  - { offsetInCU: 0xC0DB, offset: 0xC0DB, size: 0x8, addend: 0x0, symName: __ZNSt3__16__treeIxNS_4lessIxEENS_9allocatorIxEEE16__construct_nodeIJxEEENS_10unique_ptrINS_11__tree_nodeIxPvEENS_22__tree_node_destructorINS3_ISA_EEEEEEDpOT_, symObjAddr: 0xE1C, symBinAddr: 0x100001F6C, symSize: 0x108 }
  - { offsetInCU: 0xC13C, offset: 0xC13C, size: 0x8, addend: 0x0, symName: __ZNSt3__16__treeIxNS_4lessIxEENS_9allocatorIxEEE16__insert_node_atEPNS_15__tree_end_nodeIPNS_16__tree_node_baseIPvEEEERSA_SA_, symObjAddr: 0xF24, symBinAddr: 0x100002074, symSize: 0xCC }
  - { offsetInCU: 0xC191, offset: 0xC191, size: 0x8, addend: 0x0, symName: __ZNKSt3__110unique_ptrINS_11__tree_nodeIxPvEENS_22__tree_node_destructorINS_9allocatorIS3_EEEEE3getB7v160006Ev, symObjAddr: 0xFF0, symBinAddr: 0x100002140, symSize: 0x28 }
  - { offsetInCU: 0xC1B7, offset: 0xC1B7, size: 0x8, addend: 0x0, symName: __ZNSt3__110unique_ptrINS_11__tree_nodeIxPvEENS_22__tree_node_destructorINS_9allocatorIS3_EEEEE7releaseB7v160006Ev, symObjAddr: 0x1018, symBinAddr: 0x100002168, symSize: 0x44 }
  - { offsetInCU: 0xC1EC, offset: 0xC1EC, size: 0x8, addend: 0x0, symName: __ZNSt3__110unique_ptrINS_11__tree_nodeIxPvEENS_22__tree_node_destructorINS_9allocatorIS3_EEEEED1B7v160006Ev, symObjAddr: 0x105C, symBinAddr: 0x1000021AC, symSize: 0x2C }
  - { offsetInCU: 0xC216, offset: 0xC216, size: 0x8, addend: 0x0, symName: __ZNSt3__115__tree_iteratorIxPNS_11__tree_nodeIxPvEElEC1B7v160006ES4_, symObjAddr: 0x1088, symBinAddr: 0x1000021D8, symSize: 0x34 }
  - { offsetInCU: 0xC259, offset: 0xC259, size: 0x8, addend: 0x0, symName: __ZNSt3__14pairINS_15__tree_iteratorIxPNS_11__tree_nodeIxPvEElEEbEC1B7v160006IS6_RbLS3_0EEEOT_OT0_, symObjAddr: 0x10BC, symBinAddr: 0x10000220C, symSize: 0x3C }
  - { offsetInCU: 0xC2B7, offset: 0xC2B7, size: 0x8, addend: 0x0, symName: __ZNKSt3__16__treeIxNS_4lessIxEENS_9allocatorIxEEE10__root_ptrEv, symObjAddr: 0x10F8, symBinAddr: 0x100002248, symSize: 0x24 }
  - { offsetInCU: 0xC2DD, offset: 0xC2DD, size: 0x8, addend: 0x0, symName: __ZNSt3__16__treeIxNS_4lessIxEENS_9allocatorIxEEE10value_compB7v160006Ev, symObjAddr: 0x111C, symBinAddr: 0x10000226C, symSize: 0x28 }
  - { offsetInCU: 0xC303, offset: 0xC303, size: 0x8, addend: 0x0, symName: __ZNKSt3__14lessIxEclB7v160006ERKxS3_, symObjAddr: 0x1144, symBinAddr: 0x100002294, symSize: 0x34 }
  - { offsetInCU: 0xC347, offset: 0xC347, size: 0x8, addend: 0x0, symName: __ZNSt3__117__compressed_pairImNS_4lessIxEEE6secondB7v160006Ev, symObjAddr: 0x1178, symBinAddr: 0x1000022C8, symSize: 0x24 }
  - { offsetInCU: 0xC36D, offset: 0xC36D, size: 0x8, addend: 0x0, symName: __ZNSt3__122__compressed_pair_elemINS_4lessIxEELi1ELb1EE5__getB7v160006Ev, symObjAddr: 0x119C, symBinAddr: 0x1000022EC, symSize: 0x14 }
  - { offsetInCU: 0xC393, offset: 0xC393, size: 0x8, addend: 0x0, symName: __ZNSt3__116allocator_traitsINS_9allocatorINS_11__tree_nodeIxPvEEEEE8allocateB7v160006ERS5_m, symObjAddr: 0x11B0, symBinAddr: 0x100002300, symSize: 0x2C }
  - { offsetInCU: 0xC3C6, offset: 0xC3C6, size: 0x8, addend: 0x0, symName: __ZNSt3__122__tree_node_destructorINS_9allocatorINS_11__tree_nodeIxPvEEEEEC1B7v160006ERS5_b, symObjAddr: 0x11DC, symBinAddr: 0x10000232C, symSize: 0x48 }
  - { offsetInCU: 0xC413, offset: 0xC413, size: 0x8, addend: 0x0, symName: __ZNSt3__110unique_ptrINS_11__tree_nodeIxPvEENS_22__tree_node_destructorINS_9allocatorIS3_EEEEEC1B7v160006ILb1EvEEPS3_NS_16__dependent_typeINS_27__unique_ptr_deleter_sfinaeIS7_EEXT_EE20__good_rval_ref_typeE, symObjAddr: 0x1224, symBinAddr: 0x100002374, symSize: 0x3C }
  - { offsetInCU: 0xC464, offset: 0xC464, size: 0x8, addend: 0x0, symName: __ZNSt3__116allocator_traitsINS_9allocatorINS_11__tree_nodeIxPvEEEEE9constructB7v160006IxJxEvvEEvRS5_PT_DpOT0_, symObjAddr: 0x1260, symBinAddr: 0x1000023B0, symSize: 0x30 }
  - { offsetInCU: 0xC4B9, offset: 0xC4B9, size: 0x8, addend: 0x0, symName: __ZNKSt3__110unique_ptrINS_11__tree_nodeIxPvEENS_22__tree_node_destructorINS_9allocatorIS3_EEEEEptB7v160006Ev, symObjAddr: 0x1290, symBinAddr: 0x1000023E0, symSize: 0x28 }
  - { offsetInCU: 0xC4DF, offset: 0xC4DF, size: 0x8, addend: 0x0, symName: __ZNSt3__110unique_ptrINS_11__tree_nodeIxPvEENS_22__tree_node_destructorINS_9allocatorIS3_EEEEE11get_deleterB7v160006Ev, symObjAddr: 0x12B8, symBinAddr: 0x100002408, symSize: 0x24 }
  - { offsetInCU: 0xC505, offset: 0xC505, size: 0x8, addend: 0x0, symName: __ZNSt3__19allocatorINS_11__tree_nodeIxPvEEE8allocateB7v160006Em, symObjAddr: 0x12DC, symBinAddr: 0x10000242C, symSize: 0x5C }
  - { offsetInCU: 0xC543, offset: 0xC543, size: 0x8, addend: 0x0, symName: __ZNSt3__116allocator_traitsINS_9allocatorINS_11__tree_nodeIxPvEEEEE8max_sizeB7v160006IS5_vvEEmRKS5_, symObjAddr: 0x1338, symBinAddr: 0x100002488, symSize: 0x28 }
  - { offsetInCU: 0xC56F, offset: 0xC56F, size: 0x8, addend: 0x0, symName: __ZNSt3__114numeric_limitsImE3maxB7v160006Ev, symObjAddr: 0x13F4, symBinAddr: 0x100002544, symSize: 0x14 }
  - { offsetInCU: 0xC583, offset: 0xC583, size: 0x8, addend: 0x0, symName: __ZNSt3__123__libcpp_numeric_limitsImLb1EE3maxB7v160006Ev, symObjAddr: 0x1408, symBinAddr: 0x100002558, symSize: 0x8 }
  - { offsetInCU: 0xC597, offset: 0xC597, size: 0x8, addend: 0x0, symName: __ZNSt3__122__tree_node_destructorINS_9allocatorINS_11__tree_nodeIxPvEEEEEC2B7v160006ERS5_b, symObjAddr: 0x1460, symBinAddr: 0x1000025B0, symSize: 0x38 }
  - { offsetInCU: 0xC5DF, offset: 0xC5DF, size: 0x8, addend: 0x0, symName: __ZNSt3__110unique_ptrINS_11__tree_nodeIxPvEENS_22__tree_node_destructorINS_9allocatorIS3_EEEEEC2B7v160006ILb1EvEEPS3_NS_16__dependent_typeINS_27__unique_ptr_deleter_sfinaeIS7_EEXT_EE20__good_rval_ref_typeE, symObjAddr: 0x1498, symBinAddr: 0x1000025E8, symSize: 0x48 }
  - { offsetInCU: 0xC630, offset: 0xC630, size: 0x8, addend: 0x0, symName: __ZNSt3__117__compressed_pairIPNS_11__tree_nodeIxPvEENS_22__tree_node_destructorINS_9allocatorIS3_EEEEEC1B7v160006IRS4_S8_EEOT_OT0_, symObjAddr: 0x14E0, symBinAddr: 0x100002630, symSize: 0x3C }
  - { offsetInCU: 0xC688, offset: 0xC688, size: 0x8, addend: 0x0, symName: __ZNSt3__117__compressed_pairIPNS_11__tree_nodeIxPvEENS_22__tree_node_destructorINS_9allocatorIS3_EEEEEC2B7v160006IRS4_S8_EEOT_OT0_, symObjAddr: 0x151C, symBinAddr: 0x10000266C, symSize: 0x48 }
  - { offsetInCU: 0xC6E0, offset: 0xC6E0, size: 0x8, addend: 0x0, symName: __ZNSt3__122__compressed_pair_elemIPNS_11__tree_nodeIxPvEELi0ELb0EEC2B7v160006IRS4_vEEOT_, symObjAddr: 0x1564, symBinAddr: 0x1000026B4, symSize: 0x24 }
  - { offsetInCU: 0xC722, offset: 0xC722, size: 0x8, addend: 0x0, symName: __ZNSt3__122__compressed_pair_elemINS_22__tree_node_destructorINS_9allocatorINS_11__tree_nodeIxPvEEEEEELi1ELb0EEC2B7v160006IS7_vEEOT_, symObjAddr: 0x1588, symBinAddr: 0x1000026D8, symSize: 0x24 }
  - { offsetInCU: 0xC769, offset: 0xC769, size: 0x8, addend: 0x0, symName: __ZNKSt3__117__compressed_pairIPNS_11__tree_nodeIxPvEENS_22__tree_node_destructorINS_9allocatorIS3_EEEEE5firstB7v160006Ev, symObjAddr: 0x15D8, symBinAddr: 0x100002728, symSize: 0x24 }
  - { offsetInCU: 0xC78F, offset: 0xC78F, size: 0x8, addend: 0x0, symName: __ZNKSt3__122__compressed_pair_elemIPNS_11__tree_nodeIxPvEELi0ELb0EE5__getB7v160006Ev, symObjAddr: 0x15FC, symBinAddr: 0x10000274C, symSize: 0x14 }
  - { offsetInCU: 0xC7B5, offset: 0xC7B5, size: 0x8, addend: 0x0, symName: __ZNSt3__117__compressed_pairIPNS_11__tree_nodeIxPvEENS_22__tree_node_destructorINS_9allocatorIS3_EEEEE6secondB7v160006Ev, symObjAddr: 0x1610, symBinAddr: 0x100002760, symSize: 0x28 }
  - { offsetInCU: 0xC7DB, offset: 0xC7DB, size: 0x8, addend: 0x0, symName: __ZNSt3__122__compressed_pair_elemINS_22__tree_node_destructorINS_9allocatorINS_11__tree_nodeIxPvEEEEEELi1ELb0EE5__getB7v160006Ev, symObjAddr: 0x1638, symBinAddr: 0x100002788, symSize: 0x14 }
  - { offsetInCU: 0xC801, offset: 0xC801, size: 0x8, addend: 0x0, symName: __ZNSt3__16__treeIxNS_4lessIxEENS_9allocatorIxEEE4sizeB7v160006Ev, symObjAddr: 0x1978, symBinAddr: 0x100002AC8, symSize: 0x28 }
  - { offsetInCU: 0xC827, offset: 0xC827, size: 0x8, addend: 0x0, symName: __ZNKSt3__116__tree_node_baseIPvE15__parent_unsafeB7v160006Ev, symObjAddr: 0x19A0, symBinAddr: 0x100002AF0, symSize: 0x18 }
  - { offsetInCU: 0xC84D, offset: 0xC84D, size: 0x8, addend: 0x0, symName: __ZNSt3__116__tree_node_baseIPvE12__set_parentB7v160006EPS2_, symObjAddr: 0x1B88, symBinAddr: 0x100002CD8, symSize: 0x20 }
  - { offsetInCU: 0xC882, offset: 0xC882, size: 0x8, addend: 0x0, symName: __ZNSt3__117__compressed_pairImNS_4lessIxEEE5firstB7v160006Ev, symObjAddr: 0x1BA8, symBinAddr: 0x100002CF8, symSize: 0x24 }
  - { offsetInCU: 0xC8A8, offset: 0xC8A8, size: 0x8, addend: 0x0, symName: __ZNSt3__122__compressed_pair_elemImLi0ELb0EE5__getB7v160006Ev, symObjAddr: 0x1BCC, symBinAddr: 0x100002D1C, symSize: 0x14 }
  - { offsetInCU: 0xC8CE, offset: 0xC8CE, size: 0x8, addend: 0x0, symName: __ZNSt3__117__compressed_pairIPNS_11__tree_nodeIxPvEENS_22__tree_node_destructorINS_9allocatorIS3_EEEEE5firstB7v160006Ev, symObjAddr: 0x1BE0, symBinAddr: 0x100002D30, symSize: 0x24 }
  - { offsetInCU: 0xC8F4, offset: 0xC8F4, size: 0x8, addend: 0x0, symName: __ZNSt3__122__compressed_pair_elemIPNS_11__tree_nodeIxPvEELi0ELb0EE5__getB7v160006Ev, symObjAddr: 0x1C04, symBinAddr: 0x100002D54, symSize: 0x14 }
  - { offsetInCU: 0xC91A, offset: 0xC91A, size: 0x8, addend: 0x0, symName: __ZNSt3__110unique_ptrINS_11__tree_nodeIxPvEENS_22__tree_node_destructorINS_9allocatorIS3_EEEEED2B7v160006Ev, symObjAddr: 0x1C18, symBinAddr: 0x100002D68, symSize: 0x30 }
  - { offsetInCU: 0xC944, offset: 0xC944, size: 0x8, addend: 0x0, symName: __ZNSt3__110unique_ptrINS_11__tree_nodeIxPvEENS_22__tree_node_destructorINS_9allocatorIS3_EEEEE5resetB7v160006EPS3_, symObjAddr: 0x1C48, symBinAddr: 0x100002D98, symSize: 0x78 }
  - { offsetInCU: 0xC988, offset: 0xC988, size: 0x8, addend: 0x0, symName: __ZNSt3__122__tree_node_destructorINS_9allocatorINS_11__tree_nodeIxPvEEEEEclB7v160006EPS4_, symObjAddr: 0x1CC0, symBinAddr: 0x100002E10, symSize: 0x90 }
  - { offsetInCU: 0xC9BD, offset: 0xC9BD, size: 0x8, addend: 0x0, symName: __ZNSt3__115__tree_iteratorIxPNS_11__tree_nodeIxPvEElEC2B7v160006ES4_, symObjAddr: 0x1D50, symBinAddr: 0x100002EA0, symSize: 0x20 }
  - { offsetInCU: 0xC9F6, offset: 0xC9F6, size: 0x8, addend: 0x0, symName: __ZNSt3__14pairINS_15__tree_iteratorIxPNS_11__tree_nodeIxPvEElEEbEC2B7v160006IS6_RbLS3_0EEEOT_OT0_, symObjAddr: 0x1D70, symBinAddr: 0x100002EC0, symSize: 0x38 }
  - { offsetInCU: 0xCA54, offset: 0xCA54, size: 0x8, addend: 0x0, symName: __ZNSt3__14pairINS_21__tree_const_iteratorIxPNS_11__tree_nodeIxPvEElEEbEC2B7v160006INS_15__tree_iteratorIxS5_lEEbLS3_0EEEONS0_IT_T0_EE, symObjAddr: 0x1DA8, symBinAddr: 0x100002EF8, symSize: 0x50 }
  - { offsetInCU: 0xCAA5, offset: 0xCAA5, size: 0x8, addend: 0x0, symName: __ZNSt3__121__tree_const_iteratorIxPNS_11__tree_nodeIxPvEElEC1B7v160006ENS_15__tree_iteratorIxS4_lEE, symObjAddr: 0x1DF8, symBinAddr: 0x100002F48, symSize: 0x34 }
  - { offsetInCU: 0xCADE, offset: 0xCADE, size: 0x8, addend: 0x0, symName: __ZNSt3__121__tree_const_iteratorIxPNS_11__tree_nodeIxPvEElEC2B7v160006ENS_15__tree_iteratorIxS4_lEE, symObjAddr: 0x1E2C, symBinAddr: 0x100002F7C, symSize: 0x20 }
  - { offsetInCU: 0xCB17, offset: 0xCB17, size: 0x8, addend: 0x0, symName: __ZNKSt3__16__treeIxNS_4lessIxEENS_9allocatorIxEEE4sizeB7v160006Ev, symObjAddr: 0x1E4C, symBinAddr: 0x100002F9C, symSize: 0x28 }
  - { offsetInCU: 0xCB3D, offset: 0xCB3D, size: 0x8, addend: 0x0, symName: __ZNKSt3__117__compressed_pairImNS_4lessIxEEE5firstB7v160006Ev, symObjAddr: 0x1E74, symBinAddr: 0x100002FC4, symSize: 0x24 }
  - { offsetInCU: 0xCB63, offset: 0xCB63, size: 0x8, addend: 0x0, symName: __ZNKSt3__122__compressed_pair_elemImLi0ELb0EE5__getB7v160006Ev, symObjAddr: 0x1E98, symBinAddr: 0x100002FE8, symSize: 0x14 }
  - { offsetInCU: 0xCBA2, offset: 0xCBA2, size: 0x8, addend: 0x0, symName: __ZNKSt3__113basic_ostreamIcNS_11char_traitsIcEEE6sentrycvbB7v160006Ev, symObjAddr: 0x2098, symBinAddr: 0x1000031E8, symSize: 0x1C }
  - { offsetInCU: 0xCBC8, offset: 0xCBC8, size: 0x8, addend: 0x0, symName: __ZNSt3__119ostreambuf_iteratorIcNS_11char_traitsIcEEEC1B7v160006ERNS_13basic_ostreamIcS2_EE, symObjAddr: 0x22F4, symBinAddr: 0x100003444, symSize: 0x34 }
  - { offsetInCU: 0xCC00, offset: 0xCC00, size: 0x8, addend: 0x0, symName: __ZNKSt3__18ios_base5flagsB7v160006Ev, symObjAddr: 0x2328, symBinAddr: 0x100003478, symSize: 0x18 }
  - { offsetInCU: 0xCC28, offset: 0xCC28, size: 0x8, addend: 0x0, symName: __ZNKSt3__19basic_iosIcNS_11char_traitsIcEEE4fillB7v160006Ev, symObjAddr: 0x2340, symBinAddr: 0x100003490, symSize: 0x64 }
  - { offsetInCU: 0xCC50, offset: 0xCC50, size: 0x8, addend: 0x0, symName: __ZNKSt3__119ostreambuf_iteratorIcNS_11char_traitsIcEEE6failedB7v160006Ev, symObjAddr: 0x23A4, symBinAddr: 0x1000034F4, symSize: 0x24 }
  - { offsetInCU: 0xCC76, offset: 0xCC76, size: 0x8, addend: 0x0, symName: __ZNSt3__19basic_iosIcNS_11char_traitsIcEEE8setstateB7v160006Ej, symObjAddr: 0x23C8, symBinAddr: 0x100003518, symSize: 0x2C }
  - { offsetInCU: 0xCCAB, offset: 0xCCAB, size: 0x8, addend: 0x0, symName: __ZNKSt3__18ios_base5widthB7v160006Ev, symObjAddr: 0x23F4, symBinAddr: 0x100003544, symSize: 0x18 }
  - { offsetInCU: 0xCCD3, offset: 0xCCD3, size: 0x8, addend: 0x0, symName: __ZNSt3__115basic_streambufIcNS_11char_traitsIcEEE5sputnB7v160006EPKcl, symObjAddr: 0x240C, symBinAddr: 0x10000355C, symSize: 0x3C }
  - { offsetInCU: 0xCD15, offset: 0xCD15, size: 0x8, addend: 0x0, symName: __ZNSt3__112basic_stringIcNS_11char_traitsIcEENS_9allocatorIcEEEC1B7v160006Emc, symObjAddr: 0x2448, symBinAddr: 0x100003598, symSize: 0x3C }
  - { offsetInCU: 0xCD5D, offset: 0xCD5D, size: 0x8, addend: 0x0, symName: __ZNSt3__112basic_stringIcNS_11char_traitsIcEENS_9allocatorIcEEE4dataB7v160006Ev, symObjAddr: 0x2484, symBinAddr: 0x1000035D4, symSize: 0x28 }
  - { offsetInCU: 0xCD83, offset: 0xCD83, size: 0x8, addend: 0x0, symName: __ZNSt3__18ios_base5widthB7v160006El, symObjAddr: 0x24AC, symBinAddr: 0x1000035FC, symSize: 0x2C }
  - { offsetInCU: 0xCDC9, offset: 0xCDC9, size: 0x8, addend: 0x0, symName: __ZNSt3__112basic_stringIcNS_11char_traitsIcEENS_9allocatorIcEEEC2B7v160006Emc, symObjAddr: 0x24D8, symBinAddr: 0x100003628, symSize: 0x54 }
  - { offsetInCU: 0xCE16, offset: 0xCE16, size: 0x8, addend: 0x0, symName: __ZNSt3__117__compressed_pairINS_12basic_stringIcNS_11char_traitsIcEENS_9allocatorIcEEE5__repES5_EC1B7v160006INS_18__default_init_tagESA_EEOT_OT0_, symObjAddr: 0x252C, symBinAddr: 0x10000367C, symSize: 0x3C }
  - { offsetInCU: 0xCE6E, offset: 0xCE6E, size: 0x8, addend: 0x0, symName: __ZNSt3__117__compressed_pairINS_12basic_stringIcNS_11char_traitsIcEENS_9allocatorIcEEE5__repES5_EC2B7v160006INS_18__default_init_tagESA_EEOT_OT0_, symObjAddr: 0x2578, symBinAddr: 0x1000036C8, symSize: 0x3C }
  - { offsetInCU: 0xCEC6, offset: 0xCEC6, size: 0x8, addend: 0x0, symName: __ZNSt3__122__compressed_pair_elemINS_12basic_stringIcNS_11char_traitsIcEENS_9allocatorIcEEE5__repELi0ELb0EEC2B7v160006ENS_18__default_init_tagE, symObjAddr: 0x25B4, symBinAddr: 0x100003704, symSize: 0x14 }
  - { offsetInCU: 0xCEFB, offset: 0xCEFB, size: 0x8, addend: 0x0, symName: __ZNSt3__122__compressed_pair_elemINS_9allocatorIcEELi1ELb1EEC2B7v160006ENS_18__default_init_tagE, symObjAddr: 0x25C8, symBinAddr: 0x100003718, symSize: 0x2C }
  - { offsetInCU: 0xCF30, offset: 0xCF30, size: 0x8, addend: 0x0, symName: __ZNSt3__19allocatorIcEC2B7v160006Ev, symObjAddr: 0x25F4, symBinAddr: 0x100003744, symSize: 0x2C }
  - { offsetInCU: 0xCF5A, offset: 0xCF5A, size: 0x8, addend: 0x0, symName: __ZNSt3__116__non_trivial_ifILb1ENS_9allocatorIcEEEC2B7v160006Ev, symObjAddr: 0x2620, symBinAddr: 0x100003770, symSize: 0x14 }
  - { offsetInCU: 0xCF84, offset: 0xCF84, size: 0x8, addend: 0x0, symName: __ZNSt3__112basic_stringIcNS_11char_traitsIcEENS_9allocatorIcEEE13__get_pointerB7v160006Ev, symObjAddr: 0x2648, symBinAddr: 0x100003798, symSize: 0x54 }
  - { offsetInCU: 0xCFAA, offset: 0xCFAA, size: 0x8, addend: 0x0, symName: __ZNKSt3__112basic_stringIcNS_11char_traitsIcEENS_9allocatorIcEEE9__is_longB7v160006Ev, symObjAddr: 0x269C, symBinAddr: 0x1000037EC, symSize: 0x38 }
  - { offsetInCU: 0xCFD0, offset: 0xCFD0, size: 0x8, addend: 0x0, symName: __ZNSt3__112basic_stringIcNS_11char_traitsIcEENS_9allocatorIcEEE18__get_long_pointerB7v160006Ev, symObjAddr: 0x26D4, symBinAddr: 0x100003824, symSize: 0x28 }
  - { offsetInCU: 0xCFF6, offset: 0xCFF6, size: 0x8, addend: 0x0, symName: __ZNSt3__112basic_stringIcNS_11char_traitsIcEENS_9allocatorIcEEE19__get_short_pointerB7v160006Ev, symObjAddr: 0x26FC, symBinAddr: 0x10000384C, symSize: 0x28 }
  - { offsetInCU: 0xD01C, offset: 0xD01C, size: 0x8, addend: 0x0, symName: __ZNKSt3__117__compressed_pairINS_12basic_stringIcNS_11char_traitsIcEENS_9allocatorIcEEE5__repES5_E5firstB7v160006Ev, symObjAddr: 0x2724, symBinAddr: 0x100003874, symSize: 0x24 }
  - { offsetInCU: 0xD042, offset: 0xD042, size: 0x8, addend: 0x0, symName: __ZNKSt3__122__compressed_pair_elemINS_12basic_stringIcNS_11char_traitsIcEENS_9allocatorIcEEE5__repELi0ELb0EE5__getB7v160006Ev, symObjAddr: 0x2748, symBinAddr: 0x100003898, symSize: 0x14 }
  - { offsetInCU: 0xD068, offset: 0xD068, size: 0x8, addend: 0x0, symName: __ZNSt3__117__compressed_pairINS_12basic_stringIcNS_11char_traitsIcEENS_9allocatorIcEEE5__repES5_E5firstB7v160006Ev, symObjAddr: 0x275C, symBinAddr: 0x1000038AC, symSize: 0x24 }
  - { offsetInCU: 0xD08E, offset: 0xD08E, size: 0x8, addend: 0x0, symName: __ZNSt3__122__compressed_pair_elemINS_12basic_stringIcNS_11char_traitsIcEENS_9allocatorIcEEE5__repELi0ELb0EE5__getB7v160006Ev, symObjAddr: 0x2780, symBinAddr: 0x1000038D0, symSize: 0x14 }
  - { offsetInCU: 0xD0B4, offset: 0xD0B4, size: 0x8, addend: 0x0, symName: __ZNSt3__114pointer_traitsIPcE10pointer_toB7v160006ERc, symObjAddr: 0x2794, symBinAddr: 0x1000038E4, symSize: 0x14 }
  - { offsetInCU: 0xD0D7, offset: 0xD0D7, size: 0x8, addend: 0x0, symName: __ZNSt3__119ostreambuf_iteratorIcNS_11char_traitsIcEEEC2B7v160006ERNS_13basic_ostreamIcS2_EE, symObjAddr: 0x27A8, symBinAddr: 0x1000038F8, symSize: 0x54 }
  - { offsetInCU: 0xD10F, offset: 0xD10F, size: 0x8, addend: 0x0, symName: __ZNKSt3__19basic_iosIcNS_11char_traitsIcEEE5rdbufB7v160006Ev, symObjAddr: 0x27FC, symBinAddr: 0x10000394C, symSize: 0x24 }
  - { offsetInCU: 0xD137, offset: 0xD137, size: 0x8, addend: 0x0, symName: __ZNKSt3__18ios_base5rdbufB7v160006Ev, symObjAddr: 0x2820, symBinAddr: 0x100003970, symSize: 0x18 }
  - { offsetInCU: 0xD15D, offset: 0xD15D, size: 0x8, addend: 0x0, symName: __ZNSt3__111char_traitsIcE11eq_int_typeEii, symObjAddr: 0x2838, symBinAddr: 0x100003988, symSize: 0x28 }
  - { offsetInCU: 0xD18E, offset: 0xD18E, size: 0x8, addend: 0x0, symName: __ZNSt3__111char_traitsIcE3eofEv, symObjAddr: 0x2860, symBinAddr: 0x1000039B0, symSize: 0x8 }
  - { offsetInCU: 0xD1A2, offset: 0xD1A2, size: 0x8, addend: 0x0, symName: __ZNKSt3__19basic_iosIcNS_11char_traitsIcEEE5widenB7v160006Ec, symObjAddr: 0x2868, symBinAddr: 0x1000039B8, symSize: 0x84 }
  - { offsetInCU: 0xD210, offset: 0xD210, size: 0x8, addend: 0x0, symName: __ZNKSt3__15ctypeIcE5widenB7v160006Ec, symObjAddr: 0x2918, symBinAddr: 0x100003A68, symSize: 0x38 }
  - { offsetInCU: 0xD245, offset: 0xD245, size: 0x8, addend: 0x0, symName: __ZNSt3__18ios_base8setstateB7v160006Ej, symObjAddr: 0x2950, symBinAddr: 0x100003AA0, symSize: 0x34 }
...
