---
triple:          'arm64-apple-darwin'
binary-path:     '/Users/rohakdebnath/Desktop/Cpp /CSES/buildingteams'
relocations:
  - { offsetInCU: 0x37, offset: 0x37, size: 0x8, addend: 0x0, symName: _adj, symObjAddr: 0x37340, symBinAddr: 0x10000C000, symSize: 0x0 }
  - { offsetInCU: 0x67D9, offset: 0x67D9, size: 0x8, addend: 0x0, symName: __ZNSt3__17advanceB7v160006IPNS_6vectorIxNS_9allocatorIxEEEEllvEEvRT_T0_, symObjAddr: 0x2C98, symBinAddr: 0x100004A88, symSize: 0x50 }
  - { offsetInCU: 0x6A59, offset: 0x6A59, size: 0x8, addend: 0x0, symName: __ZNSt3__17advanceB7v160006INS_16reverse_iteratorIPNS_6vectorIxNS_9allocatorIxEEEEEEllvEEvRT_T0_, symObjAddr: 0x3098, symBinAddr: 0x100004E88, symSize: 0x50 }
  - { offsetInCU: 0x6CB4, offset: 0x6CB4, size: 0x8, addend: 0x0, symName: __ZNSt3__124__put_character_sequenceB7v160006IcNS_11char_traitsIcEEEERNS_13basic_ostreamIT_T0_EES7_PKS4_m, symObjAddr: 0x4D24, symBinAddr: 0x100006B14, symSize: 0x1EC }
  - { offsetInCU: 0x8AFD, offset: 0x8AFD, size: 0x8, addend: 0x0, symName: __ZNSt3__1neB7v160006IPxEEbRKNS_11__wrap_iterIT_EES6_, symObjAddr: 0x288, symBinAddr: 0x100002078, symSize: 0x34 }
  - { offsetInCU: 0x8B40, offset: 0x8B40, size: 0x8, addend: 0x0, symName: __ZNSt3__1lsB7v160006INS_11char_traitsIcEEEERNS_13basic_ostreamIcT_EES6_c, symObjAddr: 0x70C, symBinAddr: 0x1000024FC, symSize: 0x34 }
  - { offsetInCU: 0x8B86, offset: 0x8B86, size: 0x8, addend: 0x0, symName: __ZNSt3__1lsB7v160006INS_11char_traitsIcEEEERNS_13basic_ostreamIcT_EES6_PKc, symObjAddr: 0x740, symBinAddr: 0x100002530, symSize: 0x48 }
  - { offsetInCU: 0x8BCC, offset: 0x8BCC, size: 0x8, addend: 0x0, symName: __ZNSt3__118__debug_db_erase_cB7v160006INS_6vectorINS1_IxNS_9allocatorIxEEEENS2_IS4_EEEEEEvPT_, symObjAddr: 0x99C, symBinAddr: 0x10000278C, symSize: 0x10 }
  - { offsetInCU: 0x8BFD, offset: 0x8BFD, size: 0x8, addend: 0x0, symName: __ZNSt3__112__to_addressB7v160006INS_6vectorIxNS_9allocatorIxEEEEEEPT_S6_, symObjAddr: 0xAE0, symBinAddr: 0x1000028D0, symSize: 0x14 }
  - { offsetInCU: 0x8C32, offset: 0x8C32, size: 0x8, addend: 0x0, symName: __ZNSt3__110destroy_atB7v160006INS_6vectorIxNS_9allocatorIxEEEELi0EEEvPT_, symObjAddr: 0xBA8, symBinAddr: 0x100002998, symSize: 0x24 }
  - { offsetInCU: 0x8C69, offset: 0x8C69, size: 0x8, addend: 0x0, symName: __ZNSt3__112__destroy_atB7v160006INS_6vectorIxNS_9allocatorIxEEEELi0EEEvPT_, symObjAddr: 0xBCC, symBinAddr: 0x1000029BC, symSize: 0x24 }
  - { offsetInCU: 0x8CA0, offset: 0x8CA0, size: 0x8, addend: 0x0, symName: __ZNSt3__119__libcpp_deallocateB7v160006EPvmm, symObjAddr: 0xC34, symBinAddr: 0x100002A24, symSize: 0x60 }
  - { offsetInCU: 0x8D05, offset: 0x8D05, size: 0x8, addend: 0x0, symName: __ZNSt3__124__is_overaligned_for_newB7v160006Em, symObjAddr: 0xC94, symBinAddr: 0x100002A84, symSize: 0x20 }
  - { offsetInCU: 0x8D33, offset: 0x8D33, size: 0x8, addend: 0x0, symName: __ZNSt3__127__do_deallocate_handle_sizeB7v160006IJSt11align_val_tEEEvPvmDpT_, symObjAddr: 0xCB4, symBinAddr: 0x100002AA4, symSize: 0x30 }
  - { offsetInCU: 0x8D86, offset: 0x8D86, size: 0x8, addend: 0x0, symName: __ZNSt3__127__do_deallocate_handle_sizeB7v160006IJEEEvPvmDpT_, symObjAddr: 0xCE4, symBinAddr: 0x100002AD4, symSize: 0x28 }
  - { offsetInCU: 0x8DC4, offset: 0x8DC4, size: 0x8, addend: 0x0, symName: __ZNSt3__124__libcpp_operator_deleteB7v160006IJPvSt11align_val_tEEEvDpT_, symObjAddr: 0xD0C, symBinAddr: 0x100002AFC, symSize: 0x2C }
  - { offsetInCU: 0x8E0D, offset: 0x8E0D, size: 0x8, addend: 0x0, symName: __ZNSt3__124__libcpp_operator_deleteB7v160006IJPvEEEvDpT_, symObjAddr: 0xD38, symBinAddr: 0x100002B28, symSize: 0x24 }
  - { offsetInCU: 0x8E42, offset: 0x8E42, size: 0x8, addend: 0x0, symName: __ZNSt3__118__debug_db_erase_cB7v160006INS_6vectorIxNS_9allocatorIxEEEEEEvPT_, symObjAddr: 0xFE0, symBinAddr: 0x100002DD0, symSize: 0x10 }
  - { offsetInCU: 0x8E73, offset: 0x8E73, size: 0x8, addend: 0x0, symName: __ZNSt3__112__to_addressB7v160006IxEEPT_S2_, symObjAddr: 0x1124, symBinAddr: 0x100002F14, symSize: 0x14 }
  - { offsetInCU: 0x8EA8, offset: 0x8EA8, size: 0x8, addend: 0x0, symName: __ZNSt3__110destroy_atB7v160006IxLi0EEEvPT_, symObjAddr: 0x11EC, symBinAddr: 0x100002FDC, symSize: 0x24 }
  - { offsetInCU: 0x8EDF, offset: 0x8EDF, size: 0x8, addend: 0x0, symName: __ZNSt3__112__destroy_atB7v160006IxLi0EEEvPT_, symObjAddr: 0x1210, symBinAddr: 0x100003000, symSize: 0x10 }
  - { offsetInCU: 0x8F16, offset: 0x8F16, size: 0x8, addend: 0x0, symName: __ZNSt3__1eqB7v160006IPxEEbRKNS_11__wrap_iterIT_EES6_, symObjAddr: 0x138C, symBinAddr: 0x10000317C, symSize: 0x48 }
  - { offsetInCU: 0x8F7E, offset: 0x8F7E, size: 0x8, addend: 0x0, symName: __ZNSt3__112construct_atB7v160006INS_6vectorIxNS_9allocatorIxEEEEJEPS4_EEPT_S7_DpOT0_, symObjAddr: 0x1A48, symBinAddr: 0x100003838, symSize: 0x34 }
  - { offsetInCU: 0x8FDA, offset: 0x8FDA, size: 0x8, addend: 0x0, symName: __ZNSt3__119__debug_db_insert_cB7v160006INS_6vectorIxNS_9allocatorIxEEEEEEvPT_, symObjAddr: 0x1B3C, symBinAddr: 0x10000392C, symSize: 0x10 }
  - { offsetInCU: 0x900B, offset: 0x900B, size: 0x8, addend: 0x0, symName: __ZNSt3__13maxB7v160006ImEERKT_S3_S3_, symObjAddr: 0x1CB0, symBinAddr: 0x100003AA0, symSize: 0x2C }
  - { offsetInCU: 0x904E, offset: 0x904E, size: 0x8, addend: 0x0, symName: __ZNSt3__13minB7v160006ImEERKT_S3_S3_, symObjAddr: 0x1CDC, symBinAddr: 0x100003ACC, symSize: 0x2C }
  - { offsetInCU: 0x927B, offset: 0x927B, size: 0x8, addend: 0x0, symName: __ZNSt3__13minB7v160006ImNS_6__lessImmEEEERKT_S5_S5_T0_, symObjAddr: 0x1D6C, symBinAddr: 0x100003B5C, symSize: 0x54 }
  - { offsetInCU: 0x94FC, offset: 0x94FC, size: 0x8, addend: 0x0, symName: __ZNSt3__120__throw_length_errorB7v160006EPKc, symObjAddr: 0x1E50, symBinAddr: 0x100003C40, symSize: 0x64 }
  - { offsetInCU: 0x9524, offset: 0x9524, size: 0x8, addend: 0x0, symName: __ZNSt3__13maxB7v160006ImNS_6__lessImmEEEERKT_S5_S5_T0_, symObjAddr: 0x1F34, symBinAddr: 0x100003D24, symSize: 0x54 }
  - { offsetInCU: 0x957E, offset: 0x957E, size: 0x8, addend: 0x0, symName: __ZNSt3__119__allocate_at_leastB7v160006INS_9allocatorINS_6vectorIxNS1_IxEEEEEEEEDaRT_m, symObjAddr: 0x20A4, symBinAddr: 0x100003E94, symSize: 0x3C }
  - { offsetInCU: 0x95C1, offset: 0x95C1, size: 0x8, addend: 0x0, symName: __ZNSt3__117allocate_at_leastB7v160006INS_9allocatorINS_6vectorIxNS1_IxEEEEEEEENS_17allocation_resultINS_16allocator_traitsIT_E7pointerEEERS8_m, symObjAddr: 0x21B4, symBinAddr: 0x100003FA4, symSize: 0x3C }
  - { offsetInCU: 0x9604, offset: 0x9604, size: 0x8, addend: 0x0, symName: __ZNSt3__117__libcpp_allocateB7v160006Emm, symObjAddr: 0x22C0, symBinAddr: 0x1000040B0, symSize: 0x60 }
  - { offsetInCU: 0x965E, offset: 0x965E, size: 0x8, addend: 0x0, symName: __ZNSt3__121__libcpp_operator_newB7v160006IJmSt11align_val_tEEEPvDpT_, symObjAddr: 0x2320, symBinAddr: 0x100004110, symSize: 0x2C }
  - { offsetInCU: 0x96AB, offset: 0x96AB, size: 0x8, addend: 0x0, symName: __ZNSt3__121__libcpp_operator_newB7v160006IJmEEEPvDpT_, symObjAddr: 0x234C, symBinAddr: 0x10000413C, symSize: 0x24 }
  - { offsetInCU: 0x96E4, offset: 0x96E4, size: 0x8, addend: 0x0, symName: __ZNSt3__142__uninitialized_allocator_move_if_noexceptB7v160006INS_9allocatorINS_6vectorIxNS1_IxEEEEEENS_16reverse_iteratorIPS4_EES8_S8_EET2_RT_T0_T1_S9_, symObjAddr: 0x24A8, symBinAddr: 0x100004298, symSize: 0x12C }
  - { offsetInCU: 0x9784, offset: 0x9784, size: 0x8, addend: 0x0, symName: __ZNSt3__14swapB7v160006IPNS_6vectorIxNS_9allocatorIxEEEEEENS_9enable_ifIXaasr21is_move_constructibleIT_EE5valuesr18is_move_assignableIS7_EE5valueEvE4typeERS7_SA_, symObjAddr: 0x2620, symBinAddr: 0x100004410, symSize: 0x3C }
  - { offsetInCU: 0x97D5, offset: 0x97D5, size: 0x8, addend: 0x0, symName: __ZNSt3__125__debug_db_invalidate_allB7v160006INS_6vectorINS1_IxNS_9allocatorIxEEEENS2_IS4_EEEEEEvPT_, symObjAddr: 0x2724, symBinAddr: 0x100004514, symSize: 0x10 }
  - { offsetInCU: 0x9806, offset: 0x9806, size: 0x8, addend: 0x0, symName: __ZNSt3__122__make_exception_guardB7v160006INS_29_AllocatorDestroyRangeReverseINS_9allocatorINS_6vectorIxNS2_IxEEEEEENS_16reverse_iteratorIPS5_EEEEEENS_28__exception_guard_exceptionsIT_EESC_, symObjAddr: 0x2734, symBinAddr: 0x100004524, symSize: 0x4C }
  - { offsetInCU: 0x983C, offset: 0x983C, size: 0x8, addend: 0x0, symName: __ZNSt3__1neB7v160006IPNS_6vectorIxNS_9allocatorIxEEEES5_EEbRKNS_16reverse_iteratorIT_EERKNS6_IT0_EE, symObjAddr: 0x27C4, symBinAddr: 0x1000045B4, symSize: 0x48 }
  - { offsetInCU: 0x9888, offset: 0x9888, size: 0x8, addend: 0x0, symName: __ZNSt3__112__to_addressB7v160006INS_16reverse_iteratorIPNS_6vectorIxNS_9allocatorIxEEEEEEvEENS_5decayIDTclsr19__to_address_helperIT_EE6__callclsr3stdE7declvalIRKS9_EEEEE4typeESB_, symObjAddr: 0x283C, symBinAddr: 0x10000462C, symSize: 0x24 }
  - { offsetInCU: 0x98BE, offset: 0x98BE, size: 0x8, addend: 0x0, symName: __ZNSt3__112construct_atB7v160006INS_6vectorIxNS_9allocatorIxEEEEJS4_EPS4_EEPT_S7_DpOT0_, symObjAddr: 0x298C, symBinAddr: 0x10000477C, symSize: 0x3C }
  - { offsetInCU: 0x992E, offset: 0x992E, size: 0x8, addend: 0x0, symName: __ZNSt3__115__debug_db_swapB7v160006INS_6vectorIxNS_9allocatorIxEEEEEEvPT_S6_, symObjAddr: 0x2B14, symBinAddr: 0x100004904, symSize: 0x14 }
  - { offsetInCU: 0x9996, offset: 0x9996, size: 0x8, addend: 0x0, symName: __ZNSt3__14prevB7v160006IPNS_6vectorIxNS_9allocatorIxEEEEEENS_9enable_ifIXsr25__is_cpp17_input_iteratorIT_EE5valueES7_E4typeES7_NS_15iterator_traitsIS7_E15difference_typeE, symObjAddr: 0x2C48, symBinAddr: 0x100004A38, symSize: 0x50 }
  - { offsetInCU: 0x99D9, offset: 0x99D9, size: 0x8, addend: 0x0, symName: __ZNSt3__121__convert_to_integralB7v160006El, symObjAddr: 0x2CE8, symBinAddr: 0x100004AD8, symSize: 0x14 }
  - { offsetInCU: 0x9A05, offset: 0x9A05, size: 0x8, addend: 0x0, symName: __ZNSt3__19__advanceB7v160006IPNS_6vectorIxNS_9allocatorIxEEEEEEvRT_NS_15iterator_traitsIS6_E15difference_typeENS_26random_access_iterator_tagE, symObjAddr: 0x2CFC, symBinAddr: 0x100004AEC, symSize: 0x30 }
  - { offsetInCU: 0x9A4E, offset: 0x9A4E, size: 0x8, addend: 0x0, symName: __ZNSt3__119__allocator_destroyB7v160006INS_9allocatorINS_6vectorIxNS1_IxEEEEEENS_16reverse_iteratorINS6_IPS4_EEEES9_EEvRT_T0_T1_, symObjAddr: 0x2E30, symBinAddr: 0x100004C20, symSize: 0x70 }
  - { offsetInCU: 0x9AB3, offset: 0x9AB3, size: 0x8, addend: 0x0, symName: __ZNSt3__1neB7v160006INS_16reverse_iteratorIPNS_6vectorIxNS_9allocatorIxEEEEEES7_EEbRKNS1_IT_EERKNS1_IT0_EE, symObjAddr: 0x2EDC, symBinAddr: 0x100004CCC, symSize: 0x60 }
  - { offsetInCU: 0x9AFF, offset: 0x9AFF, size: 0x8, addend: 0x0, symName: __ZNSt3__112__to_addressB7v160006INS_16reverse_iteratorINS1_IPNS_6vectorIxNS_9allocatorIxEEEEEEEEvEENS_5decayIDTclsr19__to_address_helperIT_EE6__callclsr3stdE7declvalIRKSA_EEEEE4typeESC_, symObjAddr: 0x2F3C, symBinAddr: 0x100004D2C, symSize: 0x24 }
  - { offsetInCU: 0x9B5E, offset: 0x9B5E, size: 0x8, addend: 0x0, symName: __ZNSt3__14prevB7v160006INS_16reverse_iteratorIPNS_6vectorIxNS_9allocatorIxEEEEEEEENS_9enable_ifIXsr25__is_cpp17_input_iteratorIT_EE5valueES9_E4typeES9_NS_15iterator_traitsIS9_E15difference_typeE, symObjAddr: 0x3038, symBinAddr: 0x100004E28, symSize: 0x60 }
  - { offsetInCU: 0x9BA1, offset: 0x9BA1, size: 0x8, addend: 0x0, symName: __ZNSt3__19__advanceB7v160006INS_16reverse_iteratorIPNS_6vectorIxNS_9allocatorIxEEEEEEEEvRT_NS_15iterator_traitsIS8_E15difference_typeENS_26random_access_iterator_tagE, symObjAddr: 0x30E8, symBinAddr: 0x100004ED8, symSize: 0x2C }
  - { offsetInCU: 0x9C0F, offset: 0x9C0F, size: 0x8, addend: 0x0, symName: __ZNSt3__112construct_atB7v160006IxJEPxEEPT_S3_DpOT0_, symObjAddr: 0x3A7C, symBinAddr: 0x10000586C, symSize: 0x20 }
  - { offsetInCU: 0x9C6B, offset: 0x9C6B, size: 0x8, addend: 0x0, symName: __ZNSt3__119__allocate_at_leastB7v160006INS_9allocatorIxEEEEDaRT_m, symObjAddr: 0x3CD0, symBinAddr: 0x100005AC0, symSize: 0x3C }
  - { offsetInCU: 0x9CAE, offset: 0x9CAE, size: 0x8, addend: 0x0, symName: __ZNSt3__117allocate_at_leastB7v160006INS_9allocatorIxEEEENS_17allocation_resultINS_16allocator_traitsIT_E7pointerEEERS5_m, symObjAddr: 0x3DC4, symBinAddr: 0x100005BB4, symSize: 0x3C }
  - { offsetInCU: 0x9CF1, offset: 0x9CF1, size: 0x8, addend: 0x0, symName: __ZNSt3__142__uninitialized_allocator_move_if_noexceptB7v160006INS_9allocatorIxEENS_16reverse_iteratorIPxEES5_xvEET1_RT_T0_S9_S6_, symObjAddr: 0x3FC8, symBinAddr: 0x100005DB8, symSize: 0x78 }
  - { offsetInCU: 0x9D6E, offset: 0x9D6E, size: 0x8, addend: 0x0, symName: __ZNSt3__14swapB7v160006IPxEENS_9enable_ifIXaasr21is_move_constructibleIT_EE5valuesr18is_move_assignableIS3_EE5valueEvE4typeERS3_S6_, symObjAddr: 0x408C, symBinAddr: 0x100005E7C, symSize: 0x3C }
  - { offsetInCU: 0x9DBF, offset: 0x9DBF, size: 0x8, addend: 0x0, symName: __ZNSt3__125__debug_db_invalidate_allB7v160006INS_6vectorIxNS_9allocatorIxEEEEEEvPT_, symObjAddr: 0x4174, symBinAddr: 0x100005F64, symSize: 0x10 }
  - { offsetInCU: 0x9DF0, offset: 0x9DF0, size: 0x8, addend: 0x0, symName: __ZNSt3__14moveB7v160006INS_16reverse_iteratorIPxEES3_EET0_T_S5_S4_, symObjAddr: 0x4184, symBinAddr: 0x100005F74, symSize: 0x78 }
  - { offsetInCU: 0x9E4A, offset: 0x9E4A, size: 0x8, addend: 0x0, symName: __ZNSt3__16__moveB7v160006INS_17_ClassicAlgPolicyENS_16reverse_iteratorIPxEES4_S4_EENS_4pairIT0_T2_EES6_T1_S7_, symObjAddr: 0x41FC, symBinAddr: 0x100005FEC, symSize: 0x64 }
  - { offsetInCU: 0x9EB6, offset: 0x9EB6, size: 0x8, addend: 0x0, symName: __ZNSt3__123__dispatch_copy_or_moveB7v160006INS_17_ClassicAlgPolicyENS_11__move_loopIS1_EENS_14__move_trivialENS_16reverse_iteratorIPxEES7_S7_EENS_4pairIT2_T4_EES9_T3_SA_, symObjAddr: 0x4260, symBinAddr: 0x100006050, symSize: 0x64 }
  - { offsetInCU: 0x9F34, offset: 0x9F34, size: 0x8, addend: 0x0, symName: __ZNSt3__121__unwrap_and_dispatchB7v160006INS_10__overloadINS_11__move_loopINS_17_ClassicAlgPolicyEEENS_14__move_trivialEEENS_16reverse_iteratorIPxEES9_S9_Li0EEENS_4pairIT0_T2_EESB_T1_SC_, symObjAddr: 0x42C4, symBinAddr: 0x1000060B4, symSize: 0x12C }
  - { offsetInCU: 0x9FC4, offset: 0x9FC4, size: 0x8, addend: 0x0, symName: __ZNSt3__114__unwrap_rangeB7v160006INS_16reverse_iteratorIPxEES3_EEDaT_T0_, symObjAddr: 0x43F0, symBinAddr: 0x1000061E0, symSize: 0x4C }
  - { offsetInCU: 0xA18C, offset: 0xA18C, size: 0x8, addend: 0x0, symName: __ZNSt3__113__unwrap_iterB7v160006INS_16reverse_iteratorIPxEENS_18__unwrap_iter_implIS3_Lb0EEELi0EEEDTclsrT0_8__unwrapclsr3stdE7declvalIT_EEEES7_, symObjAddr: 0x44DC, symBinAddr: 0x1000062CC, symSize: 0x44 }
  - { offsetInCU: 0xA1D0, offset: 0xA1D0, size: 0x8, addend: 0x0, symName: __ZNSt3__19make_pairB7v160006INS_16reverse_iteratorIPxEES3_EENS_4pairINS_18__unwrap_ref_decayIT_E4typeENS5_IT0_E4typeEEEOS6_OS9_, symObjAddr: 0x4520, symBinAddr: 0x100006310, symSize: 0x38 }
  - { offsetInCU: 0xA21F, offset: 0xA21F, size: 0x8, addend: 0x0, symName: __ZNSt3__114__rewrap_rangeB7v160006INS_16reverse_iteratorIPxEES3_S3_EET0_S4_T1_, symObjAddr: 0x4558, symBinAddr: 0x100006348, symSize: 0x5C }
  - { offsetInCU: 0xA274, offset: 0xA274, size: 0x8, addend: 0x0, symName: __ZNSt3__113__rewrap_iterB7v160006INS_16reverse_iteratorIPxEES3_NS_18__unwrap_iter_implIS3_Lb0EEEEET_S6_T0_, symObjAddr: 0x45B4, symBinAddr: 0x1000063A4, symSize: 0x74 }
  - { offsetInCU: 0xA319, offset: 0xA319, size: 0x8, addend: 0x0, symName: __ZNSt3__1neB7v160006IPxS1_EEbRKNS_16reverse_iteratorIT_EERKNS2_IT0_EE, symObjAddr: 0x471C, symBinAddr: 0x10000650C, symSize: 0x48 }
  - { offsetInCU: 0xA417, offset: 0xA417, size: 0x8, addend: 0x0, symName: __ZNSt3__112construct_atB7v160006IxJxEPxEEPT_S3_DpOT0_, symObjAddr: 0x4CF8, symBinAddr: 0x100006AE8, symSize: 0x2C }
  - { offsetInCU: 0xA487, offset: 0xA487, size: 0x8, addend: 0x0, symName: __ZNSt3__116__pad_and_outputB7v160006IcNS_11char_traitsIcEEEENS_19ostreambuf_iteratorIT_T0_EES6_PKS4_S8_S8_RNS_8ios_baseES4_, symObjAddr: 0x4F2C, symBinAddr: 0x100006D1C, symSize: 0x240 }
  - { offsetInCU: 0xA556, offset: 0xA556, size: 0x8, addend: 0x0, symName: __ZNSt3__119__debug_db_insert_cB7v160006INS_12basic_stringIcNS_11char_traitsIcEENS_9allocatorIcEEEEEEvPT_, symObjAddr: 0x53E0, symBinAddr: 0x1000071D0, symSize: 0x10 }
  - { offsetInCU: 0xA587, offset: 0xA587, size: 0x8, addend: 0x0, symName: __ZNSt3__112__to_addressB7v160006IcEEPT_S2_, symObjAddr: 0x54AC, symBinAddr: 0x10000729C, symSize: 0x14 }
  - { offsetInCU: 0xA5BC, offset: 0xA5BC, size: 0x8, addend: 0x0, symName: __ZNSt3__19use_facetB7v160006INS_5ctypeIcEEEERKT_RKNS_6localeE, symObjAddr: 0x5764, symBinAddr: 0x100007554, symSize: 0x2C }
  - { offsetInCU: 0xAA8B, offset: 0xAA8B, size: 0x8, addend: 0x0, symName: __ZNSt3__118__constexpr_strlenB7v160006EPKc, symObjAddr: 0x5830, symBinAddr: 0x100007620, symSize: 0x24 }
  - { offsetInCU: 0xAE12, offset: 0xAE12, size: 0x8, addend: 0x0, symName: __ZSt28__throw_bad_array_new_lengthB7v160006v, symObjAddr: 0x228C, symBinAddr: 0x10000407C, symSize: 0x34 }
  - { offsetInCU: 0xB17A, offset: 0xB17A, size: 0x8, addend: 0x0, symName: _color, symObjAddr: 0x37358, symBinAddr: 0x10000C018, symSize: 0x0 }
  - { offsetInCU: 0xB49E, offset: 0xB49E, size: 0x8, addend: 0x0, symName: __ZNSt3__16vectorINS0_IxNS_9allocatorIxEEEENS1_IS3_EEE26__swap_out_circular_bufferERNS_14__split_bufferIS3_RS4_EE, symObjAddr: 0x17F0, symBinAddr: 0x1000035E0, symSize: 0x118 }
  - { offsetInCU: 0xB531, offset: 0xB531, size: 0x8, addend: 0x0, symName: __ZNSt3__16vectorIxNS_9allocatorIxEEE26__swap_out_circular_bufferERNS_14__split_bufferIxRS2_EE, symObjAddr: 0x3864, symBinAddr: 0x100005654, symSize: 0x118 }
  - { offsetInCU: 0xDC5A, offset: 0xDC5A, size: 0x8, addend: 0x0, symName: __ZNSt3__16vectorINS0_IxNS_9allocatorIxEEEENS1_IS3_EEED1B7v160006Ev, symObjAddr: 0x0, symBinAddr: 0x100001DF0, symSize: 0x2C }
  - { offsetInCU: 0xDC84, offset: 0xDC84, size: 0x8, addend: 0x0, symName: __ZNSt3__16vectorIxNS_9allocatorIxEEED1B7v160006Ev, symObjAddr: 0x2C, symBinAddr: 0x100001E1C, symSize: 0x2C }
  - { offsetInCU: 0xDCAD, offset: 0xDCAD, size: 0x8, addend: 0x0, symName: __Z3dfsi, symObjAddr: 0x58, symBinAddr: 0x100001E48, symSize: 0x180 }
  - { offsetInCU: 0xDD47, offset: 0xDD47, size: 0x8, addend: 0x0, symName: __ZNSt3__16vectorIxNS_9allocatorIxEEEixB7v160006Em, symObjAddr: 0x1D8, symBinAddr: 0x100001FC8, symSize: 0x24 }
  - { offsetInCU: 0xDD7E, offset: 0xDD7E, size: 0x8, addend: 0x0, symName: __ZNSt3__16vectorINS0_IxNS_9allocatorIxEEEENS1_IS3_EEEixB7v160006Em, symObjAddr: 0x1FC, symBinAddr: 0x100001FEC, symSize: 0x2C }
  - { offsetInCU: 0xDDB5, offset: 0xDDB5, size: 0x8, addend: 0x0, symName: __ZNSt3__16vectorIxNS_9allocatorIxEEE5beginB7v160006Ev, symObjAddr: 0x228, symBinAddr: 0x100002018, symSize: 0x30 }
  - { offsetInCU: 0xDDDD, offset: 0xDDDD, size: 0x8, addend: 0x0, symName: __ZNSt3__16vectorIxNS_9allocatorIxEEE3endB7v160006Ev, symObjAddr: 0x258, symBinAddr: 0x100002048, symSize: 0x30 }
  - { offsetInCU: 0xDE05, offset: 0xDE05, size: 0x8, addend: 0x0, symName: __ZNKSt3__111__wrap_iterIPxEdeB7v160006Ev, symObjAddr: 0x2BC, symBinAddr: 0x1000020AC, symSize: 0x18 }
  - { offsetInCU: 0xDE2B, offset: 0xDE2B, size: 0x8, addend: 0x0, symName: __ZNSt3__111__wrap_iterIPxEppB7v160006Ev, symObjAddr: 0x2D4, symBinAddr: 0x1000020C4, symSize: 0x20 }
  - { offsetInCU: 0xDE51, offset: 0xDE51, size: 0x8, addend: 0x0, symName: _main, symObjAddr: 0x2F4, symBinAddr: 0x1000020E4, symSize: 0x250 }
  - { offsetInCU: 0xDF14, offset: 0xDF14, size: 0x8, addend: 0x0, symName: __ZNSt3__19basic_iosIcNS_11char_traitsIcEEE3tieB7v160006EPNS_13basic_ostreamIcS2_EE, symObjAddr: 0x544, symBinAddr: 0x100002334, symSize: 0x2C }
  - { offsetInCU: 0xDF5A, offset: 0xDF5A, size: 0x8, addend: 0x0, symName: __ZNSt3__16vectorINS0_IxNS_9allocatorIxEEEENS1_IS3_EEE6resizeEm, symObjAddr: 0x570, symBinAddr: 0x100002360, symSize: 0x9C }
  - { offsetInCU: 0xDFA0, offset: 0xDFA0, size: 0x8, addend: 0x0, symName: __ZNSt3__16vectorIxNS_9allocatorIxEEE6resizeEm, symObjAddr: 0x60C, symBinAddr: 0x1000023FC, symSize: 0x94 }
  - { offsetInCU: 0xDFE6, offset: 0xDFE6, size: 0x8, addend: 0x0, symName: __ZNSt3__16vectorIxNS_9allocatorIxEEE9push_backB7v160006EOx, symObjAddr: 0x6A0, symBinAddr: 0x100002490, symSize: 0x6C }
  - { offsetInCU: 0xE01D, offset: 0xE01D, size: 0x8, addend: 0x0, symName: __ZNSt3__16vectorINS0_IxNS_9allocatorIxEEEENS1_IS3_EEED2B7v160006Ev, symObjAddr: 0x788, symBinAddr: 0x100002578, symSize: 0x44 }
  - { offsetInCU: 0xE047, offset: 0xE047, size: 0x8, addend: 0x0, symName: __ZNSt3__16vectorINS0_IxNS_9allocatorIxEEEENS1_IS3_EEE16__destroy_vectorC1ERS5_, symObjAddr: 0x7CC, symBinAddr: 0x1000025BC, symSize: 0x34 }
  - { offsetInCU: 0xE080, offset: 0xE080, size: 0x8, addend: 0x0, symName: __ZNSt3__16vectorINS0_IxNS_9allocatorIxEEEENS1_IS3_EEE16__destroy_vectorclB7v160006Ev, symObjAddr: 0x80C, symBinAddr: 0x1000025FC, symSize: 0x9C }
  - { offsetInCU: 0xE0A6, offset: 0xE0A6, size: 0x8, addend: 0x0, symName: __ZNSt3__16vectorINS0_IxNS_9allocatorIxEEEENS1_IS3_EEE16__destroy_vectorC2ERS5_, symObjAddr: 0x8A8, symBinAddr: 0x100002698, symSize: 0x20 }
  - { offsetInCU: 0xE0DF, offset: 0xE0DF, size: 0x8, addend: 0x0, symName: __ZNKSt3__16vectorINS0_IxNS_9allocatorIxEEEENS1_IS3_EEE17__annotate_deleteB7v160006Ev, symObjAddr: 0x8C8, symBinAddr: 0x1000026B8, symSize: 0xD4 }
  - { offsetInCU: 0xE105, offset: 0xE105, size: 0x8, addend: 0x0, symName: __ZNSt3__16vectorINS0_IxNS_9allocatorIxEEEENS1_IS3_EEE7__clearB7v160006Ev, symObjAddr: 0x9AC, symBinAddr: 0x10000279C, symSize: 0x28 }
  - { offsetInCU: 0xE12B, offset: 0xE12B, size: 0x8, addend: 0x0, symName: __ZNSt3__116allocator_traitsINS_9allocatorINS_6vectorIxNS1_IxEEEEEEE10deallocateB7v160006ERS5_PS4_m, symObjAddr: 0x9D4, symBinAddr: 0x1000027C4, symSize: 0x34 }
  - { offsetInCU: 0xE16D, offset: 0xE16D, size: 0x8, addend: 0x0, symName: __ZNSt3__16vectorINS0_IxNS_9allocatorIxEEEENS1_IS3_EEE7__allocB7v160006Ev, symObjAddr: 0xA08, symBinAddr: 0x1000027F8, symSize: 0x28 }
  - { offsetInCU: 0xE193, offset: 0xE193, size: 0x8, addend: 0x0, symName: __ZNKSt3__16vectorINS0_IxNS_9allocatorIxEEEENS1_IS3_EEE8capacityB7v160006Ev, symObjAddr: 0xA30, symBinAddr: 0x100002820, symSize: 0x40 }
  - { offsetInCU: 0xE1B9, offset: 0xE1B9, size: 0x8, addend: 0x0, symName: __ZNKSt3__16vectorINS0_IxNS_9allocatorIxEEEENS1_IS3_EEE31__annotate_contiguous_containerB7v160006EPKvS7_S7_S7_, symObjAddr: 0xA70, symBinAddr: 0x100002860, symSize: 0x20 }
  - { offsetInCU: 0xE20B, offset: 0xE20B, size: 0x8, addend: 0x0, symName: __ZNKSt3__16vectorINS0_IxNS_9allocatorIxEEEENS1_IS3_EEE4dataB7v160006Ev, symObjAddr: 0xA90, symBinAddr: 0x100002880, symSize: 0x28 }
  - { offsetInCU: 0xE231, offset: 0xE231, size: 0x8, addend: 0x0, symName: __ZNKSt3__16vectorINS0_IxNS_9allocatorIxEEEENS1_IS3_EEE4sizeB7v160006Ev, symObjAddr: 0xAB8, symBinAddr: 0x1000028A8, symSize: 0x28 }
  - { offsetInCU: 0xE257, offset: 0xE257, size: 0x8, addend: 0x0, symName: __ZNSt3__16vectorINS0_IxNS_9allocatorIxEEEENS1_IS3_EEE22__base_destruct_at_endB7v160006EPS3_, symObjAddr: 0xAF4, symBinAddr: 0x1000028E4, symSize: 0x8C }
  - { offsetInCU: 0xE29B, offset: 0xE29B, size: 0x8, addend: 0x0, symName: __ZNSt3__116allocator_traitsINS_9allocatorINS_6vectorIxNS1_IxEEEEEEE7destroyB7v160006IS4_vvEEvRS5_PT_, symObjAddr: 0xB80, symBinAddr: 0x100002970, symSize: 0x28 }
  - { offsetInCU: 0xE2D5, offset: 0xE2D5, size: 0x8, addend: 0x0, symName: __ZNSt3__19allocatorINS_6vectorIxNS0_IxEEEEE10deallocateB7v160006EPS3_m, symObjAddr: 0xBF0, symBinAddr: 0x1000029E0, symSize: 0x44 }
  - { offsetInCU: 0xE317, offset: 0xE317, size: 0x8, addend: 0x0, symName: __ZNSt3__117__compressed_pairIPNS_6vectorIxNS_9allocatorIxEEEENS2_IS4_EEE6secondB7v160006Ev, symObjAddr: 0xD5C, symBinAddr: 0x100002B4C, symSize: 0x24 }
  - { offsetInCU: 0xE33D, offset: 0xE33D, size: 0x8, addend: 0x0, symName: __ZNSt3__122__compressed_pair_elemINS_9allocatorINS_6vectorIxNS1_IxEEEEEELi1ELb1EE5__getB7v160006Ev, symObjAddr: 0xD80, symBinAddr: 0x100002B70, symSize: 0x14 }
  - { offsetInCU: 0xE363, offset: 0xE363, size: 0x8, addend: 0x0, symName: __ZNKSt3__16vectorINS0_IxNS_9allocatorIxEEEENS1_IS3_EEE9__end_capB7v160006Ev, symObjAddr: 0xD94, symBinAddr: 0x100002B84, symSize: 0x28 }
  - { offsetInCU: 0xE389, offset: 0xE389, size: 0x8, addend: 0x0, symName: __ZNKSt3__117__compressed_pairIPNS_6vectorIxNS_9allocatorIxEEEENS2_IS4_EEE5firstB7v160006Ev, symObjAddr: 0xDBC, symBinAddr: 0x100002BAC, symSize: 0x24 }
  - { offsetInCU: 0xE3AF, offset: 0xE3AF, size: 0x8, addend: 0x0, symName: __ZNKSt3__122__compressed_pair_elemIPNS_6vectorIxNS_9allocatorIxEEEELi0ELb0EE5__getB7v160006Ev, symObjAddr: 0xDE0, symBinAddr: 0x100002BD0, symSize: 0x14 }
  - { offsetInCU: 0xE3D5, offset: 0xE3D5, size: 0x8, addend: 0x0, symName: __ZNSt3__16vectorIxNS_9allocatorIxEEED2B7v160006Ev, symObjAddr: 0xDF4, symBinAddr: 0x100002BE4, symSize: 0x44 }
  - { offsetInCU: 0xE3FF, offset: 0xE3FF, size: 0x8, addend: 0x0, symName: __ZNSt3__16vectorIxNS_9allocatorIxEEE16__destroy_vectorC1ERS3_, symObjAddr: 0xE38, symBinAddr: 0x100002C28, symSize: 0x34 }
  - { offsetInCU: 0xE438, offset: 0xE438, size: 0x8, addend: 0x0, symName: __ZNSt3__16vectorIxNS_9allocatorIxEEE16__destroy_vectorclB7v160006Ev, symObjAddr: 0xE6C, symBinAddr: 0x100002C5C, symSize: 0x9C }
  - { offsetInCU: 0xE45E, offset: 0xE45E, size: 0x8, addend: 0x0, symName: __ZNSt3__16vectorIxNS_9allocatorIxEEE16__destroy_vectorC2ERS3_, symObjAddr: 0xF08, symBinAddr: 0x100002CF8, symSize: 0x20 }
  - { offsetInCU: 0xE497, offset: 0xE497, size: 0x8, addend: 0x0, symName: __ZNKSt3__16vectorIxNS_9allocatorIxEEE17__annotate_deleteB7v160006Ev, symObjAddr: 0xF28, symBinAddr: 0x100002D18, symSize: 0xB8 }
  - { offsetInCU: 0xE4BD, offset: 0xE4BD, size: 0x8, addend: 0x0, symName: __ZNSt3__16vectorIxNS_9allocatorIxEEE7__clearB7v160006Ev, symObjAddr: 0xFF0, symBinAddr: 0x100002DE0, symSize: 0x28 }
  - { offsetInCU: 0xE4E3, offset: 0xE4E3, size: 0x8, addend: 0x0, symName: __ZNSt3__116allocator_traitsINS_9allocatorIxEEE10deallocateB7v160006ERS2_Pxm, symObjAddr: 0x1018, symBinAddr: 0x100002E08, symSize: 0x34 }
  - { offsetInCU: 0xE525, offset: 0xE525, size: 0x8, addend: 0x0, symName: __ZNSt3__16vectorIxNS_9allocatorIxEEE7__allocB7v160006Ev, symObjAddr: 0x104C, symBinAddr: 0x100002E3C, symSize: 0x28 }
  - { offsetInCU: 0xE54B, offset: 0xE54B, size: 0x8, addend: 0x0, symName: __ZNKSt3__16vectorIxNS_9allocatorIxEEE8capacityB7v160006Ev, symObjAddr: 0x1074, symBinAddr: 0x100002E64, symSize: 0x40 }
  - { offsetInCU: 0xE571, offset: 0xE571, size: 0x8, addend: 0x0, symName: __ZNKSt3__16vectorIxNS_9allocatorIxEEE31__annotate_contiguous_containerB7v160006EPKvS5_S5_S5_, symObjAddr: 0x10B4, symBinAddr: 0x100002EA4, symSize: 0x20 }
  - { offsetInCU: 0xE5C3, offset: 0xE5C3, size: 0x8, addend: 0x0, symName: __ZNKSt3__16vectorIxNS_9allocatorIxEEE4dataB7v160006Ev, symObjAddr: 0x10D4, symBinAddr: 0x100002EC4, symSize: 0x28 }
  - { offsetInCU: 0xE5E9, offset: 0xE5E9, size: 0x8, addend: 0x0, symName: __ZNKSt3__16vectorIxNS_9allocatorIxEEE4sizeB7v160006Ev, symObjAddr: 0x10FC, symBinAddr: 0x100002EEC, symSize: 0x28 }
  - { offsetInCU: 0xE60F, offset: 0xE60F, size: 0x8, addend: 0x0, symName: __ZNSt3__16vectorIxNS_9allocatorIxEEE22__base_destruct_at_endB7v160006EPx, symObjAddr: 0x1138, symBinAddr: 0x100002F28, symSize: 0x8C }
  - { offsetInCU: 0xE653, offset: 0xE653, size: 0x8, addend: 0x0, symName: __ZNSt3__116allocator_traitsINS_9allocatorIxEEE7destroyB7v160006IxvvEEvRS2_PT_, symObjAddr: 0x11C4, symBinAddr: 0x100002FB4, symSize: 0x28 }
  - { offsetInCU: 0xE68D, offset: 0xE68D, size: 0x8, addend: 0x0, symName: __ZNSt3__19allocatorIxE10deallocateB7v160006EPxm, symObjAddr: 0x1220, symBinAddr: 0x100003010, symSize: 0x40 }
  - { offsetInCU: 0xE6CF, offset: 0xE6CF, size: 0x8, addend: 0x0, symName: __ZNSt3__117__compressed_pairIPxNS_9allocatorIxEEE6secondB7v160006Ev, symObjAddr: 0x1260, symBinAddr: 0x100003050, symSize: 0x24 }
  - { offsetInCU: 0xE6F5, offset: 0xE6F5, size: 0x8, addend: 0x0, symName: __ZNSt3__122__compressed_pair_elemINS_9allocatorIxEELi1ELb1EE5__getB7v160006Ev, symObjAddr: 0x1284, symBinAddr: 0x100003074, symSize: 0x14 }
  - { offsetInCU: 0xE71B, offset: 0xE71B, size: 0x8, addend: 0x0, symName: __ZNKSt3__16vectorIxNS_9allocatorIxEEE9__end_capB7v160006Ev, symObjAddr: 0x1298, symBinAddr: 0x100003088, symSize: 0x28 }
  - { offsetInCU: 0xE741, offset: 0xE741, size: 0x8, addend: 0x0, symName: __ZNKSt3__117__compressed_pairIPxNS_9allocatorIxEEE5firstB7v160006Ev, symObjAddr: 0x12C0, symBinAddr: 0x1000030B0, symSize: 0x24 }
  - { offsetInCU: 0xE767, offset: 0xE767, size: 0x8, addend: 0x0, symName: __ZNKSt3__122__compressed_pair_elemIPxLi0ELb0EE5__getB7v160006Ev, symObjAddr: 0x12E4, symBinAddr: 0x1000030D4, symSize: 0x14 }
  - { offsetInCU: 0xE78D, offset: 0xE78D, size: 0x8, addend: 0x0, symName: __ZNSt3__16vectorIxNS_9allocatorIxEEE11__make_iterB7v160006EPx, symObjAddr: 0x12F8, symBinAddr: 0x1000030E8, symSize: 0x34 }
  - { offsetInCU: 0xE7C2, offset: 0xE7C2, size: 0x8, addend: 0x0, symName: __ZNSt3__111__wrap_iterIPxEC1B7v160006EPKvS1_, symObjAddr: 0x132C, symBinAddr: 0x10000311C, symSize: 0x3C }
  - { offsetInCU: 0xE808, offset: 0xE808, size: 0x8, addend: 0x0, symName: __ZNSt3__111__wrap_iterIPxEC2B7v160006EPKvS1_, symObjAddr: 0x1368, symBinAddr: 0x100003158, symSize: 0x24 }
  - { offsetInCU: 0xE84E, offset: 0xE84E, size: 0x8, addend: 0x0, symName: __ZNKSt3__111__wrap_iterIPxE4baseB7v160006Ev, symObjAddr: 0x13D4, symBinAddr: 0x1000031C4, symSize: 0x18 }
  - { offsetInCU: 0xE874, offset: 0xE874, size: 0x8, addend: 0x0, symName: __ZNSt3__16vectorINS0_IxNS_9allocatorIxEEEENS1_IS3_EEE8__appendEm, symObjAddr: 0x13EC, symBinAddr: 0x1000031DC, symSize: 0x108 }
  - { offsetInCU: 0xE8CF, offset: 0xE8CF, size: 0x8, addend: 0x0, symName: __ZNSt3__16vectorINS0_IxNS_9allocatorIxEEEENS1_IS3_EEE17__destruct_at_endB7v160006EPS3_, symObjAddr: 0x14F4, symBinAddr: 0x1000032E4, symSize: 0x60 }
  - { offsetInCU: 0xE913, offset: 0xE913, size: 0x8, addend: 0x0, symName: __ZNSt3__16vectorINS0_IxNS_9allocatorIxEEEENS1_IS3_EEE9__end_capB7v160006Ev, symObjAddr: 0x1554, symBinAddr: 0x100003344, symSize: 0x28 }
  - { offsetInCU: 0xE939, offset: 0xE939, size: 0x8, addend: 0x0, symName: __ZNSt3__16vectorINS0_IxNS_9allocatorIxEEEENS1_IS3_EEE18__construct_at_endEm, symObjAddr: 0x157C, symBinAddr: 0x10000336C, symSize: 0xC8 }
  - { offsetInCU: 0xE9AB, offset: 0xE9AB, size: 0x8, addend: 0x0, symName: __ZNKSt3__16vectorINS0_IxNS_9allocatorIxEEEENS1_IS3_EEE11__recommendB7v160006Em, symObjAddr: 0x1644, symBinAddr: 0x100003434, symSize: 0xB4 }
  - { offsetInCU: 0xEA00, offset: 0xEA00, size: 0x8, addend: 0x0, symName: __ZNSt3__114__split_bufferINS_6vectorIxNS_9allocatorIxEEEERNS2_IS4_EEEC1EmmS6_, symObjAddr: 0x16F8, symBinAddr: 0x1000034E8, symSize: 0x44 }
  - { offsetInCU: 0xEA56, offset: 0xEA56, size: 0x8, addend: 0x0, symName: __ZNSt3__114__split_bufferINS_6vectorIxNS_9allocatorIxEEEERNS2_IS4_EEE18__construct_at_endEm, symObjAddr: 0x173C, symBinAddr: 0x10000352C, symSize: 0xB4 }
  - { offsetInCU: 0xEA99, offset: 0xEA99, size: 0x8, addend: 0x0, symName: __ZNSt3__114__split_bufferINS_6vectorIxNS_9allocatorIxEEEERNS2_IS4_EEED1Ev, symObjAddr: 0x1908, symBinAddr: 0x1000036F8, symSize: 0x2C }
  - { offsetInCU: 0xEAC5, offset: 0xEAC5, size: 0x8, addend: 0x0, symName: __ZNSt3__117__compressed_pairIPNS_6vectorIxNS_9allocatorIxEEEENS2_IS4_EEE5firstB7v160006Ev, symObjAddr: 0x1934, symBinAddr: 0x100003724, symSize: 0x24 }
  - { offsetInCU: 0xEAEB, offset: 0xEAEB, size: 0x8, addend: 0x0, symName: __ZNSt3__122__compressed_pair_elemIPNS_6vectorIxNS_9allocatorIxEEEELi0ELb0EE5__getB7v160006Ev, symObjAddr: 0x1958, symBinAddr: 0x100003748, symSize: 0x14 }
  - { offsetInCU: 0xEB2A, offset: 0xEB2A, size: 0x8, addend: 0x0, symName: __ZNSt3__16vectorINS0_IxNS_9allocatorIxEEEENS1_IS3_EEE21_ConstructTransactionC1B7v160006ERS5_m, symObjAddr: 0x196C, symBinAddr: 0x10000375C, symSize: 0x3C }
  - { offsetInCU: 0xEB72, offset: 0xEB72, size: 0x8, addend: 0x0, symName: __ZNSt3__116allocator_traitsINS_9allocatorINS_6vectorIxNS1_IxEEEEEEE9constructB7v160006IS4_JEvvEEvRS5_PT_DpOT0_, symObjAddr: 0x19A8, symBinAddr: 0x100003798, symSize: 0x28 }
  - { offsetInCU: 0xEBB1, offset: 0xEBB1, size: 0x8, addend: 0x0, symName: __ZNSt3__16vectorINS0_IxNS_9allocatorIxEEEENS1_IS3_EEE21_ConstructTransactionD1B7v160006Ev, symObjAddr: 0x19D0, symBinAddr: 0x1000037C0, symSize: 0x2C }
  - { offsetInCU: 0xEBDB, offset: 0xEBDB, size: 0x8, addend: 0x0, symName: __ZNSt3__16vectorINS0_IxNS_9allocatorIxEEEENS1_IS3_EEE21_ConstructTransactionC2B7v160006ERS5_m, symObjAddr: 0x19FC, symBinAddr: 0x1000037EC, symSize: 0x4C }
  - { offsetInCU: 0xEC23, offset: 0xEC23, size: 0x8, addend: 0x0, symName: __ZNSt3__16vectorIxNS_9allocatorIxEEEC1B7v160006Ev, symObjAddr: 0x1A7C, symBinAddr: 0x10000386C, symSize: 0x2C }
  - { offsetInCU: 0xEC4D, offset: 0xEC4D, size: 0x8, addend: 0x0, symName: __ZNSt3__16vectorIxNS_9allocatorIxEEEC2B7v160006Ev, symObjAddr: 0x1AA8, symBinAddr: 0x100003898, symSize: 0x58 }
  - { offsetInCU: 0xEC81, offset: 0xEC81, size: 0x8, addend: 0x0, symName: __ZNSt3__117__compressed_pairIPxNS_9allocatorIxEEEC1B7v160006IDnNS_18__default_init_tagEEEOT_OT0_, symObjAddr: 0x1B00, symBinAddr: 0x1000038F0, symSize: 0x3C }
  - { offsetInCU: 0xECD9, offset: 0xECD9, size: 0x8, addend: 0x0, symName: __ZNSt3__117__compressed_pairIPxNS_9allocatorIxEEEC2B7v160006IDnNS_18__default_init_tagEEEOT_OT0_, symObjAddr: 0x1B4C, symBinAddr: 0x10000393C, symSize: 0x40 }
  - { offsetInCU: 0xED31, offset: 0xED31, size: 0x8, addend: 0x0, symName: __ZNSt3__122__compressed_pair_elemIPxLi0ELb0EEC2B7v160006IDnvEEOT_, symObjAddr: 0x1B8C, symBinAddr: 0x10000397C, symSize: 0x1C }
  - { offsetInCU: 0xED73, offset: 0xED73, size: 0x8, addend: 0x0, symName: __ZNSt3__122__compressed_pair_elemINS_9allocatorIxEELi1ELb1EEC2B7v160006ENS_18__default_init_tagE, symObjAddr: 0x1BA8, symBinAddr: 0x100003998, symSize: 0x2C }
  - { offsetInCU: 0xEDA7, offset: 0xEDA7, size: 0x8, addend: 0x0, symName: __ZNSt3__19allocatorIxEC2B7v160006Ev, symObjAddr: 0x1BD4, symBinAddr: 0x1000039C4, symSize: 0x2C }
  - { offsetInCU: 0xEDD1, offset: 0xEDD1, size: 0x8, addend: 0x0, symName: __ZNSt3__116__non_trivial_ifILb1ENS_9allocatorIxEEEC2B7v160006Ev, symObjAddr: 0x1C00, symBinAddr: 0x1000039F0, symSize: 0x14 }
  - { offsetInCU: 0xEDFB, offset: 0xEDFB, size: 0x8, addend: 0x0, symName: __ZNSt3__16vectorINS0_IxNS_9allocatorIxEEEENS1_IS3_EEE21_ConstructTransactionD2B7v160006Ev, symObjAddr: 0x1C14, symBinAddr: 0x100003A04, symSize: 0x20 }
  - { offsetInCU: 0xEE25, offset: 0xEE25, size: 0x8, addend: 0x0, symName: __ZNKSt3__16vectorINS0_IxNS_9allocatorIxEEEENS1_IS3_EEE8max_sizeEv, symObjAddr: 0x1C34, symBinAddr: 0x100003A24, symSize: 0x60 }
  - { offsetInCU: 0xEE4D, offset: 0xEE4D, size: 0x8, addend: 0x0, symName: __ZNKSt3__16vectorINS0_IxNS_9allocatorIxEEEENS1_IS3_EEE20__throw_length_errorB7v160006Ev, symObjAddr: 0x1C94, symBinAddr: 0x100003A84, symSize: 0x1C }
  - { offsetInCU: 0xEE7D, offset: 0xEE7D, size: 0x8, addend: 0x0, symName: __ZNSt3__116allocator_traitsINS_9allocatorINS_6vectorIxNS1_IxEEEEEEE8max_sizeB7v160006IS5_vvEEmRKS5_, symObjAddr: 0x1D08, symBinAddr: 0x100003AF8, symSize: 0x28 }
  - { offsetInCU: 0xEEA8, offset: 0xEEA8, size: 0x8, addend: 0x0, symName: __ZNKSt3__16vectorINS0_IxNS_9allocatorIxEEEENS1_IS3_EEE7__allocB7v160006Ev, symObjAddr: 0x1D30, symBinAddr: 0x100003B20, symSize: 0x28 }
  - { offsetInCU: 0xEECE, offset: 0xEECE, size: 0x8, addend: 0x0, symName: __ZNSt3__114numeric_limitsIlE3maxB7v160006Ev, symObjAddr: 0x1D58, symBinAddr: 0x100003B48, symSize: 0x14 }
  - { offsetInCU: 0xEEF6, offset: 0xEEF6, size: 0x8, addend: 0x0, symName: __ZNKSt3__16__lessImmEclB7v160006ERKmS3_, symObjAddr: 0x1DC0, symBinAddr: 0x100003BB0, symSize: 0x34 }
  - { offsetInCU: 0xEF38, offset: 0xEF38, size: 0x8, addend: 0x0, symName: __ZNSt3__114numeric_limitsImE3maxB7v160006Ev, symObjAddr: 0x1DF4, symBinAddr: 0x100003BE4, symSize: 0x14 }
  - { offsetInCU: 0xEF4C, offset: 0xEF4C, size: 0x8, addend: 0x0, symName: __ZNSt3__123__libcpp_numeric_limitsImLb1EE3maxB7v160006Ev, symObjAddr: 0x1E08, symBinAddr: 0x100003BF8, symSize: 0x8 }
  - { offsetInCU: 0xEF60, offset: 0xEF60, size: 0x8, addend: 0x0, symName: __ZNKSt3__117__compressed_pairIPNS_6vectorIxNS_9allocatorIxEEEENS2_IS4_EEE6secondB7v160006Ev, symObjAddr: 0x1E10, symBinAddr: 0x100003C00, symSize: 0x24 }
  - { offsetInCU: 0xEF86, offset: 0xEF86, size: 0x8, addend: 0x0, symName: __ZNKSt3__122__compressed_pair_elemINS_9allocatorINS_6vectorIxNS1_IxEEEEEELi1ELb1EE5__getB7v160006Ev, symObjAddr: 0x1E34, symBinAddr: 0x100003C24, symSize: 0x14 }
  - { offsetInCU: 0xEFAC, offset: 0xEFAC, size: 0x8, addend: 0x0, symName: __ZNSt3__123__libcpp_numeric_limitsIlLb1EE3maxB7v160006Ev, symObjAddr: 0x1E48, symBinAddr: 0x100003C38, symSize: 0x8 }
  - { offsetInCU: 0xEFC0, offset: 0xEFC0, size: 0x8, addend: 0x0, symName: __ZNSt12length_errorC1B7v160006EPKc, symObjAddr: 0x1EB4, symBinAddr: 0x100003CA4, symSize: 0x34 }
  - { offsetInCU: 0xEFF8, offset: 0xEFF8, size: 0x8, addend: 0x0, symName: __ZNSt12length_errorC2B7v160006EPKc, symObjAddr: 0x1EE8, symBinAddr: 0x100003CD8, symSize: 0x4C }
  - { offsetInCU: 0xF030, offset: 0xF030, size: 0x8, addend: 0x0, symName: __ZNSt3__114__split_bufferINS_6vectorIxNS_9allocatorIxEEEERNS2_IS4_EEEC2EmmS6_, symObjAddr: 0x1F88, symBinAddr: 0x100003D78, symSize: 0xE0 }
  - { offsetInCU: 0xF0A3, offset: 0xF0A3, size: 0x8, addend: 0x0, symName: __ZNSt3__117__compressed_pairIPNS_6vectorIxNS_9allocatorIxEEEERNS2_IS4_EEEC1B7v160006IDnS7_EEOT_OT0_, symObjAddr: 0x2068, symBinAddr: 0x100003E58, symSize: 0x3C }
  - { offsetInCU: 0xF0FB, offset: 0xF0FB, size: 0x8, addend: 0x0, symName: __ZNSt3__114__split_bufferINS_6vectorIxNS_9allocatorIxEEEERNS2_IS4_EEE7__allocB7v160006Ev, symObjAddr: 0x20E0, symBinAddr: 0x100003ED0, symSize: 0x28 }
  - { offsetInCU: 0xF121, offset: 0xF121, size: 0x8, addend: 0x0, symName: __ZNSt3__114__split_bufferINS_6vectorIxNS_9allocatorIxEEEERNS2_IS4_EEE9__end_capB7v160006Ev, symObjAddr: 0x2108, symBinAddr: 0x100003EF8, symSize: 0x28 }
  - { offsetInCU: 0xF147, offset: 0xF147, size: 0x8, addend: 0x0, symName: __ZNSt3__117__compressed_pairIPNS_6vectorIxNS_9allocatorIxEEEERNS2_IS4_EEEC2B7v160006IDnS7_EEOT_OT0_, symObjAddr: 0x2130, symBinAddr: 0x100003F20, symSize: 0x48 }
  - { offsetInCU: 0xF19F, offset: 0xF19F, size: 0x8, addend: 0x0, symName: __ZNSt3__122__compressed_pair_elemIPNS_6vectorIxNS_9allocatorIxEEEELi0ELb0EEC2B7v160006IDnvEEOT_, symObjAddr: 0x2178, symBinAddr: 0x100003F68, symSize: 0x1C }
  - { offsetInCU: 0xF1E1, offset: 0xF1E1, size: 0x8, addend: 0x0, symName: __ZNSt3__122__compressed_pair_elemIRNS_9allocatorINS_6vectorIxNS1_IxEEEEEELi1ELb0EEC2B7v160006IS6_vEEOT_, symObjAddr: 0x2194, symBinAddr: 0x100003F84, symSize: 0x20 }
  - { offsetInCU: 0xF223, offset: 0xF223, size: 0x8, addend: 0x0, symName: __ZNSt3__19allocatorINS_6vectorIxNS0_IxEEEEE17allocate_at_leastB7v160006Em, symObjAddr: 0x21F0, symBinAddr: 0x100003FE0, symSize: 0x40 }
  - { offsetInCU: 0xF257, offset: 0xF257, size: 0x8, addend: 0x0, symName: __ZNSt3__19allocatorINS_6vectorIxNS0_IxEEEEE8allocateB7v160006Em, symObjAddr: 0x2230, symBinAddr: 0x100004020, symSize: 0x5C }
  - { offsetInCU: 0xF28B, offset: 0xF28B, size: 0x8, addend: 0x0, symName: __ZNSt3__117__compressed_pairIPNS_6vectorIxNS_9allocatorIxEEEERNS2_IS4_EEE6secondB7v160006Ev, symObjAddr: 0x2370, symBinAddr: 0x100004160, symSize: 0x28 }
  - { offsetInCU: 0xF2B1, offset: 0xF2B1, size: 0x8, addend: 0x0, symName: __ZNSt3__122__compressed_pair_elemIRNS_9allocatorINS_6vectorIxNS1_IxEEEEEELi1ELb0EE5__getB7v160006Ev, symObjAddr: 0x2398, symBinAddr: 0x100004188, symSize: 0x18 }
  - { offsetInCU: 0xF2D7, offset: 0xF2D7, size: 0x8, addend: 0x0, symName: __ZNSt3__117__compressed_pairIPNS_6vectorIxNS_9allocatorIxEEEERNS2_IS4_EEE5firstB7v160006Ev, symObjAddr: 0x23B0, symBinAddr: 0x1000041A0, symSize: 0x24 }
  - { offsetInCU: 0xF307, offset: 0xF307, size: 0x8, addend: 0x0, symName: __ZNSt3__114__split_bufferINS_6vectorIxNS_9allocatorIxEEEERNS2_IS4_EEE21_ConstructTransactionC1B7v160006EPPS4_m, symObjAddr: 0x23D4, symBinAddr: 0x1000041C4, symSize: 0x3C }
  - { offsetInCU: 0xF34D, offset: 0xF34D, size: 0x8, addend: 0x0, symName: __ZNSt3__114__split_bufferINS_6vectorIxNS_9allocatorIxEEEERNS2_IS4_EEE21_ConstructTransactionD1B7v160006Ev, symObjAddr: 0x2410, symBinAddr: 0x100004200, symSize: 0x2C }
  - { offsetInCU: 0xF377, offset: 0xF377, size: 0x8, addend: 0x0, symName: __ZNSt3__114__split_bufferINS_6vectorIxNS_9allocatorIxEEEERNS2_IS4_EEE21_ConstructTransactionC2B7v160006EPPS4_m, symObjAddr: 0x243C, symBinAddr: 0x10000422C, symSize: 0x4C }
  - { offsetInCU: 0xF3BD, offset: 0xF3BD, size: 0x8, addend: 0x0, symName: __ZNSt3__114__split_bufferINS_6vectorIxNS_9allocatorIxEEEERNS2_IS4_EEE21_ConstructTransactionD2B7v160006Ev, symObjAddr: 0x2488, symBinAddr: 0x100004278, symSize: 0x20 }
  - { offsetInCU: 0xF3E7, offset: 0xF3E7, size: 0x8, addend: 0x0, symName: __ZNSt3__116reverse_iteratorIPNS_6vectorIxNS_9allocatorIxEEEEEC1B7v160006ES5_, symObjAddr: 0x25D4, symBinAddr: 0x1000043C4, symSize: 0x34 }
  - { offsetInCU: 0xF41F, offset: 0xF41F, size: 0x8, addend: 0x0, symName: __ZNKSt3__116reverse_iteratorIPNS_6vectorIxNS_9allocatorIxEEEEE4baseB7v160006Ev, symObjAddr: 0x2608, symBinAddr: 0x1000043F8, symSize: 0x18 }
  - { offsetInCU: 0xF445, offset: 0xF445, size: 0x8, addend: 0x0, symName: __ZNKSt3__16vectorINS0_IxNS_9allocatorIxEEEENS1_IS3_EEE14__annotate_newB7v160006Em, symObjAddr: 0x265C, symBinAddr: 0x10000444C, symSize: 0xC8 }
  - { offsetInCU: 0xF47A, offset: 0xF47A, size: 0x8, addend: 0x0, symName: __ZNSt3__129_AllocatorDestroyRangeReverseINS_9allocatorINS_6vectorIxNS1_IxEEEEEENS_16reverse_iteratorIPS4_EEEC1B7v160006ERS5_RS8_SB_, symObjAddr: 0x2780, symBinAddr: 0x100004570, symSize: 0x44 }
  - { offsetInCU: 0xF4D1, offset: 0xF4D1, size: 0x8, addend: 0x0, symName: __ZNSt3__116allocator_traitsINS_9allocatorINS_6vectorIxNS1_IxEEEEEEE9constructB7v160006IS4_JS4_EvvEEvRS5_PT_DpOT0_, symObjAddr: 0x280C, symBinAddr: 0x1000045FC, symSize: 0x30 }
  - { offsetInCU: 0xF525, offset: 0xF525, size: 0x8, addend: 0x0, symName: __ZNKSt3__116reverse_iteratorIPNS_6vectorIxNS_9allocatorIxEEEEEdeB7v160006Ev, symObjAddr: 0x2860, symBinAddr: 0x100004650, symSize: 0x28 }
  - { offsetInCU: 0xF559, offset: 0xF559, size: 0x8, addend: 0x0, symName: __ZNSt3__116reverse_iteratorIPNS_6vectorIxNS_9allocatorIxEEEEEppB7v160006Ev, symObjAddr: 0x2888, symBinAddr: 0x100004678, symSize: 0x20 }
  - { offsetInCU: 0xF57F, offset: 0xF57F, size: 0x8, addend: 0x0, symName: __ZNSt3__128__exception_guard_exceptionsINS_29_AllocatorDestroyRangeReverseINS_9allocatorINS_6vectorIxNS2_IxEEEEEENS_16reverse_iteratorIPS5_EEEEE10__completeB7v160006Ev, symObjAddr: 0x28A8, symBinAddr: 0x100004698, symSize: 0x1C }
  - { offsetInCU: 0xF5A5, offset: 0xF5A5, size: 0x8, addend: 0x0, symName: __ZNSt3__128__exception_guard_exceptionsINS_29_AllocatorDestroyRangeReverseINS_9allocatorINS_6vectorIxNS2_IxEEEEEENS_16reverse_iteratorIPS5_EEEEED1B7v160006Ev, symObjAddr: 0x28C4, symBinAddr: 0x1000046B4, symSize: 0x2C }
  - { offsetInCU: 0xF5CF, offset: 0xF5CF, size: 0x8, addend: 0x0, symName: __ZNSt3__128__exception_guard_exceptionsINS_29_AllocatorDestroyRangeReverseINS_9allocatorINS_6vectorIxNS2_IxEEEEEENS_16reverse_iteratorIPS5_EEEEEC1B7v160006ESA_, symObjAddr: 0x28F0, symBinAddr: 0x1000046E0, symSize: 0x34 }
  - { offsetInCU: 0xF608, offset: 0xF608, size: 0x8, addend: 0x0, symName: __ZNSt3__128__exception_guard_exceptionsINS_29_AllocatorDestroyRangeReverseINS_9allocatorINS_6vectorIxNS2_IxEEEEEENS_16reverse_iteratorIPS5_EEEEEC2B7v160006ESA_, symObjAddr: 0x2924, symBinAddr: 0x100004714, symSize: 0x30 }
  - { offsetInCU: 0xF641, offset: 0xF641, size: 0x8, addend: 0x0, symName: __ZNSt3__129_AllocatorDestroyRangeReverseINS_9allocatorINS_6vectorIxNS1_IxEEEEEENS_16reverse_iteratorIPS4_EEEC2B7v160006ERS5_RS8_SB_, symObjAddr: 0x2954, symBinAddr: 0x100004744, symSize: 0x38 }
  - { offsetInCU: 0xF698, offset: 0xF698, size: 0x8, addend: 0x0, symName: __ZNSt3__16vectorIxNS_9allocatorIxEEEC1B7v160006EOS3_, symObjAddr: 0x29C8, symBinAddr: 0x1000047B8, symSize: 0x34 }
  - { offsetInCU: 0xF6D3, offset: 0xF6D3, size: 0x8, addend: 0x0, symName: __ZNSt3__16vectorIxNS_9allocatorIxEEEC2B7v160006EOS3_, symObjAddr: 0x29FC, symBinAddr: 0x1000047EC, symSize: 0xDC }
  - { offsetInCU: 0xF713, offset: 0xF713, size: 0x8, addend: 0x0, symName: __ZNSt3__117__compressed_pairIPxNS_9allocatorIxEEEC1B7v160006IDnS3_EEOT_OT0_, symObjAddr: 0x2AD8, symBinAddr: 0x1000048C8, symSize: 0x3C }
  - { offsetInCU: 0xF76B, offset: 0xF76B, size: 0x8, addend: 0x0, symName: __ZNSt3__16vectorIxNS_9allocatorIxEEE9__end_capB7v160006Ev, symObjAddr: 0x2B28, symBinAddr: 0x100004918, symSize: 0x28 }
  - { offsetInCU: 0xF791, offset: 0xF791, size: 0x8, addend: 0x0, symName: __ZNSt3__117__compressed_pairIPxNS_9allocatorIxEEEC2B7v160006IDnS3_EEOT_OT0_, symObjAddr: 0x2B50, symBinAddr: 0x100004940, symSize: 0x44 }
  - { offsetInCU: 0xF7E9, offset: 0xF7E9, size: 0x8, addend: 0x0, symName: __ZNSt3__122__compressed_pair_elemINS_9allocatorIxEELi1ELb1EEC2B7v160006IS2_vEEOT_, symObjAddr: 0x2B94, symBinAddr: 0x100004984, symSize: 0x18 }
  - { offsetInCU: 0xF82B, offset: 0xF82B, size: 0x8, addend: 0x0, symName: __ZNSt3__117__compressed_pairIPxNS_9allocatorIxEEE5firstB7v160006Ev, symObjAddr: 0x2BAC, symBinAddr: 0x10000499C, symSize: 0x24 }
  - { offsetInCU: 0xF851, offset: 0xF851, size: 0x8, addend: 0x0, symName: __ZNSt3__122__compressed_pair_elemIPxLi0ELb0EE5__getB7v160006Ev, symObjAddr: 0x2BD0, symBinAddr: 0x1000049C0, symSize: 0x14 }
  - { offsetInCU: 0xF87C, offset: 0xF87C, size: 0x8, addend: 0x0, symName: __ZNSt3__119__to_address_helperINS_16reverse_iteratorIPNS_6vectorIxNS_9allocatorIxEEEEEEvE6__callB7v160006ERKS7_, symObjAddr: 0x2BE4, symBinAddr: 0x1000049D4, symSize: 0x38 }
  - { offsetInCU: 0xF89F, offset: 0xF89F, size: 0x8, addend: 0x0, symName: __ZNKSt3__116reverse_iteratorIPNS_6vectorIxNS_9allocatorIxEEEEEptB7v160006Ev, symObjAddr: 0x2C1C, symBinAddr: 0x100004A0C, symSize: 0x2C }
  - { offsetInCU: 0xF8C5, offset: 0xF8C5, size: 0x8, addend: 0x0, symName: __ZNSt3__128__exception_guard_exceptionsINS_29_AllocatorDestroyRangeReverseINS_9allocatorINS_6vectorIxNS2_IxEEEEEENS_16reverse_iteratorIPS5_EEEEED2B7v160006Ev, symObjAddr: 0x2D2C, symBinAddr: 0x100004B1C, symSize: 0x50 }
  - { offsetInCU: 0xF8EF, offset: 0xF8EF, size: 0x8, addend: 0x0, symName: __ZNKSt3__129_AllocatorDestroyRangeReverseINS_9allocatorINS_6vectorIxNS1_IxEEEEEENS_16reverse_iteratorIPS4_EEEclB7v160006Ev, symObjAddr: 0x2D7C, symBinAddr: 0x100004B6C, symSize: 0xB4 }
  - { offsetInCU: 0xF916, offset: 0xF916, size: 0x8, addend: 0x0, symName: __ZNSt3__116reverse_iteratorINS0_IPNS_6vectorIxNS_9allocatorIxEEEEEEEC1B7v160006ES6_, symObjAddr: 0x2EA0, symBinAddr: 0x100004C90, symSize: 0x3C }
  - { offsetInCU: 0xF94E, offset: 0xF94E, size: 0x8, addend: 0x0, symName: __ZNSt3__116reverse_iteratorINS0_IPNS_6vectorIxNS_9allocatorIxEEEEEEEppB7v160006Ev, symObjAddr: 0x2F60, symBinAddr: 0x100004D50, symSize: 0x30 }
  - { offsetInCU: 0xF974, offset: 0xF974, size: 0x8, addend: 0x0, symName: __ZNKSt3__116reverse_iteratorINS0_IPNS_6vectorIxNS_9allocatorIxEEEEEEE4baseB7v160006Ev, symObjAddr: 0x2F90, symBinAddr: 0x100004D80, symSize: 0x24 }
  - { offsetInCU: 0xF99F, offset: 0xF99F, size: 0x8, addend: 0x0, symName: __ZNSt3__119__to_address_helperINS_16reverse_iteratorINS1_IPNS_6vectorIxNS_9allocatorIxEEEEEEEEvE6__callB7v160006ERKS8_, symObjAddr: 0x2FB4, symBinAddr: 0x100004DA4, symSize: 0x38 }
  - { offsetInCU: 0xF9C2, offset: 0xF9C2, size: 0x8, addend: 0x0, symName: __ZNKSt3__116reverse_iteratorINS0_IPNS_6vectorIxNS_9allocatorIxEEEEEEEptB7v160006Ev, symObjAddr: 0x2FEC, symBinAddr: 0x100004DDC, symSize: 0x4C }
  - { offsetInCU: 0xF9E8, offset: 0xF9E8, size: 0x8, addend: 0x0, symName: __ZNSt3__116reverse_iteratorIPNS_6vectorIxNS_9allocatorIxEEEEEpLB7v160006El, symObjAddr: 0x3114, symBinAddr: 0x100004F04, symSize: 0x30 }
  - { offsetInCU: 0xFA1C, offset: 0xFA1C, size: 0x8, addend: 0x0, symName: __ZNSt3__116reverse_iteratorIPNS_6vectorIxNS_9allocatorIxEEEEEmmB7v160006Ev, symObjAddr: 0x3144, symBinAddr: 0x100004F34, symSize: 0x20 }
  - { offsetInCU: 0xFA42, offset: 0xFA42, size: 0x8, addend: 0x0, symName: __ZNSt3__116reverse_iteratorINS0_IPNS_6vectorIxNS_9allocatorIxEEEEEEEC2B7v160006ES6_, symObjAddr: 0x3164, symBinAddr: 0x100004F54, symSize: 0x2C }
  - { offsetInCU: 0xFA7A, offset: 0xFA7A, size: 0x8, addend: 0x0, symName: __ZNSt3__116reverse_iteratorIPNS_6vectorIxNS_9allocatorIxEEEEEC2B7v160006ES5_, symObjAddr: 0x3190, symBinAddr: 0x100004F80, symSize: 0x28 }
  - { offsetInCU: 0xFAB2, offset: 0xFAB2, size: 0x8, addend: 0x0, symName: __ZNSt3__114__split_bufferINS_6vectorIxNS_9allocatorIxEEEERNS2_IS4_EEED2Ev, symObjAddr: 0x31B8, symBinAddr: 0x100004FA8, symSize: 0x8C }
  - { offsetInCU: 0xFADE, offset: 0xFADE, size: 0x8, addend: 0x0, symName: __ZNSt3__114__split_bufferINS_6vectorIxNS_9allocatorIxEEEERNS2_IS4_EEE5clearB7v160006Ev, symObjAddr: 0x3244, symBinAddr: 0x100005034, symSize: 0x28 }
  - { offsetInCU: 0xFB04, offset: 0xFB04, size: 0x8, addend: 0x0, symName: __ZNKSt3__114__split_bufferINS_6vectorIxNS_9allocatorIxEEEERNS2_IS4_EEE8capacityB7v160006Ev, symObjAddr: 0x326C, symBinAddr: 0x10000505C, symSize: 0x40 }
  - { offsetInCU: 0xFB2A, offset: 0xFB2A, size: 0x8, addend: 0x0, symName: __ZNSt3__114__split_bufferINS_6vectorIxNS_9allocatorIxEEEERNS2_IS4_EEE17__destruct_at_endB7v160006EPS4_, symObjAddr: 0x32AC, symBinAddr: 0x10000509C, symSize: 0x2C }
  - { offsetInCU: 0xFB5E, offset: 0xFB5E, size: 0x8, addend: 0x0, symName: __ZNSt3__114__split_bufferINS_6vectorIxNS_9allocatorIxEEEERNS2_IS4_EEE17__destruct_at_endB7v160006EPS4_NS_17integral_constantIbLb0EEE, symObjAddr: 0x32D8, symBinAddr: 0x1000050C8, symSize: 0x80 }
  - { offsetInCU: 0xFB9E, offset: 0xFB9E, size: 0x8, addend: 0x0, symName: __ZNKSt3__114__split_bufferINS_6vectorIxNS_9allocatorIxEEEERNS2_IS4_EEE9__end_capB7v160006Ev, symObjAddr: 0x3358, symBinAddr: 0x100005148, symSize: 0x28 }
  - { offsetInCU: 0xFBC4, offset: 0xFBC4, size: 0x8, addend: 0x0, symName: __ZNKSt3__117__compressed_pairIPNS_6vectorIxNS_9allocatorIxEEEERNS2_IS4_EEE5firstB7v160006Ev, symObjAddr: 0x3380, symBinAddr: 0x100005170, symSize: 0x24 }
  - { offsetInCU: 0xFBEA, offset: 0xFBEA, size: 0x8, addend: 0x0, symName: __ZNSt3__16vectorINS0_IxNS_9allocatorIxEEEENS1_IS3_EEE27__invalidate_iterators_pastB7v160006EPS3_, symObjAddr: 0x33A4, symBinAddr: 0x100005194, symSize: 0x14 }
  - { offsetInCU: 0xFC21, offset: 0xFC21, size: 0x8, addend: 0x0, symName: __ZNKSt3__16vectorINS0_IxNS_9allocatorIxEEEENS1_IS3_EEE17__annotate_shrinkB7v160006Em, symObjAddr: 0x33B8, symBinAddr: 0x1000051A8, symSize: 0xD0 }
  - { offsetInCU: 0xFC56, offset: 0xFC56, size: 0x8, addend: 0x0, symName: __ZNSt3__16vectorIxNS_9allocatorIxEEE8__appendEm, symObjAddr: 0x3488, symBinAddr: 0x100005278, symSize: 0x108 }
  - { offsetInCU: 0xFCB1, offset: 0xFCB1, size: 0x8, addend: 0x0, symName: __ZNSt3__16vectorIxNS_9allocatorIxEEE17__destruct_at_endB7v160006EPx, symObjAddr: 0x3590, symBinAddr: 0x100005380, symSize: 0x60 }
  - { offsetInCU: 0xFCF5, offset: 0xFCF5, size: 0x8, addend: 0x0, symName: __ZNSt3__16vectorIxNS_9allocatorIxEEE18__construct_at_endEm, symObjAddr: 0x35F0, symBinAddr: 0x1000053E0, symSize: 0xC8 }
  - { offsetInCU: 0xFD67, offset: 0xFD67, size: 0x8, addend: 0x0, symName: __ZNKSt3__16vectorIxNS_9allocatorIxEEE11__recommendB7v160006Em, symObjAddr: 0x36B8, symBinAddr: 0x1000054A8, symSize: 0xB4 }
  - { offsetInCU: 0xFDBC, offset: 0xFDBC, size: 0x8, addend: 0x0, symName: __ZNSt3__114__split_bufferIxRNS_9allocatorIxEEEC1EmmS3_, symObjAddr: 0x376C, symBinAddr: 0x10000555C, symSize: 0x44 }
  - { offsetInCU: 0xFE12, offset: 0xFE12, size: 0x8, addend: 0x0, symName: __ZNSt3__114__split_bufferIxRNS_9allocatorIxEEE18__construct_at_endEm, symObjAddr: 0x37B0, symBinAddr: 0x1000055A0, symSize: 0xB4 }
  - { offsetInCU: 0xFE55, offset: 0xFE55, size: 0x8, addend: 0x0, symName: __ZNSt3__114__split_bufferIxRNS_9allocatorIxEEED1Ev, symObjAddr: 0x397C, symBinAddr: 0x10000576C, symSize: 0x2C }
  - { offsetInCU: 0xFE9A, offset: 0xFE9A, size: 0x8, addend: 0x0, symName: __ZNSt3__16vectorIxNS_9allocatorIxEEE21_ConstructTransactionC1B7v160006ERS3_m, symObjAddr: 0x39A8, symBinAddr: 0x100005798, symSize: 0x3C }
  - { offsetInCU: 0xFEE2, offset: 0xFEE2, size: 0x8, addend: 0x0, symName: __ZNSt3__116allocator_traitsINS_9allocatorIxEEE9constructB7v160006IxJEvvEEvRS2_PT_DpOT0_, symObjAddr: 0x39E4, symBinAddr: 0x1000057D4, symSize: 0x28 }
  - { offsetInCU: 0xFF21, offset: 0xFF21, size: 0x8, addend: 0x0, symName: __ZNSt3__16vectorIxNS_9allocatorIxEEE21_ConstructTransactionD1B7v160006Ev, symObjAddr: 0x3A0C, symBinAddr: 0x1000057FC, symSize: 0x2C }
  - { offsetInCU: 0xFF4B, offset: 0xFF4B, size: 0x8, addend: 0x0, symName: __ZNSt3__16vectorIxNS_9allocatorIxEEE21_ConstructTransactionC2B7v160006ERS3_m, symObjAddr: 0x3A38, symBinAddr: 0x100005828, symSize: 0x44 }
  - { offsetInCU: 0xFF93, offset: 0xFF93, size: 0x8, addend: 0x0, symName: __ZNSt3__16vectorIxNS_9allocatorIxEEE21_ConstructTransactionD2B7v160006Ev, symObjAddr: 0x3A9C, symBinAddr: 0x10000588C, symSize: 0x20 }
  - { offsetInCU: 0xFFBD, offset: 0xFFBD, size: 0x8, addend: 0x0, symName: __ZNKSt3__16vectorIxNS_9allocatorIxEEE8max_sizeEv, symObjAddr: 0x3ABC, symBinAddr: 0x1000058AC, symSize: 0x60 }
  - { offsetInCU: 0xFFE5, offset: 0xFFE5, size: 0x8, addend: 0x0, symName: __ZNKSt3__16vectorIxNS_9allocatorIxEEE20__throw_length_errorB7v160006Ev, symObjAddr: 0x3B1C, symBinAddr: 0x10000590C, symSize: 0x1C }
  - { offsetInCU: 0x10015, offset: 0x10015, size: 0x8, addend: 0x0, symName: __ZNSt3__116allocator_traitsINS_9allocatorIxEEE8max_sizeB7v160006IS2_vvEEmRKS2_, symObjAddr: 0x3B38, symBinAddr: 0x100005928, symSize: 0x28 }
  - { offsetInCU: 0x10040, offset: 0x10040, size: 0x8, addend: 0x0, symName: __ZNKSt3__16vectorIxNS_9allocatorIxEEE7__allocB7v160006Ev, symObjAddr: 0x3B60, symBinAddr: 0x100005950, symSize: 0x28 }
  - { offsetInCU: 0x10066, offset: 0x10066, size: 0x8, addend: 0x0, symName: __ZNKSt3__117__compressed_pairIPxNS_9allocatorIxEEE6secondB7v160006Ev, symObjAddr: 0x3B88, symBinAddr: 0x100005978, symSize: 0x24 }
  - { offsetInCU: 0x1008C, offset: 0x1008C, size: 0x8, addend: 0x0, symName: __ZNKSt3__122__compressed_pair_elemINS_9allocatorIxEELi1ELb1EE5__getB7v160006Ev, symObjAddr: 0x3BAC, symBinAddr: 0x10000599C, symSize: 0x14 }
  - { offsetInCU: 0x100B2, offset: 0x100B2, size: 0x8, addend: 0x0, symName: __ZNSt3__114__split_bufferIxRNS_9allocatorIxEEEC2EmmS3_, symObjAddr: 0x3BC0, symBinAddr: 0x1000059B0, symSize: 0xD4 }
  - { offsetInCU: 0x10125, offset: 0x10125, size: 0x8, addend: 0x0, symName: __ZNSt3__117__compressed_pairIPxRNS_9allocatorIxEEEC1B7v160006IDnS4_EEOT_OT0_, symObjAddr: 0x3C94, symBinAddr: 0x100005A84, symSize: 0x3C }
  - { offsetInCU: 0x1017D, offset: 0x1017D, size: 0x8, addend: 0x0, symName: __ZNSt3__114__split_bufferIxRNS_9allocatorIxEEE7__allocB7v160006Ev, symObjAddr: 0x3D0C, symBinAddr: 0x100005AFC, symSize: 0x28 }
  - { offsetInCU: 0x101A3, offset: 0x101A3, size: 0x8, addend: 0x0, symName: __ZNSt3__114__split_bufferIxRNS_9allocatorIxEEE9__end_capB7v160006Ev, symObjAddr: 0x3D34, symBinAddr: 0x100005B24, symSize: 0x28 }
  - { offsetInCU: 0x101C9, offset: 0x101C9, size: 0x8, addend: 0x0, symName: __ZNSt3__117__compressed_pairIPxRNS_9allocatorIxEEEC2B7v160006IDnS4_EEOT_OT0_, symObjAddr: 0x3D5C, symBinAddr: 0x100005B4C, symSize: 0x48 }
  - { offsetInCU: 0x10221, offset: 0x10221, size: 0x8, addend: 0x0, symName: __ZNSt3__122__compressed_pair_elemIRNS_9allocatorIxEELi1ELb0EEC2B7v160006IS3_vEEOT_, symObjAddr: 0x3DA4, symBinAddr: 0x100005B94, symSize: 0x20 }
  - { offsetInCU: 0x10263, offset: 0x10263, size: 0x8, addend: 0x0, symName: __ZNSt3__19allocatorIxE17allocate_at_leastB7v160006Em, symObjAddr: 0x3E00, symBinAddr: 0x100005BF0, symSize: 0x40 }
  - { offsetInCU: 0x10297, offset: 0x10297, size: 0x8, addend: 0x0, symName: __ZNSt3__19allocatorIxE8allocateB7v160006Em, symObjAddr: 0x3E40, symBinAddr: 0x100005C30, symSize: 0x58 }
  - { offsetInCU: 0x102CB, offset: 0x102CB, size: 0x8, addend: 0x0, symName: __ZNSt3__117__compressed_pairIPxRNS_9allocatorIxEEE6secondB7v160006Ev, symObjAddr: 0x3E98, symBinAddr: 0x100005C88, symSize: 0x28 }
  - { offsetInCU: 0x102F1, offset: 0x102F1, size: 0x8, addend: 0x0, symName: __ZNSt3__122__compressed_pair_elemIRNS_9allocatorIxEELi1ELb0EE5__getB7v160006Ev, symObjAddr: 0x3EC0, symBinAddr: 0x100005CB0, symSize: 0x18 }
  - { offsetInCU: 0x10317, offset: 0x10317, size: 0x8, addend: 0x0, symName: __ZNSt3__117__compressed_pairIPxRNS_9allocatorIxEEE5firstB7v160006Ev, symObjAddr: 0x3ED8, symBinAddr: 0x100005CC8, symSize: 0x24 }
  - { offsetInCU: 0x10347, offset: 0x10347, size: 0x8, addend: 0x0, symName: __ZNSt3__114__split_bufferIxRNS_9allocatorIxEEE21_ConstructTransactionC1B7v160006EPPxm, symObjAddr: 0x3EFC, symBinAddr: 0x100005CEC, symSize: 0x3C }
  - { offsetInCU: 0x1038D, offset: 0x1038D, size: 0x8, addend: 0x0, symName: __ZNSt3__114__split_bufferIxRNS_9allocatorIxEEE21_ConstructTransactionD1B7v160006Ev, symObjAddr: 0x3F38, symBinAddr: 0x100005D28, symSize: 0x2C }
  - { offsetInCU: 0x103B7, offset: 0x103B7, size: 0x8, addend: 0x0, symName: __ZNSt3__114__split_bufferIxRNS_9allocatorIxEEE21_ConstructTransactionC2B7v160006EPPxm, symObjAddr: 0x3F64, symBinAddr: 0x100005D54, symSize: 0x44 }
  - { offsetInCU: 0x103FD, offset: 0x103FD, size: 0x8, addend: 0x0, symName: __ZNSt3__114__split_bufferIxRNS_9allocatorIxEEE21_ConstructTransactionD2B7v160006Ev, symObjAddr: 0x3FA8, symBinAddr: 0x100005D98, symSize: 0x20 }
  - { offsetInCU: 0x10427, offset: 0x10427, size: 0x8, addend: 0x0, symName: __ZNSt3__116reverse_iteratorIPxEC1B7v160006ES1_, symObjAddr: 0x4040, symBinAddr: 0x100005E30, symSize: 0x34 }
  - { offsetInCU: 0x1045F, offset: 0x1045F, size: 0x8, addend: 0x0, symName: __ZNKSt3__116reverse_iteratorIPxE4baseB7v160006Ev, symObjAddr: 0x4074, symBinAddr: 0x100005E64, symSize: 0x18 }
  - { offsetInCU: 0x10485, offset: 0x10485, size: 0x8, addend: 0x0, symName: __ZNKSt3__16vectorIxNS_9allocatorIxEEE14__annotate_newB7v160006Em, symObjAddr: 0x40C8, symBinAddr: 0x100005EB8, symSize: 0xAC }
  - { offsetInCU: 0x104E2, offset: 0x104E2, size: 0x8, addend: 0x0, symName: __ZNKSt3__111__move_loopINS_17_ClassicAlgPolicyEEclB7v160006INS_16reverse_iteratorIPxEES6_S6_EENS_4pairIT_T1_EES8_T0_S9_, symObjAddr: 0x443C, symBinAddr: 0x10000622C, symSize: 0xA0 }
  - { offsetInCU: 0x1054D, offset: 0x1054D, size: 0x8, addend: 0x0, symName: __ZNSt3__119__unwrap_range_implINS_16reverse_iteratorIPxEES3_E8__unwrapB7v160006ES3_S3_, symObjAddr: 0x4628, symBinAddr: 0x100006418, symSize: 0x84 }
  - { offsetInCU: 0x10583, offset: 0x10583, size: 0x8, addend: 0x0, symName: __ZNSt3__14pairINS_16reverse_iteratorIPxEES3_EC1B7v160006IS3_S3_LPv0EEEOT_OT0_, symObjAddr: 0x46AC, symBinAddr: 0x10000649C, symSize: 0x3C }
  - { offsetInCU: 0x105E1, offset: 0x105E1, size: 0x8, addend: 0x0, symName: __ZNSt3__14pairINS_16reverse_iteratorIPxEES3_EC2B7v160006IS3_S3_LPv0EEEOT_OT0_, symObjAddr: 0x46E8, symBinAddr: 0x1000064D8, symSize: 0x34 }
  - { offsetInCU: 0x10644, offset: 0x10644, size: 0x8, addend: 0x0, symName: __ZNSt3__18_IterOpsINS_17_ClassicAlgPolicyEE11__iter_moveB7v160006IRNS_16reverse_iteratorIPxEEEENS_9enable_ifIXsr12is_referenceIDTdeclsr3stdE7declvalIRT_EEEEE5valueEDTclsr3stdE4movedeclsr3stdE7declvalISA_EEEEE4typeEOS9_, symObjAddr: 0x4764, symBinAddr: 0x100006554, symSize: 0x28 }
  - { offsetInCU: 0x10670, offset: 0x10670, size: 0x8, addend: 0x0, symName: __ZNKSt3__116reverse_iteratorIPxEdeB7v160006Ev, symObjAddr: 0x478C, symBinAddr: 0x10000657C, symSize: 0x28 }
  - { offsetInCU: 0x106A4, offset: 0x106A4, size: 0x8, addend: 0x0, symName: __ZNSt3__116reverse_iteratorIPxEppB7v160006Ev, symObjAddr: 0x47B4, symBinAddr: 0x1000065A4, symSize: 0x20 }
  - { offsetInCU: 0x106CA, offset: 0x106CA, size: 0x8, addend: 0x0, symName: __ZNSt3__18_IterOpsINS_17_ClassicAlgPolicyEE25__validate_iter_referenceB7v160006IRNS_16reverse_iteratorIPxEEEEvv, symObjAddr: 0x47D4, symBinAddr: 0x1000065C4, symSize: 0x4 }
  - { offsetInCU: 0x106E8, offset: 0x106E8, size: 0x8, addend: 0x0, symName: __ZNSt3__118__unwrap_iter_implINS_16reverse_iteratorIPxEELb0EE8__unwrapB7v160006ES3_, symObjAddr: 0x47D8, symBinAddr: 0x1000065C8, symSize: 0x24 }
  - { offsetInCU: 0x1070B, offset: 0x1070B, size: 0x8, addend: 0x0, symName: __ZNSt3__119__unwrap_range_implINS_16reverse_iteratorIPxEES3_E8__rewrapB7v160006ES3_S3_, symObjAddr: 0x47FC, symBinAddr: 0x1000065EC, symSize: 0x5C }
  - { offsetInCU: 0x1073C, offset: 0x1073C, size: 0x8, addend: 0x0, symName: __ZNSt3__118__unwrap_iter_implINS_16reverse_iteratorIPxEELb0EE8__rewrapB7v160006ES3_S3_, symObjAddr: 0x4858, symBinAddr: 0x100006648, symSize: 0x2C }
  - { offsetInCU: 0x10769, offset: 0x10769, size: 0x8, addend: 0x0, symName: __ZNSt3__116reverse_iteratorIPxEC2B7v160006ES1_, symObjAddr: 0x4884, symBinAddr: 0x100006674, symSize: 0x28 }
  - { offsetInCU: 0x107A1, offset: 0x107A1, size: 0x8, addend: 0x0, symName: __ZNSt3__114__split_bufferIxRNS_9allocatorIxEEED2Ev, symObjAddr: 0x48AC, symBinAddr: 0x10000669C, symSize: 0x8C }
  - { offsetInCU: 0x107CD, offset: 0x107CD, size: 0x8, addend: 0x0, symName: __ZNSt3__114__split_bufferIxRNS_9allocatorIxEEE5clearB7v160006Ev, symObjAddr: 0x4938, symBinAddr: 0x100006728, symSize: 0x28 }
  - { offsetInCU: 0x107F3, offset: 0x107F3, size: 0x8, addend: 0x0, symName: __ZNKSt3__114__split_bufferIxRNS_9allocatorIxEEE8capacityB7v160006Ev, symObjAddr: 0x4960, symBinAddr: 0x100006750, symSize: 0x40 }
  - { offsetInCU: 0x10819, offset: 0x10819, size: 0x8, addend: 0x0, symName: __ZNSt3__114__split_bufferIxRNS_9allocatorIxEEE17__destruct_at_endB7v160006EPx, symObjAddr: 0x49A0, symBinAddr: 0x100006790, symSize: 0x2C }
  - { offsetInCU: 0x1084D, offset: 0x1084D, size: 0x8, addend: 0x0, symName: __ZNSt3__114__split_bufferIxRNS_9allocatorIxEEE17__destruct_at_endB7v160006EPxNS_17integral_constantIbLb0EEE, symObjAddr: 0x49CC, symBinAddr: 0x1000067BC, symSize: 0x80 }
  - { offsetInCU: 0x1088D, offset: 0x1088D, size: 0x8, addend: 0x0, symName: __ZNKSt3__114__split_bufferIxRNS_9allocatorIxEEE9__end_capB7v160006Ev, symObjAddr: 0x4A4C, symBinAddr: 0x10000683C, symSize: 0x28 }
  - { offsetInCU: 0x108B3, offset: 0x108B3, size: 0x8, addend: 0x0, symName: __ZNKSt3__117__compressed_pairIPxRNS_9allocatorIxEEE5firstB7v160006Ev, symObjAddr: 0x4A74, symBinAddr: 0x100006864, symSize: 0x24 }
  - { offsetInCU: 0x108D9, offset: 0x108D9, size: 0x8, addend: 0x0, symName: __ZNSt3__16vectorIxNS_9allocatorIxEEE27__invalidate_iterators_pastB7v160006EPx, symObjAddr: 0x4A98, symBinAddr: 0x100006888, symSize: 0x14 }
  - { offsetInCU: 0x10910, offset: 0x10910, size: 0x8, addend: 0x0, symName: __ZNKSt3__16vectorIxNS_9allocatorIxEEE17__annotate_shrinkB7v160006Em, symObjAddr: 0x4AAC, symBinAddr: 0x10000689C, symSize: 0xB4 }
  - { offsetInCU: 0x10945, offset: 0x10945, size: 0x8, addend: 0x0, symName: __ZNSt3__16vectorIxNS_9allocatorIxEEE22__construct_one_at_endB7v160006IJxEEEvDpOT_, symObjAddr: 0x4B60, symBinAddr: 0x100006950, symSize: 0x90 }
  - { offsetInCU: 0x10994, offset: 0x10994, size: 0x8, addend: 0x0, symName: __ZNSt3__16vectorIxNS_9allocatorIxEEE21__push_back_slow_pathIxEEvOT_, symObjAddr: 0x4BF0, symBinAddr: 0x1000069E0, symSize: 0xD8 }
  - { offsetInCU: 0x109F2, offset: 0x109F2, size: 0x8, addend: 0x0, symName: __ZNSt3__116allocator_traitsINS_9allocatorIxEEE9constructB7v160006IxJxEvvEEvRS2_PT_DpOT0_, symObjAddr: 0x4CC8, symBinAddr: 0x100006AB8, symSize: 0x30 }
  - { offsetInCU: 0x10A5F, offset: 0x10A5F, size: 0x8, addend: 0x0, symName: __ZNKSt3__113basic_ostreamIcNS_11char_traitsIcEEE6sentrycvbB7v160006Ev, symObjAddr: 0x4F10, symBinAddr: 0x100006D00, symSize: 0x1C }
  - { offsetInCU: 0x10A85, offset: 0x10A85, size: 0x8, addend: 0x0, symName: __ZNSt3__119ostreambuf_iteratorIcNS_11char_traitsIcEEEC1B7v160006ERNS_13basic_ostreamIcS2_EE, symObjAddr: 0x516C, symBinAddr: 0x100006F5C, symSize: 0x34 }
  - { offsetInCU: 0x10ABD, offset: 0x10ABD, size: 0x8, addend: 0x0, symName: __ZNKSt3__18ios_base5flagsB7v160006Ev, symObjAddr: 0x51A0, symBinAddr: 0x100006F90, symSize: 0x18 }
  - { offsetInCU: 0x10AE5, offset: 0x10AE5, size: 0x8, addend: 0x0, symName: __ZNKSt3__19basic_iosIcNS_11char_traitsIcEEE4fillB7v160006Ev, symObjAddr: 0x51B8, symBinAddr: 0x100006FA8, symSize: 0x64 }
  - { offsetInCU: 0x10B0D, offset: 0x10B0D, size: 0x8, addend: 0x0, symName: __ZNKSt3__119ostreambuf_iteratorIcNS_11char_traitsIcEEE6failedB7v160006Ev, symObjAddr: 0x521C, symBinAddr: 0x10000700C, symSize: 0x24 }
  - { offsetInCU: 0x10B33, offset: 0x10B33, size: 0x8, addend: 0x0, symName: __ZNSt3__19basic_iosIcNS_11char_traitsIcEEE8setstateB7v160006Ej, symObjAddr: 0x5240, symBinAddr: 0x100007030, symSize: 0x2C }
  - { offsetInCU: 0x10B68, offset: 0x10B68, size: 0x8, addend: 0x0, symName: __ZNKSt3__18ios_base5widthB7v160006Ev, symObjAddr: 0x526C, symBinAddr: 0x10000705C, symSize: 0x18 }
  - { offsetInCU: 0x10B90, offset: 0x10B90, size: 0x8, addend: 0x0, symName: __ZNSt3__115basic_streambufIcNS_11char_traitsIcEEE5sputnB7v160006EPKcl, symObjAddr: 0x5284, symBinAddr: 0x100007074, symSize: 0x3C }
  - { offsetInCU: 0x10BD2, offset: 0x10BD2, size: 0x8, addend: 0x0, symName: __ZNSt3__112basic_stringIcNS_11char_traitsIcEENS_9allocatorIcEEEC1B7v160006Emc, symObjAddr: 0x52C0, symBinAddr: 0x1000070B0, symSize: 0x3C }
  - { offsetInCU: 0x10C1A, offset: 0x10C1A, size: 0x8, addend: 0x0, symName: __ZNSt3__112basic_stringIcNS_11char_traitsIcEENS_9allocatorIcEEE4dataB7v160006Ev, symObjAddr: 0x52FC, symBinAddr: 0x1000070EC, symSize: 0x28 }
  - { offsetInCU: 0x10C40, offset: 0x10C40, size: 0x8, addend: 0x0, symName: __ZNSt3__18ios_base5widthB7v160006El, symObjAddr: 0x5324, symBinAddr: 0x100007114, symSize: 0x2C }
  - { offsetInCU: 0x10C86, offset: 0x10C86, size: 0x8, addend: 0x0, symName: __ZNSt3__112basic_stringIcNS_11char_traitsIcEENS_9allocatorIcEEEC2B7v160006Emc, symObjAddr: 0x5350, symBinAddr: 0x100007140, symSize: 0x54 }
  - { offsetInCU: 0x10CCE, offset: 0x10CCE, size: 0x8, addend: 0x0, symName: __ZNSt3__117__compressed_pairINS_12basic_stringIcNS_11char_traitsIcEENS_9allocatorIcEEE5__repES5_EC1B7v160006INS_18__default_init_tagESA_EEOT_OT0_, symObjAddr: 0x53A4, symBinAddr: 0x100007194, symSize: 0x3C }
  - { offsetInCU: 0x10D26, offset: 0x10D26, size: 0x8, addend: 0x0, symName: __ZNSt3__117__compressed_pairINS_12basic_stringIcNS_11char_traitsIcEENS_9allocatorIcEEE5__repES5_EC2B7v160006INS_18__default_init_tagESA_EEOT_OT0_, symObjAddr: 0x53F0, symBinAddr: 0x1000071E0, symSize: 0x3C }
  - { offsetInCU: 0x10D7E, offset: 0x10D7E, size: 0x8, addend: 0x0, symName: __ZNSt3__122__compressed_pair_elemINS_12basic_stringIcNS_11char_traitsIcEENS_9allocatorIcEEE5__repELi0ELb0EEC2B7v160006ENS_18__default_init_tagE, symObjAddr: 0x542C, symBinAddr: 0x10000721C, symSize: 0x14 }
  - { offsetInCU: 0x10DB2, offset: 0x10DB2, size: 0x8, addend: 0x0, symName: __ZNSt3__122__compressed_pair_elemINS_9allocatorIcEELi1ELb1EEC2B7v160006ENS_18__default_init_tagE, symObjAddr: 0x5440, symBinAddr: 0x100007230, symSize: 0x2C }
  - { offsetInCU: 0x10DE6, offset: 0x10DE6, size: 0x8, addend: 0x0, symName: __ZNSt3__19allocatorIcEC2B7v160006Ev, symObjAddr: 0x546C, symBinAddr: 0x10000725C, symSize: 0x2C }
  - { offsetInCU: 0x10E10, offset: 0x10E10, size: 0x8, addend: 0x0, symName: __ZNSt3__116__non_trivial_ifILb1ENS_9allocatorIcEEEC2B7v160006Ev, symObjAddr: 0x5498, symBinAddr: 0x100007288, symSize: 0x14 }
  - { offsetInCU: 0x10E3A, offset: 0x10E3A, size: 0x8, addend: 0x0, symName: __ZNSt3__112basic_stringIcNS_11char_traitsIcEENS_9allocatorIcEEE13__get_pointerB7v160006Ev, symObjAddr: 0x54C0, symBinAddr: 0x1000072B0, symSize: 0x54 }
  - { offsetInCU: 0x10E60, offset: 0x10E60, size: 0x8, addend: 0x0, symName: __ZNKSt3__112basic_stringIcNS_11char_traitsIcEENS_9allocatorIcEEE9__is_longB7v160006Ev, symObjAddr: 0x5514, symBinAddr: 0x100007304, symSize: 0x38 }
  - { offsetInCU: 0x10E86, offset: 0x10E86, size: 0x8, addend: 0x0, symName: __ZNSt3__112basic_stringIcNS_11char_traitsIcEENS_9allocatorIcEEE18__get_long_pointerB7v160006Ev, symObjAddr: 0x554C, symBinAddr: 0x10000733C, symSize: 0x28 }
  - { offsetInCU: 0x10EAC, offset: 0x10EAC, size: 0x8, addend: 0x0, symName: __ZNSt3__112basic_stringIcNS_11char_traitsIcEENS_9allocatorIcEEE19__get_short_pointerB7v160006Ev, symObjAddr: 0x5574, symBinAddr: 0x100007364, symSize: 0x28 }
  - { offsetInCU: 0x10ED2, offset: 0x10ED2, size: 0x8, addend: 0x0, symName: __ZNKSt3__117__compressed_pairINS_12basic_stringIcNS_11char_traitsIcEENS_9allocatorIcEEE5__repES5_E5firstB7v160006Ev, symObjAddr: 0x559C, symBinAddr: 0x10000738C, symSize: 0x24 }
  - { offsetInCU: 0x10EF8, offset: 0x10EF8, size: 0x8, addend: 0x0, symName: __ZNKSt3__122__compressed_pair_elemINS_12basic_stringIcNS_11char_traitsIcEENS_9allocatorIcEEE5__repELi0ELb0EE5__getB7v160006Ev, symObjAddr: 0x55C0, symBinAddr: 0x1000073B0, symSize: 0x14 }
  - { offsetInCU: 0x10F1E, offset: 0x10F1E, size: 0x8, addend: 0x0, symName: __ZNSt3__117__compressed_pairINS_12basic_stringIcNS_11char_traitsIcEENS_9allocatorIcEEE5__repES5_E5firstB7v160006Ev, symObjAddr: 0x55D4, symBinAddr: 0x1000073C4, symSize: 0x24 }
  - { offsetInCU: 0x10F44, offset: 0x10F44, size: 0x8, addend: 0x0, symName: __ZNSt3__122__compressed_pair_elemINS_12basic_stringIcNS_11char_traitsIcEENS_9allocatorIcEEE5__repELi0ELb0EE5__getB7v160006Ev, symObjAddr: 0x55F8, symBinAddr: 0x1000073E8, symSize: 0x14 }
  - { offsetInCU: 0x10F6A, offset: 0x10F6A, size: 0x8, addend: 0x0, symName: __ZNSt3__114pointer_traitsIPcE10pointer_toB7v160006ERc, symObjAddr: 0x560C, symBinAddr: 0x1000073FC, symSize: 0x14 }
  - { offsetInCU: 0x10F8D, offset: 0x10F8D, size: 0x8, addend: 0x0, symName: __ZNSt3__119ostreambuf_iteratorIcNS_11char_traitsIcEEEC2B7v160006ERNS_13basic_ostreamIcS2_EE, symObjAddr: 0x5620, symBinAddr: 0x100007410, symSize: 0x54 }
  - { offsetInCU: 0x10FC5, offset: 0x10FC5, size: 0x8, addend: 0x0, symName: __ZNKSt3__19basic_iosIcNS_11char_traitsIcEEE5rdbufB7v160006Ev, symObjAddr: 0x5674, symBinAddr: 0x100007464, symSize: 0x24 }
  - { offsetInCU: 0x10FED, offset: 0x10FED, size: 0x8, addend: 0x0, symName: __ZNKSt3__18ios_base5rdbufB7v160006Ev, symObjAddr: 0x5698, symBinAddr: 0x100007488, symSize: 0x18 }
  - { offsetInCU: 0x11013, offset: 0x11013, size: 0x8, addend: 0x0, symName: __ZNSt3__111char_traitsIcE11eq_int_typeEii, symObjAddr: 0x56B0, symBinAddr: 0x1000074A0, symSize: 0x28 }
  - { offsetInCU: 0x11044, offset: 0x11044, size: 0x8, addend: 0x0, symName: __ZNSt3__111char_traitsIcE3eofEv, symObjAddr: 0x56D8, symBinAddr: 0x1000074C8, symSize: 0x8 }
  - { offsetInCU: 0x11058, offset: 0x11058, size: 0x8, addend: 0x0, symName: __ZNKSt3__19basic_iosIcNS_11char_traitsIcEEE5widenB7v160006Ec, symObjAddr: 0x56E0, symBinAddr: 0x1000074D0, symSize: 0x84 }
  - { offsetInCU: 0x110C6, offset: 0x110C6, size: 0x8, addend: 0x0, symName: __ZNKSt3__15ctypeIcE5widenB7v160006Ec, symObjAddr: 0x5790, symBinAddr: 0x100007580, symSize: 0x38 }
  - { offsetInCU: 0x110FB, offset: 0x110FB, size: 0x8, addend: 0x0, symName: __ZNSt3__18ios_base8setstateB7v160006Ej, symObjAddr: 0x57C8, symBinAddr: 0x1000075B8, symSize: 0x34 }
  - { offsetInCU: 0x11132, offset: 0x11132, size: 0x8, addend: 0x0, symName: __ZNSt3__111char_traitsIcE6lengthEPKc, symObjAddr: 0x57FC, symBinAddr: 0x1000075EC, symSize: 0x34 }
...
