---
triple:          'arm64-apple-darwin'
binary-path:     '/Users/rohakdebnath/Desktop/Cpp /ATCODER/handshake2'
relocations:
  - { offsetInCU: 0x41, offset: 0x41, size: 0x8, addend: 0x0, symName: __ZNSt3__117__synth_three_wayB7v160006E, symObjAddr: 0x3011, symBinAddr: 0x100003D4D, symSize: 0x0 }
  - { offsetInCU: 0x92, offset: 0x92, size: 0x8, addend: 0x0, symName: __ZNSt3__1L19piecewise_constructE, symObjAddr: 0x3010, symBinAddr: 0x100003D4C, symSize: 0x0 }
  - { offsetInCU: 0x601F, offset: 0x601F, size: 0x8, addend: 0x0, symName: __ZNSt3__124__put_character_sequenceB7v160006IcNS_11char_traitsIcEEEERNS_13basic_ostreamIT_T0_EES7_PKS4_m, symObjAddr: 0x257C, symBinAddr: 0x100003108, symSize: 0x1EC }
  - { offsetInCU: 0x7C71, offset: 0x7C71, size: 0x8, addend: 0x0, symName: __ZNSt3__1lsB7v160006INS_11char_traitsIcEEEERNS_13basic_ostreamIcT_EES6_c, symObjAddr: 0x3B4, symBinAddr: 0x100000F40, symSize: 0x34 }
  - { offsetInCU: 0x7CEA, offset: 0x7CEA, size: 0x8, addend: 0x0, symName: __ZNSt3__110destroy_atB7v160006INS_4pairIKNS1_IxxEExEELi0EEEvPT_, symObjAddr: 0xBAC, symBinAddr: 0x100001738, symSize: 0x24 }
  - { offsetInCU: 0x7D21, offset: 0x7D21, size: 0x8, addend: 0x0, symName: __ZNSt3__112__destroy_atB7v160006INS_4pairIKNS1_IxxEExEELi0EEEvPT_, symObjAddr: 0xBD0, symBinAddr: 0x10000175C, symSize: 0x10 }
  - { offsetInCU: 0x7D58, offset: 0x7D58, size: 0x8, addend: 0x0, symName: __ZNSt3__17launderB7v160006INS_4pairIKNS1_IxxEExEEEEPT_S6_, symObjAddr: 0xC04, symBinAddr: 0x100001790, symSize: 0x24 }
  - { offsetInCU: 0x7D8F, offset: 0x7D8F, size: 0x8, addend: 0x0, symName: __ZNSt3__19__launderB7v160006INS_4pairIKNS1_IxxEExEEEEPT_S6_, symObjAddr: 0xC28, symBinAddr: 0x1000017B4, symSize: 0x14 }
  - { offsetInCU: 0x7DC6, offset: 0x7DC6, size: 0x8, addend: 0x0, symName: __ZNSt3__119__libcpp_deallocateB7v160006EPvmm, symObjAddr: 0xC80, symBinAddr: 0x10000180C, symSize: 0x60 }
  - { offsetInCU: 0x7E2B, offset: 0x7E2B, size: 0x8, addend: 0x0, symName: __ZNSt3__124__is_overaligned_for_newB7v160006Em, symObjAddr: 0xCE0, symBinAddr: 0x10000186C, symSize: 0x20 }
  - { offsetInCU: 0x7E59, offset: 0x7E59, size: 0x8, addend: 0x0, symName: __ZNSt3__127__do_deallocate_handle_sizeB7v160006IJSt11align_val_tEEEvPvmDpT_, symObjAddr: 0xD00, symBinAddr: 0x10000188C, symSize: 0x30 }
  - { offsetInCU: 0x7EAC, offset: 0x7EAC, size: 0x8, addend: 0x0, symName: __ZNSt3__127__do_deallocate_handle_sizeB7v160006IJEEEvPvmDpT_, symObjAddr: 0xD30, symBinAddr: 0x1000018BC, symSize: 0x28 }
  - { offsetInCU: 0x7EEA, offset: 0x7EEA, size: 0x8, addend: 0x0, symName: __ZNSt3__124__libcpp_operator_deleteB7v160006IJPvSt11align_val_tEEEvDpT_, symObjAddr: 0xD58, symBinAddr: 0x1000018E4, symSize: 0x2C }
  - { offsetInCU: 0x7F33, offset: 0x7F33, size: 0x8, addend: 0x0, symName: __ZNSt3__124__libcpp_operator_deleteB7v160006IJPvEEEvDpT_, symObjAddr: 0xD84, symBinAddr: 0x100001910, symSize: 0x24 }
  - { offsetInCU: 0x7FB7, offset: 0x7FB7, size: 0x8, addend: 0x0, symName: __ZNSt3__116forward_as_tupleB7v160006IJNS_4pairIxxEEEEENS_5tupleIJDpOT_EEES6_, symObjAddr: 0xF0C, symBinAddr: 0x100001A98, symSize: 0x2C }
  - { offsetInCU: 0x7FF0, offset: 0x7FF0, size: 0x8, addend: 0x0, symName: __ZNSt3__116forward_as_tupleB7v160006IJEEENS_5tupleIJDpOT_EEES4_, symObjAddr: 0xF38, symBinAddr: 0x100001AC4, symSize: 0x4 }
  - { offsetInCU: 0x8014, offset: 0x8014, size: 0x8, addend: 0x0, symName: __ZNSt3__1ltB7v160006ENS_15strong_orderingENS_20_CmpUnspecifiedParamE, symObjAddr: 0x1570, symBinAddr: 0x1000020FC, symSize: 0x24 }
  - { offsetInCU: 0x804D, offset: 0x804D, size: 0x8, addend: 0x0, symName: __ZNSt3__1ssB7v160006IxxEENS_26common_comparison_categoryIJDTclL_ZNS_17__synth_three_wayB7v160006EEclsr3stdE7declvalIRT_EEclsr3stdE7declvalIS3_EEEEDTclL_ZNS_17__synth_three_wayB7v160006EEclsr3stdE7declvalIRT0_EEclsr3stdE7declvalIS6_EEEEEE4typeERKNS_4pairIS2_S5_EESD_, symObjAddr: 0x1594, symBinAddr: 0x100002120, symSize: 0x8C }
  - { offsetInCU: 0x825C, offset: 0x825C, size: 0x8, addend: 0x0, symName: __ZNSt3__1eqB7v160006ENS_15strong_orderingENS_20_CmpUnspecifiedParamE, symObjAddr: 0x16B4, symBinAddr: 0x100002240, symSize: 0x24 }
  - { offsetInCU: 0x8292, offset: 0x8292, size: 0x8, addend: 0x0, symName: __ZNSt3__17launderB7v160006IKNS_4pairIKNS1_IxxEExEEEEPT_S7_, symObjAddr: 0x16F0, symBinAddr: 0x10000227C, symSize: 0x24 }
  - { offsetInCU: 0x82C9, offset: 0x82C9, size: 0x8, addend: 0x0, symName: __ZNSt3__19__launderB7v160006IKNS_4pairIKNS1_IxxEExEEEEPT_S7_, symObjAddr: 0x1714, symBinAddr: 0x1000022A0, symSize: 0x14 }
  - { offsetInCU: 0x831E, offset: 0x831E, size: 0x8, addend: 0x0, symName: __ZNSt3__117__libcpp_allocateB7v160006Emm, symObjAddr: 0x191C, symBinAddr: 0x1000024A8, symSize: 0x60 }
  - { offsetInCU: 0x8564, offset: 0x8564, size: 0x8, addend: 0x0, symName: __ZNSt3__121__libcpp_operator_newB7v160006IJmSt11align_val_tEEEPvDpT_, symObjAddr: 0x1998, symBinAddr: 0x100002524, symSize: 0x2C }
  - { offsetInCU: 0x85B1, offset: 0x85B1, size: 0x8, addend: 0x0, symName: __ZNSt3__121__libcpp_operator_newB7v160006IJmEEEPvDpT_, symObjAddr: 0x19C4, symBinAddr: 0x100002550, symSize: 0x24 }
  - { offsetInCU: 0x860F, offset: 0x860F, size: 0x8, addend: 0x0, symName: __ZNSt3__112construct_atB7v160006INS_4pairIKNS1_IxxEExEEJRKNS_21piecewise_construct_tENS_5tupleIJOS2_EEENS8_IJEEEEPS4_EEPT_SE_DpOT0_, symObjAddr: 0x1B34, symBinAddr: 0x1000026C0, symSize: 0x50 }
  - { offsetInCU: 0x86B0, offset: 0x86B0, size: 0x8, addend: 0x0, symName: __ZNSt3__13getB7v160006ILm0EJONS_4pairIxxEEEEERNS_13tuple_elementIXT_ENS_5tupleIJDpT0_EEEE4typeERS8_, symObjAddr: 0x1C4C, symBinAddr: 0x1000027D8, symSize: 0x24 }
  - { offsetInCU: 0x86F3, offset: 0x86F3, size: 0x8, addend: 0x0, symName: __ZNSt3__127__tree_balance_after_insertB7v160006IPNS_16__tree_node_baseIPvEEEEvT_S5_, symObjAddr: 0x1CFC, symBinAddr: 0x100002888, symSize: 0x32C }
  - { offsetInCU: 0x876F, offset: 0x876F, size: 0x8, addend: 0x0, symName: __ZNSt3__120__tree_is_left_childB7v160006IPNS_16__tree_node_baseIPvEEEEbT_, symObjAddr: 0x2068, symBinAddr: 0x100002BF4, symSize: 0x2C }
  - { offsetInCU: 0x87A4, offset: 0x87A4, size: 0x8, addend: 0x0, symName: __ZNSt3__118__tree_left_rotateB7v160006IPNS_16__tree_node_baseIPvEEEEvT_, symObjAddr: 0x2094, symBinAddr: 0x100002C20, symSize: 0xD8 }
  - { offsetInCU: 0x87E6, offset: 0x87E6, size: 0x8, addend: 0x0, symName: __ZNSt3__119__tree_right_rotateB7v160006IPNS_16__tree_node_baseIPvEEEEvT_, symObjAddr: 0x216C, symBinAddr: 0x100002CF8, symSize: 0xCC }
  - { offsetInCU: 0x887F, offset: 0x887F, size: 0x8, addend: 0x0, symName: __ZNSt3__116__pad_and_outputB7v160006IcNS_11char_traitsIcEEEENS_19ostreambuf_iteratorIT_T0_EES6_PKS4_S8_S8_RNS_8ios_baseES4_, symObjAddr: 0x2784, symBinAddr: 0x100003310, symSize: 0x240 }
  - { offsetInCU: 0x894E, offset: 0x894E, size: 0x8, addend: 0x0, symName: __ZNSt3__119__debug_db_insert_cB7v160006INS_12basic_stringIcNS_11char_traitsIcEENS_9allocatorIcEEEEEEvPT_, symObjAddr: 0x2C38, symBinAddr: 0x1000037C4, symSize: 0x10 }
  - { offsetInCU: 0x897F, offset: 0x897F, size: 0x8, addend: 0x0, symName: __ZNSt3__112__to_addressB7v160006IcEEPT_S2_, symObjAddr: 0x2D04, symBinAddr: 0x100003890, symSize: 0x14 }
  - { offsetInCU: 0x89B4, offset: 0x89B4, size: 0x8, addend: 0x0, symName: __ZNSt3__19use_facetB7v160006INS_5ctypeIcEEEERKT_RKNS_6localeE, symObjAddr: 0x2E5C, symBinAddr: 0x1000039E8, symSize: 0x2C }
  - { offsetInCU: 0x8F57, offset: 0x8F57, size: 0x8, addend: 0x0, symName: __ZSt28__throw_bad_array_new_lengthB7v160006v, symObjAddr: 0x18E8, symBinAddr: 0x100002474, symSize: 0x34 }
  - { offsetInCU: 0xBD84, offset: 0xBD84, size: 0x8, addend: 0x0, symName: _main, symObjAddr: 0x0, symBinAddr: 0x100000B8C, symSize: 0x270 }
  - { offsetInCU: 0xBE4C, offset: 0xBE4C, size: 0x8, addend: 0x0, symName: __ZNSt3__19basic_iosIcNS_11char_traitsIcEEE3tieB7v160006EPNS_13basic_ostreamIcS2_EE, symObjAddr: 0x270, symBinAddr: 0x100000DFC, symSize: 0x2C }
  - { offsetInCU: 0xBE92, offset: 0xBE92, size: 0x8, addend: 0x0, symName: __ZNSt3__13mapINS_4pairIxxEExNS_4lessIS2_EENS_9allocatorINS1_IKS2_xEEEEEC1B7v160006Ev, symObjAddr: 0x29C, symBinAddr: 0x100000E28, symSize: 0x2C }
  - { offsetInCU: 0xBEBC, offset: 0xBEBC, size: 0x8, addend: 0x0, symName: __ZNSt3__112basic_stringIcNS_11char_traitsIcEENS_9allocatorIcEEEixB7v160006Em, symObjAddr: 0x2C8, symBinAddr: 0x100000E54, symSize: 0x30 }
  - { offsetInCU: 0xBEF1, offset: 0xBEF1, size: 0x8, addend: 0x0, symName: __ZNSt3__13mapINS_4pairIxxEExNS_4lessIS2_EENS_9allocatorINS1_IKS2_xEEEEEixEOS2_, symObjAddr: 0x2F8, symBinAddr: 0x100000E84, symSize: 0x80 }
  - { offsetInCU: 0xBF2D, offset: 0xBF2D, size: 0x8, addend: 0x0, symName: __ZNSt3__14pairIxxEC1B7v160006IRxS3_LPv0EEEOT_OT0_, symObjAddr: 0x378, symBinAddr: 0x100000F04, symSize: 0x3C }
  - { offsetInCU: 0xBF8B, offset: 0xBF8B, size: 0x8, addend: 0x0, symName: __ZNSt3__13mapINS_4pairIxxEExNS_4lessIS2_EENS_9allocatorINS1_IKS2_xEEEEED1B7v160006Ev, symObjAddr: 0x3E8, symBinAddr: 0x100000F74, symSize: 0x2C }
  - { offsetInCU: 0xBFB5, offset: 0xBFB5, size: 0x8, addend: 0x0, symName: __ZNSt3__112basic_stringIcNS_11char_traitsIcEENS_9allocatorIcEEE13__get_pointerB7v160006Ev, symObjAddr: 0x414, symBinAddr: 0x100000FA0, symSize: 0x54 }
  - { offsetInCU: 0xBFDB, offset: 0xBFDB, size: 0x8, addend: 0x0, symName: __ZNKSt3__112basic_stringIcNS_11char_traitsIcEENS_9allocatorIcEEE9__is_longB7v160006Ev, symObjAddr: 0x468, symBinAddr: 0x100000FF4, symSize: 0x38 }
  - { offsetInCU: 0xC001, offset: 0xC001, size: 0x8, addend: 0x0, symName: __ZNSt3__112basic_stringIcNS_11char_traitsIcEENS_9allocatorIcEEE18__get_long_pointerB7v160006Ev, symObjAddr: 0x4A0, symBinAddr: 0x10000102C, symSize: 0x28 }
  - { offsetInCU: 0xC027, offset: 0xC027, size: 0x8, addend: 0x0, symName: __ZNSt3__112basic_stringIcNS_11char_traitsIcEENS_9allocatorIcEEE19__get_short_pointerB7v160006Ev, symObjAddr: 0x4C8, symBinAddr: 0x100001054, symSize: 0x28 }
  - { offsetInCU: 0xC04D, offset: 0xC04D, size: 0x8, addend: 0x0, symName: __ZNKSt3__117__compressed_pairINS_12basic_stringIcNS_11char_traitsIcEENS_9allocatorIcEEE5__repES5_E5firstB7v160006Ev, symObjAddr: 0x4F0, symBinAddr: 0x10000107C, symSize: 0x24 }
  - { offsetInCU: 0xC073, offset: 0xC073, size: 0x8, addend: 0x0, symName: __ZNKSt3__122__compressed_pair_elemINS_12basic_stringIcNS_11char_traitsIcEENS_9allocatorIcEEE5__repELi0ELb0EE5__getB7v160006Ev, symObjAddr: 0x514, symBinAddr: 0x1000010A0, symSize: 0x14 }
  - { offsetInCU: 0xC099, offset: 0xC099, size: 0x8, addend: 0x0, symName: __ZNSt3__117__compressed_pairINS_12basic_stringIcNS_11char_traitsIcEENS_9allocatorIcEEE5__repES5_E5firstB7v160006Ev, symObjAddr: 0x528, symBinAddr: 0x1000010B4, symSize: 0x24 }
  - { offsetInCU: 0xC0BF, offset: 0xC0BF, size: 0x8, addend: 0x0, symName: __ZNSt3__122__compressed_pair_elemINS_12basic_stringIcNS_11char_traitsIcEENS_9allocatorIcEEE5__repELi0ELb0EE5__getB7v160006Ev, symObjAddr: 0x54C, symBinAddr: 0x1000010D8, symSize: 0x14 }
  - { offsetInCU: 0xC0E5, offset: 0xC0E5, size: 0x8, addend: 0x0, symName: __ZNSt3__114pointer_traitsIPcE10pointer_toB7v160006ERc, symObjAddr: 0x560, symBinAddr: 0x1000010EC, symSize: 0x14 }
  - { offsetInCU: 0xC108, offset: 0xC108, size: 0x8, addend: 0x0, symName: __ZNSt3__14pairIxxEC2B7v160006IRxS3_LPv0EEEOT_OT0_, symObjAddr: 0x574, symBinAddr: 0x100001100, symSize: 0x34 }
  - { offsetInCU: 0xC166, offset: 0xC166, size: 0x8, addend: 0x0, symName: __ZNSt3__13mapINS_4pairIxxEExNS_4lessIS2_EENS_9allocatorINS1_IKS2_xEEEEEC2B7v160006Ev, symObjAddr: 0x5A8, symBinAddr: 0x100001134, symSize: 0x40 }
  - { offsetInCU: 0xC190, offset: 0xC190, size: 0x8, addend: 0x0, symName: __ZNSt3__119__map_value_compareINS_4pairIxxEENS_12__value_typeIS2_xEENS_4lessIS2_EELb1EEC1B7v160006ES6_, symObjAddr: 0x5E8, symBinAddr: 0x100001174, symSize: 0x2C }
  - { offsetInCU: 0xC1C9, offset: 0xC1C9, size: 0x8, addend: 0x0, symName: __ZNSt3__16__treeINS_12__value_typeINS_4pairIxxEExEENS_19__map_value_compareIS3_S4_NS_4lessIS3_EELb1EEENS_9allocatorIS4_EEEC1ERKS8_, symObjAddr: 0x614, symBinAddr: 0x1000011A0, symSize: 0x34 }
  - { offsetInCU: 0xC204, offset: 0xC204, size: 0x8, addend: 0x0, symName: __ZNSt3__119__map_value_compareINS_4pairIxxEENS_12__value_typeIS2_xEENS_4lessIS2_EELb1EEC2B7v160006ES6_, symObjAddr: 0x648, symBinAddr: 0x1000011D4, symSize: 0x14 }
  - { offsetInCU: 0xC23D, offset: 0xC23D, size: 0x8, addend: 0x0, symName: __ZNSt3__16__treeINS_12__value_typeINS_4pairIxxEExEENS_19__map_value_compareIS3_S4_NS_4lessIS3_EELb1EEENS_9allocatorIS4_EEEC2ERKS8_, symObjAddr: 0x65C, symBinAddr: 0x1000011E8, symSize: 0x7C }
  - { offsetInCU: 0xC278, offset: 0xC278, size: 0x8, addend: 0x0, symName: __ZNSt3__117__compressed_pairINS_15__tree_end_nodeIPNS_16__tree_node_baseIPvEEEENS_9allocatorINS_11__tree_nodeINS_12__value_typeINS_4pairIxxEExEES3_EEEEEC1B7v160006ILb1EvEEv, symObjAddr: 0x6D8, symBinAddr: 0x100001264, symSize: 0x2C }
  - { offsetInCU: 0xC2B3, offset: 0xC2B3, size: 0x8, addend: 0x0, symName: __ZNSt3__117__compressed_pairImNS_19__map_value_compareINS_4pairIxxEENS_12__value_typeIS3_xEENS_4lessIS3_EELb1EEEEC1B7v160006IiRKS8_EEOT_OT0_, symObjAddr: 0x710, symBinAddr: 0x10000129C, symSize: 0x3C }
  - { offsetInCU: 0xC30B, offset: 0xC30B, size: 0x8, addend: 0x0, symName: __ZNSt3__16__treeINS_12__value_typeINS_4pairIxxEExEENS_19__map_value_compareIS3_S4_NS_4lessIS3_EELb1EEENS_9allocatorIS4_EEE10__end_nodeB7v160006Ev, symObjAddr: 0x74C, symBinAddr: 0x1000012D8, symSize: 0x2C }
  - { offsetInCU: 0xC331, offset: 0xC331, size: 0x8, addend: 0x0, symName: __ZNSt3__16__treeINS_12__value_typeINS_4pairIxxEExEENS_19__map_value_compareIS3_S4_NS_4lessIS3_EELb1EEENS_9allocatorIS4_EEE12__begin_nodeB7v160006Ev, symObjAddr: 0x778, symBinAddr: 0x100001304, symSize: 0x14 }
  - { offsetInCU: 0xC357, offset: 0xC357, size: 0x8, addend: 0x0, symName: __ZNSt3__117__compressed_pairINS_15__tree_end_nodeIPNS_16__tree_node_baseIPvEEEENS_9allocatorINS_11__tree_nodeINS_12__value_typeINS_4pairIxxEExEES3_EEEEEC2B7v160006ILb1EvEEv, symObjAddr: 0x78C, symBinAddr: 0x100001318, symSize: 0x34 }
  - { offsetInCU: 0xC38C, offset: 0xC38C, size: 0x8, addend: 0x0, symName: __ZNSt3__122__compressed_pair_elemINS_15__tree_end_nodeIPNS_16__tree_node_baseIPvEEEELi0ELb0EEC2B7v160006ENS_16__value_init_tagE, symObjAddr: 0x7C0, symBinAddr: 0x10000134C, symSize: 0x2C }
  - { offsetInCU: 0xC3C0, offset: 0xC3C0, size: 0x8, addend: 0x0, symName: __ZNSt3__122__compressed_pair_elemINS_9allocatorINS_11__tree_nodeINS_12__value_typeINS_4pairIxxEExEEPvEEEELi1ELb1EEC2B7v160006ENS_16__value_init_tagE, symObjAddr: 0x7EC, symBinAddr: 0x100001378, symSize: 0x2C }
  - { offsetInCU: 0xC3F4, offset: 0xC3F4, size: 0x8, addend: 0x0, symName: __ZNSt3__115__tree_end_nodeIPNS_16__tree_node_baseIPvEEEC1B7v160006Ev, symObjAddr: 0x818, symBinAddr: 0x1000013A4, symSize: 0x2C }
  - { offsetInCU: 0xC41E, offset: 0xC41E, size: 0x8, addend: 0x0, symName: __ZNSt3__115__tree_end_nodeIPNS_16__tree_node_baseIPvEEEC2B7v160006Ev, symObjAddr: 0x844, symBinAddr: 0x1000013D0, symSize: 0x18 }
  - { offsetInCU: 0xC448, offset: 0xC448, size: 0x8, addend: 0x0, symName: __ZNSt3__19allocatorINS_11__tree_nodeINS_12__value_typeINS_4pairIxxEExEEPvEEEC2B7v160006Ev, symObjAddr: 0x85C, symBinAddr: 0x1000013E8, symSize: 0x2C }
  - { offsetInCU: 0xC472, offset: 0xC472, size: 0x8, addend: 0x0, symName: __ZNSt3__116__non_trivial_ifILb1ENS_9allocatorINS_11__tree_nodeINS_12__value_typeINS_4pairIxxEExEEPvEEEEEC2B7v160006Ev, symObjAddr: 0x888, symBinAddr: 0x100001414, symSize: 0x14 }
  - { offsetInCU: 0xC49C, offset: 0xC49C, size: 0x8, addend: 0x0, symName: __ZNSt3__117__compressed_pairImNS_19__map_value_compareINS_4pairIxxEENS_12__value_typeIS3_xEENS_4lessIS3_EELb1EEEEC2B7v160006IiRKS8_EEOT_OT0_, symObjAddr: 0x89C, symBinAddr: 0x100001428, symSize: 0x44 }
  - { offsetInCU: 0xC4F4, offset: 0xC4F4, size: 0x8, addend: 0x0, symName: __ZNSt3__122__compressed_pair_elemImLi0ELb0EEC2B7v160006IivEEOT_, symObjAddr: 0x8E0, symBinAddr: 0x10000146C, symSize: 0x24 }
  - { offsetInCU: 0xC536, offset: 0xC536, size: 0x8, addend: 0x0, symName: __ZNSt3__122__compressed_pair_elemINS_19__map_value_compareINS_4pairIxxEENS_12__value_typeIS3_xEENS_4lessIS3_EELb1EEELi1ELb1EEC2B7v160006IRKS8_vEEOT_, symObjAddr: 0x904, symBinAddr: 0x100001490, symSize: 0x18 }
  - { offsetInCU: 0xC578, offset: 0xC578, size: 0x8, addend: 0x0, symName: __ZNSt3__114pointer_traitsIPNS_15__tree_end_nodeIPNS_16__tree_node_baseIPvEEEEE10pointer_toB7v160006ERS6_, symObjAddr: 0x91C, symBinAddr: 0x1000014A8, symSize: 0x14 }
  - { offsetInCU: 0xC59B, offset: 0xC59B, size: 0x8, addend: 0x0, symName: __ZNSt3__117__compressed_pairINS_15__tree_end_nodeIPNS_16__tree_node_baseIPvEEEENS_9allocatorINS_11__tree_nodeINS_12__value_typeINS_4pairIxxEExEES3_EEEEE5firstB7v160006Ev, symObjAddr: 0x930, symBinAddr: 0x1000014BC, symSize: 0x24 }
  - { offsetInCU: 0xC5C1, offset: 0xC5C1, size: 0x8, addend: 0x0, symName: __ZNSt3__122__compressed_pair_elemINS_15__tree_end_nodeIPNS_16__tree_node_baseIPvEEEELi0ELb0EE5__getB7v160006Ev, symObjAddr: 0x954, symBinAddr: 0x1000014E0, symSize: 0x14 }
  - { offsetInCU: 0xC5E7, offset: 0xC5E7, size: 0x8, addend: 0x0, symName: __ZNSt3__13mapINS_4pairIxxEExNS_4lessIS2_EENS_9allocatorINS1_IKS2_xEEEEED2B7v160006Ev, symObjAddr: 0x968, symBinAddr: 0x1000014F4, symSize: 0x2C }
  - { offsetInCU: 0xC611, offset: 0xC611, size: 0x8, addend: 0x0, symName: __ZNSt3__16__treeINS_12__value_typeINS_4pairIxxEExEENS_19__map_value_compareIS3_S4_NS_4lessIS3_EELb1EEENS_9allocatorIS4_EEED1Ev, symObjAddr: 0x994, symBinAddr: 0x100001520, symSize: 0x2C }
  - { offsetInCU: 0xC63D, offset: 0xC63D, size: 0x8, addend: 0x0, symName: __ZNSt3__16__treeINS_12__value_typeINS_4pairIxxEExEENS_19__map_value_compareIS3_S4_NS_4lessIS3_EELb1EEENS_9allocatorIS4_EEED2Ev, symObjAddr: 0x9C0, symBinAddr: 0x10000154C, symSize: 0x38 }
  - { offsetInCU: 0xC669, offset: 0xC669, size: 0x8, addend: 0x0, symName: __ZNSt3__16__treeINS_12__value_typeINS_4pairIxxEExEENS_19__map_value_compareIS3_S4_NS_4lessIS3_EELb1EEENS_9allocatorIS4_EEE7destroyEPNS_11__tree_nodeIS4_PvEE, symObjAddr: 0x9F8, symBinAddr: 0x100001584, symSize: 0xAC }
  - { offsetInCU: 0xC6B5, offset: 0xC6B5, size: 0x8, addend: 0x0, symName: __ZNKSt3__16__treeINS_12__value_typeINS_4pairIxxEExEENS_19__map_value_compareIS3_S4_NS_4lessIS3_EELb1EEENS_9allocatorIS4_EEE6__rootB7v160006Ev, symObjAddr: 0xAA4, symBinAddr: 0x100001630, symSize: 0x28 }
  - { offsetInCU: 0xC6DB, offset: 0xC6DB, size: 0x8, addend: 0x0, symName: __ZNSt3__16__treeINS_12__value_typeINS_4pairIxxEExEENS_19__map_value_compareIS3_S4_NS_4lessIS3_EELb1EEENS_9allocatorIS4_EEE12__node_allocB7v160006Ev, symObjAddr: 0xACC, symBinAddr: 0x100001658, symSize: 0x28 }
  - { offsetInCU: 0xC701, offset: 0xC701, size: 0x8, addend: 0x0, symName: __ZNSt3__116allocator_traitsINS_9allocatorINS_11__tree_nodeINS_12__value_typeINS_4pairIxxEExEEPvEEEEE7destroyB7v160006INS4_IKS5_xEEvvEEvRS9_PT_, symObjAddr: 0xAF4, symBinAddr: 0x100001680, symSize: 0x28 }
  - { offsetInCU: 0xC73B, offset: 0xC73B, size: 0x8, addend: 0x0, symName: __ZNSt3__122__tree_key_value_typesINS_12__value_typeINS_4pairIxxEExEEE9__get_ptrB7v160006ERS4_, symObjAddr: 0xB1C, symBinAddr: 0x1000016A8, symSize: 0x24 }
  - { offsetInCU: 0xC75F, offset: 0xC75F, size: 0x8, addend: 0x0, symName: __ZNSt3__116allocator_traitsINS_9allocatorINS_11__tree_nodeINS_12__value_typeINS_4pairIxxEExEEPvEEEEE10deallocateB7v160006ERS9_PS8_m, symObjAddr: 0xB40, symBinAddr: 0x1000016CC, symSize: 0x34 }
  - { offsetInCU: 0xC7A1, offset: 0xC7A1, size: 0x8, addend: 0x0, symName: __ZNSt3__117__compressed_pairINS_15__tree_end_nodeIPNS_16__tree_node_baseIPvEEEENS_9allocatorINS_11__tree_nodeINS_12__value_typeINS_4pairIxxEExEES3_EEEEE6secondB7v160006Ev, symObjAddr: 0xB74, symBinAddr: 0x100001700, symSize: 0x24 }
  - { offsetInCU: 0xC7C7, offset: 0xC7C7, size: 0x8, addend: 0x0, symName: __ZNSt3__122__compressed_pair_elemINS_9allocatorINS_11__tree_nodeINS_12__value_typeINS_4pairIxxEExEEPvEEEELi1ELb1EE5__getB7v160006Ev, symObjAddr: 0xB98, symBinAddr: 0x100001724, symSize: 0x14 }
  - { offsetInCU: 0xC7ED, offset: 0xC7ED, size: 0x8, addend: 0x0, symName: __ZNSt3__112__value_typeINS_4pairIxxEExE11__get_valueB7v160006Ev, symObjAddr: 0xBE0, symBinAddr: 0x10000176C, symSize: 0x24 }
  - { offsetInCU: 0xC813, offset: 0xC813, size: 0x8, addend: 0x0, symName: __ZNSt3__19allocatorINS_11__tree_nodeINS_12__value_typeINS_4pairIxxEExEEPvEEE10deallocateB7v160006EPS7_m, symObjAddr: 0xC3C, symBinAddr: 0x1000017C8, symSize: 0x44 }
  - { offsetInCU: 0xC855, offset: 0xC855, size: 0x8, addend: 0x0, symName: __ZNKSt3__16__treeINS_12__value_typeINS_4pairIxxEExEENS_19__map_value_compareIS3_S4_NS_4lessIS3_EELb1EEENS_9allocatorIS4_EEE10__end_nodeB7v160006Ev, symObjAddr: 0xDA8, symBinAddr: 0x100001934, symSize: 0x2C }
  - { offsetInCU: 0xC87B, offset: 0xC87B, size: 0x8, addend: 0x0, symName: __ZNKSt3__117__compressed_pairINS_15__tree_end_nodeIPNS_16__tree_node_baseIPvEEEENS_9allocatorINS_11__tree_nodeINS_12__value_typeINS_4pairIxxEExEES3_EEEEE5firstB7v160006Ev, symObjAddr: 0xDD4, symBinAddr: 0x100001960, symSize: 0x24 }
  - { offsetInCU: 0xC8A1, offset: 0xC8A1, size: 0x8, addend: 0x0, symName: __ZNKSt3__122__compressed_pair_elemINS_15__tree_end_nodeIPNS_16__tree_node_baseIPvEEEELi0ELb0EE5__getB7v160006Ev, symObjAddr: 0xDF8, symBinAddr: 0x100001984, symSize: 0x14 }
  - { offsetInCU: 0xC8EB, offset: 0xC8EB, size: 0x8, addend: 0x0, symName: __ZNSt3__16__treeINS_12__value_typeINS_4pairIxxEExEENS_19__map_value_compareIS3_S4_NS_4lessIS3_EELb1EEENS_9allocatorIS4_EEE25__emplace_unique_key_argsIS3_JRKNS_21piecewise_construct_tENS_5tupleIJOS3_EEENSG_IJEEEEEENS2_INS_15__tree_iteratorIS4_PNS_11__tree_nodeIS4_PvEElEEbEERKT_DpOT0_, symObjAddr: 0xE0C, symBinAddr: 0x100001998, symSize: 0x100 }
  - { offsetInCU: 0xC9C1, offset: 0xC9C1, size: 0x8, addend: 0x0, symName: __ZNKSt3__115__tree_iteratorINS_12__value_typeINS_4pairIxxEExEEPNS_11__tree_nodeIS4_PvEElEptB7v160006Ev, symObjAddr: 0xF3C, symBinAddr: 0x100001AC8, symSize: 0x2C }
  - { offsetInCU: 0xC9E7, offset: 0xC9E7, size: 0x8, addend: 0x0, symName: __ZNSt3__16__treeINS_12__value_typeINS_4pairIxxEExEENS_19__map_value_compareIS3_S4_NS_4lessIS3_EELb1EEENS_9allocatorIS4_EEE12__find_equalIS3_EERPNS_16__tree_node_baseIPvEERPNS_15__tree_end_nodeISG_EERKT_, symObjAddr: 0xF68, symBinAddr: 0x100001AF4, symSize: 0x184 }
  - { offsetInCU: 0xCA54, offset: 0xCA54, size: 0x8, addend: 0x0, symName: __ZNSt3__16__treeINS_12__value_typeINS_4pairIxxEExEENS_19__map_value_compareIS3_S4_NS_4lessIS3_EELb1EEENS_9allocatorIS4_EEE16__construct_nodeIJRKNS_21piecewise_construct_tENS_5tupleIJOS3_EEENSG_IJEEEEEENS_10unique_ptrINS_11__tree_nodeIS4_PvEENS_22__tree_node_destructorINS9_ISN_EEEEEEDpOT_, symObjAddr: 0x10EC, symBinAddr: 0x100001C78, symSize: 0x120 }
  - { offsetInCU: 0xCADD, offset: 0xCADD, size: 0x8, addend: 0x0, symName: __ZNSt3__16__treeINS_12__value_typeINS_4pairIxxEExEENS_19__map_value_compareIS3_S4_NS_4lessIS3_EELb1EEENS_9allocatorIS4_EEE16__insert_node_atEPNS_15__tree_end_nodeIPNS_16__tree_node_baseIPvEEEERSG_SG_, symObjAddr: 0x120C, symBinAddr: 0x100001D98, symSize: 0xCC }
  - { offsetInCU: 0xCB32, offset: 0xCB32, size: 0x8, addend: 0x0, symName: __ZNKSt3__110unique_ptrINS_11__tree_nodeINS_12__value_typeINS_4pairIxxEExEEPvEENS_22__tree_node_destructorINS_9allocatorIS7_EEEEE3getB7v160006Ev, symObjAddr: 0x12D8, symBinAddr: 0x100001E64, symSize: 0x28 }
  - { offsetInCU: 0xCB58, offset: 0xCB58, size: 0x8, addend: 0x0, symName: __ZNSt3__110unique_ptrINS_11__tree_nodeINS_12__value_typeINS_4pairIxxEExEEPvEENS_22__tree_node_destructorINS_9allocatorIS7_EEEEE7releaseB7v160006Ev, symObjAddr: 0x1300, symBinAddr: 0x100001E8C, symSize: 0x44 }
  - { offsetInCU: 0xCB8D, offset: 0xCB8D, size: 0x8, addend: 0x0, symName: __ZNSt3__110unique_ptrINS_11__tree_nodeINS_12__value_typeINS_4pairIxxEExEEPvEENS_22__tree_node_destructorINS_9allocatorIS7_EEEEED1B7v160006Ev, symObjAddr: 0x1344, symBinAddr: 0x100001ED0, symSize: 0x2C }
  - { offsetInCU: 0xCBB7, offset: 0xCBB7, size: 0x8, addend: 0x0, symName: __ZNSt3__115__tree_iteratorINS_12__value_typeINS_4pairIxxEExEEPNS_11__tree_nodeIS4_PvEElEC1B7v160006ES8_, symObjAddr: 0x1370, symBinAddr: 0x100001EFC, symSize: 0x34 }
  - { offsetInCU: 0xCBFB, offset: 0xCBFB, size: 0x8, addend: 0x0, symName: __ZNSt3__14pairINS_15__tree_iteratorINS_12__value_typeINS0_IxxEExEEPNS_11__tree_nodeIS4_PvEElEEbEC1B7v160006IS9_RbLS6_0EEEOT_OT0_, symObjAddr: 0x13A4, symBinAddr: 0x100001F30, symSize: 0x3C }
  - { offsetInCU: 0xCC59, offset: 0xCC59, size: 0x8, addend: 0x0, symName: __ZNKSt3__16__treeINS_12__value_typeINS_4pairIxxEExEENS_19__map_value_compareIS3_S4_NS_4lessIS3_EELb1EEENS_9allocatorIS4_EEE10__root_ptrEv, symObjAddr: 0x13E0, symBinAddr: 0x100001F6C, symSize: 0x24 }
  - { offsetInCU: 0xCC7F, offset: 0xCC7F, size: 0x8, addend: 0x0, symName: __ZNSt3__16__treeINS_12__value_typeINS_4pairIxxEExEENS_19__map_value_compareIS3_S4_NS_4lessIS3_EELb1EEENS_9allocatorIS4_EEE10value_compB7v160006Ev, symObjAddr: 0x1404, symBinAddr: 0x100001F90, symSize: 0x28 }
  - { offsetInCU: 0xCCA5, offset: 0xCCA5, size: 0x8, addend: 0x0, symName: __ZNKSt3__119__map_value_compareINS_4pairIxxEENS_12__value_typeIS2_xEENS_4lessIS2_EELb1EEclB7v160006ERKS2_RKS4_, symObjAddr: 0x142C, symBinAddr: 0x100001FB8, symSize: 0x50 }
  - { offsetInCU: 0xCCE9, offset: 0xCCE9, size: 0x8, addend: 0x0, symName: __ZNKSt3__119__map_value_compareINS_4pairIxxEENS_12__value_typeIS2_xEENS_4lessIS2_EELb1EEclB7v160006ERKS4_RKS2_, symObjAddr: 0x147C, symBinAddr: 0x100002008, symSize: 0x48 }
  - { offsetInCU: 0xCD2D, offset: 0xCD2D, size: 0x8, addend: 0x0, symName: __ZNSt3__117__compressed_pairImNS_19__map_value_compareINS_4pairIxxEENS_12__value_typeIS3_xEENS_4lessIS3_EELb1EEEE6secondB7v160006Ev, symObjAddr: 0x14C4, symBinAddr: 0x100002050, symSize: 0x24 }
  - { offsetInCU: 0xCD53, offset: 0xCD53, size: 0x8, addend: 0x0, symName: __ZNSt3__122__compressed_pair_elemINS_19__map_value_compareINS_4pairIxxEENS_12__value_typeIS3_xEENS_4lessIS3_EELb1EEELi1ELb1EE5__getB7v160006Ev, symObjAddr: 0x14E8, symBinAddr: 0x100002074, symSize: 0x14 }
  - { offsetInCU: 0xCD79, offset: 0xCD79, size: 0x8, addend: 0x0, symName: __ZNKSt3__14lessINS_4pairIxxEEEclB7v160006ERKS2_S5_, symObjAddr: 0x14FC, symBinAddr: 0x100002088, symSize: 0x50 }
  - { offsetInCU: 0xCDBD, offset: 0xCDBD, size: 0x8, addend: 0x0, symName: __ZNKSt3__112__value_typeINS_4pairIxxEExE11__get_valueB7v160006Ev, symObjAddr: 0x154C, symBinAddr: 0x1000020D8, symSize: 0x24 }
  - { offsetInCU: 0xCDF2, offset: 0xCDF2, size: 0x8, addend: 0x0, symName: __ZNSt3__120_CmpUnspecifiedParamC1B7v160006EMS0_i, symObjAddr: 0x1620, symBinAddr: 0x1000021AC, symSize: 0x34 }
  - { offsetInCU: 0xCE62, offset: 0xCE62, size: 0x8, addend: 0x0, symName: __ZNKSt3__117__synth_three_wayMUlTyTyRKT_RKT0_E_clIxxEEDaS2_S5_, symObjAddr: 0x1654, symBinAddr: 0x1000021E0, symSize: 0x60 }
  - { offsetInCU: 0xCEB6, offset: 0xCEB6, size: 0x8, addend: 0x0, symName: __ZNSt3__120_CmpUnspecifiedParamC2B7v160006EMS0_i, symObjAddr: 0x16D8, symBinAddr: 0x100002264, symSize: 0x18 }
  - { offsetInCU: 0xCEEA, offset: 0xCEEA, size: 0x8, addend: 0x0, symName: __ZNSt3__116allocator_traitsINS_9allocatorINS_11__tree_nodeINS_12__value_typeINS_4pairIxxEExEEPvEEEEE8allocateB7v160006ERS9_m, symObjAddr: 0x1728, symBinAddr: 0x1000022B4, symSize: 0x2C }
  - { offsetInCU: 0xCF1D, offset: 0xCF1D, size: 0x8, addend: 0x0, symName: __ZNSt3__122__tree_node_destructorINS_9allocatorINS_11__tree_nodeINS_12__value_typeINS_4pairIxxEExEEPvEEEEEC1B7v160006ERS9_b, symObjAddr: 0x1754, symBinAddr: 0x1000022E0, symSize: 0x48 }
  - { offsetInCU: 0xCF6B, offset: 0xCF6B, size: 0x8, addend: 0x0, symName: __ZNSt3__110unique_ptrINS_11__tree_nodeINS_12__value_typeINS_4pairIxxEExEEPvEENS_22__tree_node_destructorINS_9allocatorIS7_EEEEEC1B7v160006ILb1EvEEPS7_NS_16__dependent_typeINS_27__unique_ptr_deleter_sfinaeISB_EEXT_EE20__good_rval_ref_typeE, symObjAddr: 0x179C, symBinAddr: 0x100002328, symSize: 0x3C }
  - { offsetInCU: 0xCFBC, offset: 0xCFBC, size: 0x8, addend: 0x0, symName: __ZNSt3__116allocator_traitsINS_9allocatorINS_11__tree_nodeINS_12__value_typeINS_4pairIxxEExEEPvEEEEE9constructB7v160006INS4_IKS5_xEEJRKNS_21piecewise_construct_tENS_5tupleIJOS5_EEENSH_IJEEEEvvEEvRS9_PT_DpOT0_, symObjAddr: 0x17D8, symBinAddr: 0x100002364, symSize: 0x40 }
  - { offsetInCU: 0xD038, offset: 0xD038, size: 0x8, addend: 0x0, symName: __ZNKSt3__110unique_ptrINS_11__tree_nodeINS_12__value_typeINS_4pairIxxEExEEPvEENS_22__tree_node_destructorINS_9allocatorIS7_EEEEEptB7v160006Ev, symObjAddr: 0x1818, symBinAddr: 0x1000023A4, symSize: 0x28 }
  - { offsetInCU: 0xD05E, offset: 0xD05E, size: 0x8, addend: 0x0, symName: __ZNSt3__110unique_ptrINS_11__tree_nodeINS_12__value_typeINS_4pairIxxEExEEPvEENS_22__tree_node_destructorINS_9allocatorIS7_EEEEE11get_deleterB7v160006Ev, symObjAddr: 0x1840, symBinAddr: 0x1000023CC, symSize: 0x24 }
  - { offsetInCU: 0xD084, offset: 0xD084, size: 0x8, addend: 0x0, symName: __ZNSt3__19allocatorINS_11__tree_nodeINS_12__value_typeINS_4pairIxxEExEEPvEEE8allocateB7v160006Em, symObjAddr: 0x1864, symBinAddr: 0x1000023F0, symSize: 0x5C }
  - { offsetInCU: 0xD0C2, offset: 0xD0C2, size: 0x8, addend: 0x0, symName: __ZNSt3__116allocator_traitsINS_9allocatorINS_11__tree_nodeINS_12__value_typeINS_4pairIxxEExEEPvEEEEE8max_sizeB7v160006IS9_vvEEmRKS9_, symObjAddr: 0x18C0, symBinAddr: 0x10000244C, symSize: 0x28 }
  - { offsetInCU: 0xD0ED, offset: 0xD0ED, size: 0x8, addend: 0x0, symName: __ZNSt3__114numeric_limitsImE3maxB7v160006Ev, symObjAddr: 0x197C, symBinAddr: 0x100002508, symSize: 0x14 }
  - { offsetInCU: 0xD101, offset: 0xD101, size: 0x8, addend: 0x0, symName: __ZNSt3__123__libcpp_numeric_limitsImLb1EE3maxB7v160006Ev, symObjAddr: 0x1990, symBinAddr: 0x10000251C, symSize: 0x8 }
  - { offsetInCU: 0xD115, offset: 0xD115, size: 0x8, addend: 0x0, symName: __ZNSt3__122__tree_node_destructorINS_9allocatorINS_11__tree_nodeINS_12__value_typeINS_4pairIxxEExEEPvEEEEEC2B7v160006ERS9_b, symObjAddr: 0x19E8, symBinAddr: 0x100002574, symSize: 0x38 }
  - { offsetInCU: 0xD15D, offset: 0xD15D, size: 0x8, addend: 0x0, symName: __ZNSt3__110unique_ptrINS_11__tree_nodeINS_12__value_typeINS_4pairIxxEExEEPvEENS_22__tree_node_destructorINS_9allocatorIS7_EEEEEC2B7v160006ILb1EvEEPS7_NS_16__dependent_typeINS_27__unique_ptr_deleter_sfinaeISB_EEXT_EE20__good_rval_ref_typeE, symObjAddr: 0x1A20, symBinAddr: 0x1000025AC, symSize: 0x48 }
  - { offsetInCU: 0xD1AE, offset: 0xD1AE, size: 0x8, addend: 0x0, symName: __ZNSt3__117__compressed_pairIPNS_11__tree_nodeINS_12__value_typeINS_4pairIxxEExEEPvEENS_22__tree_node_destructorINS_9allocatorIS7_EEEEEC1B7v160006IRS8_SC_EEOT_OT0_, symObjAddr: 0x1A68, symBinAddr: 0x1000025F4, symSize: 0x3C }
  - { offsetInCU: 0xD206, offset: 0xD206, size: 0x8, addend: 0x0, symName: __ZNSt3__117__compressed_pairIPNS_11__tree_nodeINS_12__value_typeINS_4pairIxxEExEEPvEENS_22__tree_node_destructorINS_9allocatorIS7_EEEEEC2B7v160006IRS8_SC_EEOT_OT0_, symObjAddr: 0x1AA4, symBinAddr: 0x100002630, symSize: 0x48 }
  - { offsetInCU: 0xD25E, offset: 0xD25E, size: 0x8, addend: 0x0, symName: __ZNSt3__122__compressed_pair_elemIPNS_11__tree_nodeINS_12__value_typeINS_4pairIxxEExEEPvEELi0ELb0EEC2B7v160006IRS8_vEEOT_, symObjAddr: 0x1AEC, symBinAddr: 0x100002678, symSize: 0x24 }
  - { offsetInCU: 0xD2A0, offset: 0xD2A0, size: 0x8, addend: 0x0, symName: __ZNSt3__122__compressed_pair_elemINS_22__tree_node_destructorINS_9allocatorINS_11__tree_nodeINS_12__value_typeINS_4pairIxxEExEEPvEEEEEELi1ELb0EEC2B7v160006ISB_vEEOT_, symObjAddr: 0x1B10, symBinAddr: 0x10000269C, symSize: 0x24 }
  - { offsetInCU: 0xD2E2, offset: 0xD2E2, size: 0x8, addend: 0x0, symName: __ZNSt3__14pairIKNS0_IxxEExEC1B7v160006IJOS1_EJEEENS_21piecewise_construct_tENS_5tupleIJDpT_EEENS7_IJDpT0_EEE, symObjAddr: 0x1B84, symBinAddr: 0x100002710, symSize: 0x44 }
  - { offsetInCU: 0xD349, offset: 0xD349, size: 0x8, addend: 0x0, symName: __ZNSt3__14pairIKNS0_IxxEExEC1B7v160006IJOS1_EJEJLm0EEJEEENS_21piecewise_construct_tERNS_5tupleIJDpT_EEERNS7_IJDpT0_EEENS_15__tuple_indicesIJXspT1_EEEENSG_IJXspT2_EEEE, symObjAddr: 0x1BC8, symBinAddr: 0x100002754, symSize: 0x3C }
  - { offsetInCU: 0xD3D6, offset: 0xD3D6, size: 0x8, addend: 0x0, symName: __ZNSt3__14pairIKNS0_IxxEExEC2B7v160006IJOS1_EJEJLm0EEJEEENS_21piecewise_construct_tERNS_5tupleIJDpT_EEERNS7_IJDpT0_EEENS_15__tuple_indicesIJXspT1_EEEENSG_IJXspT2_EEEE, symObjAddr: 0x1C04, symBinAddr: 0x100002790, symSize: 0x48 }
  - { offsetInCU: 0xD463, offset: 0xD463, size: 0x8, addend: 0x0, symName: __ZNSt3__112__tuple_leafILm0EONS_4pairIxxEELb0EE3getB7v160006Ev, symObjAddr: 0x1C70, symBinAddr: 0x1000027FC, symSize: 0x18 }
  - { offsetInCU: 0xD489, offset: 0xD489, size: 0x8, addend: 0x0, symName: __ZNKSt3__117__compressed_pairIPNS_11__tree_nodeINS_12__value_typeINS_4pairIxxEExEEPvEENS_22__tree_node_destructorINS_9allocatorIS7_EEEEE5firstB7v160006Ev, symObjAddr: 0x1C88, symBinAddr: 0x100002814, symSize: 0x24 }
  - { offsetInCU: 0xD4AF, offset: 0xD4AF, size: 0x8, addend: 0x0, symName: __ZNKSt3__122__compressed_pair_elemIPNS_11__tree_nodeINS_12__value_typeINS_4pairIxxEExEEPvEELi0ELb0EE5__getB7v160006Ev, symObjAddr: 0x1CAC, symBinAddr: 0x100002838, symSize: 0x14 }
  - { offsetInCU: 0xD4D5, offset: 0xD4D5, size: 0x8, addend: 0x0, symName: __ZNSt3__117__compressed_pairIPNS_11__tree_nodeINS_12__value_typeINS_4pairIxxEExEEPvEENS_22__tree_node_destructorINS_9allocatorIS7_EEEEE6secondB7v160006Ev, symObjAddr: 0x1CC0, symBinAddr: 0x10000284C, symSize: 0x28 }
  - { offsetInCU: 0xD4FB, offset: 0xD4FB, size: 0x8, addend: 0x0, symName: __ZNSt3__122__compressed_pair_elemINS_22__tree_node_destructorINS_9allocatorINS_11__tree_nodeINS_12__value_typeINS_4pairIxxEExEEPvEEEEEELi1ELb0EE5__getB7v160006Ev, symObjAddr: 0x1CE8, symBinAddr: 0x100002874, symSize: 0x14 }
  - { offsetInCU: 0xD521, offset: 0xD521, size: 0x8, addend: 0x0, symName: __ZNSt3__16__treeINS_12__value_typeINS_4pairIxxEExEENS_19__map_value_compareIS3_S4_NS_4lessIS3_EELb1EEENS_9allocatorIS4_EEE4sizeB7v160006Ev, symObjAddr: 0x2028, symBinAddr: 0x100002BB4, symSize: 0x28 }
  - { offsetInCU: 0xD547, offset: 0xD547, size: 0x8, addend: 0x0, symName: __ZNKSt3__116__tree_node_baseIPvE15__parent_unsafeB7v160006Ev, symObjAddr: 0x2050, symBinAddr: 0x100002BDC, symSize: 0x18 }
  - { offsetInCU: 0xD56D, offset: 0xD56D, size: 0x8, addend: 0x0, symName: __ZNSt3__116__tree_node_baseIPvE12__set_parentB7v160006EPS2_, symObjAddr: 0x2238, symBinAddr: 0x100002DC4, symSize: 0x20 }
  - { offsetInCU: 0xD5A2, offset: 0xD5A2, size: 0x8, addend: 0x0, symName: __ZNSt3__117__compressed_pairImNS_19__map_value_compareINS_4pairIxxEENS_12__value_typeIS3_xEENS_4lessIS3_EELb1EEEE5firstB7v160006Ev, symObjAddr: 0x2258, symBinAddr: 0x100002DE4, symSize: 0x24 }
  - { offsetInCU: 0xD5C8, offset: 0xD5C8, size: 0x8, addend: 0x0, symName: __ZNSt3__122__compressed_pair_elemImLi0ELb0EE5__getB7v160006Ev, symObjAddr: 0x227C, symBinAddr: 0x100002E08, symSize: 0x14 }
  - { offsetInCU: 0xD5EE, offset: 0xD5EE, size: 0x8, addend: 0x0, symName: __ZNSt3__117__compressed_pairIPNS_11__tree_nodeINS_12__value_typeINS_4pairIxxEExEEPvEENS_22__tree_node_destructorINS_9allocatorIS7_EEEEE5firstB7v160006Ev, symObjAddr: 0x2290, symBinAddr: 0x100002E1C, symSize: 0x24 }
  - { offsetInCU: 0xD614, offset: 0xD614, size: 0x8, addend: 0x0, symName: __ZNSt3__122__compressed_pair_elemIPNS_11__tree_nodeINS_12__value_typeINS_4pairIxxEExEEPvEELi0ELb0EE5__getB7v160006Ev, symObjAddr: 0x22B4, symBinAddr: 0x100002E40, symSize: 0x14 }
  - { offsetInCU: 0xD63A, offset: 0xD63A, size: 0x8, addend: 0x0, symName: __ZNSt3__110unique_ptrINS_11__tree_nodeINS_12__value_typeINS_4pairIxxEExEEPvEENS_22__tree_node_destructorINS_9allocatorIS7_EEEEED2B7v160006Ev, symObjAddr: 0x22C8, symBinAddr: 0x100002E54, symSize: 0x30 }
  - { offsetInCU: 0xD664, offset: 0xD664, size: 0x8, addend: 0x0, symName: __ZNSt3__110unique_ptrINS_11__tree_nodeINS_12__value_typeINS_4pairIxxEExEEPvEENS_22__tree_node_destructorINS_9allocatorIS7_EEEEE5resetB7v160006EPS7_, symObjAddr: 0x22F8, symBinAddr: 0x100002E84, symSize: 0x78 }
  - { offsetInCU: 0xD6A8, offset: 0xD6A8, size: 0x8, addend: 0x0, symName: __ZNSt3__122__tree_node_destructorINS_9allocatorINS_11__tree_nodeINS_12__value_typeINS_4pairIxxEExEEPvEEEEEclB7v160006EPS8_, symObjAddr: 0x2370, symBinAddr: 0x100002EFC, symSize: 0x98 }
  - { offsetInCU: 0xD6DD, offset: 0xD6DD, size: 0x8, addend: 0x0, symName: __ZNSt3__115__tree_iteratorINS_12__value_typeINS_4pairIxxEExEEPNS_11__tree_nodeIS4_PvEElEC2B7v160006ES8_, symObjAddr: 0x2408, symBinAddr: 0x100002F94, symSize: 0x20 }
  - { offsetInCU: 0xD716, offset: 0xD716, size: 0x8, addend: 0x0, symName: __ZNSt3__14pairINS_15__tree_iteratorINS_12__value_typeINS0_IxxEExEEPNS_11__tree_nodeIS4_PvEElEEbEC2B7v160006IS9_RbLS6_0EEEOT_OT0_, symObjAddr: 0x2428, symBinAddr: 0x100002FB4, symSize: 0x38 }
  - { offsetInCU: 0xD774, offset: 0xD774, size: 0x8, addend: 0x0, symName: __ZNSt3__15tupleIJONS_4pairIxxEEEEC1B7v160006IJS2_ELi0EEEDpOT_, symObjAddr: 0x2460, symBinAddr: 0x100002FEC, symSize: 0x34 }
  - { offsetInCU: 0xD7BE, offset: 0xD7BE, size: 0x8, addend: 0x0, symName: __ZNSt3__15tupleIJONS_4pairIxxEEEEC2B7v160006IJS2_ELi0EEEDpOT_, symObjAddr: 0x2494, symBinAddr: 0x100003020, symSize: 0x34 }
  - { offsetInCU: 0xD808, offset: 0xD808, size: 0x8, addend: 0x0, symName: __ZNSt3__112__tuple_implINS_15__tuple_indicesIJLm0EEEEJONS_4pairIxxEEEEC1B7v160006IJLm0EEJS5_EJEJEJS4_EEENS1_IJXspT_EEEENS_13__tuple_typesIJDpT0_EEENS1_IJXspT1_EEEENS9_IJDpT2_EEEDpOT3_, symObjAddr: 0x24C8, symBinAddr: 0x100003054, symSize: 0x34 }
  - { offsetInCU: 0xD899, offset: 0xD899, size: 0x8, addend: 0x0, symName: __ZNSt3__112__tuple_implINS_15__tuple_indicesIJLm0EEEEJONS_4pairIxxEEEEC2B7v160006IJLm0EEJS5_EJEJEJS4_EEENS1_IJXspT_EEEENS_13__tuple_typesIJDpT0_EEENS1_IJXspT1_EEEENS9_IJDpT2_EEEDpOT3_, symObjAddr: 0x24FC, symBinAddr: 0x100003088, symSize: 0x34 }
  - { offsetInCU: 0xD92A, offset: 0xD92A, size: 0x8, addend: 0x0, symName: __ZNSt3__112__tuple_leafILm0EONS_4pairIxxEELb0EEC2B7v160006IS2_vEEOT_, symObjAddr: 0x2530, symBinAddr: 0x1000030BC, symSize: 0x20 }
  - { offsetInCU: 0xD96D, offset: 0xD96D, size: 0x8, addend: 0x0, symName: __ZNSt3__114pointer_traitsIPNS_12__value_typeINS_4pairIxxEExEEE10pointer_toB7v160006ERS4_, symObjAddr: 0x2550, symBinAddr: 0x1000030DC, symSize: 0x14 }
  - { offsetInCU: 0xD990, offset: 0xD990, size: 0x8, addend: 0x0, symName: __ZNKSt3__115__tree_iteratorINS_12__value_typeINS_4pairIxxEExEEPNS_11__tree_nodeIS4_PvEElE8__get_npB7v160006Ev, symObjAddr: 0x2564, symBinAddr: 0x1000030F0, symSize: 0x18 }
  - { offsetInCU: 0xD9CF, offset: 0xD9CF, size: 0x8, addend: 0x0, symName: __ZNKSt3__113basic_ostreamIcNS_11char_traitsIcEEE6sentrycvbB7v160006Ev, symObjAddr: 0x2768, symBinAddr: 0x1000032F4, symSize: 0x1C }
  - { offsetInCU: 0xD9F5, offset: 0xD9F5, size: 0x8, addend: 0x0, symName: __ZNSt3__119ostreambuf_iteratorIcNS_11char_traitsIcEEEC1B7v160006ERNS_13basic_ostreamIcS2_EE, symObjAddr: 0x29C4, symBinAddr: 0x100003550, symSize: 0x34 }
  - { offsetInCU: 0xDA2D, offset: 0xDA2D, size: 0x8, addend: 0x0, symName: __ZNKSt3__18ios_base5flagsB7v160006Ev, symObjAddr: 0x29F8, symBinAddr: 0x100003584, symSize: 0x18 }
  - { offsetInCU: 0xDA55, offset: 0xDA55, size: 0x8, addend: 0x0, symName: __ZNKSt3__19basic_iosIcNS_11char_traitsIcEEE4fillB7v160006Ev, symObjAddr: 0x2A10, symBinAddr: 0x10000359C, symSize: 0x64 }
  - { offsetInCU: 0xDA7D, offset: 0xDA7D, size: 0x8, addend: 0x0, symName: __ZNKSt3__119ostreambuf_iteratorIcNS_11char_traitsIcEEE6failedB7v160006Ev, symObjAddr: 0x2A74, symBinAddr: 0x100003600, symSize: 0x24 }
  - { offsetInCU: 0xDAA3, offset: 0xDAA3, size: 0x8, addend: 0x0, symName: __ZNSt3__19basic_iosIcNS_11char_traitsIcEEE8setstateB7v160006Ej, symObjAddr: 0x2A98, symBinAddr: 0x100003624, symSize: 0x2C }
  - { offsetInCU: 0xDAD8, offset: 0xDAD8, size: 0x8, addend: 0x0, symName: __ZNKSt3__18ios_base5widthB7v160006Ev, symObjAddr: 0x2AC4, symBinAddr: 0x100003650, symSize: 0x18 }
  - { offsetInCU: 0xDB00, offset: 0xDB00, size: 0x8, addend: 0x0, symName: __ZNSt3__115basic_streambufIcNS_11char_traitsIcEEE5sputnB7v160006EPKcl, symObjAddr: 0x2ADC, symBinAddr: 0x100003668, symSize: 0x3C }
  - { offsetInCU: 0xDB42, offset: 0xDB42, size: 0x8, addend: 0x0, symName: __ZNSt3__112basic_stringIcNS_11char_traitsIcEENS_9allocatorIcEEEC1B7v160006Emc, symObjAddr: 0x2B18, symBinAddr: 0x1000036A4, symSize: 0x3C }
  - { offsetInCU: 0xDB8A, offset: 0xDB8A, size: 0x8, addend: 0x0, symName: __ZNSt3__112basic_stringIcNS_11char_traitsIcEENS_9allocatorIcEEE4dataB7v160006Ev, symObjAddr: 0x2B54, symBinAddr: 0x1000036E0, symSize: 0x28 }
  - { offsetInCU: 0xDBB0, offset: 0xDBB0, size: 0x8, addend: 0x0, symName: __ZNSt3__18ios_base5widthB7v160006El, symObjAddr: 0x2B7C, symBinAddr: 0x100003708, symSize: 0x2C }
  - { offsetInCU: 0xDBF6, offset: 0xDBF6, size: 0x8, addend: 0x0, symName: __ZNSt3__112basic_stringIcNS_11char_traitsIcEENS_9allocatorIcEEEC2B7v160006Emc, symObjAddr: 0x2BA8, symBinAddr: 0x100003734, symSize: 0x54 }
  - { offsetInCU: 0xDC44, offset: 0xDC44, size: 0x8, addend: 0x0, symName: __ZNSt3__117__compressed_pairINS_12basic_stringIcNS_11char_traitsIcEENS_9allocatorIcEEE5__repES5_EC1B7v160006INS_18__default_init_tagESA_EEOT_OT0_, symObjAddr: 0x2BFC, symBinAddr: 0x100003788, symSize: 0x3C }
  - { offsetInCU: 0xDC9C, offset: 0xDC9C, size: 0x8, addend: 0x0, symName: __ZNSt3__117__compressed_pairINS_12basic_stringIcNS_11char_traitsIcEENS_9allocatorIcEEE5__repES5_EC2B7v160006INS_18__default_init_tagESA_EEOT_OT0_, symObjAddr: 0x2C48, symBinAddr: 0x1000037D4, symSize: 0x3C }
  - { offsetInCU: 0xDCF4, offset: 0xDCF4, size: 0x8, addend: 0x0, symName: __ZNSt3__122__compressed_pair_elemINS_12basic_stringIcNS_11char_traitsIcEENS_9allocatorIcEEE5__repELi0ELb0EEC2B7v160006ENS_18__default_init_tagE, symObjAddr: 0x2C84, symBinAddr: 0x100003810, symSize: 0x14 }
  - { offsetInCU: 0xDD28, offset: 0xDD28, size: 0x8, addend: 0x0, symName: __ZNSt3__122__compressed_pair_elemINS_9allocatorIcEELi1ELb1EEC2B7v160006ENS_18__default_init_tagE, symObjAddr: 0x2C98, symBinAddr: 0x100003824, symSize: 0x2C }
  - { offsetInCU: 0xDD5C, offset: 0xDD5C, size: 0x8, addend: 0x0, symName: __ZNSt3__19allocatorIcEC2B7v160006Ev, symObjAddr: 0x2CC4, symBinAddr: 0x100003850, symSize: 0x2C }
  - { offsetInCU: 0xDD86, offset: 0xDD86, size: 0x8, addend: 0x0, symName: __ZNSt3__116__non_trivial_ifILb1ENS_9allocatorIcEEEC2B7v160006Ev, symObjAddr: 0x2CF0, symBinAddr: 0x10000387C, symSize: 0x14 }
  - { offsetInCU: 0xDDB0, offset: 0xDDB0, size: 0x8, addend: 0x0, symName: __ZNSt3__119ostreambuf_iteratorIcNS_11char_traitsIcEEEC2B7v160006ERNS_13basic_ostreamIcS2_EE, symObjAddr: 0x2D18, symBinAddr: 0x1000038A4, symSize: 0x54 }
  - { offsetInCU: 0xDDE8, offset: 0xDDE8, size: 0x8, addend: 0x0, symName: __ZNKSt3__19basic_iosIcNS_11char_traitsIcEEE5rdbufB7v160006Ev, symObjAddr: 0x2D6C, symBinAddr: 0x1000038F8, symSize: 0x24 }
  - { offsetInCU: 0xDE10, offset: 0xDE10, size: 0x8, addend: 0x0, symName: __ZNKSt3__18ios_base5rdbufB7v160006Ev, symObjAddr: 0x2D90, symBinAddr: 0x10000391C, symSize: 0x18 }
  - { offsetInCU: 0xDE36, offset: 0xDE36, size: 0x8, addend: 0x0, symName: __ZNSt3__111char_traitsIcE11eq_int_typeEii, symObjAddr: 0x2DA8, symBinAddr: 0x100003934, symSize: 0x28 }
  - { offsetInCU: 0xDE67, offset: 0xDE67, size: 0x8, addend: 0x0, symName: __ZNSt3__111char_traitsIcE3eofEv, symObjAddr: 0x2DD0, symBinAddr: 0x10000395C, symSize: 0x8 }
  - { offsetInCU: 0xDE7B, offset: 0xDE7B, size: 0x8, addend: 0x0, symName: __ZNKSt3__19basic_iosIcNS_11char_traitsIcEEE5widenB7v160006Ec, symObjAddr: 0x2DD8, symBinAddr: 0x100003964, symSize: 0x84 }
  - { offsetInCU: 0xDEE9, offset: 0xDEE9, size: 0x8, addend: 0x0, symName: __ZNKSt3__15ctypeIcE5widenB7v160006Ec, symObjAddr: 0x2E88, symBinAddr: 0x100003A14, symSize: 0x38 }
  - { offsetInCU: 0xDF1E, offset: 0xDF1E, size: 0x8, addend: 0x0, symName: __ZNSt3__18ios_base8setstateB7v160006Ej, symObjAddr: 0x2EC0, symBinAddr: 0x100003A4C, symSize: 0x34 }
...
