---
triple:          'arm64-apple-darwin'
binary-path:     '/Users/rohakdebnath/Desktop/Cpp /CodeForces/moneybuyshap'
relocations:
  - { offsetInCU: 0x4F06, offset: 0x4F06, size: 0x8, addend: 0x0, symName: __ZNSt3__124__put_character_sequenceB7v160006IcNS_11char_traitsIcEEEERNS_13basic_ostreamIT_T0_EES7_PKS4_m, symObjAddr: 0x2A04, symBinAddr: 0x100006F30, symSize: 0x1EC }
  - { offsetInCU: 0x6D4F, offset: 0x6D4F, size: 0x8, addend: 0x0, symName: __ZNSt3__13maxB7v160006IxEERKT_S3_S3_, symObjAddr: 0x370, symBinAddr: 0x10000489C, symSize: 0x2C }
  - { offsetInCU: 0x6D92, offset: 0x6D92, size: 0x8, addend: 0x0, symName: __ZNSt3__1lsB7v160006INS_11char_traitsIcEEEERNS_13basic_ostreamIcT_EES6_c, symObjAddr: 0x3C0, symBinAddr: 0x1000048EC, symSize: 0x34 }
  - { offsetInCU: 0x6DD8, offset: 0x6DD8, size: 0x8, addend: 0x0, symName: __ZNSt3__122__make_exception_guardB7v160006INS_6vectorIxNS_9allocatorIxEEE16__destroy_vectorEEENS_28__exception_guard_exceptionsIT_EES7_, symObjAddr: 0x5F4, symBinAddr: 0x100004B20, symSize: 0x40 }
  - { offsetInCU: 0x6E0D, offset: 0x6E0D, size: 0x8, addend: 0x0, symName: __ZNSt3__119__debug_db_insert_cB7v160006INS_6vectorIxNS_9allocatorIxEEEEEEvPT_, symObjAddr: 0x668, symBinAddr: 0x100004B94, symSize: 0x10 }
  - { offsetInCU: 0x6E3E, offset: 0x6E3E, size: 0x8, addend: 0x0, symName: __ZNSt3__119__allocate_at_leastB7v160006INS_9allocatorIxEEEEDaRT_m, symObjAddr: 0x9F8, symBinAddr: 0x100004F24, symSize: 0x3C }
  - { offsetInCU: 0x6E81, offset: 0x6E81, size: 0x8, addend: 0x0, symName: __ZNSt3__13minB7v160006ImEERKT_S3_S3_, symObjAddr: 0xB30, symBinAddr: 0x10000505C, symSize: 0x2C }
  - { offsetInCU: 0x70AE, offset: 0x70AE, size: 0x8, addend: 0x0, symName: __ZNSt3__13minB7v160006ImNS_6__lessImmEEEERKT_S5_S5_T0_, symObjAddr: 0xBCC, symBinAddr: 0x1000050F8, symSize: 0x54 }
  - { offsetInCU: 0x732F, offset: 0x732F, size: 0x8, addend: 0x0, symName: __ZNSt3__120__throw_length_errorB7v160006EPKc, symObjAddr: 0xCB0, symBinAddr: 0x1000051DC, symSize: 0x64 }
  - { offsetInCU: 0x7357, offset: 0x7357, size: 0x8, addend: 0x0, symName: __ZNSt3__117allocate_at_leastB7v160006INS_9allocatorIxEEEENS_17allocation_resultINS_16allocator_traitsIT_E7pointerEEERS5_m, symObjAddr: 0xD94, symBinAddr: 0x1000052C0, symSize: 0x3C }
  - { offsetInCU: 0x739A, offset: 0x739A, size: 0x8, addend: 0x0, symName: __ZNSt3__117__libcpp_allocateB7v160006Emm, symObjAddr: 0xE9C, symBinAddr: 0x1000053C8, symSize: 0x60 }
  - { offsetInCU: 0x73F4, offset: 0x73F4, size: 0x8, addend: 0x0, symName: __ZNSt3__124__is_overaligned_for_newB7v160006Em, symObjAddr: 0xEFC, symBinAddr: 0x100005428, symSize: 0x20 }
  - { offsetInCU: 0x7422, offset: 0x7422, size: 0x8, addend: 0x0, symName: __ZNSt3__121__libcpp_operator_newB7v160006IJmSt11align_val_tEEEPvDpT_, symObjAddr: 0xF1C, symBinAddr: 0x100005448, symSize: 0x2C }
  - { offsetInCU: 0x746F, offset: 0x746F, size: 0x8, addend: 0x0, symName: __ZNSt3__121__libcpp_operator_newB7v160006IJmEEEPvDpT_, symObjAddr: 0xF48, symBinAddr: 0x100005474, symSize: 0x24 }
  - { offsetInCU: 0x74A8, offset: 0x74A8, size: 0x8, addend: 0x0, symName: __ZNSt3__112__to_addressB7v160006IxEEPT_S2_, symObjAddr: 0x1064, symBinAddr: 0x100005590, symSize: 0x14 }
  - { offsetInCU: 0x7502, offset: 0x7502, size: 0x8, addend: 0x0, symName: __ZNSt3__112construct_atB7v160006IxJRKxEPxEEPT_S5_DpOT0_, symObjAddr: 0x11B4, symBinAddr: 0x1000056E0, symSize: 0x2C }
  - { offsetInCU: 0x7572, offset: 0x7572, size: 0x8, addend: 0x0, symName: __ZNSt3__118__debug_db_erase_cB7v160006INS_6vectorIxNS_9allocatorIxEEEEEEvPT_, symObjAddr: 0x13A4, symBinAddr: 0x1000058D0, symSize: 0x10 }
  - { offsetInCU: 0x75A3, offset: 0x75A3, size: 0x8, addend: 0x0, symName: __ZNSt3__110destroy_atB7v160006IxLi0EEEvPT_, symObjAddr: 0x14EC, symBinAddr: 0x100005A18, symSize: 0x24 }
  - { offsetInCU: 0x75DA, offset: 0x75DA, size: 0x8, addend: 0x0, symName: __ZNSt3__112__destroy_atB7v160006IxLi0EEEvPT_, symObjAddr: 0x1510, symBinAddr: 0x100005A3C, symSize: 0x10 }
  - { offsetInCU: 0x7611, offset: 0x7611, size: 0x8, addend: 0x0, symName: __ZNSt3__119__libcpp_deallocateB7v160006EPvmm, symObjAddr: 0x1560, symBinAddr: 0x100005A8C, symSize: 0x60 }
  - { offsetInCU: 0x7676, offset: 0x7676, size: 0x8, addend: 0x0, symName: __ZNSt3__127__do_deallocate_handle_sizeB7v160006IJSt11align_val_tEEEvPvmDpT_, symObjAddr: 0x15C0, symBinAddr: 0x100005AEC, symSize: 0x30 }
  - { offsetInCU: 0x76C9, offset: 0x76C9, size: 0x8, addend: 0x0, symName: __ZNSt3__127__do_deallocate_handle_sizeB7v160006IJEEEvPvmDpT_, symObjAddr: 0x15F0, symBinAddr: 0x100005B1C, symSize: 0x28 }
  - { offsetInCU: 0x7707, offset: 0x7707, size: 0x8, addend: 0x0, symName: __ZNSt3__124__libcpp_operator_deleteB7v160006IJPvSt11align_val_tEEEvDpT_, symObjAddr: 0x1618, symBinAddr: 0x100005B44, symSize: 0x2C }
  - { offsetInCU: 0x7750, offset: 0x7750, size: 0x8, addend: 0x0, symName: __ZNSt3__124__libcpp_operator_deleteB7v160006IJPvEEEvDpT_, symObjAddr: 0x1644, symBinAddr: 0x100005B70, symSize: 0x24 }
  - { offsetInCU: 0x7785, offset: 0x7785, size: 0x8, addend: 0x0, symName: __ZNSt3__13maxB7v160006ImEERKT_S3_S3_, symObjAddr: 0x1AD4, symBinAddr: 0x100006000, symSize: 0x2C }
  - { offsetInCU: 0x77C8, offset: 0x77C8, size: 0x8, addend: 0x0, symName: __ZNSt3__13maxB7v160006ImNS_6__lessImmEEEERKT_S5_S5_T0_, symObjAddr: 0x1B00, symBinAddr: 0x10000602C, symSize: 0x54 }
  - { offsetInCU: 0x7822, offset: 0x7822, size: 0x8, addend: 0x0, symName: __ZNSt3__142__uninitialized_allocator_move_if_noexceptB7v160006INS_9allocatorIxEENS_16reverse_iteratorIPxEES5_xvEET1_RT_T0_S9_S6_, symObjAddr: 0x1E4C, symBinAddr: 0x100006378, symSize: 0x78 }
  - { offsetInCU: 0x789F, offset: 0x789F, size: 0x8, addend: 0x0, symName: __ZNSt3__14swapB7v160006IPxEENS_9enable_ifIXaasr21is_move_constructibleIT_EE5valuesr18is_move_assignableIS3_EE5valueEvE4typeERS3_S6_, symObjAddr: 0x1F10, symBinAddr: 0x10000643C, symSize: 0x3C }
  - { offsetInCU: 0x78F0, offset: 0x78F0, size: 0x8, addend: 0x0, symName: __ZNSt3__125__debug_db_invalidate_allB7v160006INS_6vectorIxNS_9allocatorIxEEEEEEvPT_, symObjAddr: 0x1F4C, symBinAddr: 0x100006478, symSize: 0x10 }
  - { offsetInCU: 0x7921, offset: 0x7921, size: 0x8, addend: 0x0, symName: __ZNSt3__14moveB7v160006INS_16reverse_iteratorIPxEES3_EET0_T_S5_S4_, symObjAddr: 0x1F5C, symBinAddr: 0x100006488, symSize: 0x78 }
  - { offsetInCU: 0x797B, offset: 0x797B, size: 0x8, addend: 0x0, symName: __ZNSt3__16__moveB7v160006INS_17_ClassicAlgPolicyENS_16reverse_iteratorIPxEES4_S4_EENS_4pairIT0_T2_EES6_T1_S7_, symObjAddr: 0x1FD4, symBinAddr: 0x100006500, symSize: 0x64 }
  - { offsetInCU: 0x79E7, offset: 0x79E7, size: 0x8, addend: 0x0, symName: __ZNSt3__123__dispatch_copy_or_moveB7v160006INS_17_ClassicAlgPolicyENS_11__move_loopIS1_EENS_14__move_trivialENS_16reverse_iteratorIPxEES7_S7_EENS_4pairIT2_T4_EES9_T3_SA_, symObjAddr: 0x2038, symBinAddr: 0x100006564, symSize: 0x64 }
  - { offsetInCU: 0x7A65, offset: 0x7A65, size: 0x8, addend: 0x0, symName: __ZNSt3__121__unwrap_and_dispatchB7v160006INS_10__overloadINS_11__move_loopINS_17_ClassicAlgPolicyEEENS_14__move_trivialEEENS_16reverse_iteratorIPxEES9_S9_Li0EEENS_4pairIT0_T2_EESB_T1_SC_, symObjAddr: 0x209C, symBinAddr: 0x1000065C8, symSize: 0x12C }
  - { offsetInCU: 0x7AF5, offset: 0x7AF5, size: 0x8, addend: 0x0, symName: __ZNSt3__114__unwrap_rangeB7v160006INS_16reverse_iteratorIPxEES3_EEDaT_T0_, symObjAddr: 0x21C8, symBinAddr: 0x1000066F4, symSize: 0x4C }
  - { offsetInCU: 0x7CBD, offset: 0x7CBD, size: 0x8, addend: 0x0, symName: __ZNSt3__113__unwrap_iterB7v160006INS_16reverse_iteratorIPxEENS_18__unwrap_iter_implIS3_Lb0EEELi0EEEDTclsrT0_8__unwrapclsr3stdE7declvalIT_EEEES7_, symObjAddr: 0x22B4, symBinAddr: 0x1000067E0, symSize: 0x44 }
  - { offsetInCU: 0x7D01, offset: 0x7D01, size: 0x8, addend: 0x0, symName: __ZNSt3__19make_pairB7v160006INS_16reverse_iteratorIPxEES3_EENS_4pairINS_18__unwrap_ref_decayIT_E4typeENS5_IT0_E4typeEEEOS6_OS9_, symObjAddr: 0x22F8, symBinAddr: 0x100006824, symSize: 0x38 }
  - { offsetInCU: 0x7D50, offset: 0x7D50, size: 0x8, addend: 0x0, symName: __ZNSt3__114__rewrap_rangeB7v160006INS_16reverse_iteratorIPxEES3_S3_EET0_S4_T1_, symObjAddr: 0x2330, symBinAddr: 0x10000685C, symSize: 0x5C }
  - { offsetInCU: 0x7DA5, offset: 0x7DA5, size: 0x8, addend: 0x0, symName: __ZNSt3__113__rewrap_iterB7v160006INS_16reverse_iteratorIPxEES3_NS_18__unwrap_iter_implIS3_Lb0EEEEET_S6_T0_, symObjAddr: 0x238C, symBinAddr: 0x1000068B8, symSize: 0x74 }
  - { offsetInCU: 0x7E4A, offset: 0x7E4A, size: 0x8, addend: 0x0, symName: __ZNSt3__1neB7v160006IPxS1_EEbRKNS_16reverse_iteratorIT_EERKNS2_IT0_EE, symObjAddr: 0x24F4, symBinAddr: 0x100006A20, symSize: 0x48 }
  - { offsetInCU: 0x7F48, offset: 0x7F48, size: 0x8, addend: 0x0, symName: __ZNSt3__13maxB7v160006IxNS_6__lessIxxEEEERKT_S5_S5_T0_, symObjAddr: 0x2938, symBinAddr: 0x100006E64, symSize: 0x54 }
  - { offsetInCU: 0x7FDD, offset: 0x7FDD, size: 0x8, addend: 0x0, symName: __ZNSt3__116__pad_and_outputB7v160006IcNS_11char_traitsIcEEEENS_19ostreambuf_iteratorIT_T0_EES6_PKS4_S8_S8_RNS_8ios_baseES4_, symObjAddr: 0x2C0C, symBinAddr: 0x100007138, symSize: 0x240 }
  - { offsetInCU: 0x80AC, offset: 0x80AC, size: 0x8, addend: 0x0, symName: __ZNSt3__119__debug_db_insert_cB7v160006INS_12basic_stringIcNS_11char_traitsIcEENS_9allocatorIcEEEEEEvPT_, symObjAddr: 0x30C0, symBinAddr: 0x1000075EC, symSize: 0x10 }
  - { offsetInCU: 0x80DD, offset: 0x80DD, size: 0x8, addend: 0x0, symName: __ZNSt3__112__to_addressB7v160006IcEEPT_S2_, symObjAddr: 0x318C, symBinAddr: 0x1000076B8, symSize: 0x14 }
  - { offsetInCU: 0x8112, offset: 0x8112, size: 0x8, addend: 0x0, symName: __ZNSt3__19use_facetB7v160006INS_5ctypeIcEEEERKT_RKNS_6localeE, symObjAddr: 0x3444, symBinAddr: 0x100007970, symSize: 0x2C }
  - { offsetInCU: 0x88E4, offset: 0x88E4, size: 0x8, addend: 0x0, symName: __ZSt28__throw_bad_array_new_lengthB7v160006v, symObjAddr: 0xE68, symBinAddr: 0x100005394, symSize: 0x34 }
  - { offsetInCU: 0x8DEF, offset: 0x8DEF, size: 0x8, addend: 0x0, symName: __ZNSt3__16vectorIxNS_9allocatorIxEEE26__swap_out_circular_bufferERNS_14__split_bufferIxRS2_EE, symObjAddr: 0x1990, symBinAddr: 0x100005EBC, symSize: 0x118 }
  - { offsetInCU: 0xB514, offset: 0xB514, size: 0x8, addend: 0x0, symName: __Z5solvev, symObjAddr: 0x0, symBinAddr: 0x10000452C, symSize: 0x298 }
  - { offsetInCU: 0xB5E4, offset: 0xB5E4, size: 0x8, addend: 0x0, symName: __ZNSt3__16vectorIxNS_9allocatorIxEEEC1EmRKx, symObjAddr: 0x298, symBinAddr: 0x1000047C4, symSize: 0x3C }
  - { offsetInCU: 0xB62E, offset: 0xB62E, size: 0x8, addend: 0x0, symName: __ZNSt3__16vectorIxNS_9allocatorIxEEE6resizeEmRKx, symObjAddr: 0x2D4, symBinAddr: 0x100004800, symSize: 0x9C }
  - { offsetInCU: 0xB683, offset: 0xB683, size: 0x8, addend: 0x0, symName: __ZNSt3__16vectorIxNS_9allocatorIxEEEixB7v160006Em, symObjAddr: 0x39C, symBinAddr: 0x1000048C8, symSize: 0x24 }
  - { offsetInCU: 0xB6BA, offset: 0xB6BA, size: 0x8, addend: 0x0, symName: __ZNSt3__16vectorIxNS_9allocatorIxEEED1B7v160006Ev, symObjAddr: 0x3F4, symBinAddr: 0x100004920, symSize: 0x2C }
  - { offsetInCU: 0xB6E4, offset: 0xB6E4, size: 0x8, addend: 0x0, symName: _main, symObjAddr: 0x420, symBinAddr: 0x10000494C, symSize: 0x84 }
  - { offsetInCU: 0xB70D, offset: 0xB70D, size: 0x8, addend: 0x0, symName: __ZNSt3__19basic_iosIcNS_11char_traitsIcEEE3tieB7v160006EPNS_13basic_ostreamIcS2_EE, symObjAddr: 0x4A4, symBinAddr: 0x1000049D0, symSize: 0x2C }
  - { offsetInCU: 0xB753, offset: 0xB753, size: 0x8, addend: 0x0, symName: __ZNSt3__16vectorIxNS_9allocatorIxEEEC2EmRKx, symObjAddr: 0x4D0, symBinAddr: 0x1000049FC, symSize: 0xE8 }
  - { offsetInCU: 0xB7BE, offset: 0xB7BE, size: 0x8, addend: 0x0, symName: __ZNSt3__117__compressed_pairIPxNS_9allocatorIxEEEC1B7v160006IDnNS_18__default_init_tagEEEOT_OT0_, symObjAddr: 0x5B8, symBinAddr: 0x100004AE4, symSize: 0x3C }
  - { offsetInCU: 0xB816, offset: 0xB816, size: 0x8, addend: 0x0, symName: __ZNSt3__16vectorIxNS_9allocatorIxEEE16__destroy_vectorC1ERS3_, symObjAddr: 0x634, symBinAddr: 0x100004B60, symSize: 0x34 }
  - { offsetInCU: 0xB84F, offset: 0xB84F, size: 0x8, addend: 0x0, symName: __ZNSt3__16vectorIxNS_9allocatorIxEEE11__vallocateB7v160006Em, symObjAddr: 0x678, symBinAddr: 0x100004BA4, symSize: 0xAC }
  - { offsetInCU: 0xB893, offset: 0xB893, size: 0x8, addend: 0x0, symName: __ZNSt3__16vectorIxNS_9allocatorIxEEE18__construct_at_endEmRKx, symObjAddr: 0x724, symBinAddr: 0x100004C50, symSize: 0xD0 }
  - { offsetInCU: 0xB914, offset: 0xB914, size: 0x8, addend: 0x0, symName: __ZNSt3__128__exception_guard_exceptionsINS_6vectorIxNS_9allocatorIxEEE16__destroy_vectorEE10__completeB7v160006Ev, symObjAddr: 0x7F4, symBinAddr: 0x100004D20, symSize: 0x1C }
  - { offsetInCU: 0xB93A, offset: 0xB93A, size: 0x8, addend: 0x0, symName: __ZNSt3__128__exception_guard_exceptionsINS_6vectorIxNS_9allocatorIxEEE16__destroy_vectorEED1B7v160006Ev, symObjAddr: 0x810, symBinAddr: 0x100004D3C, symSize: 0x2C }
  - { offsetInCU: 0xB964, offset: 0xB964, size: 0x8, addend: 0x0, symName: __ZNSt3__117__compressed_pairIPxNS_9allocatorIxEEEC2B7v160006IDnNS_18__default_init_tagEEEOT_OT0_, symObjAddr: 0x83C, symBinAddr: 0x100004D68, symSize: 0x40 }
  - { offsetInCU: 0xB9BC, offset: 0xB9BC, size: 0x8, addend: 0x0, symName: __ZNSt3__122__compressed_pair_elemIPxLi0ELb0EEC2B7v160006IDnvEEOT_, symObjAddr: 0x87C, symBinAddr: 0x100004DA8, symSize: 0x1C }
  - { offsetInCU: 0xB9FE, offset: 0xB9FE, size: 0x8, addend: 0x0, symName: __ZNSt3__122__compressed_pair_elemINS_9allocatorIxEELi1ELb1EEC2B7v160006ENS_18__default_init_tagE, symObjAddr: 0x898, symBinAddr: 0x100004DC4, symSize: 0x2C }
  - { offsetInCU: 0xBA33, offset: 0xBA33, size: 0x8, addend: 0x0, symName: __ZNSt3__19allocatorIxEC2B7v160006Ev, symObjAddr: 0x8C4, symBinAddr: 0x100004DF0, symSize: 0x2C }
  - { offsetInCU: 0xBA5D, offset: 0xBA5D, size: 0x8, addend: 0x0, symName: __ZNSt3__116__non_trivial_ifILb1ENS_9allocatorIxEEEC2B7v160006Ev, symObjAddr: 0x8F0, symBinAddr: 0x100004E1C, symSize: 0x14 }
  - { offsetInCU: 0xBA87, offset: 0xBA87, size: 0x8, addend: 0x0, symName: __ZNSt3__128__exception_guard_exceptionsINS_6vectorIxNS_9allocatorIxEEE16__destroy_vectorEEC1B7v160006ES5_, symObjAddr: 0x904, symBinAddr: 0x100004E30, symSize: 0x34 }
  - { offsetInCU: 0xBABF, offset: 0xBABF, size: 0x8, addend: 0x0, symName: __ZNSt3__128__exception_guard_exceptionsINS_6vectorIxNS_9allocatorIxEEE16__destroy_vectorEEC2B7v160006ES5_, symObjAddr: 0x938, symBinAddr: 0x100004E64, symSize: 0x24 }
  - { offsetInCU: 0xBAF7, offset: 0xBAF7, size: 0x8, addend: 0x0, symName: __ZNSt3__16vectorIxNS_9allocatorIxEEE16__destroy_vectorC2ERS3_, symObjAddr: 0x95C, symBinAddr: 0x100004E88, symSize: 0x20 }
  - { offsetInCU: 0xBB30, offset: 0xBB30, size: 0x8, addend: 0x0, symName: __ZNKSt3__16vectorIxNS_9allocatorIxEEE8max_sizeEv, symObjAddr: 0x97C, symBinAddr: 0x100004EA8, symSize: 0x60 }
  - { offsetInCU: 0xBB58, offset: 0xBB58, size: 0x8, addend: 0x0, symName: __ZNKSt3__16vectorIxNS_9allocatorIxEEE20__throw_length_errorB7v160006Ev, symObjAddr: 0x9DC, symBinAddr: 0x100004F08, symSize: 0x1C }
  - { offsetInCU: 0xBB7E, offset: 0xBB7E, size: 0x8, addend: 0x0, symName: __ZNSt3__16vectorIxNS_9allocatorIxEEE7__allocB7v160006Ev, symObjAddr: 0xA34, symBinAddr: 0x100004F60, symSize: 0x28 }
  - { offsetInCU: 0xBBA4, offset: 0xBBA4, size: 0x8, addend: 0x0, symName: __ZNSt3__16vectorIxNS_9allocatorIxEEE9__end_capB7v160006Ev, symObjAddr: 0xA5C, symBinAddr: 0x100004F88, symSize: 0x28 }
  - { offsetInCU: 0xBBCA, offset: 0xBBCA, size: 0x8, addend: 0x0, symName: __ZNKSt3__16vectorIxNS_9allocatorIxEEE14__annotate_newB7v160006Em, symObjAddr: 0xA84, symBinAddr: 0x100004FB0, symSize: 0xAC }
  - { offsetInCU: 0xBC09, offset: 0xBC09, size: 0x8, addend: 0x0, symName: __ZNSt3__116allocator_traitsINS_9allocatorIxEEE8max_sizeB7v160006IS2_vvEEmRKS2_, symObjAddr: 0xB5C, symBinAddr: 0x100005088, symSize: 0x28 }
  - { offsetInCU: 0xBC34, offset: 0xBC34, size: 0x8, addend: 0x0, symName: __ZNKSt3__16vectorIxNS_9allocatorIxEEE7__allocB7v160006Ev, symObjAddr: 0xB84, symBinAddr: 0x1000050B0, symSize: 0x28 }
  - { offsetInCU: 0xBC5A, offset: 0xBC5A, size: 0x8, addend: 0x0, symName: __ZNSt3__114numeric_limitsIlE3maxB7v160006Ev, symObjAddr: 0xBAC, symBinAddr: 0x1000050D8, symSize: 0x14 }
  - { offsetInCU: 0xBC82, offset: 0xBC82, size: 0x8, addend: 0x0, symName: __ZNKSt3__16__lessImmEclB7v160006ERKmS3_, symObjAddr: 0xC20, symBinAddr: 0x10000514C, symSize: 0x34 }
  - { offsetInCU: 0xBCC4, offset: 0xBCC4, size: 0x8, addend: 0x0, symName: __ZNSt3__114numeric_limitsImE3maxB7v160006Ev, symObjAddr: 0xC54, symBinAddr: 0x100005180, symSize: 0x14 }
  - { offsetInCU: 0xBCD8, offset: 0xBCD8, size: 0x8, addend: 0x0, symName: __ZNSt3__123__libcpp_numeric_limitsImLb1EE3maxB7v160006Ev, symObjAddr: 0xC68, symBinAddr: 0x100005194, symSize: 0x8 }
  - { offsetInCU: 0xBCEC, offset: 0xBCEC, size: 0x8, addend: 0x0, symName: __ZNKSt3__117__compressed_pairIPxNS_9allocatorIxEEE6secondB7v160006Ev, symObjAddr: 0xC70, symBinAddr: 0x10000519C, symSize: 0x24 }
  - { offsetInCU: 0xBD12, offset: 0xBD12, size: 0x8, addend: 0x0, symName: __ZNKSt3__122__compressed_pair_elemINS_9allocatorIxEELi1ELb1EE5__getB7v160006Ev, symObjAddr: 0xC94, symBinAddr: 0x1000051C0, symSize: 0x14 }
  - { offsetInCU: 0xBD38, offset: 0xBD38, size: 0x8, addend: 0x0, symName: __ZNSt3__123__libcpp_numeric_limitsIlLb1EE3maxB7v160006Ev, symObjAddr: 0xCA8, symBinAddr: 0x1000051D4, symSize: 0x8 }
  - { offsetInCU: 0xBD4C, offset: 0xBD4C, size: 0x8, addend: 0x0, symName: __ZNSt12length_errorC1B7v160006EPKc, symObjAddr: 0xD14, symBinAddr: 0x100005240, symSize: 0x34 }
  - { offsetInCU: 0xBD84, offset: 0xBD84, size: 0x8, addend: 0x0, symName: __ZNSt12length_errorC2B7v160006EPKc, symObjAddr: 0xD48, symBinAddr: 0x100005274, symSize: 0x4C }
  - { offsetInCU: 0xBDBC, offset: 0xBDBC, size: 0x8, addend: 0x0, symName: __ZNSt3__19allocatorIxE17allocate_at_leastB7v160006Em, symObjAddr: 0xDD0, symBinAddr: 0x1000052FC, symSize: 0x40 }
  - { offsetInCU: 0xBDF0, offset: 0xBDF0, size: 0x8, addend: 0x0, symName: __ZNSt3__19allocatorIxE8allocateB7v160006Em, symObjAddr: 0xE10, symBinAddr: 0x10000533C, symSize: 0x58 }
  - { offsetInCU: 0xBE24, offset: 0xBE24, size: 0x8, addend: 0x0, symName: __ZNSt3__117__compressed_pairIPxNS_9allocatorIxEEE6secondB7v160006Ev, symObjAddr: 0xF6C, symBinAddr: 0x100005498, symSize: 0x24 }
  - { offsetInCU: 0xBE4A, offset: 0xBE4A, size: 0x8, addend: 0x0, symName: __ZNSt3__122__compressed_pair_elemINS_9allocatorIxEELi1ELb1EE5__getB7v160006Ev, symObjAddr: 0xF90, symBinAddr: 0x1000054BC, symSize: 0x14 }
  - { offsetInCU: 0xBE70, offset: 0xBE70, size: 0x8, addend: 0x0, symName: __ZNSt3__117__compressed_pairIPxNS_9allocatorIxEEE5firstB7v160006Ev, symObjAddr: 0xFA4, symBinAddr: 0x1000054D0, symSize: 0x24 }
  - { offsetInCU: 0xBE96, offset: 0xBE96, size: 0x8, addend: 0x0, symName: __ZNSt3__122__compressed_pair_elemIPxLi0ELb0EE5__getB7v160006Ev, symObjAddr: 0xFC8, symBinAddr: 0x1000054F4, symSize: 0x14 }
  - { offsetInCU: 0xBEBC, offset: 0xBEBC, size: 0x8, addend: 0x0, symName: __ZNKSt3__16vectorIxNS_9allocatorIxEEE31__annotate_contiguous_containerB7v160006EPKvS5_S5_S5_, symObjAddr: 0xFDC, symBinAddr: 0x100005508, symSize: 0x20 }
  - { offsetInCU: 0xBF0E, offset: 0xBF0E, size: 0x8, addend: 0x0, symName: __ZNKSt3__16vectorIxNS_9allocatorIxEEE4dataB7v160006Ev, symObjAddr: 0xFFC, symBinAddr: 0x100005528, symSize: 0x28 }
  - { offsetInCU: 0xBF34, offset: 0xBF34, size: 0x8, addend: 0x0, symName: __ZNKSt3__16vectorIxNS_9allocatorIxEEE8capacityB7v160006Ev, symObjAddr: 0x1024, symBinAddr: 0x100005550, symSize: 0x40 }
  - { offsetInCU: 0xBF5A, offset: 0xBF5A, size: 0x8, addend: 0x0, symName: __ZNKSt3__16vectorIxNS_9allocatorIxEEE9__end_capB7v160006Ev, symObjAddr: 0x1078, symBinAddr: 0x1000055A4, symSize: 0x28 }
  - { offsetInCU: 0xBF80, offset: 0xBF80, size: 0x8, addend: 0x0, symName: __ZNKSt3__117__compressed_pairIPxNS_9allocatorIxEEE5firstB7v160006Ev, symObjAddr: 0x10A0, symBinAddr: 0x1000055CC, symSize: 0x24 }
  - { offsetInCU: 0xBFA6, offset: 0xBFA6, size: 0x8, addend: 0x0, symName: __ZNKSt3__122__compressed_pair_elemIPxLi0ELb0EE5__getB7v160006Ev, symObjAddr: 0x10C4, symBinAddr: 0x1000055F0, symSize: 0x14 }
  - { offsetInCU: 0xBFE5, offset: 0xBFE5, size: 0x8, addend: 0x0, symName: __ZNSt3__16vectorIxNS_9allocatorIxEEE21_ConstructTransactionC1B7v160006ERS3_m, symObjAddr: 0x10D8, symBinAddr: 0x100005604, symSize: 0x3C }
  - { offsetInCU: 0xC032, offset: 0xC032, size: 0x8, addend: 0x0, symName: __ZNSt3__116allocator_traitsINS_9allocatorIxEEE9constructB7v160006IxJRKxEvvEEvRS2_PT_DpOT0_, symObjAddr: 0x1114, symBinAddr: 0x100005640, symSize: 0x30 }
  - { offsetInCU: 0xC086, offset: 0xC086, size: 0x8, addend: 0x0, symName: __ZNSt3__16vectorIxNS_9allocatorIxEEE21_ConstructTransactionD1B7v160006Ev, symObjAddr: 0x1144, symBinAddr: 0x100005670, symSize: 0x2C }
  - { offsetInCU: 0xC0B0, offset: 0xC0B0, size: 0x8, addend: 0x0, symName: __ZNSt3__16vectorIxNS_9allocatorIxEEE21_ConstructTransactionC2B7v160006ERS3_m, symObjAddr: 0x1170, symBinAddr: 0x10000569C, symSize: 0x44 }
  - { offsetInCU: 0xC0F8, offset: 0xC0F8, size: 0x8, addend: 0x0, symName: __ZNSt3__16vectorIxNS_9allocatorIxEEE21_ConstructTransactionD2B7v160006Ev, symObjAddr: 0x11E0, symBinAddr: 0x10000570C, symSize: 0x20 }
  - { offsetInCU: 0xC122, offset: 0xC122, size: 0x8, addend: 0x0, symName: __ZNSt3__128__exception_guard_exceptionsINS_6vectorIxNS_9allocatorIxEEE16__destroy_vectorEED2B7v160006Ev, symObjAddr: 0x1200, symBinAddr: 0x10000572C, symSize: 0x50 }
  - { offsetInCU: 0xC14C, offset: 0xC14C, size: 0x8, addend: 0x0, symName: __ZNSt3__16vectorIxNS_9allocatorIxEEE16__destroy_vectorclB7v160006Ev, symObjAddr: 0x1250, symBinAddr: 0x10000577C, symSize: 0x9C }
  - { offsetInCU: 0xC172, offset: 0xC172, size: 0x8, addend: 0x0, symName: __ZNKSt3__16vectorIxNS_9allocatorIxEEE17__annotate_deleteB7v160006Ev, symObjAddr: 0x12EC, symBinAddr: 0x100005818, symSize: 0xB8 }
  - { offsetInCU: 0xC198, offset: 0xC198, size: 0x8, addend: 0x0, symName: __ZNSt3__16vectorIxNS_9allocatorIxEEE7__clearB7v160006Ev, symObjAddr: 0x13B4, symBinAddr: 0x1000058E0, symSize: 0x28 }
  - { offsetInCU: 0xC1BE, offset: 0xC1BE, size: 0x8, addend: 0x0, symName: __ZNSt3__116allocator_traitsINS_9allocatorIxEEE10deallocateB7v160006ERS2_Pxm, symObjAddr: 0x13DC, symBinAddr: 0x100005908, symSize: 0x34 }
  - { offsetInCU: 0xC200, offset: 0xC200, size: 0x8, addend: 0x0, symName: __ZNKSt3__16vectorIxNS_9allocatorIxEEE4sizeB7v160006Ev, symObjAddr: 0x1410, symBinAddr: 0x10000593C, symSize: 0x28 }
  - { offsetInCU: 0xC226, offset: 0xC226, size: 0x8, addend: 0x0, symName: __ZNSt3__16vectorIxNS_9allocatorIxEEE22__base_destruct_at_endB7v160006EPx, symObjAddr: 0x1438, symBinAddr: 0x100005964, symSize: 0x8C }
  - { offsetInCU: 0xC26A, offset: 0xC26A, size: 0x8, addend: 0x0, symName: __ZNSt3__116allocator_traitsINS_9allocatorIxEEE7destroyB7v160006IxvvEEvRS2_PT_, symObjAddr: 0x14C4, symBinAddr: 0x1000059F0, symSize: 0x28 }
  - { offsetInCU: 0xC2A4, offset: 0xC2A4, size: 0x8, addend: 0x0, symName: __ZNSt3__19allocatorIxE10deallocateB7v160006EPxm, symObjAddr: 0x1520, symBinAddr: 0x100005A4C, symSize: 0x40 }
  - { offsetInCU: 0xC2E6, offset: 0xC2E6, size: 0x8, addend: 0x0, symName: __ZNSt3__16vectorIxNS_9allocatorIxEEE8__appendEmRKx, symObjAddr: 0x1668, symBinAddr: 0x100005B94, symSize: 0x114 }
  - { offsetInCU: 0xC350, offset: 0xC350, size: 0x8, addend: 0x0, symName: __ZNSt3__16vectorIxNS_9allocatorIxEEE17__destruct_at_endB7v160006EPx, symObjAddr: 0x177C, symBinAddr: 0x100005CA8, symSize: 0x60 }
  - { offsetInCU: 0xC394, offset: 0xC394, size: 0x8, addend: 0x0, symName: __ZNKSt3__16vectorIxNS_9allocatorIxEEE11__recommendB7v160006Em, symObjAddr: 0x17DC, symBinAddr: 0x100005D08, symSize: 0xB4 }
  - { offsetInCU: 0xC3E9, offset: 0xC3E9, size: 0x8, addend: 0x0, symName: __ZNSt3__114__split_bufferIxRNS_9allocatorIxEEEC1EmmS3_, symObjAddr: 0x1890, symBinAddr: 0x100005DBC, symSize: 0x44 }
  - { offsetInCU: 0xC43F, offset: 0xC43F, size: 0x8, addend: 0x0, symName: __ZNSt3__114__split_bufferIxRNS_9allocatorIxEEE18__construct_at_endEmRKx, symObjAddr: 0x18D4, symBinAddr: 0x100005E00, symSize: 0xBC }
  - { offsetInCU: 0xC490, offset: 0xC490, size: 0x8, addend: 0x0, symName: __ZNSt3__114__split_bufferIxRNS_9allocatorIxEEED1Ev, symObjAddr: 0x1AA8, symBinAddr: 0x100005FD4, symSize: 0x2C }
  - { offsetInCU: 0xC4BC, offset: 0xC4BC, size: 0x8, addend: 0x0, symName: __ZNSt3__114__split_bufferIxRNS_9allocatorIxEEEC2EmmS3_, symObjAddr: 0x1B54, symBinAddr: 0x100006080, symSize: 0xD4 }
  - { offsetInCU: 0xC52F, offset: 0xC52F, size: 0x8, addend: 0x0, symName: __ZNSt3__117__compressed_pairIPxRNS_9allocatorIxEEEC1B7v160006IDnS4_EEOT_OT0_, symObjAddr: 0x1C28, symBinAddr: 0x100006154, symSize: 0x3C }
  - { offsetInCU: 0xC587, offset: 0xC587, size: 0x8, addend: 0x0, symName: __ZNSt3__114__split_bufferIxRNS_9allocatorIxEEE7__allocB7v160006Ev, symObjAddr: 0x1C64, symBinAddr: 0x100006190, symSize: 0x28 }
  - { offsetInCU: 0xC5AD, offset: 0xC5AD, size: 0x8, addend: 0x0, symName: __ZNSt3__114__split_bufferIxRNS_9allocatorIxEEE9__end_capB7v160006Ev, symObjAddr: 0x1C8C, symBinAddr: 0x1000061B8, symSize: 0x28 }
  - { offsetInCU: 0xC5D3, offset: 0xC5D3, size: 0x8, addend: 0x0, symName: __ZNSt3__117__compressed_pairIPxRNS_9allocatorIxEEEC2B7v160006IDnS4_EEOT_OT0_, symObjAddr: 0x1CB4, symBinAddr: 0x1000061E0, symSize: 0x48 }
  - { offsetInCU: 0xC62B, offset: 0xC62B, size: 0x8, addend: 0x0, symName: __ZNSt3__122__compressed_pair_elemIRNS_9allocatorIxEELi1ELb0EEC2B7v160006IS3_vEEOT_, symObjAddr: 0x1CFC, symBinAddr: 0x100006228, symSize: 0x20 }
  - { offsetInCU: 0xC66D, offset: 0xC66D, size: 0x8, addend: 0x0, symName: __ZNSt3__117__compressed_pairIPxRNS_9allocatorIxEEE6secondB7v160006Ev, symObjAddr: 0x1D1C, symBinAddr: 0x100006248, symSize: 0x28 }
  - { offsetInCU: 0xC693, offset: 0xC693, size: 0x8, addend: 0x0, symName: __ZNSt3__122__compressed_pair_elemIRNS_9allocatorIxEELi1ELb0EE5__getB7v160006Ev, symObjAddr: 0x1D44, symBinAddr: 0x100006270, symSize: 0x18 }
  - { offsetInCU: 0xC6B9, offset: 0xC6B9, size: 0x8, addend: 0x0, symName: __ZNSt3__117__compressed_pairIPxRNS_9allocatorIxEEE5firstB7v160006Ev, symObjAddr: 0x1D5C, symBinAddr: 0x100006288, symSize: 0x24 }
  - { offsetInCU: 0xC6E9, offset: 0xC6E9, size: 0x8, addend: 0x0, symName: __ZNSt3__114__split_bufferIxRNS_9allocatorIxEEE21_ConstructTransactionC1B7v160006EPPxm, symObjAddr: 0x1D80, symBinAddr: 0x1000062AC, symSize: 0x3C }
  - { offsetInCU: 0xC72F, offset: 0xC72F, size: 0x8, addend: 0x0, symName: __ZNSt3__114__split_bufferIxRNS_9allocatorIxEEE21_ConstructTransactionD1B7v160006Ev, symObjAddr: 0x1DBC, symBinAddr: 0x1000062E8, symSize: 0x2C }
  - { offsetInCU: 0xC759, offset: 0xC759, size: 0x8, addend: 0x0, symName: __ZNSt3__114__split_bufferIxRNS_9allocatorIxEEE21_ConstructTransactionC2B7v160006EPPxm, symObjAddr: 0x1DE8, symBinAddr: 0x100006314, symSize: 0x44 }
  - { offsetInCU: 0xC79F, offset: 0xC79F, size: 0x8, addend: 0x0, symName: __ZNSt3__114__split_bufferIxRNS_9allocatorIxEEE21_ConstructTransactionD2B7v160006Ev, symObjAddr: 0x1E2C, symBinAddr: 0x100006358, symSize: 0x20 }
  - { offsetInCU: 0xC7C9, offset: 0xC7C9, size: 0x8, addend: 0x0, symName: __ZNSt3__116reverse_iteratorIPxEC1B7v160006ES1_, symObjAddr: 0x1EC4, symBinAddr: 0x1000063F0, symSize: 0x34 }
  - { offsetInCU: 0xC801, offset: 0xC801, size: 0x8, addend: 0x0, symName: __ZNKSt3__116reverse_iteratorIPxE4baseB7v160006Ev, symObjAddr: 0x1EF8, symBinAddr: 0x100006424, symSize: 0x18 }
  - { offsetInCU: 0xC850, offset: 0xC850, size: 0x8, addend: 0x0, symName: __ZNKSt3__111__move_loopINS_17_ClassicAlgPolicyEEclB7v160006INS_16reverse_iteratorIPxEES6_S6_EENS_4pairIT_T1_EES8_T0_S9_, symObjAddr: 0x2214, symBinAddr: 0x100006740, symSize: 0xA0 }
  - { offsetInCU: 0xC8BB, offset: 0xC8BB, size: 0x8, addend: 0x0, symName: __ZNSt3__119__unwrap_range_implINS_16reverse_iteratorIPxEES3_E8__unwrapB7v160006ES3_S3_, symObjAddr: 0x2400, symBinAddr: 0x10000692C, symSize: 0x84 }
  - { offsetInCU: 0xC8F2, offset: 0xC8F2, size: 0x8, addend: 0x0, symName: __ZNSt3__14pairINS_16reverse_iteratorIPxEES3_EC1B7v160006IS3_S3_LPv0EEEOT_OT0_, symObjAddr: 0x2484, symBinAddr: 0x1000069B0, symSize: 0x3C }
  - { offsetInCU: 0xC950, offset: 0xC950, size: 0x8, addend: 0x0, symName: __ZNSt3__14pairINS_16reverse_iteratorIPxEES3_EC2B7v160006IS3_S3_LPv0EEEOT_OT0_, symObjAddr: 0x24C0, symBinAddr: 0x1000069EC, symSize: 0x34 }
  - { offsetInCU: 0xC9B4, offset: 0xC9B4, size: 0x8, addend: 0x0, symName: __ZNSt3__18_IterOpsINS_17_ClassicAlgPolicyEE11__iter_moveB7v160006IRNS_16reverse_iteratorIPxEEEENS_9enable_ifIXsr12is_referenceIDTdeclsr3stdE7declvalIRT_EEEEE5valueEDTclsr3stdE4movedeclsr3stdE7declvalISA_EEEEE4typeEOS9_, symObjAddr: 0x253C, symBinAddr: 0x100006A68, symSize: 0x28 }
  - { offsetInCU: 0xC9E0, offset: 0xC9E0, size: 0x8, addend: 0x0, symName: __ZNKSt3__116reverse_iteratorIPxEdeB7v160006Ev, symObjAddr: 0x2564, symBinAddr: 0x100006A90, symSize: 0x28 }
  - { offsetInCU: 0xCA14, offset: 0xCA14, size: 0x8, addend: 0x0, symName: __ZNSt3__116reverse_iteratorIPxEppB7v160006Ev, symObjAddr: 0x258C, symBinAddr: 0x100006AB8, symSize: 0x20 }
  - { offsetInCU: 0xCA3A, offset: 0xCA3A, size: 0x8, addend: 0x0, symName: __ZNSt3__18_IterOpsINS_17_ClassicAlgPolicyEE25__validate_iter_referenceB7v160006IRNS_16reverse_iteratorIPxEEEEvv, symObjAddr: 0x25AC, symBinAddr: 0x100006AD8, symSize: 0x4 }
  - { offsetInCU: 0xCA58, offset: 0xCA58, size: 0x8, addend: 0x0, symName: __ZNSt3__118__unwrap_iter_implINS_16reverse_iteratorIPxEELb0EE8__unwrapB7v160006ES3_, symObjAddr: 0x25B0, symBinAddr: 0x100006ADC, symSize: 0x24 }
  - { offsetInCU: 0xCA7B, offset: 0xCA7B, size: 0x8, addend: 0x0, symName: __ZNSt3__119__unwrap_range_implINS_16reverse_iteratorIPxEES3_E8__rewrapB7v160006ES3_S3_, symObjAddr: 0x25D4, symBinAddr: 0x100006B00, symSize: 0x5C }
  - { offsetInCU: 0xCAAC, offset: 0xCAAC, size: 0x8, addend: 0x0, symName: __ZNSt3__118__unwrap_iter_implINS_16reverse_iteratorIPxEELb0EE8__rewrapB7v160006ES3_S3_, symObjAddr: 0x2630, symBinAddr: 0x100006B5C, symSize: 0x2C }
  - { offsetInCU: 0xCADA, offset: 0xCADA, size: 0x8, addend: 0x0, symName: __ZNSt3__116reverse_iteratorIPxEC2B7v160006ES1_, symObjAddr: 0x265C, symBinAddr: 0x100006B88, symSize: 0x28 }
  - { offsetInCU: 0xCB12, offset: 0xCB12, size: 0x8, addend: 0x0, symName: __ZNSt3__114__split_bufferIxRNS_9allocatorIxEEED2Ev, symObjAddr: 0x2684, symBinAddr: 0x100006BB0, symSize: 0x8C }
  - { offsetInCU: 0xCB3E, offset: 0xCB3E, size: 0x8, addend: 0x0, symName: __ZNSt3__114__split_bufferIxRNS_9allocatorIxEEE5clearB7v160006Ev, symObjAddr: 0x2710, symBinAddr: 0x100006C3C, symSize: 0x28 }
  - { offsetInCU: 0xCB64, offset: 0xCB64, size: 0x8, addend: 0x0, symName: __ZNKSt3__114__split_bufferIxRNS_9allocatorIxEEE8capacityB7v160006Ev, symObjAddr: 0x2738, symBinAddr: 0x100006C64, symSize: 0x40 }
  - { offsetInCU: 0xCB8A, offset: 0xCB8A, size: 0x8, addend: 0x0, symName: __ZNSt3__114__split_bufferIxRNS_9allocatorIxEEE17__destruct_at_endB7v160006EPx, symObjAddr: 0x2778, symBinAddr: 0x100006CA4, symSize: 0x2C }
  - { offsetInCU: 0xCBBE, offset: 0xCBBE, size: 0x8, addend: 0x0, symName: __ZNSt3__114__split_bufferIxRNS_9allocatorIxEEE17__destruct_at_endB7v160006EPxNS_17integral_constantIbLb0EEE, symObjAddr: 0x27A4, symBinAddr: 0x100006CD0, symSize: 0x80 }
  - { offsetInCU: 0xCBFF, offset: 0xCBFF, size: 0x8, addend: 0x0, symName: __ZNKSt3__114__split_bufferIxRNS_9allocatorIxEEE9__end_capB7v160006Ev, symObjAddr: 0x2824, symBinAddr: 0x100006D50, symSize: 0x28 }
  - { offsetInCU: 0xCC25, offset: 0xCC25, size: 0x8, addend: 0x0, symName: __ZNKSt3__117__compressed_pairIPxRNS_9allocatorIxEEE5firstB7v160006Ev, symObjAddr: 0x284C, symBinAddr: 0x100006D78, symSize: 0x24 }
  - { offsetInCU: 0xCC4B, offset: 0xCC4B, size: 0x8, addend: 0x0, symName: __ZNSt3__16vectorIxNS_9allocatorIxEEE27__invalidate_iterators_pastB7v160006EPx, symObjAddr: 0x2870, symBinAddr: 0x100006D9C, symSize: 0x14 }
  - { offsetInCU: 0xCC82, offset: 0xCC82, size: 0x8, addend: 0x0, symName: __ZNKSt3__16vectorIxNS_9allocatorIxEEE17__annotate_shrinkB7v160006Em, symObjAddr: 0x2884, symBinAddr: 0x100006DB0, symSize: 0xB4 }
  - { offsetInCU: 0xCCC1, offset: 0xCCC1, size: 0x8, addend: 0x0, symName: __ZNKSt3__16__lessIxxEclB7v160006ERKxS3_, symObjAddr: 0x298C, symBinAddr: 0x100006EB8, symSize: 0x34 }
  - { offsetInCU: 0xCD03, offset: 0xCD03, size: 0x8, addend: 0x0, symName: __ZNSt3__16vectorIxNS_9allocatorIxEEED2B7v160006Ev, symObjAddr: 0x29C0, symBinAddr: 0x100006EEC, symSize: 0x44 }
  - { offsetInCU: 0xCD46, offset: 0xCD46, size: 0x8, addend: 0x0, symName: __ZNKSt3__113basic_ostreamIcNS_11char_traitsIcEEE6sentrycvbB7v160006Ev, symObjAddr: 0x2BF0, symBinAddr: 0x10000711C, symSize: 0x1C }
  - { offsetInCU: 0xCD6C, offset: 0xCD6C, size: 0x8, addend: 0x0, symName: __ZNSt3__119ostreambuf_iteratorIcNS_11char_traitsIcEEEC1B7v160006ERNS_13basic_ostreamIcS2_EE, symObjAddr: 0x2E4C, symBinAddr: 0x100007378, symSize: 0x34 }
  - { offsetInCU: 0xCDA4, offset: 0xCDA4, size: 0x8, addend: 0x0, symName: __ZNKSt3__18ios_base5flagsB7v160006Ev, symObjAddr: 0x2E80, symBinAddr: 0x1000073AC, symSize: 0x18 }
  - { offsetInCU: 0xCDCC, offset: 0xCDCC, size: 0x8, addend: 0x0, symName: __ZNKSt3__19basic_iosIcNS_11char_traitsIcEEE4fillB7v160006Ev, symObjAddr: 0x2E98, symBinAddr: 0x1000073C4, symSize: 0x64 }
  - { offsetInCU: 0xCDF4, offset: 0xCDF4, size: 0x8, addend: 0x0, symName: __ZNKSt3__119ostreambuf_iteratorIcNS_11char_traitsIcEEE6failedB7v160006Ev, symObjAddr: 0x2EFC, symBinAddr: 0x100007428, symSize: 0x24 }
  - { offsetInCU: 0xCE1A, offset: 0xCE1A, size: 0x8, addend: 0x0, symName: __ZNSt3__19basic_iosIcNS_11char_traitsIcEEE8setstateB7v160006Ej, symObjAddr: 0x2F20, symBinAddr: 0x10000744C, symSize: 0x2C }
  - { offsetInCU: 0xCE4F, offset: 0xCE4F, size: 0x8, addend: 0x0, symName: __ZNKSt3__18ios_base5widthB7v160006Ev, symObjAddr: 0x2F4C, symBinAddr: 0x100007478, symSize: 0x18 }
  - { offsetInCU: 0xCE77, offset: 0xCE77, size: 0x8, addend: 0x0, symName: __ZNSt3__115basic_streambufIcNS_11char_traitsIcEEE5sputnB7v160006EPKcl, symObjAddr: 0x2F64, symBinAddr: 0x100007490, symSize: 0x3C }
  - { offsetInCU: 0xCEB9, offset: 0xCEB9, size: 0x8, addend: 0x0, symName: __ZNSt3__112basic_stringIcNS_11char_traitsIcEENS_9allocatorIcEEEC1B7v160006Emc, symObjAddr: 0x2FA0, symBinAddr: 0x1000074CC, symSize: 0x3C }
  - { offsetInCU: 0xCF01, offset: 0xCF01, size: 0x8, addend: 0x0, symName: __ZNSt3__112basic_stringIcNS_11char_traitsIcEENS_9allocatorIcEEE4dataB7v160006Ev, symObjAddr: 0x2FDC, symBinAddr: 0x100007508, symSize: 0x28 }
  - { offsetInCU: 0xCF27, offset: 0xCF27, size: 0x8, addend: 0x0, symName: __ZNSt3__18ios_base5widthB7v160006El, symObjAddr: 0x3004, symBinAddr: 0x100007530, symSize: 0x2C }
  - { offsetInCU: 0xCF6D, offset: 0xCF6D, size: 0x8, addend: 0x0, symName: __ZNSt3__112basic_stringIcNS_11char_traitsIcEENS_9allocatorIcEEEC2B7v160006Emc, symObjAddr: 0x3030, symBinAddr: 0x10000755C, symSize: 0x54 }
  - { offsetInCU: 0xCFB5, offset: 0xCFB5, size: 0x8, addend: 0x0, symName: __ZNSt3__117__compressed_pairINS_12basic_stringIcNS_11char_traitsIcEENS_9allocatorIcEEE5__repES5_EC1B7v160006INS_18__default_init_tagESA_EEOT_OT0_, symObjAddr: 0x3084, symBinAddr: 0x1000075B0, symSize: 0x3C }
  - { offsetInCU: 0xD00D, offset: 0xD00D, size: 0x8, addend: 0x0, symName: __ZNSt3__117__compressed_pairINS_12basic_stringIcNS_11char_traitsIcEENS_9allocatorIcEEE5__repES5_EC2B7v160006INS_18__default_init_tagESA_EEOT_OT0_, symObjAddr: 0x30D0, symBinAddr: 0x1000075FC, symSize: 0x3C }
  - { offsetInCU: 0xD065, offset: 0xD065, size: 0x8, addend: 0x0, symName: __ZNSt3__122__compressed_pair_elemINS_12basic_stringIcNS_11char_traitsIcEENS_9allocatorIcEEE5__repELi0ELb0EEC2B7v160006ENS_18__default_init_tagE, symObjAddr: 0x310C, symBinAddr: 0x100007638, symSize: 0x14 }
  - { offsetInCU: 0xD09A, offset: 0xD09A, size: 0x8, addend: 0x0, symName: __ZNSt3__122__compressed_pair_elemINS_9allocatorIcEELi1ELb1EEC2B7v160006ENS_18__default_init_tagE, symObjAddr: 0x3120, symBinAddr: 0x10000764C, symSize: 0x2C }
  - { offsetInCU: 0xD0CF, offset: 0xD0CF, size: 0x8, addend: 0x0, symName: __ZNSt3__19allocatorIcEC2B7v160006Ev, symObjAddr: 0x314C, symBinAddr: 0x100007678, symSize: 0x2C }
  - { offsetInCU: 0xD0F9, offset: 0xD0F9, size: 0x8, addend: 0x0, symName: __ZNSt3__116__non_trivial_ifILb1ENS_9allocatorIcEEEC2B7v160006Ev, symObjAddr: 0x3178, symBinAddr: 0x1000076A4, symSize: 0x14 }
  - { offsetInCU: 0xD123, offset: 0xD123, size: 0x8, addend: 0x0, symName: __ZNSt3__112basic_stringIcNS_11char_traitsIcEENS_9allocatorIcEEE13__get_pointerB7v160006Ev, symObjAddr: 0x31A0, symBinAddr: 0x1000076CC, symSize: 0x54 }
  - { offsetInCU: 0xD149, offset: 0xD149, size: 0x8, addend: 0x0, symName: __ZNKSt3__112basic_stringIcNS_11char_traitsIcEENS_9allocatorIcEEE9__is_longB7v160006Ev, symObjAddr: 0x31F4, symBinAddr: 0x100007720, symSize: 0x38 }
  - { offsetInCU: 0xD16F, offset: 0xD16F, size: 0x8, addend: 0x0, symName: __ZNSt3__112basic_stringIcNS_11char_traitsIcEENS_9allocatorIcEEE18__get_long_pointerB7v160006Ev, symObjAddr: 0x322C, symBinAddr: 0x100007758, symSize: 0x28 }
  - { offsetInCU: 0xD195, offset: 0xD195, size: 0x8, addend: 0x0, symName: __ZNSt3__112basic_stringIcNS_11char_traitsIcEENS_9allocatorIcEEE19__get_short_pointerB7v160006Ev, symObjAddr: 0x3254, symBinAddr: 0x100007780, symSize: 0x28 }
  - { offsetInCU: 0xD1BB, offset: 0xD1BB, size: 0x8, addend: 0x0, symName: __ZNKSt3__117__compressed_pairINS_12basic_stringIcNS_11char_traitsIcEENS_9allocatorIcEEE5__repES5_E5firstB7v160006Ev, symObjAddr: 0x327C, symBinAddr: 0x1000077A8, symSize: 0x24 }
  - { offsetInCU: 0xD1E1, offset: 0xD1E1, size: 0x8, addend: 0x0, symName: __ZNKSt3__122__compressed_pair_elemINS_12basic_stringIcNS_11char_traitsIcEENS_9allocatorIcEEE5__repELi0ELb0EE5__getB7v160006Ev, symObjAddr: 0x32A0, symBinAddr: 0x1000077CC, symSize: 0x14 }
  - { offsetInCU: 0xD207, offset: 0xD207, size: 0x8, addend: 0x0, symName: __ZNSt3__117__compressed_pairINS_12basic_stringIcNS_11char_traitsIcEENS_9allocatorIcEEE5__repES5_E5firstB7v160006Ev, symObjAddr: 0x32B4, symBinAddr: 0x1000077E0, symSize: 0x24 }
  - { offsetInCU: 0xD22D, offset: 0xD22D, size: 0x8, addend: 0x0, symName: __ZNSt3__122__compressed_pair_elemINS_12basic_stringIcNS_11char_traitsIcEENS_9allocatorIcEEE5__repELi0ELb0EE5__getB7v160006Ev, symObjAddr: 0x32D8, symBinAddr: 0x100007804, symSize: 0x14 }
  - { offsetInCU: 0xD253, offset: 0xD253, size: 0x8, addend: 0x0, symName: __ZNSt3__114pointer_traitsIPcE10pointer_toB7v160006ERc, symObjAddr: 0x32EC, symBinAddr: 0x100007818, symSize: 0x14 }
  - { offsetInCU: 0xD276, offset: 0xD276, size: 0x8, addend: 0x0, symName: __ZNSt3__119ostreambuf_iteratorIcNS_11char_traitsIcEEEC2B7v160006ERNS_13basic_ostreamIcS2_EE, symObjAddr: 0x3300, symBinAddr: 0x10000782C, symSize: 0x54 }
  - { offsetInCU: 0xD2AE, offset: 0xD2AE, size: 0x8, addend: 0x0, symName: __ZNKSt3__19basic_iosIcNS_11char_traitsIcEEE5rdbufB7v160006Ev, symObjAddr: 0x3354, symBinAddr: 0x100007880, symSize: 0x24 }
  - { offsetInCU: 0xD2D6, offset: 0xD2D6, size: 0x8, addend: 0x0, symName: __ZNKSt3__18ios_base5rdbufB7v160006Ev, symObjAddr: 0x3378, symBinAddr: 0x1000078A4, symSize: 0x18 }
  - { offsetInCU: 0xD2FC, offset: 0xD2FC, size: 0x8, addend: 0x0, symName: __ZNSt3__111char_traitsIcE11eq_int_typeEii, symObjAddr: 0x3390, symBinAddr: 0x1000078BC, symSize: 0x28 }
  - { offsetInCU: 0xD32D, offset: 0xD32D, size: 0x8, addend: 0x0, symName: __ZNSt3__111char_traitsIcE3eofEv, symObjAddr: 0x33B8, symBinAddr: 0x1000078E4, symSize: 0x8 }
  - { offsetInCU: 0xD341, offset: 0xD341, size: 0x8, addend: 0x0, symName: __ZNKSt3__19basic_iosIcNS_11char_traitsIcEEE5widenB7v160006Ec, symObjAddr: 0x33C0, symBinAddr: 0x1000078EC, symSize: 0x84 }
  - { offsetInCU: 0xD3AF, offset: 0xD3AF, size: 0x8, addend: 0x0, symName: __ZNKSt3__15ctypeIcE5widenB7v160006Ec, symObjAddr: 0x3470, symBinAddr: 0x10000799C, symSize: 0x38 }
  - { offsetInCU: 0xD3E4, offset: 0xD3E4, size: 0x8, addend: 0x0, symName: __ZNSt3__18ios_base8setstateB7v160006Ej, symObjAddr: 0x34A8, symBinAddr: 0x1000079D4, symSize: 0x34 }
...
