---
triple:          'arm64-apple-darwin'
binary-path:     '/Users/rohakdebnath/Desktop/Cpp /CodeChef/D4'
relocations:
  - { offsetInCU: 0x47CB, offset: 0x47CB, size: 0x8, addend: 0x0, symName: __ZNSt3__114__copy_alignedB7v160006INS_8__bitsetILm15625001ELm1000000001EEELb0EEENS_14__bit_iteratorIT_Lb0EXLi0EEEENS3_IS4_XT0_EXLi0EEEES6_S5_, symObjAddr: 0x1E78, symBinAddr: 0x100005A94, symSize: 0x278 }
  - { offsetInCU: 0x4E90, offset: 0x4E90, size: 0x8, addend: 0x0, symName: __ZNSt3__16copy_nB7v160006IPmmS1_EENS_9enable_ifIXsr33__is_cpp17_random_access_iteratorIT_EE5valueET1_E4typeES3_T0_S4_, symObjAddr: 0x26D8, symBinAddr: 0x1000062F4, symSize: 0x44 }
  - { offsetInCU: 0x4F37, offset: 0x4F37, size: 0x8, addend: 0x0, symName: __ZNSt3__116__copy_unalignedB7v160006INS_8__bitsetILm15625001ELm1000000001EEELb0EEENS_14__bit_iteratorIT_Lb0EXLi0EEEENS3_IS4_XT0_EXLi0EEEES6_S5_, symObjAddr: 0x2124, symBinAddr: 0x100005D40, symSize: 0x540 }
  - { offsetInCU: 0x50B5, offset: 0x50B5, size: 0x8, addend: 0x0, symName: __ZNSt3__113__fill_n_trueB7v160006INS_8__bitsetILm15625001ELm1000000001EEEEEvNS_14__bit_iteratorIT_Lb0EXLi0EEEENS4_9size_typeE, symObjAddr: 0x2DA8, symBinAddr: 0x1000069C4, symSize: 0x160 }
  - { offsetInCU: 0x517A, offset: 0x517A, size: 0x8, addend: 0x0, symName: __ZNSt3__114__fill_n_falseB7v160006INS_8__bitsetILm15625001ELm1000000001EEEEEvNS_14__bit_iteratorIT_Lb0EXLi0EEEENS4_9size_typeE, symObjAddr: 0x2F08, symBinAddr: 0x100006B24, symSize: 0x15C }
  - { offsetInCU: 0x523F, offset: 0x523F, size: 0x8, addend: 0x0, symName: __ZNSt3__124__put_character_sequenceB7v160006IcNS_11char_traitsIcEEEERNS_13basic_ostreamIT_T0_EES7_PKS4_m, symObjAddr: 0x3348, symBinAddr: 0x100006F64, symSize: 0x1EC }
  - { offsetInCU: 0x7088, offset: 0x7088, size: 0x8, addend: 0x0, symName: __ZNSt3__14sortB7v160006INS_11__wrap_iterIPxEEEEvT_S4_, symObjAddr: 0x460, symBinAddr: 0x10000407C, symSize: 0x3C }
  - { offsetInCU: 0x7417, offset: 0x7417, size: 0x8, addend: 0x0, symName: __ZNSt3__1lsB7v160006INS_11char_traitsIcEEEERNS_13basic_ostreamIcT_EES6_c, symObjAddr: 0x64C, symBinAddr: 0x100004268, symSize: 0x34 }
  - { offsetInCU: 0x745D, offset: 0x745D, size: 0x8, addend: 0x0, symName: __ZNSt3__122__make_exception_guardB7v160006INS_6vectorIxNS_9allocatorIxEEE16__destroy_vectorEEENS_28__exception_guard_exceptionsIT_EES7_, symObjAddr: 0x8A4, symBinAddr: 0x1000044C0, symSize: 0x40 }
  - { offsetInCU: 0x7492, offset: 0x7492, size: 0x8, addend: 0x0, symName: __ZNSt3__119__debug_db_insert_cB7v160006INS_6vectorIxNS_9allocatorIxEEEEEEvPT_, symObjAddr: 0x918, symBinAddr: 0x100004534, symSize: 0x10 }
  - { offsetInCU: 0x74C3, offset: 0x74C3, size: 0x8, addend: 0x0, symName: __ZNSt3__119__allocate_at_leastB7v160006INS_9allocatorIxEEEEDaRT_m, symObjAddr: 0xCA0, symBinAddr: 0x1000048BC, symSize: 0x3C }
  - { offsetInCU: 0x7506, offset: 0x7506, size: 0x8, addend: 0x0, symName: __ZNSt3__13minB7v160006ImEERKT_S3_S3_, symObjAddr: 0xDD8, symBinAddr: 0x1000049F4, symSize: 0x2C }
  - { offsetInCU: 0x7733, offset: 0x7733, size: 0x8, addend: 0x0, symName: __ZNSt3__13minB7v160006ImNS_6__lessImmEEEERKT_S5_S5_T0_, symObjAddr: 0xE74, symBinAddr: 0x100004A90, symSize: 0x54 }
  - { offsetInCU: 0x79B4, offset: 0x79B4, size: 0x8, addend: 0x0, symName: __ZNSt3__120__throw_length_errorB7v160006EPKc, symObjAddr: 0xF58, symBinAddr: 0x100004B74, symSize: 0x64 }
  - { offsetInCU: 0x79DC, offset: 0x79DC, size: 0x8, addend: 0x0, symName: __ZNSt3__117allocate_at_leastB7v160006INS_9allocatorIxEEEENS_17allocation_resultINS_16allocator_traitsIT_E7pointerEEERS5_m, symObjAddr: 0x103C, symBinAddr: 0x100004C58, symSize: 0x3C }
  - { offsetInCU: 0x7A1F, offset: 0x7A1F, size: 0x8, addend: 0x0, symName: __ZNSt3__117__libcpp_allocateB7v160006Emm, symObjAddr: 0x1144, symBinAddr: 0x100004D60, symSize: 0x60 }
  - { offsetInCU: 0x7A79, offset: 0x7A79, size: 0x8, addend: 0x0, symName: __ZNSt3__124__is_overaligned_for_newB7v160006Em, symObjAddr: 0x11A4, symBinAddr: 0x100004DC0, symSize: 0x20 }
  - { offsetInCU: 0x7AA7, offset: 0x7AA7, size: 0x8, addend: 0x0, symName: __ZNSt3__121__libcpp_operator_newB7v160006IJmSt11align_val_tEEEPvDpT_, symObjAddr: 0x11C4, symBinAddr: 0x100004DE0, symSize: 0x2C }
  - { offsetInCU: 0x7AF4, offset: 0x7AF4, size: 0x8, addend: 0x0, symName: __ZNSt3__121__libcpp_operator_newB7v160006IJmEEEPvDpT_, symObjAddr: 0x11F0, symBinAddr: 0x100004E0C, symSize: 0x24 }
  - { offsetInCU: 0x7B2D, offset: 0x7B2D, size: 0x8, addend: 0x0, symName: __ZNSt3__112__to_addressB7v160006IxEEPT_S2_, symObjAddr: 0x130C, symBinAddr: 0x100004F28, symSize: 0x14 }
  - { offsetInCU: 0x7B87, offset: 0x7B87, size: 0x8, addend: 0x0, symName: __ZNSt3__112construct_atB7v160006IxJEPxEEPT_S3_DpOT0_, symObjAddr: 0x1454, symBinAddr: 0x100005070, symSize: 0x20 }
  - { offsetInCU: 0x7BE3, offset: 0x7BE3, size: 0x8, addend: 0x0, symName: __ZNSt3__118__debug_db_erase_cB7v160006INS_6vectorIxNS_9allocatorIxEEEEEEvPT_, symObjAddr: 0x1638, symBinAddr: 0x100005254, symSize: 0x10 }
  - { offsetInCU: 0x7C14, offset: 0x7C14, size: 0x8, addend: 0x0, symName: __ZNSt3__110destroy_atB7v160006IxLi0EEEvPT_, symObjAddr: 0x1780, symBinAddr: 0x10000539C, symSize: 0x24 }
  - { offsetInCU: 0x7C4B, offset: 0x7C4B, size: 0x8, addend: 0x0, symName: __ZNSt3__112__destroy_atB7v160006IxLi0EEEvPT_, symObjAddr: 0x17A4, symBinAddr: 0x1000053C0, symSize: 0x10 }
  - { offsetInCU: 0x7C82, offset: 0x7C82, size: 0x8, addend: 0x0, symName: __ZNSt3__119__libcpp_deallocateB7v160006EPvmm, symObjAddr: 0x17F4, symBinAddr: 0x100005410, symSize: 0x60 }
  - { offsetInCU: 0x7CE7, offset: 0x7CE7, size: 0x8, addend: 0x0, symName: __ZNSt3__127__do_deallocate_handle_sizeB7v160006IJSt11align_val_tEEEvPvmDpT_, symObjAddr: 0x1854, symBinAddr: 0x100005470, symSize: 0x30 }
  - { offsetInCU: 0x7D3A, offset: 0x7D3A, size: 0x8, addend: 0x0, symName: __ZNSt3__127__do_deallocate_handle_sizeB7v160006IJEEEvPvmDpT_, symObjAddr: 0x1884, symBinAddr: 0x1000054A0, symSize: 0x28 }
  - { offsetInCU: 0x7D78, offset: 0x7D78, size: 0x8, addend: 0x0, symName: __ZNSt3__124__libcpp_operator_deleteB7v160006IJPvSt11align_val_tEEEvDpT_, symObjAddr: 0x18AC, symBinAddr: 0x1000054C8, symSize: 0x2C }
  - { offsetInCU: 0x7DC1, offset: 0x7DC1, size: 0x8, addend: 0x0, symName: __ZNSt3__124__libcpp_operator_deleteB7v160006IJPvEEEvDpT_, symObjAddr: 0x18D8, symBinAddr: 0x1000054F4, symSize: 0x24 }
  - { offsetInCU: 0x7DF6, offset: 0x7DF6, size: 0x8, addend: 0x0, symName: __ZNSt3__14sortB7v160006INS_11__wrap_iterIPxEENS_6__lessIxxEEEEvT_S6_T0_, symObjAddr: 0x18FC, symBinAddr: 0x100005518, symSize: 0x40 }
  - { offsetInCU: 0x7E50, offset: 0x7E50, size: 0x8, addend: 0x0, symName: __ZNSt3__111__sort_implB7v160006INS_17_ClassicAlgPolicyENS_11__wrap_iterIPxEENS_6__lessIxxEEEEvT0_S7_RT1_, symObjAddr: 0x193C, symBinAddr: 0x100005558, symSize: 0x84 }
  - { offsetInCU: 0x7EF7, offset: 0x7EF7, size: 0x8, addend: 0x0, symName: __ZNSt3__123__debug_randomize_rangeB7v160006INS_17_ClassicAlgPolicyENS_11__wrap_iterIPxEES4_EEvT0_T1_, symObjAddr: 0x19C0, symBinAddr: 0x1000055DC, symSize: 0x14 }
  - { offsetInCU: 0x7F48, offset: 0x7F48, size: 0x8, addend: 0x0, symName: __ZNSt3__113__unwrap_iterB7v160006INS_11__wrap_iterIPxEENS_18__unwrap_iter_implIS3_Lb1EEELi0EEEDTclsrT0_8__unwrapclsr3stdE7declvalIT_EEEES7_, symObjAddr: 0x19D4, symBinAddr: 0x1000055F0, symSize: 0x2C }
  - { offsetInCU: 0x7FDF, offset: 0x7FDF, size: 0x8, addend: 0x0, symName: __ZNSt3__112__to_addressB7v160006INS_11__wrap_iterIPxEEvEENS_5decayIDTclsr19__to_address_helperIT_EE6__callclsr3stdE7declvalIRKS5_EEEEE4typeES7_, symObjAddr: 0x1A28, symBinAddr: 0x100005644, symSize: 0x24 }
  - { offsetInCU: 0x8080, offset: 0x8080, size: 0x8, addend: 0x0, symName: __ZNSt3__14copyB7v160006INS_8__bitsetILm15625001ELm1000000001EEELb0EEENS_14__bit_iteratorIT_Lb0EXLi0EEEENS3_IS4_XT0_EXLi0EEEES6_S5_, symObjAddr: 0x1C9C, symBinAddr: 0x1000058B8, symSize: 0xE8 }
  - { offsetInCU: 0x80E2, offset: 0x80E2, size: 0x8, addend: 0x0, symName: __ZNSt3__16fill_nB7v160006INS_8__bitsetILm15625001ELm1000000001EEEEEvNS_14__bit_iteratorIT_Lb0EXLi0EEEENS4_9size_typeEb, symObjAddr: 0x1DE4, symBinAddr: 0x100005A00, symSize: 0x94 }
  - { offsetInCU: 0x8134, offset: 0x8134, size: 0x8, addend: 0x0, symName: __ZNSt3__1miB7v160006ERKNS_14__bit_iteratorINS_8__bitsetILm15625001ELm1000000001EEELb0ELm0EEES5_, symObjAddr: 0x2664, symBinAddr: 0x100006280, symSize: 0x48 }
  - { offsetInCU: 0x8171, offset: 0x8171, size: 0x8, addend: 0x0, symName: __ZNSt3__13minB7v160006IlEERKT_S3_S3_, symObjAddr: 0x26AC, symBinAddr: 0x1000062C8, symSize: 0x2C }
  - { offsetInCU: 0x81B4, offset: 0x81B4, size: 0x8, addend: 0x0, symName: __ZNSt3__112__to_addressB7v160006ImEEPT_S2_, symObjAddr: 0x271C, symBinAddr: 0x100006338, symSize: 0x14 }
  - { offsetInCU: 0x81E9, offset: 0x81E9, size: 0x8, addend: 0x0, symName: __ZNSt3__13minB7v160006IlNS_6__lessIllEEEERKT_S5_S5_T0_, symObjAddr: 0x2730, symBinAddr: 0x10000634C, symSize: 0x54 }
  - { offsetInCU: 0x827E, offset: 0x827E, size: 0x8, addend: 0x0, symName: __ZNSt3__14copyB7v160006IPmS1_EET0_T_S3_S2_, symObjAddr: 0x27B8, symBinAddr: 0x1000063D4, symSize: 0x40 }
  - { offsetInCU: 0x82D8, offset: 0x82D8, size: 0x8, addend: 0x0, symName: __ZNSt3__16__copyB7v160006INS_17_ClassicAlgPolicyEPmS2_S2_EENS_4pairIT0_T2_EES4_T1_S5_, symObjAddr: 0x27F8, symBinAddr: 0x100006414, symSize: 0x44 }
  - { offsetInCU: 0x8344, offset: 0x8344, size: 0x8, addend: 0x0, symName: __ZNSt3__123__dispatch_copy_or_moveB7v160006INS_17_ClassicAlgPolicyENS_11__copy_loopIS1_EENS_14__copy_trivialEPmS5_S5_EENS_4pairIT2_T4_EES7_T3_S8_, symObjAddr: 0x283C, symBinAddr: 0x100006458, symSize: 0x44 }
  - { offsetInCU: 0x83C2, offset: 0x83C2, size: 0x8, addend: 0x0, symName: __ZNSt3__121__unwrap_and_dispatchB7v160006INS_10__overloadINS_11__copy_loopINS_17_ClassicAlgPolicyEEENS_14__copy_trivialEEEPmS7_S7_Li0EEENS_4pairIT0_T2_EES9_T1_SA_, symObjAddr: 0x2880, symBinAddr: 0x10000649C, symSize: 0xB4 }
  - { offsetInCU: 0x8450, offset: 0x8450, size: 0x8, addend: 0x0, symName: __ZNSt3__114__unwrap_rangeB7v160006IPmS1_EEDaT_T0_, symObjAddr: 0x2934, symBinAddr: 0x100006550, symSize: 0x3C }
  - { offsetInCU: 0x8632, offset: 0x8632, size: 0x8, addend: 0x0, symName: __ZNSt3__113__unwrap_iterB7v160006IPmNS_18__unwrap_iter_implIS1_Lb1EEELi0EEEDTclsrT0_8__unwrapclsr3stdE7declvalIT_EEEES5_, symObjAddr: 0x29B8, symBinAddr: 0x1000065D4, symSize: 0x24 }
  - { offsetInCU: 0x8676, offset: 0x8676, size: 0x8, addend: 0x0, symName: __ZNSt3__19make_pairB7v160006IPmS1_EENS_4pairINS_18__unwrap_ref_decayIT_E4typeENS3_IT0_E4typeEEEOS4_OS7_, symObjAddr: 0x29DC, symBinAddr: 0x1000065F8, symSize: 0x38 }
  - { offsetInCU: 0x86C5, offset: 0x86C5, size: 0x8, addend: 0x0, symName: __ZNSt3__114__rewrap_rangeB7v160006IPmS1_S1_EET0_S2_T1_, symObjAddr: 0x2A14, symBinAddr: 0x100006630, symSize: 0x2C }
  - { offsetInCU: 0x871A, offset: 0x871A, size: 0x8, addend: 0x0, symName: __ZNSt3__113__rewrap_iterB7v160006IPmS1_NS_18__unwrap_iter_implIS1_Lb1EEEEET_S4_T0_, symObjAddr: 0x2A40, symBinAddr: 0x10000665C, symSize: 0x3C }
  - { offsetInCU: 0x87BF, offset: 0x87BF, size: 0x8, addend: 0x0, symName: __ZNSt3__119__copy_trivial_implB7v160006ImmEENS_4pairIPT_PT0_EES3_S3_S5_, symObjAddr: 0x2B44, symBinAddr: 0x100006760, symSize: 0x84 }
  - { offsetInCU: 0x8827, offset: 0x8827, size: 0x8, addend: 0x0, symName: __ZNSt3__19make_pairB7v160006IRPmS1_EENS_4pairINS_18__unwrap_ref_decayIT_E4typeENS4_IT0_E4typeEEEOS5_OS8_, symObjAddr: 0x2BC8, symBinAddr: 0x1000067E4, symSize: 0x38 }
  - { offsetInCU: 0x88C9, offset: 0x88C9, size: 0x8, addend: 0x0, symName: __ZNSt3__16fill_nB7v160006IPmmmEET_S2_T0_RKT1_, symObjAddr: 0x3064, symBinAddr: 0x100006C80, symSize: 0x44 }
  - { offsetInCU: 0x892C, offset: 0x892C, size: 0x8, addend: 0x0, symName: __ZNSt3__18__fill_nB7v160006IPmmmEET_S2_T0_RKT1_, symObjAddr: 0x30A8, symBinAddr: 0x100006CC4, symSize: 0x64 }
  - { offsetInCU: 0x898F, offset: 0x898F, size: 0x8, addend: 0x0, symName: __ZNSt3__121__convert_to_integralB7v160006Em, symObjAddr: 0x310C, symBinAddr: 0x100006D28, symSize: 0x14 }
  - { offsetInCU: 0x89BB, offset: 0x89BB, size: 0x8, addend: 0x0, symName: __ZNSt3__16fill_nB7v160006IPmmiEET_S2_T0_RKT1_, symObjAddr: 0x3120, symBinAddr: 0x100006D3C, symSize: 0x44 }
  - { offsetInCU: 0x8A1E, offset: 0x8A1E, size: 0x8, addend: 0x0, symName: __ZNSt3__18__fill_nB7v160006IPmmiEET_S2_T0_RKT1_, symObjAddr: 0x3164, symBinAddr: 0x100006D80, symSize: 0x64 }
  - { offsetInCU: 0x8A81, offset: 0x8A81, size: 0x8, addend: 0x0, symName: __ZNSt3__116__pad_and_outputB7v160006IcNS_11char_traitsIcEEEENS_19ostreambuf_iteratorIT_T0_EES6_PKS4_S8_S8_RNS_8ios_baseES4_, symObjAddr: 0x3550, symBinAddr: 0x10000716C, symSize: 0x240 }
  - { offsetInCU: 0x8B50, offset: 0x8B50, size: 0x8, addend: 0x0, symName: __ZNSt3__119__debug_db_insert_cB7v160006INS_12basic_stringIcNS_11char_traitsIcEENS_9allocatorIcEEEEEEvPT_, symObjAddr: 0x3A04, symBinAddr: 0x100007620, symSize: 0x10 }
  - { offsetInCU: 0x8B81, offset: 0x8B81, size: 0x8, addend: 0x0, symName: __ZNSt3__112__to_addressB7v160006IcEEPT_S2_, symObjAddr: 0x3AD0, symBinAddr: 0x1000076EC, symSize: 0x14 }
  - { offsetInCU: 0x8BB6, offset: 0x8BB6, size: 0x8, addend: 0x0, symName: __ZNSt3__19use_facetB7v160006INS_5ctypeIcEEEERKT_RKNS_6localeE, symObjAddr: 0x3D88, symBinAddr: 0x1000079A4, symSize: 0x2C }
  - { offsetInCU: 0x9406, offset: 0x9406, size: 0x8, addend: 0x0, symName: __ZSt28__throw_bad_array_new_lengthB7v160006v, symObjAddr: 0x1110, symBinAddr: 0x100004D2C, symSize: 0x34 }
  - { offsetInCU: 0xBFEF, offset: 0xBFEF, size: 0x8, addend: 0x0, symName: __Z5solvev, symObjAddr: 0x0, symBinAddr: 0x100003C1C, symSize: 0x408 }
  - { offsetInCU: 0xC0AD, offset: 0xC0AD, size: 0x8, addend: 0x0, symName: __ZNSt3__16vectorIxNS_9allocatorIxEEEC1Em, symObjAddr: 0x408, symBinAddr: 0x100004024, symSize: 0x34 }
  - { offsetInCU: 0xC0E8, offset: 0xC0E8, size: 0x8, addend: 0x0, symName: __ZNSt3__16vectorIxNS_9allocatorIxEEEixB7v160006Em, symObjAddr: 0x43C, symBinAddr: 0x100004058, symSize: 0x24 }
  - { offsetInCU: 0xC11F, offset: 0xC11F, size: 0x8, addend: 0x0, symName: __ZNSt3__16vectorIxNS_9allocatorIxEEE5beginB7v160006Ev, symObjAddr: 0x49C, symBinAddr: 0x1000040B8, symSize: 0x30 }
  - { offsetInCU: 0xC147, offset: 0xC147, size: 0x8, addend: 0x0, symName: __ZNSt3__16vectorIxNS_9allocatorIxEEE3endB7v160006Ev, symObjAddr: 0x4CC, symBinAddr: 0x1000040E8, symSize: 0x30 }
  - { offsetInCU: 0xC188, offset: 0xC188, size: 0x8, addend: 0x0, symName: __ZNSt3__16bitsetILm1000000001EEC1B7v160006Ev, symObjAddr: 0x4FC, symBinAddr: 0x100004118, symSize: 0x2C }
  - { offsetInCU: 0xC1B2, offset: 0xC1B2, size: 0x8, addend: 0x0, symName: __ZNKSt3__16bitsetILm1000000001EErsB7v160006Em, symObjAddr: 0x528, symBinAddr: 0x100004144, symSize: 0x48 }
  - { offsetInCU: 0xC1FA, offset: 0xC1FA, size: 0x8, addend: 0x0, symName: __ZNSt3__16bitsetILm1000000001EEoRB7v160006ERKS1_, symObjAddr: 0x570, symBinAddr: 0x10000418C, symSize: 0x34 }
  - { offsetInCU: 0xC231, offset: 0xC231, size: 0x8, addend: 0x0, symName: __ZNSt3__16bitsetILm1000000001EEixB7v160006Em, symObjAddr: 0x5A4, symBinAddr: 0x1000041C0, symSize: 0x3C }
  - { offsetInCU: 0xC266, offset: 0xC266, size: 0x8, addend: 0x0, symName: __ZNSt3__115__bit_referenceINS_8__bitsetILm15625001ELm1000000001EEELb1EEaSB7v160006Eb, symObjAddr: 0x5E0, symBinAddr: 0x1000041FC, symSize: 0x6C }
  - { offsetInCU: 0xC29A, offset: 0xC29A, size: 0x8, addend: 0x0, symName: __ZNKSt3__115__bit_referenceINS_8__bitsetILm15625001ELm1000000001EEELb1EEcvbB7v160006Ev, symObjAddr: 0x680, symBinAddr: 0x10000429C, symSize: 0x2C }
  - { offsetInCU: 0xC2C0, offset: 0xC2C0, size: 0x8, addend: 0x0, symName: __ZNSt3__16vectorIxNS_9allocatorIxEEED1B7v160006Ev, symObjAddr: 0x6AC, symBinAddr: 0x1000042C8, symSize: 0x2C }
  - { offsetInCU: 0xC2EA, offset: 0xC2EA, size: 0x8, addend: 0x0, symName: _main, symObjAddr: 0x6D8, symBinAddr: 0x1000042F4, symSize: 0x84 }
  - { offsetInCU: 0xC313, offset: 0xC313, size: 0x8, addend: 0x0, symName: __ZNSt3__19basic_iosIcNS_11char_traitsIcEEE3tieB7v160006EPNS_13basic_ostreamIcS2_EE, symObjAddr: 0x75C, symBinAddr: 0x100004378, symSize: 0x2C }
  - { offsetInCU: 0xC359, offset: 0xC359, size: 0x8, addend: 0x0, symName: __ZNSt3__16vectorIxNS_9allocatorIxEEEC2Em, symObjAddr: 0x788, symBinAddr: 0x1000043A4, symSize: 0xE0 }
  - { offsetInCU: 0xC3B5, offset: 0xC3B5, size: 0x8, addend: 0x0, symName: __ZNSt3__117__compressed_pairIPxNS_9allocatorIxEEEC1B7v160006IDnNS_18__default_init_tagEEEOT_OT0_, symObjAddr: 0x868, symBinAddr: 0x100004484, symSize: 0x3C }
  - { offsetInCU: 0xC40D, offset: 0xC40D, size: 0x8, addend: 0x0, symName: __ZNSt3__16vectorIxNS_9allocatorIxEEE16__destroy_vectorC1ERS3_, symObjAddr: 0x8E4, symBinAddr: 0x100004500, symSize: 0x34 }
  - { offsetInCU: 0xC446, offset: 0xC446, size: 0x8, addend: 0x0, symName: __ZNSt3__16vectorIxNS_9allocatorIxEEE11__vallocateB7v160006Em, symObjAddr: 0x928, symBinAddr: 0x100004544, symSize: 0xAC }
  - { offsetInCU: 0xC48A, offset: 0xC48A, size: 0x8, addend: 0x0, symName: __ZNSt3__16vectorIxNS_9allocatorIxEEE18__construct_at_endEm, symObjAddr: 0x9D4, symBinAddr: 0x1000045F0, symSize: 0xC8 }
  - { offsetInCU: 0xC4FC, offset: 0xC4FC, size: 0x8, addend: 0x0, symName: __ZNSt3__128__exception_guard_exceptionsINS_6vectorIxNS_9allocatorIxEEE16__destroy_vectorEE10__completeB7v160006Ev, symObjAddr: 0xA9C, symBinAddr: 0x1000046B8, symSize: 0x1C }
  - { offsetInCU: 0xC522, offset: 0xC522, size: 0x8, addend: 0x0, symName: __ZNSt3__128__exception_guard_exceptionsINS_6vectorIxNS_9allocatorIxEEE16__destroy_vectorEED1B7v160006Ev, symObjAddr: 0xAB8, symBinAddr: 0x1000046D4, symSize: 0x2C }
  - { offsetInCU: 0xC54C, offset: 0xC54C, size: 0x8, addend: 0x0, symName: __ZNSt3__117__compressed_pairIPxNS_9allocatorIxEEEC2B7v160006IDnNS_18__default_init_tagEEEOT_OT0_, symObjAddr: 0xAE4, symBinAddr: 0x100004700, symSize: 0x40 }
  - { offsetInCU: 0xC5A4, offset: 0xC5A4, size: 0x8, addend: 0x0, symName: __ZNSt3__122__compressed_pair_elemIPxLi0ELb0EEC2B7v160006IDnvEEOT_, symObjAddr: 0xB24, symBinAddr: 0x100004740, symSize: 0x1C }
  - { offsetInCU: 0xC5E6, offset: 0xC5E6, size: 0x8, addend: 0x0, symName: __ZNSt3__122__compressed_pair_elemINS_9allocatorIxEELi1ELb1EEC2B7v160006ENS_18__default_init_tagE, symObjAddr: 0xB40, symBinAddr: 0x10000475C, symSize: 0x2C }
  - { offsetInCU: 0xC61B, offset: 0xC61B, size: 0x8, addend: 0x0, symName: __ZNSt3__19allocatorIxEC2B7v160006Ev, symObjAddr: 0xB6C, symBinAddr: 0x100004788, symSize: 0x2C }
  - { offsetInCU: 0xC645, offset: 0xC645, size: 0x8, addend: 0x0, symName: __ZNSt3__116__non_trivial_ifILb1ENS_9allocatorIxEEEC2B7v160006Ev, symObjAddr: 0xB98, symBinAddr: 0x1000047B4, symSize: 0x14 }
  - { offsetInCU: 0xC66F, offset: 0xC66F, size: 0x8, addend: 0x0, symName: __ZNSt3__128__exception_guard_exceptionsINS_6vectorIxNS_9allocatorIxEEE16__destroy_vectorEEC1B7v160006ES5_, symObjAddr: 0xBAC, symBinAddr: 0x1000047C8, symSize: 0x34 }
  - { offsetInCU: 0xC6A7, offset: 0xC6A7, size: 0x8, addend: 0x0, symName: __ZNSt3__128__exception_guard_exceptionsINS_6vectorIxNS_9allocatorIxEEE16__destroy_vectorEEC2B7v160006ES5_, symObjAddr: 0xBE0, symBinAddr: 0x1000047FC, symSize: 0x24 }
  - { offsetInCU: 0xC6DF, offset: 0xC6DF, size: 0x8, addend: 0x0, symName: __ZNSt3__16vectorIxNS_9allocatorIxEEE16__destroy_vectorC2ERS3_, symObjAddr: 0xC04, symBinAddr: 0x100004820, symSize: 0x20 }
  - { offsetInCU: 0xC718, offset: 0xC718, size: 0x8, addend: 0x0, symName: __ZNKSt3__16vectorIxNS_9allocatorIxEEE8max_sizeEv, symObjAddr: 0xC24, symBinAddr: 0x100004840, symSize: 0x60 }
  - { offsetInCU: 0xC740, offset: 0xC740, size: 0x8, addend: 0x0, symName: __ZNKSt3__16vectorIxNS_9allocatorIxEEE20__throw_length_errorB7v160006Ev, symObjAddr: 0xC84, symBinAddr: 0x1000048A0, symSize: 0x1C }
  - { offsetInCU: 0xC766, offset: 0xC766, size: 0x8, addend: 0x0, symName: __ZNSt3__16vectorIxNS_9allocatorIxEEE7__allocB7v160006Ev, symObjAddr: 0xCDC, symBinAddr: 0x1000048F8, symSize: 0x28 }
  - { offsetInCU: 0xC78C, offset: 0xC78C, size: 0x8, addend: 0x0, symName: __ZNSt3__16vectorIxNS_9allocatorIxEEE9__end_capB7v160006Ev, symObjAddr: 0xD04, symBinAddr: 0x100004920, symSize: 0x28 }
  - { offsetInCU: 0xC7B2, offset: 0xC7B2, size: 0x8, addend: 0x0, symName: __ZNKSt3__16vectorIxNS_9allocatorIxEEE14__annotate_newB7v160006Em, symObjAddr: 0xD2C, symBinAddr: 0x100004948, symSize: 0xAC }
  - { offsetInCU: 0xC7F1, offset: 0xC7F1, size: 0x8, addend: 0x0, symName: __ZNSt3__116allocator_traitsINS_9allocatorIxEEE8max_sizeB7v160006IS2_vvEEmRKS2_, symObjAddr: 0xE04, symBinAddr: 0x100004A20, symSize: 0x28 }
  - { offsetInCU: 0xC81D, offset: 0xC81D, size: 0x8, addend: 0x0, symName: __ZNKSt3__16vectorIxNS_9allocatorIxEEE7__allocB7v160006Ev, symObjAddr: 0xE2C, symBinAddr: 0x100004A48, symSize: 0x28 }
  - { offsetInCU: 0xC843, offset: 0xC843, size: 0x8, addend: 0x0, symName: __ZNSt3__114numeric_limitsIlE3maxB7v160006Ev, symObjAddr: 0xE54, symBinAddr: 0x100004A70, symSize: 0x14 }
  - { offsetInCU: 0xC86B, offset: 0xC86B, size: 0x8, addend: 0x0, symName: __ZNKSt3__16__lessImmEclB7v160006ERKmS3_, symObjAddr: 0xEC8, symBinAddr: 0x100004AE4, symSize: 0x34 }
  - { offsetInCU: 0xC8AD, offset: 0xC8AD, size: 0x8, addend: 0x0, symName: __ZNSt3__114numeric_limitsImE3maxB7v160006Ev, symObjAddr: 0xEFC, symBinAddr: 0x100004B18, symSize: 0x14 }
  - { offsetInCU: 0xC8C1, offset: 0xC8C1, size: 0x8, addend: 0x0, symName: __ZNSt3__123__libcpp_numeric_limitsImLb1EE3maxB7v160006Ev, symObjAddr: 0xF10, symBinAddr: 0x100004B2C, symSize: 0x8 }
  - { offsetInCU: 0xC8D5, offset: 0xC8D5, size: 0x8, addend: 0x0, symName: __ZNKSt3__117__compressed_pairIPxNS_9allocatorIxEEE6secondB7v160006Ev, symObjAddr: 0xF18, symBinAddr: 0x100004B34, symSize: 0x24 }
  - { offsetInCU: 0xC8FB, offset: 0xC8FB, size: 0x8, addend: 0x0, symName: __ZNKSt3__122__compressed_pair_elemINS_9allocatorIxEELi1ELb1EE5__getB7v160006Ev, symObjAddr: 0xF3C, symBinAddr: 0x100004B58, symSize: 0x14 }
  - { offsetInCU: 0xC921, offset: 0xC921, size: 0x8, addend: 0x0, symName: __ZNSt3__123__libcpp_numeric_limitsIlLb1EE3maxB7v160006Ev, symObjAddr: 0xF50, symBinAddr: 0x100004B6C, symSize: 0x8 }
  - { offsetInCU: 0xC935, offset: 0xC935, size: 0x8, addend: 0x0, symName: __ZNSt12length_errorC1B7v160006EPKc, symObjAddr: 0xFBC, symBinAddr: 0x100004BD8, symSize: 0x34 }
  - { offsetInCU: 0xC96D, offset: 0xC96D, size: 0x8, addend: 0x0, symName: __ZNSt12length_errorC2B7v160006EPKc, symObjAddr: 0xFF0, symBinAddr: 0x100004C0C, symSize: 0x4C }
  - { offsetInCU: 0xC9A5, offset: 0xC9A5, size: 0x8, addend: 0x0, symName: __ZNSt3__19allocatorIxE17allocate_at_leastB7v160006Em, symObjAddr: 0x1078, symBinAddr: 0x100004C94, symSize: 0x40 }
  - { offsetInCU: 0xC9D9, offset: 0xC9D9, size: 0x8, addend: 0x0, symName: __ZNSt3__19allocatorIxE8allocateB7v160006Em, symObjAddr: 0x10B8, symBinAddr: 0x100004CD4, symSize: 0x58 }
  - { offsetInCU: 0xCA0D, offset: 0xCA0D, size: 0x8, addend: 0x0, symName: __ZNSt3__117__compressed_pairIPxNS_9allocatorIxEEE6secondB7v160006Ev, symObjAddr: 0x1214, symBinAddr: 0x100004E30, symSize: 0x24 }
  - { offsetInCU: 0xCA33, offset: 0xCA33, size: 0x8, addend: 0x0, symName: __ZNSt3__122__compressed_pair_elemINS_9allocatorIxEELi1ELb1EE5__getB7v160006Ev, symObjAddr: 0x1238, symBinAddr: 0x100004E54, symSize: 0x14 }
  - { offsetInCU: 0xCA59, offset: 0xCA59, size: 0x8, addend: 0x0, symName: __ZNSt3__117__compressed_pairIPxNS_9allocatorIxEEE5firstB7v160006Ev, symObjAddr: 0x124C, symBinAddr: 0x100004E68, symSize: 0x24 }
  - { offsetInCU: 0xCA7F, offset: 0xCA7F, size: 0x8, addend: 0x0, symName: __ZNSt3__122__compressed_pair_elemIPxLi0ELb0EE5__getB7v160006Ev, symObjAddr: 0x1270, symBinAddr: 0x100004E8C, symSize: 0x14 }
  - { offsetInCU: 0xCAA5, offset: 0xCAA5, size: 0x8, addend: 0x0, symName: __ZNKSt3__16vectorIxNS_9allocatorIxEEE31__annotate_contiguous_containerB7v160006EPKvS5_S5_S5_, symObjAddr: 0x1284, symBinAddr: 0x100004EA0, symSize: 0x20 }
  - { offsetInCU: 0xCAFB, offset: 0xCAFB, size: 0x8, addend: 0x0, symName: __ZNKSt3__16vectorIxNS_9allocatorIxEEE4dataB7v160006Ev, symObjAddr: 0x12A4, symBinAddr: 0x100004EC0, symSize: 0x28 }
  - { offsetInCU: 0xCB21, offset: 0xCB21, size: 0x8, addend: 0x0, symName: __ZNKSt3__16vectorIxNS_9allocatorIxEEE8capacityB7v160006Ev, symObjAddr: 0x12CC, symBinAddr: 0x100004EE8, symSize: 0x40 }
  - { offsetInCU: 0xCB47, offset: 0xCB47, size: 0x8, addend: 0x0, symName: __ZNKSt3__16vectorIxNS_9allocatorIxEEE9__end_capB7v160006Ev, symObjAddr: 0x1320, symBinAddr: 0x100004F3C, symSize: 0x28 }
  - { offsetInCU: 0xCB6D, offset: 0xCB6D, size: 0x8, addend: 0x0, symName: __ZNKSt3__117__compressed_pairIPxNS_9allocatorIxEEE5firstB7v160006Ev, symObjAddr: 0x1348, symBinAddr: 0x100004F64, symSize: 0x24 }
  - { offsetInCU: 0xCB93, offset: 0xCB93, size: 0x8, addend: 0x0, symName: __ZNKSt3__122__compressed_pair_elemIPxLi0ELb0EE5__getB7v160006Ev, symObjAddr: 0x136C, symBinAddr: 0x100004F88, symSize: 0x14 }
  - { offsetInCU: 0xCBD2, offset: 0xCBD2, size: 0x8, addend: 0x0, symName: __ZNSt3__16vectorIxNS_9allocatorIxEEE21_ConstructTransactionC1B7v160006ERS3_m, symObjAddr: 0x1380, symBinAddr: 0x100004F9C, symSize: 0x3C }
  - { offsetInCU: 0xCC1A, offset: 0xCC1A, size: 0x8, addend: 0x0, symName: __ZNSt3__116allocator_traitsINS_9allocatorIxEEE9constructB7v160006IxJEvvEEvRS2_PT_DpOT0_, symObjAddr: 0x13BC, symBinAddr: 0x100004FD8, symSize: 0x28 }
  - { offsetInCU: 0xCC5A, offset: 0xCC5A, size: 0x8, addend: 0x0, symName: __ZNSt3__16vectorIxNS_9allocatorIxEEE21_ConstructTransactionD1B7v160006Ev, symObjAddr: 0x13E4, symBinAddr: 0x100005000, symSize: 0x2C }
  - { offsetInCU: 0xCC84, offset: 0xCC84, size: 0x8, addend: 0x0, symName: __ZNSt3__16vectorIxNS_9allocatorIxEEE21_ConstructTransactionC2B7v160006ERS3_m, symObjAddr: 0x1410, symBinAddr: 0x10000502C, symSize: 0x44 }
  - { offsetInCU: 0xCCCC, offset: 0xCCCC, size: 0x8, addend: 0x0, symName: __ZNSt3__16vectorIxNS_9allocatorIxEEE21_ConstructTransactionD2B7v160006Ev, symObjAddr: 0x1474, symBinAddr: 0x100005090, symSize: 0x20 }
  - { offsetInCU: 0xCCF6, offset: 0xCCF6, size: 0x8, addend: 0x0, symName: __ZNSt3__128__exception_guard_exceptionsINS_6vectorIxNS_9allocatorIxEEE16__destroy_vectorEED2B7v160006Ev, symObjAddr: 0x1494, symBinAddr: 0x1000050B0, symSize: 0x50 }
  - { offsetInCU: 0xCD20, offset: 0xCD20, size: 0x8, addend: 0x0, symName: __ZNSt3__16vectorIxNS_9allocatorIxEEE16__destroy_vectorclB7v160006Ev, symObjAddr: 0x14E4, symBinAddr: 0x100005100, symSize: 0x9C }
  - { offsetInCU: 0xCD46, offset: 0xCD46, size: 0x8, addend: 0x0, symName: __ZNKSt3__16vectorIxNS_9allocatorIxEEE17__annotate_deleteB7v160006Ev, symObjAddr: 0x1580, symBinAddr: 0x10000519C, symSize: 0xB8 }
  - { offsetInCU: 0xCD6C, offset: 0xCD6C, size: 0x8, addend: 0x0, symName: __ZNSt3__16vectorIxNS_9allocatorIxEEE7__clearB7v160006Ev, symObjAddr: 0x1648, symBinAddr: 0x100005264, symSize: 0x28 }
  - { offsetInCU: 0xCD92, offset: 0xCD92, size: 0x8, addend: 0x0, symName: __ZNSt3__116allocator_traitsINS_9allocatorIxEEE10deallocateB7v160006ERS2_Pxm, symObjAddr: 0x1670, symBinAddr: 0x10000528C, symSize: 0x34 }
  - { offsetInCU: 0xCDD4, offset: 0xCDD4, size: 0x8, addend: 0x0, symName: __ZNKSt3__16vectorIxNS_9allocatorIxEEE4sizeB7v160006Ev, symObjAddr: 0x16A4, symBinAddr: 0x1000052C0, symSize: 0x28 }
  - { offsetInCU: 0xCDFA, offset: 0xCDFA, size: 0x8, addend: 0x0, symName: __ZNSt3__16vectorIxNS_9allocatorIxEEE22__base_destruct_at_endB7v160006EPx, symObjAddr: 0x16CC, symBinAddr: 0x1000052E8, symSize: 0x8C }
  - { offsetInCU: 0xCE3E, offset: 0xCE3E, size: 0x8, addend: 0x0, symName: __ZNSt3__116allocator_traitsINS_9allocatorIxEEE7destroyB7v160006IxvvEEvRS2_PT_, symObjAddr: 0x1758, symBinAddr: 0x100005374, symSize: 0x28 }
  - { offsetInCU: 0xCE79, offset: 0xCE79, size: 0x8, addend: 0x0, symName: __ZNSt3__19allocatorIxE10deallocateB7v160006EPxm, symObjAddr: 0x17B4, symBinAddr: 0x1000053D0, symSize: 0x40 }
  - { offsetInCU: 0xCEBB, offset: 0xCEBB, size: 0x8, addend: 0x0, symName: __ZNSt3__118__unwrap_iter_implINS_11__wrap_iterIPxEELb1EE8__unwrapB7v160006ES3_, symObjAddr: 0x1A00, symBinAddr: 0x10000561C, symSize: 0x28 }
  - { offsetInCU: 0xCEE8, offset: 0xCEE8, size: 0x8, addend: 0x0, symName: __ZNSt3__119__to_address_helperINS_11__wrap_iterIPxEEvE6__callB7v160006ERKS3_, symObjAddr: 0x1A4C, symBinAddr: 0x100005668, symSize: 0x30 }
  - { offsetInCU: 0xCF0B, offset: 0xCF0B, size: 0x8, addend: 0x0, symName: __ZNSt3__114pointer_traitsINS_11__wrap_iterIPxEEE10to_addressB7v160006ES3_, symObjAddr: 0x1A7C, symBinAddr: 0x100005698, symSize: 0x2C }
  - { offsetInCU: 0xCF2F, offset: 0xCF2F, size: 0x8, addend: 0x0, symName: __ZNKSt3__111__wrap_iterIPxE4baseB7v160006Ev, symObjAddr: 0x1AA8, symBinAddr: 0x1000056C4, symSize: 0x18 }
  - { offsetInCU: 0xCF55, offset: 0xCF55, size: 0x8, addend: 0x0, symName: __ZNSt3__16vectorIxNS_9allocatorIxEEE11__make_iterB7v160006EPx, symObjAddr: 0x1AC0, symBinAddr: 0x1000056DC, symSize: 0x34 }
  - { offsetInCU: 0xCF8A, offset: 0xCF8A, size: 0x8, addend: 0x0, symName: __ZNSt3__111__wrap_iterIPxEC1B7v160006EPKvS1_, symObjAddr: 0x1AF4, symBinAddr: 0x100005710, symSize: 0x3C }
  - { offsetInCU: 0xCFD0, offset: 0xCFD0, size: 0x8, addend: 0x0, symName: __ZNSt3__111__wrap_iterIPxEC2B7v160006EPKvS1_, symObjAddr: 0x1B30, symBinAddr: 0x10000574C, symSize: 0x24 }
  - { offsetInCU: 0xD016, offset: 0xD016, size: 0x8, addend: 0x0, symName: __ZNSt3__16bitsetILm1000000001EEC2B7v160006Ev, symObjAddr: 0x1B54, symBinAddr: 0x100005770, symSize: 0x2C }
  - { offsetInCU: 0xD040, offset: 0xD040, size: 0x8, addend: 0x0, symName: __ZNSt3__18__bitsetILm15625001ELm1000000001EEC2Ev, symObjAddr: 0x1B80, symBinAddr: 0x10000579C, symSize: 0x34 }
  - { offsetInCU: 0xD06B, offset: 0xD06B, size: 0x8, addend: 0x0, symName: __ZNSt3__16bitsetILm1000000001EErSB7v160006Em, symObjAddr: 0x1BB4, symBinAddr: 0x1000057D0, symSize: 0xE8 }
  - { offsetInCU: 0xD0A2, offset: 0xD0A2, size: 0x8, addend: 0x0, symName: __ZNSt3__18__bitsetILm15625001ELm1000000001EE11__make_iterB7v160006Em, symObjAddr: 0x1D84, symBinAddr: 0x1000059A0, symSize: 0x60 }
  - { offsetInCU: 0xD0D6, offset: 0xD0D6, size: 0x8, addend: 0x0, symName: __ZNSt3__114__bit_iteratorINS_8__bitsetILm15625001ELm1000000001EEELb0ELm0EEC1B7v160006ERKS3_, symObjAddr: 0x20F0, symBinAddr: 0x100005D0C, symSize: 0x34 }
  - { offsetInCU: 0xD123, offset: 0xD123, size: 0x8, addend: 0x0, symName: __ZNKSt3__16__lessIllEclB7v160006ERKlS3_, symObjAddr: 0x2784, symBinAddr: 0x1000063A0, symSize: 0x34 }
  - { offsetInCU: 0xD18E, offset: 0xD18E, size: 0x8, addend: 0x0, symName: __ZNKSt3__114__copy_trivialclB7v160006ImmLi0EEENS_4pairIPT_PT0_EES4_S4_S6_, symObjAddr: 0x2970, symBinAddr: 0x10000658C, symSize: 0x48 }
  - { offsetInCU: 0xD1F6, offset: 0xD1F6, size: 0x8, addend: 0x0, symName: __ZNSt3__119__unwrap_range_implIPmS1_E8__unwrapB7v160006ES1_S1_, symObjAddr: 0x2A7C, symBinAddr: 0x100006698, symSize: 0x58 }
  - { offsetInCU: 0xD22D, offset: 0xD22D, size: 0x8, addend: 0x0, symName: __ZNSt3__14pairIPmS1_EC1B7v160006IS1_S1_LPv0EEEOT_OT0_, symObjAddr: 0x2AD4, symBinAddr: 0x1000066F0, symSize: 0x3C }
  - { offsetInCU: 0xD28B, offset: 0xD28B, size: 0x8, addend: 0x0, symName: __ZNSt3__14pairIPmS1_EC2B7v160006IS1_S1_LPv0EEEOT_OT0_, symObjAddr: 0x2B10, symBinAddr: 0x10000672C, symSize: 0x34 }
  - { offsetInCU: 0xD2EE, offset: 0xD2EE, size: 0x8, addend: 0x0, symName: __ZNSt3__14pairIPmS1_EC1B7v160006IRS1_S1_LPv0EEEOT_OT0_, symObjAddr: 0x2C00, symBinAddr: 0x10000681C, symSize: 0x3C }
  - { offsetInCU: 0xD34C, offset: 0xD34C, size: 0x8, addend: 0x0, symName: __ZNSt3__14pairIPmS1_EC2B7v160006IRS1_S1_LPv0EEEOT_OT0_, symObjAddr: 0x2C3C, symBinAddr: 0x100006858, symSize: 0x34 }
  - { offsetInCU: 0xD3AA, offset: 0xD3AA, size: 0x8, addend: 0x0, symName: __ZNSt3__118__unwrap_iter_implIPmLb1EE8__unwrapB7v160006ES1_, symObjAddr: 0x2C70, symBinAddr: 0x10000688C, symSize: 0x24 }
  - { offsetInCU: 0xD3CD, offset: 0xD3CD, size: 0x8, addend: 0x0, symName: __ZNSt3__119__unwrap_range_implIPmS1_E8__rewrapB7v160006ES1_S1_, symObjAddr: 0x2C94, symBinAddr: 0x1000068B0, symSize: 0x2C }
  - { offsetInCU: 0xD3FE, offset: 0xD3FE, size: 0x8, addend: 0x0, symName: __ZNSt3__118__unwrap_iter_implIPmLb1EE8__rewrapB7v160006ES1_S1_, symObjAddr: 0x2CC0, symBinAddr: 0x1000068DC, symSize: 0x50 }
  - { offsetInCU: 0xD42F, offset: 0xD42F, size: 0x8, addend: 0x0, symName: __ZNSt3__114__bit_iteratorINS_8__bitsetILm15625001ELm1000000001EEELb0ELm0EEC2B7v160006ERKS3_, symObjAddr: 0x2D10, symBinAddr: 0x10000692C, symSize: 0x30 }
  - { offsetInCU: 0xD468, offset: 0xD468, size: 0x8, addend: 0x0, symName: __ZNSt3__114__bit_iteratorINS_8__bitsetILm15625001ELm1000000001EEELb0ELm0EEC1B7v160006EPmj, symObjAddr: 0x2D40, symBinAddr: 0x10000695C, symSize: 0x3C }
  - { offsetInCU: 0xD4B0, offset: 0xD4B0, size: 0x8, addend: 0x0, symName: __ZNSt3__114__bit_iteratorINS_8__bitsetILm15625001ELm1000000001EEELb0ELm0EEC2B7v160006EPmj, symObjAddr: 0x2D7C, symBinAddr: 0x100006998, symSize: 0x2C }
  - { offsetInCU: 0xD4F8, offset: 0xD4F8, size: 0x8, addend: 0x0, symName: __ZNSt3__18__bitsetILm15625001ELm1000000001EEoRB7v160006ERKS1_, symObjAddr: 0x31C8, symBinAddr: 0x100006DE4, symSize: 0x78 }
  - { offsetInCU: 0xD54B, offset: 0xD54B, size: 0x8, addend: 0x0, symName: __ZNSt3__18__bitsetILm15625001ELm1000000001EE10__make_refB7v160006Em, symObjAddr: 0x3240, symBinAddr: 0x100006E5C, symSize: 0x5C }
  - { offsetInCU: 0xD57F, offset: 0xD57F, size: 0x8, addend: 0x0, symName: __ZNSt3__115__bit_referenceINS_8__bitsetILm15625001ELm1000000001EEELb1EEC1B7v160006EPmm, symObjAddr: 0x329C, symBinAddr: 0x100006EB8, symSize: 0x3C }
  - { offsetInCU: 0xD5C5, offset: 0xD5C5, size: 0x8, addend: 0x0, symName: __ZNSt3__115__bit_referenceINS_8__bitsetILm15625001ELm1000000001EEELb1EEC2B7v160006EPmm, symObjAddr: 0x32D8, symBinAddr: 0x100006EF4, symSize: 0x2C }
  - { offsetInCU: 0xD60B, offset: 0xD60B, size: 0x8, addend: 0x0, symName: __ZNSt3__16vectorIxNS_9allocatorIxEEED2B7v160006Ev, symObjAddr: 0x3304, symBinAddr: 0x100006F20, symSize: 0x44 }
  - { offsetInCU: 0xD64E, offset: 0xD64E, size: 0x8, addend: 0x0, symName: __ZNKSt3__113basic_ostreamIcNS_11char_traitsIcEEE6sentrycvbB7v160006Ev, symObjAddr: 0x3534, symBinAddr: 0x100007150, symSize: 0x1C }
  - { offsetInCU: 0xD674, offset: 0xD674, size: 0x8, addend: 0x0, symName: __ZNSt3__119ostreambuf_iteratorIcNS_11char_traitsIcEEEC1B7v160006ERNS_13basic_ostreamIcS2_EE, symObjAddr: 0x3790, symBinAddr: 0x1000073AC, symSize: 0x34 }
  - { offsetInCU: 0xD6AC, offset: 0xD6AC, size: 0x8, addend: 0x0, symName: __ZNKSt3__18ios_base5flagsB7v160006Ev, symObjAddr: 0x37C4, symBinAddr: 0x1000073E0, symSize: 0x18 }
  - { offsetInCU: 0xD6D4, offset: 0xD6D4, size: 0x8, addend: 0x0, symName: __ZNKSt3__19basic_iosIcNS_11char_traitsIcEEE4fillB7v160006Ev, symObjAddr: 0x37DC, symBinAddr: 0x1000073F8, symSize: 0x64 }
  - { offsetInCU: 0xD6FC, offset: 0xD6FC, size: 0x8, addend: 0x0, symName: __ZNKSt3__119ostreambuf_iteratorIcNS_11char_traitsIcEEE6failedB7v160006Ev, symObjAddr: 0x3840, symBinAddr: 0x10000745C, symSize: 0x24 }
  - { offsetInCU: 0xD722, offset: 0xD722, size: 0x8, addend: 0x0, symName: __ZNSt3__19basic_iosIcNS_11char_traitsIcEEE8setstateB7v160006Ej, symObjAddr: 0x3864, symBinAddr: 0x100007480, symSize: 0x2C }
  - { offsetInCU: 0xD757, offset: 0xD757, size: 0x8, addend: 0x0, symName: __ZNKSt3__18ios_base5widthB7v160006Ev, symObjAddr: 0x3890, symBinAddr: 0x1000074AC, symSize: 0x18 }
  - { offsetInCU: 0xD77F, offset: 0xD77F, size: 0x8, addend: 0x0, symName: __ZNSt3__115basic_streambufIcNS_11char_traitsIcEEE5sputnB7v160006EPKcl, symObjAddr: 0x38A8, symBinAddr: 0x1000074C4, symSize: 0x3C }
  - { offsetInCU: 0xD7C1, offset: 0xD7C1, size: 0x8, addend: 0x0, symName: __ZNSt3__112basic_stringIcNS_11char_traitsIcEENS_9allocatorIcEEEC1B7v160006Emc, symObjAddr: 0x38E4, symBinAddr: 0x100007500, symSize: 0x3C }
  - { offsetInCU: 0xD809, offset: 0xD809, size: 0x8, addend: 0x0, symName: __ZNSt3__112basic_stringIcNS_11char_traitsIcEENS_9allocatorIcEEE4dataB7v160006Ev, symObjAddr: 0x3920, symBinAddr: 0x10000753C, symSize: 0x28 }
  - { offsetInCU: 0xD82F, offset: 0xD82F, size: 0x8, addend: 0x0, symName: __ZNSt3__18ios_base5widthB7v160006El, symObjAddr: 0x3948, symBinAddr: 0x100007564, symSize: 0x2C }
  - { offsetInCU: 0xD875, offset: 0xD875, size: 0x8, addend: 0x0, symName: __ZNSt3__112basic_stringIcNS_11char_traitsIcEENS_9allocatorIcEEEC2B7v160006Emc, symObjAddr: 0x3974, symBinAddr: 0x100007590, symSize: 0x54 }
  - { offsetInCU: 0xD8BD, offset: 0xD8BD, size: 0x8, addend: 0x0, symName: __ZNSt3__117__compressed_pairINS_12basic_stringIcNS_11char_traitsIcEENS_9allocatorIcEEE5__repES5_EC1B7v160006INS_18__default_init_tagESA_EEOT_OT0_, symObjAddr: 0x39C8, symBinAddr: 0x1000075E4, symSize: 0x3C }
  - { offsetInCU: 0xD915, offset: 0xD915, size: 0x8, addend: 0x0, symName: __ZNSt3__117__compressed_pairINS_12basic_stringIcNS_11char_traitsIcEENS_9allocatorIcEEE5__repES5_EC2B7v160006INS_18__default_init_tagESA_EEOT_OT0_, symObjAddr: 0x3A14, symBinAddr: 0x100007630, symSize: 0x3C }
  - { offsetInCU: 0xD96D, offset: 0xD96D, size: 0x8, addend: 0x0, symName: __ZNSt3__122__compressed_pair_elemINS_12basic_stringIcNS_11char_traitsIcEENS_9allocatorIcEEE5__repELi0ELb0EEC2B7v160006ENS_18__default_init_tagE, symObjAddr: 0x3A50, symBinAddr: 0x10000766C, symSize: 0x14 }
  - { offsetInCU: 0xD9A2, offset: 0xD9A2, size: 0x8, addend: 0x0, symName: __ZNSt3__122__compressed_pair_elemINS_9allocatorIcEELi1ELb1EEC2B7v160006ENS_18__default_init_tagE, symObjAddr: 0x3A64, symBinAddr: 0x100007680, symSize: 0x2C }
  - { offsetInCU: 0xD9D7, offset: 0xD9D7, size: 0x8, addend: 0x0, symName: __ZNSt3__19allocatorIcEC2B7v160006Ev, symObjAddr: 0x3A90, symBinAddr: 0x1000076AC, symSize: 0x2C }
  - { offsetInCU: 0xDA01, offset: 0xDA01, size: 0x8, addend: 0x0, symName: __ZNSt3__116__non_trivial_ifILb1ENS_9allocatorIcEEEC2B7v160006Ev, symObjAddr: 0x3ABC, symBinAddr: 0x1000076D8, symSize: 0x14 }
  - { offsetInCU: 0xDA2B, offset: 0xDA2B, size: 0x8, addend: 0x0, symName: __ZNSt3__112basic_stringIcNS_11char_traitsIcEENS_9allocatorIcEEE13__get_pointerB7v160006Ev, symObjAddr: 0x3AE4, symBinAddr: 0x100007700, symSize: 0x54 }
  - { offsetInCU: 0xDA51, offset: 0xDA51, size: 0x8, addend: 0x0, symName: __ZNKSt3__112basic_stringIcNS_11char_traitsIcEENS_9allocatorIcEEE9__is_longB7v160006Ev, symObjAddr: 0x3B38, symBinAddr: 0x100007754, symSize: 0x38 }
  - { offsetInCU: 0xDA77, offset: 0xDA77, size: 0x8, addend: 0x0, symName: __ZNSt3__112basic_stringIcNS_11char_traitsIcEENS_9allocatorIcEEE18__get_long_pointerB7v160006Ev, symObjAddr: 0x3B70, symBinAddr: 0x10000778C, symSize: 0x28 }
  - { offsetInCU: 0xDA9D, offset: 0xDA9D, size: 0x8, addend: 0x0, symName: __ZNSt3__112basic_stringIcNS_11char_traitsIcEENS_9allocatorIcEEE19__get_short_pointerB7v160006Ev, symObjAddr: 0x3B98, symBinAddr: 0x1000077B4, symSize: 0x28 }
  - { offsetInCU: 0xDAC3, offset: 0xDAC3, size: 0x8, addend: 0x0, symName: __ZNKSt3__117__compressed_pairINS_12basic_stringIcNS_11char_traitsIcEENS_9allocatorIcEEE5__repES5_E5firstB7v160006Ev, symObjAddr: 0x3BC0, symBinAddr: 0x1000077DC, symSize: 0x24 }
  - { offsetInCU: 0xDAE9, offset: 0xDAE9, size: 0x8, addend: 0x0, symName: __ZNKSt3__122__compressed_pair_elemINS_12basic_stringIcNS_11char_traitsIcEENS_9allocatorIcEEE5__repELi0ELb0EE5__getB7v160006Ev, symObjAddr: 0x3BE4, symBinAddr: 0x100007800, symSize: 0x14 }
  - { offsetInCU: 0xDB0F, offset: 0xDB0F, size: 0x8, addend: 0x0, symName: __ZNSt3__117__compressed_pairINS_12basic_stringIcNS_11char_traitsIcEENS_9allocatorIcEEE5__repES5_E5firstB7v160006Ev, symObjAddr: 0x3BF8, symBinAddr: 0x100007814, symSize: 0x24 }
  - { offsetInCU: 0xDB35, offset: 0xDB35, size: 0x8, addend: 0x0, symName: __ZNSt3__122__compressed_pair_elemINS_12basic_stringIcNS_11char_traitsIcEENS_9allocatorIcEEE5__repELi0ELb0EE5__getB7v160006Ev, symObjAddr: 0x3C1C, symBinAddr: 0x100007838, symSize: 0x14 }
  - { offsetInCU: 0xDB5B, offset: 0xDB5B, size: 0x8, addend: 0x0, symName: __ZNSt3__114pointer_traitsIPcE10pointer_toB7v160006ERc, symObjAddr: 0x3C30, symBinAddr: 0x10000784C, symSize: 0x14 }
  - { offsetInCU: 0xDB7E, offset: 0xDB7E, size: 0x8, addend: 0x0, symName: __ZNSt3__119ostreambuf_iteratorIcNS_11char_traitsIcEEEC2B7v160006ERNS_13basic_ostreamIcS2_EE, symObjAddr: 0x3C44, symBinAddr: 0x100007860, symSize: 0x54 }
  - { offsetInCU: 0xDBB6, offset: 0xDBB6, size: 0x8, addend: 0x0, symName: __ZNKSt3__19basic_iosIcNS_11char_traitsIcEEE5rdbufB7v160006Ev, symObjAddr: 0x3C98, symBinAddr: 0x1000078B4, symSize: 0x24 }
  - { offsetInCU: 0xDBDE, offset: 0xDBDE, size: 0x8, addend: 0x0, symName: __ZNKSt3__18ios_base5rdbufB7v160006Ev, symObjAddr: 0x3CBC, symBinAddr: 0x1000078D8, symSize: 0x18 }
  - { offsetInCU: 0xDC04, offset: 0xDC04, size: 0x8, addend: 0x0, symName: __ZNSt3__111char_traitsIcE11eq_int_typeEii, symObjAddr: 0x3CD4, symBinAddr: 0x1000078F0, symSize: 0x28 }
  - { offsetInCU: 0xDC35, offset: 0xDC35, size: 0x8, addend: 0x0, symName: __ZNSt3__111char_traitsIcE3eofEv, symObjAddr: 0x3CFC, symBinAddr: 0x100007918, symSize: 0x8 }
  - { offsetInCU: 0xDC49, offset: 0xDC49, size: 0x8, addend: 0x0, symName: __ZNKSt3__19basic_iosIcNS_11char_traitsIcEEE5widenB7v160006Ec, symObjAddr: 0x3D04, symBinAddr: 0x100007920, symSize: 0x84 }
  - { offsetInCU: 0xDCB7, offset: 0xDCB7, size: 0x8, addend: 0x0, symName: __ZNKSt3__15ctypeIcE5widenB7v160006Ec, symObjAddr: 0x3DB4, symBinAddr: 0x1000079D0, symSize: 0x38 }
  - { offsetInCU: 0xDCEC, offset: 0xDCEC, size: 0x8, addend: 0x0, symName: __ZNSt3__18ios_base8setstateB7v160006Ej, symObjAddr: 0x3DEC, symBinAddr: 0x100007A08, symSize: 0x34 }
...
