---
triple:          'arm64-apple-darwin'
binary-path:     '/Users/rohakdebnath/Desktop/Cpp /CodeForces/dilucandkaeya'
relocations:
  - { offsetInCU: 0x54, offset: 0x54, size: 0x8, addend: 0x0, symName: __ZNSt3__117__synth_three_wayB7v160006E, symObjAddr: 0x4CFB, symBinAddr: 0x100007C0F, symSize: 0x0 }
  - { offsetInCU: 0xA5, offset: 0xA5, size: 0x8, addend: 0x0, symName: __ZNSt3__1L19piecewise_constructE, symObjAddr: 0x4CFA, symBinAddr: 0x100007C0E, symSize: 0x0 }
  - { offsetInCU: 0x366B, offset: 0x366B, size: 0x8, addend: 0x0, symName: __ZNSt3__13gcdB7v160006IiiEENS_11common_typeIJT_T0_EE4typeES2_S3_, symObjAddr: 0x70, symBinAddr: 0x100002D44, symSize: 0x48 }
  - { offsetInCU: 0x7729, offset: 0x7729, size: 0x8, addend: 0x0, symName: __ZNSt3__124__put_character_sequenceB7v160006IcNS_11char_traitsIcEEEERNS_13basic_ostreamIT_T0_EES7_PKS4_m, symObjAddr: 0x43B0, symBinAddr: 0x100007084, symSize: 0x1EC }
  - { offsetInCU: 0x92C2, offset: 0x92C2, size: 0x8, addend: 0x0, symName: __ZNSt3__1rsB7v160006IcNS_11char_traitsIcEENS_9allocatorIcEEEERNS_13basic_istreamIT_T0_EES9_RNS_12basic_stringIS6_S7_T1_EE, symObjAddr: 0x3D4, symBinAddr: 0x1000030A8, symSize: 0x31C }
  - { offsetInCU: 0x9391, offset: 0x9391, size: 0x8, addend: 0x0, symName: __ZNSt3__1lsB7v160006INS_11char_traitsIcEEEERNS_13basic_ostreamIcT_EES6_c, symObjAddr: 0x860, symBinAddr: 0x100003534, symSize: 0x34 }
  - { offsetInCU: 0x93D7, offset: 0x93D7, size: 0x8, addend: 0x0, symName: __ZNSt3__15__gcdIjEET_S1_S1_, symObjAddr: 0x99C, symBinAddr: 0x100003670, symSize: 0x68 }
  - { offsetInCU: 0x9645, offset: 0x9645, size: 0x8, addend: 0x0, symName: __ZNSt3__119__debug_db_insert_cB7v160006INS_12basic_stringIcNS_11char_traitsIcEENS_9allocatorIcEEEEEEvPT_, symObjAddr: 0xB7C, symBinAddr: 0x100003850, symSize: 0x10 }
  - { offsetInCU: 0x9676, offset: 0x9676, size: 0x8, addend: 0x0, symName: __ZNSt3__122__make_exception_guardB7v160006INS_6vectorIiNS_9allocatorIiEEE16__destroy_vectorEEENS_28__exception_guard_exceptionsIT_EES7_, symObjAddr: 0xDDC, symBinAddr: 0x100003AB0, symSize: 0x40 }
  - { offsetInCU: 0x96AB, offset: 0x96AB, size: 0x8, addend: 0x0, symName: __ZNSt3__119__debug_db_insert_cB7v160006INS_6vectorIiNS_9allocatorIiEEEEEEvPT_, symObjAddr: 0xE50, symBinAddr: 0x100003B24, symSize: 0x10 }
  - { offsetInCU: 0x96DC, offset: 0x96DC, size: 0x8, addend: 0x0, symName: __ZNSt3__119__allocate_at_leastB7v160006INS_9allocatorIiEEEEDaRT_m, symObjAddr: 0x11D8, symBinAddr: 0x100003EAC, symSize: 0x3C }
  - { offsetInCU: 0x971F, offset: 0x971F, size: 0x8, addend: 0x0, symName: __ZNSt3__13minB7v160006ImEERKT_S3_S3_, symObjAddr: 0x1310, symBinAddr: 0x100003FE4, symSize: 0x2C }
  - { offsetInCU: 0x994C, offset: 0x994C, size: 0x8, addend: 0x0, symName: __ZNSt3__13minB7v160006ImNS_6__lessImmEEEERKT_S5_S5_T0_, symObjAddr: 0x13A0, symBinAddr: 0x100004074, symSize: 0x54 }
  - { offsetInCU: 0x9BCD, offset: 0x9BCD, size: 0x8, addend: 0x0, symName: __ZNSt3__120__throw_length_errorB7v160006EPKc, symObjAddr: 0x1484, symBinAddr: 0x100004158, symSize: 0x64 }
  - { offsetInCU: 0x9BF5, offset: 0x9BF5, size: 0x8, addend: 0x0, symName: __ZNSt3__117allocate_at_leastB7v160006INS_9allocatorIiEEEENS_17allocation_resultINS_16allocator_traitsIT_E7pointerEEERS5_m, symObjAddr: 0x1568, symBinAddr: 0x10000423C, symSize: 0x3C }
  - { offsetInCU: 0x9C38, offset: 0x9C38, size: 0x8, addend: 0x0, symName: __ZNSt3__117__libcpp_allocateB7v160006Emm, symObjAddr: 0x1670, symBinAddr: 0x100004344, symSize: 0x60 }
  - { offsetInCU: 0x9C92, offset: 0x9C92, size: 0x8, addend: 0x0, symName: __ZNSt3__124__is_overaligned_for_newB7v160006Em, symObjAddr: 0x16D0, symBinAddr: 0x1000043A4, symSize: 0x20 }
  - { offsetInCU: 0x9CC0, offset: 0x9CC0, size: 0x8, addend: 0x0, symName: __ZNSt3__121__libcpp_operator_newB7v160006IJmSt11align_val_tEEEPvDpT_, symObjAddr: 0x16F0, symBinAddr: 0x1000043C4, symSize: 0x2C }
  - { offsetInCU: 0x9D0D, offset: 0x9D0D, size: 0x8, addend: 0x0, symName: __ZNSt3__121__libcpp_operator_newB7v160006IJmEEEPvDpT_, symObjAddr: 0x171C, symBinAddr: 0x1000043F0, symSize: 0x24 }
  - { offsetInCU: 0x9D46, offset: 0x9D46, size: 0x8, addend: 0x0, symName: __ZNSt3__112__to_addressB7v160006IiEEPT_S2_, symObjAddr: 0x1838, symBinAddr: 0x10000450C, symSize: 0x14 }
  - { offsetInCU: 0x9DA0, offset: 0x9DA0, size: 0x8, addend: 0x0, symName: __ZNSt3__112construct_atB7v160006IiJEPiEEPT_S3_DpOT0_, symObjAddr: 0x1980, symBinAddr: 0x100004654, symSize: 0x20 }
  - { offsetInCU: 0x9DFC, offset: 0x9DFC, size: 0x8, addend: 0x0, symName: __ZNSt3__118__debug_db_erase_cB7v160006INS_6vectorIiNS_9allocatorIiEEEEEEvPT_, symObjAddr: 0x1B64, symBinAddr: 0x100004838, symSize: 0x10 }
  - { offsetInCU: 0x9E2D, offset: 0x9E2D, size: 0x8, addend: 0x0, symName: __ZNSt3__110destroy_atB7v160006IiLi0EEEvPT_, symObjAddr: 0x1CAC, symBinAddr: 0x100004980, symSize: 0x24 }
  - { offsetInCU: 0x9E64, offset: 0x9E64, size: 0x8, addend: 0x0, symName: __ZNSt3__112__destroy_atB7v160006IiLi0EEEvPT_, symObjAddr: 0x1CD0, symBinAddr: 0x1000049A4, symSize: 0x10 }
  - { offsetInCU: 0x9E9B, offset: 0x9E9B, size: 0x8, addend: 0x0, symName: __ZNSt3__119__libcpp_deallocateB7v160006EPvmm, symObjAddr: 0x1D20, symBinAddr: 0x1000049F4, symSize: 0x60 }
  - { offsetInCU: 0x9F00, offset: 0x9F00, size: 0x8, addend: 0x0, symName: __ZNSt3__127__do_deallocate_handle_sizeB7v160006IJSt11align_val_tEEEvPvmDpT_, symObjAddr: 0x1D80, symBinAddr: 0x100004A54, symSize: 0x30 }
  - { offsetInCU: 0x9F53, offset: 0x9F53, size: 0x8, addend: 0x0, symName: __ZNSt3__127__do_deallocate_handle_sizeB7v160006IJEEEvPvmDpT_, symObjAddr: 0x1DB0, symBinAddr: 0x100004A84, symSize: 0x28 }
  - { offsetInCU: 0x9F91, offset: 0x9F91, size: 0x8, addend: 0x0, symName: __ZNSt3__124__libcpp_operator_deleteB7v160006IJPvSt11align_val_tEEEvDpT_, symObjAddr: 0x1DD8, symBinAddr: 0x100004AAC, symSize: 0x2C }
  - { offsetInCU: 0x9FDA, offset: 0x9FDA, size: 0x8, addend: 0x0, symName: __ZNSt3__124__libcpp_operator_deleteB7v160006IJPvEEEvDpT_, symObjAddr: 0x1E04, symBinAddr: 0x100004AD8, symSize: 0x24 }
  - { offsetInCU: 0xA58E, offset: 0xA58E, size: 0x8, addend: 0x0, symName: __ZNSt3__19use_facetB7v160006INS_5ctypeIcEEEERKT_RKNS_6localeE, symObjAddr: 0x2130, symBinAddr: 0x100004E04, symSize: 0x2C }
  - { offsetInCU: 0xA96E, offset: 0xA96E, size: 0x8, addend: 0x0, symName: __ZNSt3__125__debug_db_invalidate_allB7v160006INS_12basic_stringIcNS_11char_traitsIcEENS_9allocatorIcEEEEEEvPT_, symObjAddr: 0x240C, symBinAddr: 0x1000050E0, symSize: 0x10 }
  - { offsetInCU: 0xA9D2, offset: 0xA9D2, size: 0x8, addend: 0x0, symName: __ZNSt3__110destroy_atB7v160006INS_4pairIKNS1_IiiEEiEELi0EEEvPT_, symObjAddr: 0x2C08, symBinAddr: 0x1000058DC, symSize: 0x24 }
  - { offsetInCU: 0xAA09, offset: 0xAA09, size: 0x8, addend: 0x0, symName: __ZNSt3__112__destroy_atB7v160006INS_4pairIKNS1_IiiEEiEELi0EEEvPT_, symObjAddr: 0x2C2C, symBinAddr: 0x100005900, symSize: 0x10 }
  - { offsetInCU: 0xAA40, offset: 0xAA40, size: 0x8, addend: 0x0, symName: __ZNSt3__17launderB7v160006INS_4pairIKNS1_IiiEEiEEEEPT_S6_, symObjAddr: 0x2C60, symBinAddr: 0x100005934, symSize: 0x24 }
  - { offsetInCU: 0xAA77, offset: 0xAA77, size: 0x8, addend: 0x0, symName: __ZNSt3__19__launderB7v160006INS_4pairIKNS1_IiiEEiEEEEPT_S6_, symObjAddr: 0x2C84, symBinAddr: 0x100005958, symSize: 0x14 }
  - { offsetInCU: 0xAAFD, offset: 0xAAFD, size: 0x8, addend: 0x0, symName: __ZNSt3__116forward_as_tupleB7v160006IJNS_4pairIiiEEEEENS_5tupleIJDpOT_EEES6_, symObjAddr: 0x2E40, symBinAddr: 0x100005B14, symSize: 0x2C }
  - { offsetInCU: 0xAB36, offset: 0xAB36, size: 0x8, addend: 0x0, symName: __ZNSt3__116forward_as_tupleB7v160006IJEEENS_5tupleIJDpOT_EEES4_, symObjAddr: 0x2E6C, symBinAddr: 0x100005B40, symSize: 0x4 }
  - { offsetInCU: 0xAB5A, offset: 0xAB5A, size: 0x8, addend: 0x0, symName: __ZNSt3__1ltB7v160006ENS_15strong_orderingENS_20_CmpUnspecifiedParamE, symObjAddr: 0x34A4, symBinAddr: 0x100006178, symSize: 0x24 }
  - { offsetInCU: 0xAB93, offset: 0xAB93, size: 0x8, addend: 0x0, symName: __ZNSt3__1ssB7v160006IiiEENS_26common_comparison_categoryIJDTclL_ZNS_17__synth_three_wayB7v160006EEclsr3stdE7declvalIRT_EEclsr3stdE7declvalIS3_EEEEDTclL_ZNS_17__synth_three_wayB7v160006EEclsr3stdE7declvalIRT0_EEclsr3stdE7declvalIS6_EEEEEE4typeERKNS_4pairIS2_S5_EESD_, symObjAddr: 0x34C8, symBinAddr: 0x10000619C, symSize: 0x8C }
  - { offsetInCU: 0xADA2, offset: 0xADA2, size: 0x8, addend: 0x0, symName: __ZNSt3__1eqB7v160006ENS_15strong_orderingENS_20_CmpUnspecifiedParamE, symObjAddr: 0x35E8, symBinAddr: 0x1000062BC, symSize: 0x24 }
  - { offsetInCU: 0xADD8, offset: 0xADD8, size: 0x8, addend: 0x0, symName: __ZNSt3__17launderB7v160006IKNS_4pairIKNS1_IiiEEiEEEEPT_S7_, symObjAddr: 0x3624, symBinAddr: 0x1000062F8, symSize: 0x24 }
  - { offsetInCU: 0xAE0F, offset: 0xAE0F, size: 0x8, addend: 0x0, symName: __ZNSt3__19__launderB7v160006IKNS_4pairIKNS1_IiiEEiEEEEPT_S7_, symObjAddr: 0x3648, symBinAddr: 0x10000631C, symSize: 0x14 }
  - { offsetInCU: 0xAE89, offset: 0xAE89, size: 0x8, addend: 0x0, symName: __ZNSt3__112construct_atB7v160006INS_4pairIKNS1_IiiEEiEEJRKNS_21piecewise_construct_tENS_5tupleIJOS2_EEENS8_IJEEEEPS4_EEPT_SE_DpOT0_, symObjAddr: 0x3968, symBinAddr: 0x10000663C, symSize: 0x50 }
  - { offsetInCU: 0xAF2A, offset: 0xAF2A, size: 0x8, addend: 0x0, symName: __ZNSt3__13getB7v160006ILm0EJONS_4pairIiiEEEEERNS_13tuple_elementIXT_ENS_5tupleIJDpT0_EEEE4typeERS8_, symObjAddr: 0x3A80, symBinAddr: 0x100006754, symSize: 0x24 }
  - { offsetInCU: 0xAF6D, offset: 0xAF6D, size: 0x8, addend: 0x0, symName: __ZNSt3__127__tree_balance_after_insertB7v160006IPNS_16__tree_node_baseIPvEEEEvT_S5_, symObjAddr: 0x3B30, symBinAddr: 0x100006804, symSize: 0x32C }
  - { offsetInCU: 0xAFE9, offset: 0xAFE9, size: 0x8, addend: 0x0, symName: __ZNSt3__120__tree_is_left_childB7v160006IPNS_16__tree_node_baseIPvEEEEbT_, symObjAddr: 0x3E9C, symBinAddr: 0x100006B70, symSize: 0x2C }
  - { offsetInCU: 0xB01E, offset: 0xB01E, size: 0x8, addend: 0x0, symName: __ZNSt3__118__tree_left_rotateB7v160006IPNS_16__tree_node_baseIPvEEEEvT_, symObjAddr: 0x3EC8, symBinAddr: 0x100006B9C, symSize: 0xD8 }
  - { offsetInCU: 0xB060, offset: 0xB060, size: 0x8, addend: 0x0, symName: __ZNSt3__119__tree_right_rotateB7v160006IPNS_16__tree_node_baseIPvEEEEvT_, symObjAddr: 0x3FA0, symBinAddr: 0x100006C74, symSize: 0xCC }
  - { offsetInCU: 0xB0F9, offset: 0xB0F9, size: 0x8, addend: 0x0, symName: __ZNSt3__116__pad_and_outputB7v160006IcNS_11char_traitsIcEEEENS_19ostreambuf_iteratorIT_T0_EES6_PKS4_S8_S8_RNS_8ios_baseES4_, symObjAddr: 0x45B8, symBinAddr: 0x10000728C, symSize: 0x240 }
  - { offsetInCU: 0xB1C8, offset: 0xB1C8, size: 0x8, addend: 0x0, symName: __ZNSt3__112__to_addressB7v160006IcEEPT_S2_, symObjAddr: 0x49C0, symBinAddr: 0x100007694, symSize: 0x14 }
  - { offsetInCU: 0xB4DE, offset: 0xB4DE, size: 0x8, addend: 0x0, symName: __ZSt28__throw_bad_array_new_lengthB7v160006v, symObjAddr: 0x163C, symBinAddr: 0x100004310, symSize: 0x34 }
  - { offsetInCU: 0xE506, offset: 0xE506, size: 0x8, addend: 0x0, symName: __Z6reduceRKNSt3__14pairIiiEE, symObjAddr: 0x0, symBinAddr: 0x100002CD4, symSize: 0x70 }
  - { offsetInCU: 0xE548, offset: 0xE548, size: 0x8, addend: 0x0, symName: __ZNSt3__14pairIiiEC1B7v160006IiiLPv0EEEOT_OT0_, symObjAddr: 0xB8, symBinAddr: 0x100002D8C, symSize: 0x3C }
  - { offsetInCU: 0xE5A5, offset: 0xE5A5, size: 0x8, addend: 0x0, symName: __Z5solvev, symObjAddr: 0xF4, symBinAddr: 0x100002DC8, symSize: 0x2B4 }
  - { offsetInCU: 0xE652, offset: 0xE652, size: 0x8, addend: 0x0, symName: __ZNSt3__112basic_stringIcNS_11char_traitsIcEENS_9allocatorIcEEEC1B7v160006Ev, symObjAddr: 0x3A8, symBinAddr: 0x10000307C, symSize: 0x2C }
  - { offsetInCU: 0xE67C, offset: 0xE67C, size: 0x8, addend: 0x0, symName: __ZNSt3__13mapINS_4pairIiiEEiNS_4lessIS2_EENS_9allocatorINS1_IKS2_iEEEEEC1B7v160006Ev, symObjAddr: 0x6F0, symBinAddr: 0x1000033C4, symSize: 0x2C }
  - { offsetInCU: 0xE6A6, offset: 0xE6A6, size: 0x8, addend: 0x0, symName: __ZNSt3__16vectorIiNS_9allocatorIiEEEC1Em, symObjAddr: 0x71C, symBinAddr: 0x1000033F0, symSize: 0x34 }
  - { offsetInCU: 0xE6E1, offset: 0xE6E1, size: 0x8, addend: 0x0, symName: __ZNSt3__112basic_stringIcNS_11char_traitsIcEENS_9allocatorIcEEEixB7v160006Em, symObjAddr: 0x750, symBinAddr: 0x100003424, symSize: 0x30 }
  - { offsetInCU: 0xE716, offset: 0xE716, size: 0x8, addend: 0x0, symName: __ZNSt3__13mapINS_4pairIiiEEiNS_4lessIS2_EENS_9allocatorINS1_IKS2_iEEEEEixEOS2_, symObjAddr: 0x780, symBinAddr: 0x100003454, symSize: 0x80 }
  - { offsetInCU: 0xE74D, offset: 0xE74D, size: 0x8, addend: 0x0, symName: __ZNSt3__14pairIiiEC1B7v160006IRiS3_LPv0EEEOT_OT0_, symObjAddr: 0x800, symBinAddr: 0x1000034D4, symSize: 0x3C }
  - { offsetInCU: 0xE7AB, offset: 0xE7AB, size: 0x8, addend: 0x0, symName: __ZNSt3__16vectorIiNS_9allocatorIiEEEixB7v160006Em, symObjAddr: 0x83C, symBinAddr: 0x100003510, symSize: 0x24 }
  - { offsetInCU: 0xE7E2, offset: 0xE7E2, size: 0x8, addend: 0x0, symName: __ZNSt3__16vectorIiNS_9allocatorIiEEED1B7v160006Ev, symObjAddr: 0x894, symBinAddr: 0x100003568, symSize: 0x2C }
  - { offsetInCU: 0xE80C, offset: 0xE80C, size: 0x8, addend: 0x0, symName: __ZNSt3__13mapINS_4pairIiiEEiNS_4lessIS2_EENS_9allocatorINS1_IKS2_iEEEEED1B7v160006Ev, symObjAddr: 0x8C0, symBinAddr: 0x100003594, symSize: 0x2C }
  - { offsetInCU: 0xE836, offset: 0xE836, size: 0x8, addend: 0x0, symName: _main, symObjAddr: 0x8EC, symBinAddr: 0x1000035C0, symSize: 0x84 }
  - { offsetInCU: 0xE860, offset: 0xE860, size: 0x8, addend: 0x0, symName: __ZNSt3__19basic_iosIcNS_11char_traitsIcEEE3tieB7v160006EPNS_13basic_ostreamIcS2_EE, symObjAddr: 0x970, symBinAddr: 0x100003644, symSize: 0x2C }
  - { offsetInCU: 0xE8B0, offset: 0xE8B0, size: 0x8, addend: 0x0, symName: __ZNKSt3__18__ct_absIiiLb1EEclB7v160006Ei, symObjAddr: 0xA04, symBinAddr: 0x1000036D8, symSize: 0x8C }
  - { offsetInCU: 0xE8E4, offset: 0xE8E4, size: 0x8, addend: 0x0, symName: __ZNSt3__114numeric_limitsIiE3minB7v160006Ev, symObjAddr: 0xA90, symBinAddr: 0x100003764, symSize: 0x14 }
  - { offsetInCU: 0xE8F8, offset: 0xE8F8, size: 0x8, addend: 0x0, symName: __ZNSt3__123__libcpp_numeric_limitsIiLb1EE3minB7v160006Ev, symObjAddr: 0xAA4, symBinAddr: 0x100003778, symSize: 0x8 }
  - { offsetInCU: 0xE90C, offset: 0xE90C, size: 0x8, addend: 0x0, symName: __ZNSt3__14pairIiiEC2B7v160006IiiLPv0EEEOT_OT0_, symObjAddr: 0xAAC, symBinAddr: 0x100003780, symSize: 0x34 }
  - { offsetInCU: 0xE96A, offset: 0xE96A, size: 0x8, addend: 0x0, symName: __ZNSt3__112basic_stringIcNS_11char_traitsIcEENS_9allocatorIcEEEC2B7v160006Ev, symObjAddr: 0xAE0, symBinAddr: 0x1000037B4, symSize: 0x54 }
  - { offsetInCU: 0xE99A, offset: 0xE99A, size: 0x8, addend: 0x0, symName: __ZNSt3__117__compressed_pairINS_12basic_stringIcNS_11char_traitsIcEENS_9allocatorIcEEE5__repES5_EC1B7v160006INS_18__default_init_tagESA_EEOT_OT0_, symObjAddr: 0xB34, symBinAddr: 0x100003808, symSize: 0x3C }
  - { offsetInCU: 0xE9F2, offset: 0xE9F2, size: 0x8, addend: 0x0, symName: __ZNSt3__112basic_stringIcNS_11char_traitsIcEENS_9allocatorIcEEE14__default_initB7v160006Ev, symObjAddr: 0xB8C, symBinAddr: 0x100003860, symSize: 0x40 }
  - { offsetInCU: 0xEA18, offset: 0xEA18, size: 0x8, addend: 0x0, symName: __ZNSt3__117__compressed_pairINS_12basic_stringIcNS_11char_traitsIcEENS_9allocatorIcEEE5__repES5_EC2B7v160006INS_18__default_init_tagESA_EEOT_OT0_, symObjAddr: 0xBCC, symBinAddr: 0x1000038A0, symSize: 0x3C }
  - { offsetInCU: 0xEA70, offset: 0xEA70, size: 0x8, addend: 0x0, symName: __ZNSt3__122__compressed_pair_elemINS_12basic_stringIcNS_11char_traitsIcEENS_9allocatorIcEEE5__repELi0ELb0EEC2B7v160006ENS_18__default_init_tagE, symObjAddr: 0xC08, symBinAddr: 0x1000038DC, symSize: 0x14 }
  - { offsetInCU: 0xEAA4, offset: 0xEAA4, size: 0x8, addend: 0x0, symName: __ZNSt3__122__compressed_pair_elemINS_9allocatorIcEELi1ELb1EEC2B7v160006ENS_18__default_init_tagE, symObjAddr: 0xC1C, symBinAddr: 0x1000038F0, symSize: 0x2C }
  - { offsetInCU: 0xEAD8, offset: 0xEAD8, size: 0x8, addend: 0x0, symName: __ZNSt3__19allocatorIcEC2B7v160006Ev, symObjAddr: 0xC48, symBinAddr: 0x10000391C, symSize: 0x2C }
  - { offsetInCU: 0xEB02, offset: 0xEB02, size: 0x8, addend: 0x0, symName: __ZNSt3__116__non_trivial_ifILb1ENS_9allocatorIcEEEC2B7v160006Ev, symObjAddr: 0xC74, symBinAddr: 0x100003948, symSize: 0x14 }
  - { offsetInCU: 0xEB2C, offset: 0xEB2C, size: 0x8, addend: 0x0, symName: __ZNSt3__117__compressed_pairINS_12basic_stringIcNS_11char_traitsIcEENS_9allocatorIcEEE5__repES5_E5firstB7v160006Ev, symObjAddr: 0xC88, symBinAddr: 0x10000395C, symSize: 0x24 }
  - { offsetInCU: 0xEB52, offset: 0xEB52, size: 0x8, addend: 0x0, symName: __ZNSt3__122__compressed_pair_elemINS_12basic_stringIcNS_11char_traitsIcEENS_9allocatorIcEEE5__repELi0ELb0EE5__getB7v160006Ev, symObjAddr: 0xCAC, symBinAddr: 0x100003980, symSize: 0x14 }
  - { offsetInCU: 0xEB78, offset: 0xEB78, size: 0x8, addend: 0x0, symName: __ZNSt3__16vectorIiNS_9allocatorIiEEEC2Em, symObjAddr: 0xCC0, symBinAddr: 0x100003994, symSize: 0xE0 }
  - { offsetInCU: 0xEBCE, offset: 0xEBCE, size: 0x8, addend: 0x0, symName: __ZNSt3__117__compressed_pairIPiNS_9allocatorIiEEEC1B7v160006IDnNS_18__default_init_tagEEEOT_OT0_, symObjAddr: 0xDA0, symBinAddr: 0x100003A74, symSize: 0x3C }
  - { offsetInCU: 0xEC26, offset: 0xEC26, size: 0x8, addend: 0x0, symName: __ZNSt3__16vectorIiNS_9allocatorIiEEE16__destroy_vectorC1ERS3_, symObjAddr: 0xE1C, symBinAddr: 0x100003AF0, symSize: 0x34 }
  - { offsetInCU: 0xEC5F, offset: 0xEC5F, size: 0x8, addend: 0x0, symName: __ZNSt3__16vectorIiNS_9allocatorIiEEE11__vallocateB7v160006Em, symObjAddr: 0xE60, symBinAddr: 0x100003B34, symSize: 0xAC }
  - { offsetInCU: 0xECA3, offset: 0xECA3, size: 0x8, addend: 0x0, symName: __ZNSt3__16vectorIiNS_9allocatorIiEEE18__construct_at_endEm, symObjAddr: 0xF0C, symBinAddr: 0x100003BE0, symSize: 0xC8 }
  - { offsetInCU: 0xED15, offset: 0xED15, size: 0x8, addend: 0x0, symName: __ZNSt3__128__exception_guard_exceptionsINS_6vectorIiNS_9allocatorIiEEE16__destroy_vectorEE10__completeB7v160006Ev, symObjAddr: 0xFD4, symBinAddr: 0x100003CA8, symSize: 0x1C }
  - { offsetInCU: 0xED3B, offset: 0xED3B, size: 0x8, addend: 0x0, symName: __ZNSt3__128__exception_guard_exceptionsINS_6vectorIiNS_9allocatorIiEEE16__destroy_vectorEED1B7v160006Ev, symObjAddr: 0xFF0, symBinAddr: 0x100003CC4, symSize: 0x2C }
  - { offsetInCU: 0xED65, offset: 0xED65, size: 0x8, addend: 0x0, symName: __ZNSt3__117__compressed_pairIPiNS_9allocatorIiEEEC2B7v160006IDnNS_18__default_init_tagEEEOT_OT0_, symObjAddr: 0x101C, symBinAddr: 0x100003CF0, symSize: 0x40 }
  - { offsetInCU: 0xEDBD, offset: 0xEDBD, size: 0x8, addend: 0x0, symName: __ZNSt3__122__compressed_pair_elemIPiLi0ELb0EEC2B7v160006IDnvEEOT_, symObjAddr: 0x105C, symBinAddr: 0x100003D30, symSize: 0x1C }
  - { offsetInCU: 0xEDFF, offset: 0xEDFF, size: 0x8, addend: 0x0, symName: __ZNSt3__122__compressed_pair_elemINS_9allocatorIiEELi1ELb1EEC2B7v160006ENS_18__default_init_tagE, symObjAddr: 0x1078, symBinAddr: 0x100003D4C, symSize: 0x2C }
  - { offsetInCU: 0xEE33, offset: 0xEE33, size: 0x8, addend: 0x0, symName: __ZNSt3__19allocatorIiEC2B7v160006Ev, symObjAddr: 0x10A4, symBinAddr: 0x100003D78, symSize: 0x2C }
  - { offsetInCU: 0xEE5D, offset: 0xEE5D, size: 0x8, addend: 0x0, symName: __ZNSt3__116__non_trivial_ifILb1ENS_9allocatorIiEEEC2B7v160006Ev, symObjAddr: 0x10D0, symBinAddr: 0x100003DA4, symSize: 0x14 }
  - { offsetInCU: 0xEE87, offset: 0xEE87, size: 0x8, addend: 0x0, symName: __ZNSt3__128__exception_guard_exceptionsINS_6vectorIiNS_9allocatorIiEEE16__destroy_vectorEEC1B7v160006ES5_, symObjAddr: 0x10E4, symBinAddr: 0x100003DB8, symSize: 0x34 }
  - { offsetInCU: 0xEEBF, offset: 0xEEBF, size: 0x8, addend: 0x0, symName: __ZNSt3__128__exception_guard_exceptionsINS_6vectorIiNS_9allocatorIiEEE16__destroy_vectorEEC2B7v160006ES5_, symObjAddr: 0x1118, symBinAddr: 0x100003DEC, symSize: 0x24 }
  - { offsetInCU: 0xEEF7, offset: 0xEEF7, size: 0x8, addend: 0x0, symName: __ZNSt3__16vectorIiNS_9allocatorIiEEE16__destroy_vectorC2ERS3_, symObjAddr: 0x113C, symBinAddr: 0x100003E10, symSize: 0x20 }
  - { offsetInCU: 0xEF30, offset: 0xEF30, size: 0x8, addend: 0x0, symName: __ZNKSt3__16vectorIiNS_9allocatorIiEEE8max_sizeEv, symObjAddr: 0x115C, symBinAddr: 0x100003E30, symSize: 0x60 }
  - { offsetInCU: 0xEF58, offset: 0xEF58, size: 0x8, addend: 0x0, symName: __ZNKSt3__16vectorIiNS_9allocatorIiEEE20__throw_length_errorB7v160006Ev, symObjAddr: 0x11BC, symBinAddr: 0x100003E90, symSize: 0x1C }
  - { offsetInCU: 0xEF7E, offset: 0xEF7E, size: 0x8, addend: 0x0, symName: __ZNSt3__16vectorIiNS_9allocatorIiEEE7__allocB7v160006Ev, symObjAddr: 0x1214, symBinAddr: 0x100003EE8, symSize: 0x28 }
  - { offsetInCU: 0xEFA4, offset: 0xEFA4, size: 0x8, addend: 0x0, symName: __ZNSt3__16vectorIiNS_9allocatorIiEEE9__end_capB7v160006Ev, symObjAddr: 0x123C, symBinAddr: 0x100003F10, symSize: 0x28 }
  - { offsetInCU: 0xEFCA, offset: 0xEFCA, size: 0x8, addend: 0x0, symName: __ZNKSt3__16vectorIiNS_9allocatorIiEEE14__annotate_newB7v160006Em, symObjAddr: 0x1264, symBinAddr: 0x100003F38, symSize: 0xAC }
  - { offsetInCU: 0xF00A, offset: 0xF00A, size: 0x8, addend: 0x0, symName: __ZNSt3__116allocator_traitsINS_9allocatorIiEEE8max_sizeB7v160006IS2_vvEEmRKS2_, symObjAddr: 0x133C, symBinAddr: 0x100004010, symSize: 0x28 }
  - { offsetInCU: 0xF035, offset: 0xF035, size: 0x8, addend: 0x0, symName: __ZNKSt3__16vectorIiNS_9allocatorIiEEE7__allocB7v160006Ev, symObjAddr: 0x1364, symBinAddr: 0x100004038, symSize: 0x28 }
  - { offsetInCU: 0xF05B, offset: 0xF05B, size: 0x8, addend: 0x0, symName: __ZNSt3__114numeric_limitsIlE3maxB7v160006Ev, symObjAddr: 0x138C, symBinAddr: 0x100004060, symSize: 0x14 }
  - { offsetInCU: 0xF079, offset: 0xF079, size: 0x8, addend: 0x0, symName: __ZNKSt3__16__lessImmEclB7v160006ERKmS3_, symObjAddr: 0x13F4, symBinAddr: 0x1000040C8, symSize: 0x34 }
  - { offsetInCU: 0xF0BB, offset: 0xF0BB, size: 0x8, addend: 0x0, symName: __ZNSt3__114numeric_limitsImE3maxB7v160006Ev, symObjAddr: 0x1428, symBinAddr: 0x1000040FC, symSize: 0x14 }
  - { offsetInCU: 0xF0CF, offset: 0xF0CF, size: 0x8, addend: 0x0, symName: __ZNSt3__123__libcpp_numeric_limitsImLb1EE3maxB7v160006Ev, symObjAddr: 0x143C, symBinAddr: 0x100004110, symSize: 0x8 }
  - { offsetInCU: 0xF0E3, offset: 0xF0E3, size: 0x8, addend: 0x0, symName: __ZNKSt3__117__compressed_pairIPiNS_9allocatorIiEEE6secondB7v160006Ev, symObjAddr: 0x1444, symBinAddr: 0x100004118, symSize: 0x24 }
  - { offsetInCU: 0xF109, offset: 0xF109, size: 0x8, addend: 0x0, symName: __ZNKSt3__122__compressed_pair_elemINS_9allocatorIiEELi1ELb1EE5__getB7v160006Ev, symObjAddr: 0x1468, symBinAddr: 0x10000413C, symSize: 0x14 }
  - { offsetInCU: 0xF12F, offset: 0xF12F, size: 0x8, addend: 0x0, symName: __ZNSt3__123__libcpp_numeric_limitsIlLb1EE3maxB7v160006Ev, symObjAddr: 0x147C, symBinAddr: 0x100004150, symSize: 0x8 }
  - { offsetInCU: 0xF143, offset: 0xF143, size: 0x8, addend: 0x0, symName: __ZNSt12length_errorC1B7v160006EPKc, symObjAddr: 0x14E8, symBinAddr: 0x1000041BC, symSize: 0x34 }
  - { offsetInCU: 0xF17B, offset: 0xF17B, size: 0x8, addend: 0x0, symName: __ZNSt12length_errorC2B7v160006EPKc, symObjAddr: 0x151C, symBinAddr: 0x1000041F0, symSize: 0x4C }
  - { offsetInCU: 0xF1B3, offset: 0xF1B3, size: 0x8, addend: 0x0, symName: __ZNSt3__19allocatorIiE17allocate_at_leastB7v160006Em, symObjAddr: 0x15A4, symBinAddr: 0x100004278, symSize: 0x40 }
  - { offsetInCU: 0xF1E7, offset: 0xF1E7, size: 0x8, addend: 0x0, symName: __ZNSt3__19allocatorIiE8allocateB7v160006Em, symObjAddr: 0x15E4, symBinAddr: 0x1000042B8, symSize: 0x58 }
  - { offsetInCU: 0xF21B, offset: 0xF21B, size: 0x8, addend: 0x0, symName: __ZNSt3__117__compressed_pairIPiNS_9allocatorIiEEE6secondB7v160006Ev, symObjAddr: 0x1740, symBinAddr: 0x100004414, symSize: 0x24 }
  - { offsetInCU: 0xF241, offset: 0xF241, size: 0x8, addend: 0x0, symName: __ZNSt3__122__compressed_pair_elemINS_9allocatorIiEELi1ELb1EE5__getB7v160006Ev, symObjAddr: 0x1764, symBinAddr: 0x100004438, symSize: 0x14 }
  - { offsetInCU: 0xF267, offset: 0xF267, size: 0x8, addend: 0x0, symName: __ZNSt3__117__compressed_pairIPiNS_9allocatorIiEEE5firstB7v160006Ev, symObjAddr: 0x1778, symBinAddr: 0x10000444C, symSize: 0x24 }
  - { offsetInCU: 0xF28D, offset: 0xF28D, size: 0x8, addend: 0x0, symName: __ZNSt3__122__compressed_pair_elemIPiLi0ELb0EE5__getB7v160006Ev, symObjAddr: 0x179C, symBinAddr: 0x100004470, symSize: 0x14 }
  - { offsetInCU: 0xF2B3, offset: 0xF2B3, size: 0x8, addend: 0x0, symName: __ZNKSt3__16vectorIiNS_9allocatorIiEEE31__annotate_contiguous_containerB7v160006EPKvS5_S5_S5_, symObjAddr: 0x17B0, symBinAddr: 0x100004484, symSize: 0x20 }
  - { offsetInCU: 0xF305, offset: 0xF305, size: 0x8, addend: 0x0, symName: __ZNKSt3__16vectorIiNS_9allocatorIiEEE4dataB7v160006Ev, symObjAddr: 0x17D0, symBinAddr: 0x1000044A4, symSize: 0x28 }
  - { offsetInCU: 0xF32B, offset: 0xF32B, size: 0x8, addend: 0x0, symName: __ZNKSt3__16vectorIiNS_9allocatorIiEEE8capacityB7v160006Ev, symObjAddr: 0x17F8, symBinAddr: 0x1000044CC, symSize: 0x40 }
  - { offsetInCU: 0xF351, offset: 0xF351, size: 0x8, addend: 0x0, symName: __ZNKSt3__16vectorIiNS_9allocatorIiEEE9__end_capB7v160006Ev, symObjAddr: 0x184C, symBinAddr: 0x100004520, symSize: 0x28 }
  - { offsetInCU: 0xF377, offset: 0xF377, size: 0x8, addend: 0x0, symName: __ZNKSt3__117__compressed_pairIPiNS_9allocatorIiEEE5firstB7v160006Ev, symObjAddr: 0x1874, symBinAddr: 0x100004548, symSize: 0x24 }
  - { offsetInCU: 0xF39D, offset: 0xF39D, size: 0x8, addend: 0x0, symName: __ZNKSt3__122__compressed_pair_elemIPiLi0ELb0EE5__getB7v160006Ev, symObjAddr: 0x1898, symBinAddr: 0x10000456C, symSize: 0x14 }
  - { offsetInCU: 0xF3DE, offset: 0xF3DE, size: 0x8, addend: 0x0, symName: __ZNSt3__16vectorIiNS_9allocatorIiEEE21_ConstructTransactionC1B7v160006ERS3_m, symObjAddr: 0x18AC, symBinAddr: 0x100004580, symSize: 0x3C }
  - { offsetInCU: 0xF426, offset: 0xF426, size: 0x8, addend: 0x0, symName: __ZNSt3__116allocator_traitsINS_9allocatorIiEEE9constructB7v160006IiJEvvEEvRS2_PT_DpOT0_, symObjAddr: 0x18E8, symBinAddr: 0x1000045BC, symSize: 0x28 }
  - { offsetInCU: 0xF465, offset: 0xF465, size: 0x8, addend: 0x0, symName: __ZNSt3__16vectorIiNS_9allocatorIiEEE21_ConstructTransactionD1B7v160006Ev, symObjAddr: 0x1910, symBinAddr: 0x1000045E4, symSize: 0x2C }
  - { offsetInCU: 0xF48F, offset: 0xF48F, size: 0x8, addend: 0x0, symName: __ZNSt3__16vectorIiNS_9allocatorIiEEE21_ConstructTransactionC2B7v160006ERS3_m, symObjAddr: 0x193C, symBinAddr: 0x100004610, symSize: 0x44 }
  - { offsetInCU: 0xF4D7, offset: 0xF4D7, size: 0x8, addend: 0x0, symName: __ZNSt3__16vectorIiNS_9allocatorIiEEE21_ConstructTransactionD2B7v160006Ev, symObjAddr: 0x19A0, symBinAddr: 0x100004674, symSize: 0x20 }
  - { offsetInCU: 0xF501, offset: 0xF501, size: 0x8, addend: 0x0, symName: __ZNSt3__128__exception_guard_exceptionsINS_6vectorIiNS_9allocatorIiEEE16__destroy_vectorEED2B7v160006Ev, symObjAddr: 0x19C0, symBinAddr: 0x100004694, symSize: 0x50 }
  - { offsetInCU: 0xF52B, offset: 0xF52B, size: 0x8, addend: 0x0, symName: __ZNSt3__16vectorIiNS_9allocatorIiEEE16__destroy_vectorclB7v160006Ev, symObjAddr: 0x1A10, symBinAddr: 0x1000046E4, symSize: 0x9C }
  - { offsetInCU: 0xF551, offset: 0xF551, size: 0x8, addend: 0x0, symName: __ZNKSt3__16vectorIiNS_9allocatorIiEEE17__annotate_deleteB7v160006Ev, symObjAddr: 0x1AAC, symBinAddr: 0x100004780, symSize: 0xB8 }
  - { offsetInCU: 0xF577, offset: 0xF577, size: 0x8, addend: 0x0, symName: __ZNSt3__16vectorIiNS_9allocatorIiEEE7__clearB7v160006Ev, symObjAddr: 0x1B74, symBinAddr: 0x100004848, symSize: 0x28 }
  - { offsetInCU: 0xF59D, offset: 0xF59D, size: 0x8, addend: 0x0, symName: __ZNSt3__116allocator_traitsINS_9allocatorIiEEE10deallocateB7v160006ERS2_Pim, symObjAddr: 0x1B9C, symBinAddr: 0x100004870, symSize: 0x34 }
  - { offsetInCU: 0xF5DF, offset: 0xF5DF, size: 0x8, addend: 0x0, symName: __ZNKSt3__16vectorIiNS_9allocatorIiEEE4sizeB7v160006Ev, symObjAddr: 0x1BD0, symBinAddr: 0x1000048A4, symSize: 0x28 }
  - { offsetInCU: 0xF605, offset: 0xF605, size: 0x8, addend: 0x0, symName: __ZNSt3__16vectorIiNS_9allocatorIiEEE22__base_destruct_at_endB7v160006EPi, symObjAddr: 0x1BF8, symBinAddr: 0x1000048CC, symSize: 0x8C }
  - { offsetInCU: 0xF649, offset: 0xF649, size: 0x8, addend: 0x0, symName: __ZNSt3__116allocator_traitsINS_9allocatorIiEEE7destroyB7v160006IivvEEvRS2_PT_, symObjAddr: 0x1C84, symBinAddr: 0x100004958, symSize: 0x28 }
  - { offsetInCU: 0xF683, offset: 0xF683, size: 0x8, addend: 0x0, symName: __ZNSt3__19allocatorIiE10deallocateB7v160006EPim, symObjAddr: 0x1CE0, symBinAddr: 0x1000049B4, symSize: 0x40 }
  - { offsetInCU: 0xF6C5, offset: 0xF6C5, size: 0x8, addend: 0x0, symName: __ZNSt3__112basic_stringIcNS_11char_traitsIcEENS_9allocatorIcEEE13__get_pointerB7v160006Ev, symObjAddr: 0x1E28, symBinAddr: 0x100004AFC, symSize: 0x54 }
  - { offsetInCU: 0xF6EB, offset: 0xF6EB, size: 0x8, addend: 0x0, symName: __ZNKSt3__112basic_stringIcNS_11char_traitsIcEENS_9allocatorIcEEE9__is_longB7v160006Ev, symObjAddr: 0x1E7C, symBinAddr: 0x100004B50, symSize: 0x38 }
  - { offsetInCU: 0xF711, offset: 0xF711, size: 0x8, addend: 0x0, symName: __ZNSt3__112basic_stringIcNS_11char_traitsIcEENS_9allocatorIcEEE18__get_long_pointerB7v160006Ev, symObjAddr: 0x1EB4, symBinAddr: 0x100004B88, symSize: 0x28 }
  - { offsetInCU: 0xF737, offset: 0xF737, size: 0x8, addend: 0x0, symName: __ZNSt3__112basic_stringIcNS_11char_traitsIcEENS_9allocatorIcEEE19__get_short_pointerB7v160006Ev, symObjAddr: 0x1EDC, symBinAddr: 0x100004BB0, symSize: 0x28 }
  - { offsetInCU: 0xF75D, offset: 0xF75D, size: 0x8, addend: 0x0, symName: __ZNKSt3__117__compressed_pairINS_12basic_stringIcNS_11char_traitsIcEENS_9allocatorIcEEE5__repES5_E5firstB7v160006Ev, symObjAddr: 0x1F04, symBinAddr: 0x100004BD8, symSize: 0x24 }
  - { offsetInCU: 0xF783, offset: 0xF783, size: 0x8, addend: 0x0, symName: __ZNKSt3__122__compressed_pair_elemINS_12basic_stringIcNS_11char_traitsIcEENS_9allocatorIcEEE5__repELi0ELb0EE5__getB7v160006Ev, symObjAddr: 0x1F28, symBinAddr: 0x100004BFC, symSize: 0x14 }
  - { offsetInCU: 0xF7A9, offset: 0xF7A9, size: 0x8, addend: 0x0, symName: __ZNSt3__114pointer_traitsIPcE10pointer_toB7v160006ERc, symObjAddr: 0x1F3C, symBinAddr: 0x100004C10, symSize: 0x14 }
  - { offsetInCU: 0xF7CC, offset: 0xF7CC, size: 0x8, addend: 0x0, symName: __ZNSt3__14pairIiiEC2B7v160006IRiS3_LPv0EEEOT_OT0_, symObjAddr: 0x1F50, symBinAddr: 0x100004C24, symSize: 0x34 }
  - { offsetInCU: 0xF82A, offset: 0xF82A, size: 0x8, addend: 0x0, symName: __ZNSt3__16vectorIiNS_9allocatorIiEEED2B7v160006Ev, symObjAddr: 0x1F84, symBinAddr: 0x100004C58, symSize: 0x44 }
  - { offsetInCU: 0xF8E2, offset: 0xF8E2, size: 0x8, addend: 0x0, symName: __ZNKSt3__113basic_istreamIcNS_11char_traitsIcEEE6sentrycvbB7v160006Ev, symObjAddr: 0x1FC8, symBinAddr: 0x100004C9C, symSize: 0x1C }
  - { offsetInCU: 0xF908, offset: 0xF908, size: 0x8, addend: 0x0, symName: __ZNSt3__112basic_stringIcNS_11char_traitsIcEENS_9allocatorIcEEE5clearB7v160006Ev, symObjAddr: 0x1FE4, symBinAddr: 0x100004CB8, symSize: 0x88 }
  - { offsetInCU: 0xF930, offset: 0xF930, size: 0x8, addend: 0x0, symName: __ZNKSt3__18ios_base5widthB7v160006Ev, symObjAddr: 0x206C, symBinAddr: 0x100004D40, symSize: 0x18 }
  - { offsetInCU: 0xF958, offset: 0xF958, size: 0x8, addend: 0x0, symName: __ZNKSt3__112basic_stringIcNS_11char_traitsIcEENS_9allocatorIcEEE8max_sizeB7v160006Ev, symObjAddr: 0x2084, symBinAddr: 0x100004D58, symSize: 0xAC }
  - { offsetInCU: 0xF9AA, offset: 0xF9AA, size: 0x8, addend: 0x0, symName: __ZNKSt3__19basic_iosIcNS_11char_traitsIcEEE5rdbufB7v160006Ev, symObjAddr: 0x215C, symBinAddr: 0x100004E30, symSize: 0x24 }
  - { offsetInCU: 0xF9D2, offset: 0xF9D2, size: 0x8, addend: 0x0, symName: __ZNSt3__115basic_streambufIcNS_11char_traitsIcEEE5sgetcB7v160006Ev, symObjAddr: 0x2180, symBinAddr: 0x100004E54, symSize: 0x70 }
  - { offsetInCU: 0xF9F8, offset: 0xF9F8, size: 0x8, addend: 0x0, symName: __ZNSt3__111char_traitsIcE11eq_int_typeEii, symObjAddr: 0x21F0, symBinAddr: 0x100004EC4, symSize: 0x28 }
  - { offsetInCU: 0xFA29, offset: 0xFA29, size: 0x8, addend: 0x0, symName: __ZNSt3__111char_traitsIcE3eofEv, symObjAddr: 0x2218, symBinAddr: 0x100004EEC, symSize: 0x8 }
  - { offsetInCU: 0xFA3D, offset: 0xFA3D, size: 0x8, addend: 0x0, symName: __ZNSt3__111char_traitsIcE12to_char_typeEi, symObjAddr: 0x2220, symBinAddr: 0x100004EF4, symSize: 0x18 }
  - { offsetInCU: 0xFA8D, offset: 0xFA8D, size: 0x8, addend: 0x0, symName: __ZNKSt3__15ctypeIcE2isB7v160006Ejc, symObjAddr: 0x2238, symBinAddr: 0x100004F0C, symSize: 0x7C }
  - { offsetInCU: 0xFAD1, offset: 0xFAD1, size: 0x8, addend: 0x0, symName: __ZNSt3__115basic_streambufIcNS_11char_traitsIcEEE6sbumpcB7v160006Ev, symObjAddr: 0x22B4, symBinAddr: 0x100004F88, symSize: 0x78 }
  - { offsetInCU: 0xFAF7, offset: 0xFAF7, size: 0x8, addend: 0x0, symName: __ZNSt3__18ios_base5widthB7v160006El, symObjAddr: 0x232C, symBinAddr: 0x100005000, symSize: 0x2C }
  - { offsetInCU: 0xFB3D, offset: 0xFB3D, size: 0x8, addend: 0x0, symName: __ZNSt3__18ios_base18__setstate_nothrowB7v160006Ej, symObjAddr: 0x2358, symBinAddr: 0x10000502C, symSize: 0x64 }
  - { offsetInCU: 0xFB72, offset: 0xFB72, size: 0x8, addend: 0x0, symName: __ZNKSt3__19basic_iosIcNS_11char_traitsIcEEE10exceptionsB7v160006Ev, symObjAddr: 0x23BC, symBinAddr: 0x100005090, symSize: 0x24 }
  - { offsetInCU: 0xFB98, offset: 0xFB98, size: 0x8, addend: 0x0, symName: __ZNSt3__19basic_iosIcNS_11char_traitsIcEEE8setstateB7v160006Ej, symObjAddr: 0x23E0, symBinAddr: 0x1000050B4, symSize: 0x2C }
  - { offsetInCU: 0xFBCD, offset: 0xFBCD, size: 0x8, addend: 0x0, symName: __ZNSt3__111char_traitsIcE6assignERcRKc, symObjAddr: 0x241C, symBinAddr: 0x1000050F0, symSize: 0x24 }
  - { offsetInCU: 0xFBFE, offset: 0xFBFE, size: 0x8, addend: 0x0, symName: __ZNSt3__112basic_stringIcNS_11char_traitsIcEENS_9allocatorIcEEE15__set_long_sizeB7v160006Em, symObjAddr: 0x2440, symBinAddr: 0x100005114, symSize: 0x38 }
  - { offsetInCU: 0xFC33, offset: 0xFC33, size: 0x8, addend: 0x0, symName: __ZNSt3__112basic_stringIcNS_11char_traitsIcEENS_9allocatorIcEEE16__set_short_sizeB7v160006Em, symObjAddr: 0x2478, symBinAddr: 0x10000514C, symSize: 0x78 }
  - { offsetInCU: 0xFC73, offset: 0xFC73, size: 0x8, addend: 0x0, symName: __ZNSt3__116allocator_traitsINS_9allocatorIcEEE8max_sizeB7v160006IS2_vvEEmRKS2_, symObjAddr: 0x24F0, symBinAddr: 0x1000051C4, symSize: 0x28 }
  - { offsetInCU: 0xFC9E, offset: 0xFC9E, size: 0x8, addend: 0x0, symName: __ZNKSt3__112basic_stringIcNS_11char_traitsIcEENS_9allocatorIcEEE7__allocB7v160006Ev, symObjAddr: 0x2518, symBinAddr: 0x1000051EC, symSize: 0x24 }
  - { offsetInCU: 0xFCC4, offset: 0xFCC4, size: 0x8, addend: 0x0, symName: __ZNKSt3__117__compressed_pairINS_12basic_stringIcNS_11char_traitsIcEENS_9allocatorIcEEE5__repES5_E6secondB7v160006Ev, symObjAddr: 0x253C, symBinAddr: 0x100005210, symSize: 0x24 }
  - { offsetInCU: 0xFCEA, offset: 0xFCEA, size: 0x8, addend: 0x0, symName: __ZNKSt3__122__compressed_pair_elemINS_9allocatorIcEELi1ELb1EE5__getB7v160006Ev, symObjAddr: 0x2560, symBinAddr: 0x100005234, symSize: 0x14 }
  - { offsetInCU: 0xFD10, offset: 0xFD10, size: 0x8, addend: 0x0, symName: __ZNKSt3__18ios_base5rdbufB7v160006Ev, symObjAddr: 0x2574, symBinAddr: 0x100005248, symSize: 0x18 }
  - { offsetInCU: 0xFD36, offset: 0xFD36, size: 0x8, addend: 0x0, symName: __ZNSt3__111char_traitsIcE11to_int_typeEc, symObjAddr: 0x258C, symBinAddr: 0x100005260, symSize: 0x14 }
  - { offsetInCU: 0xFD58, offset: 0xFD58, size: 0x8, addend: 0x0, symName: __Z7isasciii, symObjAddr: 0x25A0, symBinAddr: 0x100005274, symSize: 0x24 }
  - { offsetInCU: 0xFD85, offset: 0xFD85, size: 0x8, addend: 0x0, symName: __ZNKSt3__18ios_base10exceptionsB7v160006Ev, symObjAddr: 0x25C4, symBinAddr: 0x100005298, symSize: 0x18 }
  - { offsetInCU: 0xFDAD, offset: 0xFDAD, size: 0x8, addend: 0x0, symName: __ZNSt3__18ios_base8setstateB7v160006Ej, symObjAddr: 0x25DC, symBinAddr: 0x1000052B0, symSize: 0x34 }
  - { offsetInCU: 0xFDE4, offset: 0xFDE4, size: 0x8, addend: 0x0, symName: __ZNSt3__13mapINS_4pairIiiEEiNS_4lessIS2_EENS_9allocatorINS1_IKS2_iEEEEEC2B7v160006Ev, symObjAddr: 0x2610, symBinAddr: 0x1000052E4, symSize: 0x40 }
  - { offsetInCU: 0xFE0E, offset: 0xFE0E, size: 0x8, addend: 0x0, symName: __ZNSt3__119__map_value_compareINS_4pairIiiEENS_12__value_typeIS2_iEENS_4lessIS2_EELb1EEC1B7v160006ES6_, symObjAddr: 0x2650, symBinAddr: 0x100005324, symSize: 0x2C }
  - { offsetInCU: 0xFE47, offset: 0xFE47, size: 0x8, addend: 0x0, symName: __ZNSt3__16__treeINS_12__value_typeINS_4pairIiiEEiEENS_19__map_value_compareIS3_S4_NS_4lessIS3_EELb1EEENS_9allocatorIS4_EEEC1ERKS8_, symObjAddr: 0x267C, symBinAddr: 0x100005350, symSize: 0x34 }
  - { offsetInCU: 0xFE82, offset: 0xFE82, size: 0x8, addend: 0x0, symName: __ZNSt3__119__map_value_compareINS_4pairIiiEENS_12__value_typeIS2_iEENS_4lessIS2_EELb1EEC2B7v160006ES6_, symObjAddr: 0x26B0, symBinAddr: 0x100005384, symSize: 0x14 }
  - { offsetInCU: 0xFEBB, offset: 0xFEBB, size: 0x8, addend: 0x0, symName: __ZNSt3__16__treeINS_12__value_typeINS_4pairIiiEEiEENS_19__map_value_compareIS3_S4_NS_4lessIS3_EELb1EEENS_9allocatorIS4_EEEC2ERKS8_, symObjAddr: 0x26C4, symBinAddr: 0x100005398, symSize: 0x7C }
  - { offsetInCU: 0xFEF6, offset: 0xFEF6, size: 0x8, addend: 0x0, symName: __ZNSt3__117__compressed_pairINS_15__tree_end_nodeIPNS_16__tree_node_baseIPvEEEENS_9allocatorINS_11__tree_nodeINS_12__value_typeINS_4pairIiiEEiEES3_EEEEEC1B7v160006ILb1EvEEv, symObjAddr: 0x2740, symBinAddr: 0x100005414, symSize: 0x2C }
  - { offsetInCU: 0xFF2B, offset: 0xFF2B, size: 0x8, addend: 0x0, symName: __ZNSt3__117__compressed_pairImNS_19__map_value_compareINS_4pairIiiEENS_12__value_typeIS3_iEENS_4lessIS3_EELb1EEEEC1B7v160006IiRKS8_EEOT_OT0_, symObjAddr: 0x276C, symBinAddr: 0x100005440, symSize: 0x3C }
  - { offsetInCU: 0xFF83, offset: 0xFF83, size: 0x8, addend: 0x0, symName: __ZNSt3__16__treeINS_12__value_typeINS_4pairIiiEEiEENS_19__map_value_compareIS3_S4_NS_4lessIS3_EELb1EEENS_9allocatorIS4_EEE10__end_nodeB7v160006Ev, symObjAddr: 0x27A8, symBinAddr: 0x10000547C, symSize: 0x2C }
  - { offsetInCU: 0xFFA9, offset: 0xFFA9, size: 0x8, addend: 0x0, symName: __ZNSt3__16__treeINS_12__value_typeINS_4pairIiiEEiEENS_19__map_value_compareIS3_S4_NS_4lessIS3_EELb1EEENS_9allocatorIS4_EEE12__begin_nodeB7v160006Ev, symObjAddr: 0x27D4, symBinAddr: 0x1000054A8, symSize: 0x14 }
  - { offsetInCU: 0xFFCF, offset: 0xFFCF, size: 0x8, addend: 0x0, symName: __ZNSt3__117__compressed_pairINS_15__tree_end_nodeIPNS_16__tree_node_baseIPvEEEENS_9allocatorINS_11__tree_nodeINS_12__value_typeINS_4pairIiiEEiEES3_EEEEEC2B7v160006ILb1EvEEv, symObjAddr: 0x27E8, symBinAddr: 0x1000054BC, symSize: 0x34 }
  - { offsetInCU: 0x10004, offset: 0x10004, size: 0x8, addend: 0x0, symName: __ZNSt3__122__compressed_pair_elemINS_15__tree_end_nodeIPNS_16__tree_node_baseIPvEEEELi0ELb0EEC2B7v160006ENS_16__value_init_tagE, symObjAddr: 0x281C, symBinAddr: 0x1000054F0, symSize: 0x2C }
  - { offsetInCU: 0x10038, offset: 0x10038, size: 0x8, addend: 0x0, symName: __ZNSt3__122__compressed_pair_elemINS_9allocatorINS_11__tree_nodeINS_12__value_typeINS_4pairIiiEEiEEPvEEEELi1ELb1EEC2B7v160006ENS_16__value_init_tagE, symObjAddr: 0x2848, symBinAddr: 0x10000551C, symSize: 0x2C }
  - { offsetInCU: 0x1006C, offset: 0x1006C, size: 0x8, addend: 0x0, symName: __ZNSt3__115__tree_end_nodeIPNS_16__tree_node_baseIPvEEEC1B7v160006Ev, symObjAddr: 0x2874, symBinAddr: 0x100005548, symSize: 0x2C }
  - { offsetInCU: 0x10096, offset: 0x10096, size: 0x8, addend: 0x0, symName: __ZNSt3__115__tree_end_nodeIPNS_16__tree_node_baseIPvEEEC2B7v160006Ev, symObjAddr: 0x28A0, symBinAddr: 0x100005574, symSize: 0x18 }
  - { offsetInCU: 0x100C0, offset: 0x100C0, size: 0x8, addend: 0x0, symName: __ZNSt3__19allocatorINS_11__tree_nodeINS_12__value_typeINS_4pairIiiEEiEEPvEEEC2B7v160006Ev, symObjAddr: 0x28B8, symBinAddr: 0x10000558C, symSize: 0x2C }
  - { offsetInCU: 0x100EA, offset: 0x100EA, size: 0x8, addend: 0x0, symName: __ZNSt3__116__non_trivial_ifILb1ENS_9allocatorINS_11__tree_nodeINS_12__value_typeINS_4pairIiiEEiEEPvEEEEEC2B7v160006Ev, symObjAddr: 0x28E4, symBinAddr: 0x1000055B8, symSize: 0x14 }
  - { offsetInCU: 0x10114, offset: 0x10114, size: 0x8, addend: 0x0, symName: __ZNSt3__117__compressed_pairImNS_19__map_value_compareINS_4pairIiiEENS_12__value_typeIS3_iEENS_4lessIS3_EELb1EEEEC2B7v160006IiRKS8_EEOT_OT0_, symObjAddr: 0x28F8, symBinAddr: 0x1000055CC, symSize: 0x44 }
  - { offsetInCU: 0x1016C, offset: 0x1016C, size: 0x8, addend: 0x0, symName: __ZNSt3__122__compressed_pair_elemImLi0ELb0EEC2B7v160006IivEEOT_, symObjAddr: 0x293C, symBinAddr: 0x100005610, symSize: 0x24 }
  - { offsetInCU: 0x101AE, offset: 0x101AE, size: 0x8, addend: 0x0, symName: __ZNSt3__122__compressed_pair_elemINS_19__map_value_compareINS_4pairIiiEENS_12__value_typeIS3_iEENS_4lessIS3_EELb1EEELi1ELb1EEC2B7v160006IRKS8_vEEOT_, symObjAddr: 0x2960, symBinAddr: 0x100005634, symSize: 0x18 }
  - { offsetInCU: 0x101F0, offset: 0x101F0, size: 0x8, addend: 0x0, symName: __ZNSt3__114pointer_traitsIPNS_15__tree_end_nodeIPNS_16__tree_node_baseIPvEEEEE10pointer_toB7v160006ERS6_, symObjAddr: 0x2978, symBinAddr: 0x10000564C, symSize: 0x14 }
  - { offsetInCU: 0x10213, offset: 0x10213, size: 0x8, addend: 0x0, symName: __ZNSt3__117__compressed_pairINS_15__tree_end_nodeIPNS_16__tree_node_baseIPvEEEENS_9allocatorINS_11__tree_nodeINS_12__value_typeINS_4pairIiiEEiEES3_EEEEE5firstB7v160006Ev, symObjAddr: 0x298C, symBinAddr: 0x100005660, symSize: 0x24 }
  - { offsetInCU: 0x10239, offset: 0x10239, size: 0x8, addend: 0x0, symName: __ZNSt3__122__compressed_pair_elemINS_15__tree_end_nodeIPNS_16__tree_node_baseIPvEEEELi0ELb0EE5__getB7v160006Ev, symObjAddr: 0x29B0, symBinAddr: 0x100005684, symSize: 0x14 }
  - { offsetInCU: 0x1025F, offset: 0x1025F, size: 0x8, addend: 0x0, symName: __ZNSt3__13mapINS_4pairIiiEEiNS_4lessIS2_EENS_9allocatorINS1_IKS2_iEEEEED2B7v160006Ev, symObjAddr: 0x29C4, symBinAddr: 0x100005698, symSize: 0x2C }
  - { offsetInCU: 0x10289, offset: 0x10289, size: 0x8, addend: 0x0, symName: __ZNSt3__16__treeINS_12__value_typeINS_4pairIiiEEiEENS_19__map_value_compareIS3_S4_NS_4lessIS3_EELb1EEENS_9allocatorIS4_EEED1Ev, symObjAddr: 0x29F0, symBinAddr: 0x1000056C4, symSize: 0x2C }
  - { offsetInCU: 0x102B5, offset: 0x102B5, size: 0x8, addend: 0x0, symName: __ZNSt3__16__treeINS_12__value_typeINS_4pairIiiEEiEENS_19__map_value_compareIS3_S4_NS_4lessIS3_EELb1EEENS_9allocatorIS4_EEED2Ev, symObjAddr: 0x2A1C, symBinAddr: 0x1000056F0, symSize: 0x38 }
  - { offsetInCU: 0x102E1, offset: 0x102E1, size: 0x8, addend: 0x0, symName: __ZNSt3__16__treeINS_12__value_typeINS_4pairIiiEEiEENS_19__map_value_compareIS3_S4_NS_4lessIS3_EELb1EEENS_9allocatorIS4_EEE7destroyEPNS_11__tree_nodeIS4_PvEE, symObjAddr: 0x2A54, symBinAddr: 0x100005728, symSize: 0xAC }
  - { offsetInCU: 0x1032D, offset: 0x1032D, size: 0x8, addend: 0x0, symName: __ZNKSt3__16__treeINS_12__value_typeINS_4pairIiiEEiEENS_19__map_value_compareIS3_S4_NS_4lessIS3_EELb1EEENS_9allocatorIS4_EEE6__rootB7v160006Ev, symObjAddr: 0x2B00, symBinAddr: 0x1000057D4, symSize: 0x28 }
  - { offsetInCU: 0x10353, offset: 0x10353, size: 0x8, addend: 0x0, symName: __ZNSt3__16__treeINS_12__value_typeINS_4pairIiiEEiEENS_19__map_value_compareIS3_S4_NS_4lessIS3_EELb1EEENS_9allocatorIS4_EEE12__node_allocB7v160006Ev, symObjAddr: 0x2B28, symBinAddr: 0x1000057FC, symSize: 0x28 }
  - { offsetInCU: 0x10379, offset: 0x10379, size: 0x8, addend: 0x0, symName: __ZNSt3__116allocator_traitsINS_9allocatorINS_11__tree_nodeINS_12__value_typeINS_4pairIiiEEiEEPvEEEEE7destroyB7v160006INS4_IKS5_iEEvvEEvRS9_PT_, symObjAddr: 0x2B50, symBinAddr: 0x100005824, symSize: 0x28 }
  - { offsetInCU: 0x103B3, offset: 0x103B3, size: 0x8, addend: 0x0, symName: __ZNSt3__122__tree_key_value_typesINS_12__value_typeINS_4pairIiiEEiEEE9__get_ptrB7v160006ERS4_, symObjAddr: 0x2B78, symBinAddr: 0x10000584C, symSize: 0x24 }
  - { offsetInCU: 0x103D7, offset: 0x103D7, size: 0x8, addend: 0x0, symName: __ZNSt3__116allocator_traitsINS_9allocatorINS_11__tree_nodeINS_12__value_typeINS_4pairIiiEEiEEPvEEEEE10deallocateB7v160006ERS9_PS8_m, symObjAddr: 0x2B9C, symBinAddr: 0x100005870, symSize: 0x34 }
  - { offsetInCU: 0x10419, offset: 0x10419, size: 0x8, addend: 0x0, symName: __ZNSt3__117__compressed_pairINS_15__tree_end_nodeIPNS_16__tree_node_baseIPvEEEENS_9allocatorINS_11__tree_nodeINS_12__value_typeINS_4pairIiiEEiEES3_EEEEE6secondB7v160006Ev, symObjAddr: 0x2BD0, symBinAddr: 0x1000058A4, symSize: 0x24 }
  - { offsetInCU: 0x1043F, offset: 0x1043F, size: 0x8, addend: 0x0, symName: __ZNSt3__122__compressed_pair_elemINS_9allocatorINS_11__tree_nodeINS_12__value_typeINS_4pairIiiEEiEEPvEEEELi1ELb1EE5__getB7v160006Ev, symObjAddr: 0x2BF4, symBinAddr: 0x1000058C8, symSize: 0x14 }
  - { offsetInCU: 0x10465, offset: 0x10465, size: 0x8, addend: 0x0, symName: __ZNSt3__112__value_typeINS_4pairIiiEEiE11__get_valueB7v160006Ev, symObjAddr: 0x2C3C, symBinAddr: 0x100005910, symSize: 0x24 }
  - { offsetInCU: 0x1048B, offset: 0x1048B, size: 0x8, addend: 0x0, symName: __ZNSt3__19allocatorINS_11__tree_nodeINS_12__value_typeINS_4pairIiiEEiEEPvEEE10deallocateB7v160006EPS7_m, symObjAddr: 0x2C98, symBinAddr: 0x10000596C, symSize: 0x44 }
  - { offsetInCU: 0x104CD, offset: 0x104CD, size: 0x8, addend: 0x0, symName: __ZNKSt3__16__treeINS_12__value_typeINS_4pairIiiEEiEENS_19__map_value_compareIS3_S4_NS_4lessIS3_EELb1EEENS_9allocatorIS4_EEE10__end_nodeB7v160006Ev, symObjAddr: 0x2CDC, symBinAddr: 0x1000059B0, symSize: 0x2C }
  - { offsetInCU: 0x104F3, offset: 0x104F3, size: 0x8, addend: 0x0, symName: __ZNKSt3__117__compressed_pairINS_15__tree_end_nodeIPNS_16__tree_node_baseIPvEEEENS_9allocatorINS_11__tree_nodeINS_12__value_typeINS_4pairIiiEEiEES3_EEEEE5firstB7v160006Ev, symObjAddr: 0x2D08, symBinAddr: 0x1000059DC, symSize: 0x24 }
  - { offsetInCU: 0x10519, offset: 0x10519, size: 0x8, addend: 0x0, symName: __ZNKSt3__122__compressed_pair_elemINS_15__tree_end_nodeIPNS_16__tree_node_baseIPvEEEELi0ELb0EE5__getB7v160006Ev, symObjAddr: 0x2D2C, symBinAddr: 0x100005A00, symSize: 0x14 }
  - { offsetInCU: 0x10566, offset: 0x10566, size: 0x8, addend: 0x0, symName: __ZNSt3__16__treeINS_12__value_typeINS_4pairIiiEEiEENS_19__map_value_compareIS3_S4_NS_4lessIS3_EELb1EEENS_9allocatorIS4_EEE25__emplace_unique_key_argsIS3_JRKNS_21piecewise_construct_tENS_5tupleIJOS3_EEENSG_IJEEEEEENS2_INS_15__tree_iteratorIS4_PNS_11__tree_nodeIS4_PvEElEEbEERKT_DpOT0_, symObjAddr: 0x2D40, symBinAddr: 0x100005A14, symSize: 0x100 }
  - { offsetInCU: 0x1063C, offset: 0x1063C, size: 0x8, addend: 0x0, symName: __ZNKSt3__115__tree_iteratorINS_12__value_typeINS_4pairIiiEEiEEPNS_11__tree_nodeIS4_PvEElEptB7v160006Ev, symObjAddr: 0x2E70, symBinAddr: 0x100005B44, symSize: 0x2C }
  - { offsetInCU: 0x10662, offset: 0x10662, size: 0x8, addend: 0x0, symName: __ZNSt3__16__treeINS_12__value_typeINS_4pairIiiEEiEENS_19__map_value_compareIS3_S4_NS_4lessIS3_EELb1EEENS_9allocatorIS4_EEE12__find_equalIS3_EERPNS_16__tree_node_baseIPvEERPNS_15__tree_end_nodeISG_EERKT_, symObjAddr: 0x2E9C, symBinAddr: 0x100005B70, symSize: 0x184 }
  - { offsetInCU: 0x106CF, offset: 0x106CF, size: 0x8, addend: 0x0, symName: __ZNSt3__16__treeINS_12__value_typeINS_4pairIiiEEiEENS_19__map_value_compareIS3_S4_NS_4lessIS3_EELb1EEENS_9allocatorIS4_EEE16__construct_nodeIJRKNS_21piecewise_construct_tENS_5tupleIJOS3_EEENSG_IJEEEEEENS_10unique_ptrINS_11__tree_nodeIS4_PvEENS_22__tree_node_destructorINS9_ISN_EEEEEEDpOT_, symObjAddr: 0x3020, symBinAddr: 0x100005CF4, symSize: 0x120 }
  - { offsetInCU: 0x10758, offset: 0x10758, size: 0x8, addend: 0x0, symName: __ZNSt3__16__treeINS_12__value_typeINS_4pairIiiEEiEENS_19__map_value_compareIS3_S4_NS_4lessIS3_EELb1EEENS_9allocatorIS4_EEE16__insert_node_atEPNS_15__tree_end_nodeIPNS_16__tree_node_baseIPvEEEERSG_SG_, symObjAddr: 0x3140, symBinAddr: 0x100005E14, symSize: 0xCC }
  - { offsetInCU: 0x107AD, offset: 0x107AD, size: 0x8, addend: 0x0, symName: __ZNKSt3__110unique_ptrINS_11__tree_nodeINS_12__value_typeINS_4pairIiiEEiEEPvEENS_22__tree_node_destructorINS_9allocatorIS7_EEEEE3getB7v160006Ev, symObjAddr: 0x320C, symBinAddr: 0x100005EE0, symSize: 0x28 }
  - { offsetInCU: 0x107D3, offset: 0x107D3, size: 0x8, addend: 0x0, symName: __ZNSt3__110unique_ptrINS_11__tree_nodeINS_12__value_typeINS_4pairIiiEEiEEPvEENS_22__tree_node_destructorINS_9allocatorIS7_EEEEE7releaseB7v160006Ev, symObjAddr: 0x3234, symBinAddr: 0x100005F08, symSize: 0x44 }
  - { offsetInCU: 0x10808, offset: 0x10808, size: 0x8, addend: 0x0, symName: __ZNSt3__110unique_ptrINS_11__tree_nodeINS_12__value_typeINS_4pairIiiEEiEEPvEENS_22__tree_node_destructorINS_9allocatorIS7_EEEEED1B7v160006Ev, symObjAddr: 0x3278, symBinAddr: 0x100005F4C, symSize: 0x2C }
  - { offsetInCU: 0x10832, offset: 0x10832, size: 0x8, addend: 0x0, symName: __ZNSt3__115__tree_iteratorINS_12__value_typeINS_4pairIiiEEiEEPNS_11__tree_nodeIS4_PvEElEC1B7v160006ES8_, symObjAddr: 0x32A4, symBinAddr: 0x100005F78, symSize: 0x34 }
  - { offsetInCU: 0x10871, offset: 0x10871, size: 0x8, addend: 0x0, symName: __ZNSt3__14pairINS_15__tree_iteratorINS_12__value_typeINS0_IiiEEiEEPNS_11__tree_nodeIS4_PvEElEEbEC1B7v160006IS9_RbLS6_0EEEOT_OT0_, symObjAddr: 0x32D8, symBinAddr: 0x100005FAC, symSize: 0x3C }
  - { offsetInCU: 0x108CF, offset: 0x108CF, size: 0x8, addend: 0x0, symName: __ZNKSt3__16__treeINS_12__value_typeINS_4pairIiiEEiEENS_19__map_value_compareIS3_S4_NS_4lessIS3_EELb1EEENS_9allocatorIS4_EEE10__root_ptrEv, symObjAddr: 0x3314, symBinAddr: 0x100005FE8, symSize: 0x24 }
  - { offsetInCU: 0x108F5, offset: 0x108F5, size: 0x8, addend: 0x0, symName: __ZNSt3__16__treeINS_12__value_typeINS_4pairIiiEEiEENS_19__map_value_compareIS3_S4_NS_4lessIS3_EELb1EEENS_9allocatorIS4_EEE10value_compB7v160006Ev, symObjAddr: 0x3338, symBinAddr: 0x10000600C, symSize: 0x28 }
  - { offsetInCU: 0x1091B, offset: 0x1091B, size: 0x8, addend: 0x0, symName: __ZNKSt3__119__map_value_compareINS_4pairIiiEENS_12__value_typeIS2_iEENS_4lessIS2_EELb1EEclB7v160006ERKS2_RKS4_, symObjAddr: 0x3360, symBinAddr: 0x100006034, symSize: 0x50 }
  - { offsetInCU: 0x1095F, offset: 0x1095F, size: 0x8, addend: 0x0, symName: __ZNKSt3__119__map_value_compareINS_4pairIiiEENS_12__value_typeIS2_iEENS_4lessIS2_EELb1EEclB7v160006ERKS4_RKS2_, symObjAddr: 0x33B0, symBinAddr: 0x100006084, symSize: 0x48 }
  - { offsetInCU: 0x109A3, offset: 0x109A3, size: 0x8, addend: 0x0, symName: __ZNSt3__117__compressed_pairImNS_19__map_value_compareINS_4pairIiiEENS_12__value_typeIS3_iEENS_4lessIS3_EELb1EEEE6secondB7v160006Ev, symObjAddr: 0x33F8, symBinAddr: 0x1000060CC, symSize: 0x24 }
  - { offsetInCU: 0x109C9, offset: 0x109C9, size: 0x8, addend: 0x0, symName: __ZNSt3__122__compressed_pair_elemINS_19__map_value_compareINS_4pairIiiEENS_12__value_typeIS3_iEENS_4lessIS3_EELb1EEELi1ELb1EE5__getB7v160006Ev, symObjAddr: 0x341C, symBinAddr: 0x1000060F0, symSize: 0x14 }
  - { offsetInCU: 0x109EF, offset: 0x109EF, size: 0x8, addend: 0x0, symName: __ZNKSt3__14lessINS_4pairIiiEEEclB7v160006ERKS2_S5_, symObjAddr: 0x3430, symBinAddr: 0x100006104, symSize: 0x50 }
  - { offsetInCU: 0x10A33, offset: 0x10A33, size: 0x8, addend: 0x0, symName: __ZNKSt3__112__value_typeINS_4pairIiiEEiE11__get_valueB7v160006Ev, symObjAddr: 0x3480, symBinAddr: 0x100006154, symSize: 0x24 }
  - { offsetInCU: 0x10A68, offset: 0x10A68, size: 0x8, addend: 0x0, symName: __ZNSt3__120_CmpUnspecifiedParamC1B7v160006EMS0_i, symObjAddr: 0x3554, symBinAddr: 0x100006228, symSize: 0x34 }
  - { offsetInCU: 0x10AD4, offset: 0x10AD4, size: 0x8, addend: 0x0, symName: __ZNKSt3__117__synth_three_wayMUlTyTyRKT_RKT0_E_clIiiEEDaS2_S5_, symObjAddr: 0x3588, symBinAddr: 0x10000625C, symSize: 0x60 }
  - { offsetInCU: 0x10B28, offset: 0x10B28, size: 0x8, addend: 0x0, symName: __ZNSt3__120_CmpUnspecifiedParamC2B7v160006EMS0_i, symObjAddr: 0x360C, symBinAddr: 0x1000062E0, symSize: 0x18 }
  - { offsetInCU: 0x10B5C, offset: 0x10B5C, size: 0x8, addend: 0x0, symName: __ZNSt3__116allocator_traitsINS_9allocatorINS_11__tree_nodeINS_12__value_typeINS_4pairIiiEEiEEPvEEEEE8allocateB7v160006ERS9_m, symObjAddr: 0x365C, symBinAddr: 0x100006330, symSize: 0x2C }
  - { offsetInCU: 0x10B8F, offset: 0x10B8F, size: 0x8, addend: 0x0, symName: __ZNSt3__122__tree_node_destructorINS_9allocatorINS_11__tree_nodeINS_12__value_typeINS_4pairIiiEEiEEPvEEEEEC1B7v160006ERS9_b, symObjAddr: 0x3688, symBinAddr: 0x10000635C, symSize: 0x48 }
  - { offsetInCU: 0x10BDD, offset: 0x10BDD, size: 0x8, addend: 0x0, symName: __ZNSt3__110unique_ptrINS_11__tree_nodeINS_12__value_typeINS_4pairIiiEEiEEPvEENS_22__tree_node_destructorINS_9allocatorIS7_EEEEEC1B7v160006ILb1EvEEPS7_NS_16__dependent_typeINS_27__unique_ptr_deleter_sfinaeISB_EEXT_EE20__good_rval_ref_typeE, symObjAddr: 0x36D0, symBinAddr: 0x1000063A4, symSize: 0x3C }
  - { offsetInCU: 0x10C2E, offset: 0x10C2E, size: 0x8, addend: 0x0, symName: __ZNSt3__116allocator_traitsINS_9allocatorINS_11__tree_nodeINS_12__value_typeINS_4pairIiiEEiEEPvEEEEE9constructB7v160006INS4_IKS5_iEEJRKNS_21piecewise_construct_tENS_5tupleIJOS5_EEENSH_IJEEEEvvEEvRS9_PT_DpOT0_, symObjAddr: 0x370C, symBinAddr: 0x1000063E0, symSize: 0x40 }
  - { offsetInCU: 0x10CAA, offset: 0x10CAA, size: 0x8, addend: 0x0, symName: __ZNKSt3__110unique_ptrINS_11__tree_nodeINS_12__value_typeINS_4pairIiiEEiEEPvEENS_22__tree_node_destructorINS_9allocatorIS7_EEEEEptB7v160006Ev, symObjAddr: 0x374C, symBinAddr: 0x100006420, symSize: 0x28 }
  - { offsetInCU: 0x10CD0, offset: 0x10CD0, size: 0x8, addend: 0x0, symName: __ZNSt3__110unique_ptrINS_11__tree_nodeINS_12__value_typeINS_4pairIiiEEiEEPvEENS_22__tree_node_destructorINS_9allocatorIS7_EEEEE11get_deleterB7v160006Ev, symObjAddr: 0x3774, symBinAddr: 0x100006448, symSize: 0x24 }
  - { offsetInCU: 0x10CF6, offset: 0x10CF6, size: 0x8, addend: 0x0, symName: __ZNSt3__19allocatorINS_11__tree_nodeINS_12__value_typeINS_4pairIiiEEiEEPvEEE8allocateB7v160006Em, symObjAddr: 0x3798, symBinAddr: 0x10000646C, symSize: 0x5C }
  - { offsetInCU: 0x10D35, offset: 0x10D35, size: 0x8, addend: 0x0, symName: __ZNSt3__116allocator_traitsINS_9allocatorINS_11__tree_nodeINS_12__value_typeINS_4pairIiiEEiEEPvEEEEE8max_sizeB7v160006IS9_vvEEmRKS9_, symObjAddr: 0x37F4, symBinAddr: 0x1000064C8, symSize: 0x28 }
  - { offsetInCU: 0x10D60, offset: 0x10D60, size: 0x8, addend: 0x0, symName: __ZNSt3__122__tree_node_destructorINS_9allocatorINS_11__tree_nodeINS_12__value_typeINS_4pairIiiEEiEEPvEEEEEC2B7v160006ERS9_b, symObjAddr: 0x381C, symBinAddr: 0x1000064F0, symSize: 0x38 }
  - { offsetInCU: 0x10DA8, offset: 0x10DA8, size: 0x8, addend: 0x0, symName: __ZNSt3__110unique_ptrINS_11__tree_nodeINS_12__value_typeINS_4pairIiiEEiEEPvEENS_22__tree_node_destructorINS_9allocatorIS7_EEEEEC2B7v160006ILb1EvEEPS7_NS_16__dependent_typeINS_27__unique_ptr_deleter_sfinaeISB_EEXT_EE20__good_rval_ref_typeE, symObjAddr: 0x3854, symBinAddr: 0x100006528, symSize: 0x48 }
  - { offsetInCU: 0x10DF9, offset: 0x10DF9, size: 0x8, addend: 0x0, symName: __ZNSt3__117__compressed_pairIPNS_11__tree_nodeINS_12__value_typeINS_4pairIiiEEiEEPvEENS_22__tree_node_destructorINS_9allocatorIS7_EEEEEC1B7v160006IRS8_SC_EEOT_OT0_, symObjAddr: 0x389C, symBinAddr: 0x100006570, symSize: 0x3C }
  - { offsetInCU: 0x10E51, offset: 0x10E51, size: 0x8, addend: 0x0, symName: __ZNSt3__117__compressed_pairIPNS_11__tree_nodeINS_12__value_typeINS_4pairIiiEEiEEPvEENS_22__tree_node_destructorINS_9allocatorIS7_EEEEEC2B7v160006IRS8_SC_EEOT_OT0_, symObjAddr: 0x38D8, symBinAddr: 0x1000065AC, symSize: 0x48 }
  - { offsetInCU: 0x10EA9, offset: 0x10EA9, size: 0x8, addend: 0x0, symName: __ZNSt3__122__compressed_pair_elemIPNS_11__tree_nodeINS_12__value_typeINS_4pairIiiEEiEEPvEELi0ELb0EEC2B7v160006IRS8_vEEOT_, symObjAddr: 0x3920, symBinAddr: 0x1000065F4, symSize: 0x24 }
  - { offsetInCU: 0x10EEB, offset: 0x10EEB, size: 0x8, addend: 0x0, symName: __ZNSt3__122__compressed_pair_elemINS_22__tree_node_destructorINS_9allocatorINS_11__tree_nodeINS_12__value_typeINS_4pairIiiEEiEEPvEEEEEELi1ELb0EEC2B7v160006ISB_vEEOT_, symObjAddr: 0x3944, symBinAddr: 0x100006618, symSize: 0x24 }
  - { offsetInCU: 0x10F2D, offset: 0x10F2D, size: 0x8, addend: 0x0, symName: __ZNSt3__14pairIKNS0_IiiEEiEC1B7v160006IJOS1_EJEEENS_21piecewise_construct_tENS_5tupleIJDpT_EEENS7_IJDpT0_EEE, symObjAddr: 0x39B8, symBinAddr: 0x10000668C, symSize: 0x44 }
  - { offsetInCU: 0x10F94, offset: 0x10F94, size: 0x8, addend: 0x0, symName: __ZNSt3__14pairIKNS0_IiiEEiEC1B7v160006IJOS1_EJEJLm0EEJEEENS_21piecewise_construct_tERNS_5tupleIJDpT_EEERNS7_IJDpT0_EEENS_15__tuple_indicesIJXspT1_EEEENSG_IJXspT2_EEEE, symObjAddr: 0x39FC, symBinAddr: 0x1000066D0, symSize: 0x3C }
  - { offsetInCU: 0x11021, offset: 0x11021, size: 0x8, addend: 0x0, symName: __ZNSt3__14pairIKNS0_IiiEEiEC2B7v160006IJOS1_EJEJLm0EEJEEENS_21piecewise_construct_tERNS_5tupleIJDpT_EEERNS7_IJDpT0_EEENS_15__tuple_indicesIJXspT1_EEEENSG_IJXspT2_EEEE, symObjAddr: 0x3A38, symBinAddr: 0x10000670C, symSize: 0x48 }
  - { offsetInCU: 0x110AE, offset: 0x110AE, size: 0x8, addend: 0x0, symName: __ZNSt3__112__tuple_leafILm0EONS_4pairIiiEELb0EE3getB7v160006Ev, symObjAddr: 0x3AA4, symBinAddr: 0x100006778, symSize: 0x18 }
  - { offsetInCU: 0x110D4, offset: 0x110D4, size: 0x8, addend: 0x0, symName: __ZNKSt3__117__compressed_pairIPNS_11__tree_nodeINS_12__value_typeINS_4pairIiiEEiEEPvEENS_22__tree_node_destructorINS_9allocatorIS7_EEEEE5firstB7v160006Ev, symObjAddr: 0x3ABC, symBinAddr: 0x100006790, symSize: 0x24 }
  - { offsetInCU: 0x110FA, offset: 0x110FA, size: 0x8, addend: 0x0, symName: __ZNKSt3__122__compressed_pair_elemIPNS_11__tree_nodeINS_12__value_typeINS_4pairIiiEEiEEPvEELi0ELb0EE5__getB7v160006Ev, symObjAddr: 0x3AE0, symBinAddr: 0x1000067B4, symSize: 0x14 }
  - { offsetInCU: 0x11120, offset: 0x11120, size: 0x8, addend: 0x0, symName: __ZNSt3__117__compressed_pairIPNS_11__tree_nodeINS_12__value_typeINS_4pairIiiEEiEEPvEENS_22__tree_node_destructorINS_9allocatorIS7_EEEEE6secondB7v160006Ev, symObjAddr: 0x3AF4, symBinAddr: 0x1000067C8, symSize: 0x28 }
  - { offsetInCU: 0x11146, offset: 0x11146, size: 0x8, addend: 0x0, symName: __ZNSt3__122__compressed_pair_elemINS_22__tree_node_destructorINS_9allocatorINS_11__tree_nodeINS_12__value_typeINS_4pairIiiEEiEEPvEEEEEELi1ELb0EE5__getB7v160006Ev, symObjAddr: 0x3B1C, symBinAddr: 0x1000067F0, symSize: 0x14 }
  - { offsetInCU: 0x1116C, offset: 0x1116C, size: 0x8, addend: 0x0, symName: __ZNSt3__16__treeINS_12__value_typeINS_4pairIiiEEiEENS_19__map_value_compareIS3_S4_NS_4lessIS3_EELb1EEENS_9allocatorIS4_EEE4sizeB7v160006Ev, symObjAddr: 0x3E5C, symBinAddr: 0x100006B30, symSize: 0x28 }
  - { offsetInCU: 0x11192, offset: 0x11192, size: 0x8, addend: 0x0, symName: __ZNKSt3__116__tree_node_baseIPvE15__parent_unsafeB7v160006Ev, symObjAddr: 0x3E84, symBinAddr: 0x100006B58, symSize: 0x18 }
  - { offsetInCU: 0x111B8, offset: 0x111B8, size: 0x8, addend: 0x0, symName: __ZNSt3__116__tree_node_baseIPvE12__set_parentB7v160006EPS2_, symObjAddr: 0x406C, symBinAddr: 0x100006D40, symSize: 0x20 }
  - { offsetInCU: 0x111ED, offset: 0x111ED, size: 0x8, addend: 0x0, symName: __ZNSt3__117__compressed_pairImNS_19__map_value_compareINS_4pairIiiEENS_12__value_typeIS3_iEENS_4lessIS3_EELb1EEEE5firstB7v160006Ev, symObjAddr: 0x408C, symBinAddr: 0x100006D60, symSize: 0x24 }
  - { offsetInCU: 0x11213, offset: 0x11213, size: 0x8, addend: 0x0, symName: __ZNSt3__122__compressed_pair_elemImLi0ELb0EE5__getB7v160006Ev, symObjAddr: 0x40B0, symBinAddr: 0x100006D84, symSize: 0x14 }
  - { offsetInCU: 0x11239, offset: 0x11239, size: 0x8, addend: 0x0, symName: __ZNSt3__117__compressed_pairIPNS_11__tree_nodeINS_12__value_typeINS_4pairIiiEEiEEPvEENS_22__tree_node_destructorINS_9allocatorIS7_EEEEE5firstB7v160006Ev, symObjAddr: 0x40C4, symBinAddr: 0x100006D98, symSize: 0x24 }
  - { offsetInCU: 0x1125F, offset: 0x1125F, size: 0x8, addend: 0x0, symName: __ZNSt3__122__compressed_pair_elemIPNS_11__tree_nodeINS_12__value_typeINS_4pairIiiEEiEEPvEELi0ELb0EE5__getB7v160006Ev, symObjAddr: 0x40E8, symBinAddr: 0x100006DBC, symSize: 0x14 }
  - { offsetInCU: 0x11285, offset: 0x11285, size: 0x8, addend: 0x0, symName: __ZNSt3__110unique_ptrINS_11__tree_nodeINS_12__value_typeINS_4pairIiiEEiEEPvEENS_22__tree_node_destructorINS_9allocatorIS7_EEEEED2B7v160006Ev, symObjAddr: 0x40FC, symBinAddr: 0x100006DD0, symSize: 0x30 }
  - { offsetInCU: 0x112AF, offset: 0x112AF, size: 0x8, addend: 0x0, symName: __ZNSt3__110unique_ptrINS_11__tree_nodeINS_12__value_typeINS_4pairIiiEEiEEPvEENS_22__tree_node_destructorINS_9allocatorIS7_EEEEE5resetB7v160006EPS7_, symObjAddr: 0x412C, symBinAddr: 0x100006E00, symSize: 0x78 }
  - { offsetInCU: 0x112F3, offset: 0x112F3, size: 0x8, addend: 0x0, symName: __ZNSt3__122__tree_node_destructorINS_9allocatorINS_11__tree_nodeINS_12__value_typeINS_4pairIiiEEiEEPvEEEEEclB7v160006EPS8_, symObjAddr: 0x41A4, symBinAddr: 0x100006E78, symSize: 0x98 }
  - { offsetInCU: 0x11328, offset: 0x11328, size: 0x8, addend: 0x0, symName: __ZNSt3__115__tree_iteratorINS_12__value_typeINS_4pairIiiEEiEEPNS_11__tree_nodeIS4_PvEElEC2B7v160006ES8_, symObjAddr: 0x423C, symBinAddr: 0x100006F10, symSize: 0x20 }
  - { offsetInCU: 0x11361, offset: 0x11361, size: 0x8, addend: 0x0, symName: __ZNSt3__14pairINS_15__tree_iteratorINS_12__value_typeINS0_IiiEEiEEPNS_11__tree_nodeIS4_PvEElEEbEC2B7v160006IS9_RbLS6_0EEEOT_OT0_, symObjAddr: 0x425C, symBinAddr: 0x100006F30, symSize: 0x38 }
  - { offsetInCU: 0x113BF, offset: 0x113BF, size: 0x8, addend: 0x0, symName: __ZNSt3__15tupleIJONS_4pairIiiEEEEC1B7v160006IJS2_ELi0EEEDpOT_, symObjAddr: 0x4294, symBinAddr: 0x100006F68, symSize: 0x34 }
  - { offsetInCU: 0x11409, offset: 0x11409, size: 0x8, addend: 0x0, symName: __ZNSt3__15tupleIJONS_4pairIiiEEEEC2B7v160006IJS2_ELi0EEEDpOT_, symObjAddr: 0x42C8, symBinAddr: 0x100006F9C, symSize: 0x34 }
  - { offsetInCU: 0x11453, offset: 0x11453, size: 0x8, addend: 0x0, symName: __ZNSt3__112__tuple_implINS_15__tuple_indicesIJLm0EEEEJONS_4pairIiiEEEEC1B7v160006IJLm0EEJS5_EJEJEJS4_EEENS1_IJXspT_EEEENS_13__tuple_typesIJDpT0_EEENS1_IJXspT1_EEEENS9_IJDpT2_EEEDpOT3_, symObjAddr: 0x42FC, symBinAddr: 0x100006FD0, symSize: 0x34 }
  - { offsetInCU: 0x114E4, offset: 0x114E4, size: 0x8, addend: 0x0, symName: __ZNSt3__112__tuple_implINS_15__tuple_indicesIJLm0EEEEJONS_4pairIiiEEEEC2B7v160006IJLm0EEJS5_EJEJEJS4_EEENS1_IJXspT_EEEENS_13__tuple_typesIJDpT0_EEENS1_IJXspT1_EEEENS9_IJDpT2_EEEDpOT3_, symObjAddr: 0x4330, symBinAddr: 0x100007004, symSize: 0x34 }
  - { offsetInCU: 0x11575, offset: 0x11575, size: 0x8, addend: 0x0, symName: __ZNSt3__112__tuple_leafILm0EONS_4pairIiiEELb0EEC2B7v160006IS2_vEEOT_, symObjAddr: 0x4364, symBinAddr: 0x100007038, symSize: 0x20 }
  - { offsetInCU: 0x115B8, offset: 0x115B8, size: 0x8, addend: 0x0, symName: __ZNSt3__114pointer_traitsIPNS_12__value_typeINS_4pairIiiEEiEEE10pointer_toB7v160006ERS4_, symObjAddr: 0x4384, symBinAddr: 0x100007058, symSize: 0x14 }
  - { offsetInCU: 0x115DB, offset: 0x115DB, size: 0x8, addend: 0x0, symName: __ZNKSt3__115__tree_iteratorINS_12__value_typeINS_4pairIiiEEiEEPNS_11__tree_nodeIS4_PvEElE8__get_npB7v160006Ev, symObjAddr: 0x4398, symBinAddr: 0x10000706C, symSize: 0x18 }
  - { offsetInCU: 0x1161C, offset: 0x1161C, size: 0x8, addend: 0x0, symName: __ZNKSt3__113basic_ostreamIcNS_11char_traitsIcEEE6sentrycvbB7v160006Ev, symObjAddr: 0x459C, symBinAddr: 0x100007270, symSize: 0x1C }
  - { offsetInCU: 0x11642, offset: 0x11642, size: 0x8, addend: 0x0, symName: __ZNSt3__119ostreambuf_iteratorIcNS_11char_traitsIcEEEC1B7v160006ERNS_13basic_ostreamIcS2_EE, symObjAddr: 0x47F8, symBinAddr: 0x1000074CC, symSize: 0x34 }
  - { offsetInCU: 0x1167A, offset: 0x1167A, size: 0x8, addend: 0x0, symName: __ZNKSt3__18ios_base5flagsB7v160006Ev, symObjAddr: 0x482C, symBinAddr: 0x100007500, symSize: 0x18 }
  - { offsetInCU: 0x116A2, offset: 0x116A2, size: 0x8, addend: 0x0, symName: __ZNKSt3__19basic_iosIcNS_11char_traitsIcEEE4fillB7v160006Ev, symObjAddr: 0x4844, symBinAddr: 0x100007518, symSize: 0x64 }
  - { offsetInCU: 0x116CA, offset: 0x116CA, size: 0x8, addend: 0x0, symName: __ZNKSt3__119ostreambuf_iteratorIcNS_11char_traitsIcEEE6failedB7v160006Ev, symObjAddr: 0x48A8, symBinAddr: 0x10000757C, symSize: 0x24 }
  - { offsetInCU: 0x116F0, offset: 0x116F0, size: 0x8, addend: 0x0, symName: __ZNSt3__115basic_streambufIcNS_11char_traitsIcEEE5sputnB7v160006EPKcl, symObjAddr: 0x48CC, symBinAddr: 0x1000075A0, symSize: 0x3C }
  - { offsetInCU: 0x11732, offset: 0x11732, size: 0x8, addend: 0x0, symName: __ZNSt3__112basic_stringIcNS_11char_traitsIcEENS_9allocatorIcEEEC1B7v160006Emc, symObjAddr: 0x4908, symBinAddr: 0x1000075DC, symSize: 0x3C }
  - { offsetInCU: 0x1177A, offset: 0x1177A, size: 0x8, addend: 0x0, symName: __ZNSt3__112basic_stringIcNS_11char_traitsIcEENS_9allocatorIcEEE4dataB7v160006Ev, symObjAddr: 0x4944, symBinAddr: 0x100007618, symSize: 0x28 }
  - { offsetInCU: 0x117A0, offset: 0x117A0, size: 0x8, addend: 0x0, symName: __ZNSt3__112basic_stringIcNS_11char_traitsIcEENS_9allocatorIcEEEC2B7v160006Emc, symObjAddr: 0x496C, symBinAddr: 0x100007640, symSize: 0x54 }
  - { offsetInCU: 0x117E8, offset: 0x117E8, size: 0x8, addend: 0x0, symName: __ZNSt3__119ostreambuf_iteratorIcNS_11char_traitsIcEEEC2B7v160006ERNS_13basic_ostreamIcS2_EE, symObjAddr: 0x49D4, symBinAddr: 0x1000076A8, symSize: 0x54 }
  - { offsetInCU: 0x11820, offset: 0x11820, size: 0x8, addend: 0x0, symName: __ZNKSt3__19basic_iosIcNS_11char_traitsIcEEE5widenB7v160006Ec, symObjAddr: 0x4A28, symBinAddr: 0x1000076FC, symSize: 0x84 }
  - { offsetInCU: 0x11857, offset: 0x11857, size: 0x8, addend: 0x0, symName: __ZNKSt3__15ctypeIcE5widenB7v160006Ec, symObjAddr: 0x4AAC, symBinAddr: 0x100007780, symSize: 0x38 }
...
