---
triple:          'arm64-apple-darwin'
binary-path:     '/Users/rohakdebnath/Desktop/Cpp /CSES/primemultiples'
relocations:
  - { offsetInCU: 0x37, offset: 0x37, size: 0x8, addend: 0x0, symName: _N, symObjAddr: 0x2AC08, symBinAddr: 0x10000C000, symSize: 0x0 }
  - { offsetInCU: 0x5E, offset: 0x5E, size: 0x8, addend: 0x0, symName: _K, symObjAddr: 0x2AC10, symBinAddr: 0x10000C008, symSize: 0x0 }
  - { offsetInCU: 0x73, offset: 0x73, size: 0x8, addend: 0x0, symName: _A, symObjAddr: 0x2AC18, symBinAddr: 0x10000C010, symSize: 0x0 }
  - { offsetInCU: 0x535E, offset: 0x535E, size: 0x8, addend: 0x0, symName: __ZNSt3__17advanceB7v160006IPxllvEEvRT_T0_, symObjAddr: 0x1D88, symBinAddr: 0x100005644, symSize: 0x50 }
  - { offsetInCU: 0x53C9, offset: 0x53C9, size: 0x8, addend: 0x0, symName: __ZNSt3__124__put_character_sequenceB7v160006IcNS_11char_traitsIcEEEERNS_13basic_ostreamIT_T0_EES7_PKS4_m, symObjAddr: 0x349C, symBinAddr: 0x100006D58, symSize: 0x1EC }
  - { offsetInCU: 0x7212, offset: 0x7212, size: 0x8, addend: 0x0, symName: __ZNSt3__1neB7v160006IPxEEbRKNS_11__wrap_iterIT_EES6_, symObjAddr: 0x294, symBinAddr: 0x100003B50, symSize: 0x34 }
  - { offsetInCU: 0x7255, offset: 0x7255, size: 0x8, addend: 0x0, symName: __ZNSt3__1lsB7v160006INS_11char_traitsIcEEEERNS_13basic_ostreamIcT_EES6_c, symObjAddr: 0x630, symBinAddr: 0x100003EEC, symSize: 0x34 }
  - { offsetInCU: 0x729B, offset: 0x729B, size: 0x8, addend: 0x0, symName: __ZNSt3__118__debug_db_erase_cB7v160006INS_6vectorIxNS_9allocatorIxEEEEEEvPT_, symObjAddr: 0x85C, symBinAddr: 0x100004118, symSize: 0x10 }
  - { offsetInCU: 0x72CC, offset: 0x72CC, size: 0x8, addend: 0x0, symName: __ZNSt3__112__to_addressB7v160006IxEEPT_S2_, symObjAddr: 0x9A0, symBinAddr: 0x10000425C, symSize: 0x14 }
  - { offsetInCU: 0x7301, offset: 0x7301, size: 0x8, addend: 0x0, symName: __ZNSt3__110destroy_atB7v160006IxLi0EEEvPT_, symObjAddr: 0xA68, symBinAddr: 0x100004324, symSize: 0x24 }
  - { offsetInCU: 0x7338, offset: 0x7338, size: 0x8, addend: 0x0, symName: __ZNSt3__112__destroy_atB7v160006IxLi0EEEvPT_, symObjAddr: 0xA8C, symBinAddr: 0x100004348, symSize: 0x10 }
  - { offsetInCU: 0x736F, offset: 0x736F, size: 0x8, addend: 0x0, symName: __ZNSt3__119__libcpp_deallocateB7v160006EPvmm, symObjAddr: 0xADC, symBinAddr: 0x100004398, symSize: 0x60 }
  - { offsetInCU: 0x73D4, offset: 0x73D4, size: 0x8, addend: 0x0, symName: __ZNSt3__124__is_overaligned_for_newB7v160006Em, symObjAddr: 0xB3C, symBinAddr: 0x1000043F8, symSize: 0x20 }
  - { offsetInCU: 0x7402, offset: 0x7402, size: 0x8, addend: 0x0, symName: __ZNSt3__127__do_deallocate_handle_sizeB7v160006IJSt11align_val_tEEEvPvmDpT_, symObjAddr: 0xB5C, symBinAddr: 0x100004418, symSize: 0x30 }
  - { offsetInCU: 0x7455, offset: 0x7455, size: 0x8, addend: 0x0, symName: __ZNSt3__127__do_deallocate_handle_sizeB7v160006IJEEEvPvmDpT_, symObjAddr: 0xB8C, symBinAddr: 0x100004448, symSize: 0x28 }
  - { offsetInCU: 0x7493, offset: 0x7493, size: 0x8, addend: 0x0, symName: __ZNSt3__124__libcpp_operator_deleteB7v160006IJPvSt11align_val_tEEEvDpT_, symObjAddr: 0xBB4, symBinAddr: 0x100004470, symSize: 0x2C }
  - { offsetInCU: 0x74DC, offset: 0x74DC, size: 0x8, addend: 0x0, symName: __ZNSt3__124__libcpp_operator_deleteB7v160006IJPvEEEvDpT_, symObjAddr: 0xBE0, symBinAddr: 0x10000449C, symSize: 0x24 }
  - { offsetInCU: 0x7511, offset: 0x7511, size: 0x8, addend: 0x0, symName: __ZNSt3__1eqB7v160006IPxEEbRKNS_11__wrap_iterIT_EES6_, symObjAddr: 0xD30, symBinAddr: 0x1000045EC, symSize: 0x48 }
  - { offsetInCU: 0x7554, offset: 0x7554, size: 0x8, addend: 0x0, symName: __ZNSt3__122__make_exception_guardB7v160006INS_6vectorIxNS_9allocatorIxEEE16__destroy_vectorEEENS_28__exception_guard_exceptionsIT_EES7_, symObjAddr: 0xF18, symBinAddr: 0x1000047D4, symSize: 0x40 }
  - { offsetInCU: 0x7589, offset: 0x7589, size: 0x8, addend: 0x0, symName: __ZNSt3__119__debug_db_insert_cB7v160006INS_6vectorIxNS_9allocatorIxEEEEEEvPT_, symObjAddr: 0xF58, symBinAddr: 0x100004814, symSize: 0x10 }
  - { offsetInCU: 0x75BA, offset: 0x75BA, size: 0x8, addend: 0x0, symName: __ZNSt3__119__allocate_at_leastB7v160006INS_9allocatorIxEEEEDaRT_m, symObjAddr: 0x126C, symBinAddr: 0x100004B28, symSize: 0x3C }
  - { offsetInCU: 0x75FD, offset: 0x75FD, size: 0x8, addend: 0x0, symName: __ZNSt3__13minB7v160006ImEERKT_S3_S3_, symObjAddr: 0x137C, symBinAddr: 0x100004C38, symSize: 0x2C }
  - { offsetInCU: 0x782A, offset: 0x782A, size: 0x8, addend: 0x0, symName: __ZNSt3__13minB7v160006ImNS_6__lessImmEEEERKT_S5_S5_T0_, symObjAddr: 0x13E4, symBinAddr: 0x100004CA0, symSize: 0x54 }
  - { offsetInCU: 0x7AAB, offset: 0x7AAB, size: 0x8, addend: 0x0, symName: __ZNSt3__120__throw_length_errorB7v160006EPKc, symObjAddr: 0x1490, symBinAddr: 0x100004D4C, symSize: 0x64 }
  - { offsetInCU: 0x7AD3, offset: 0x7AD3, size: 0x8, addend: 0x0, symName: __ZNSt3__117allocate_at_leastB7v160006INS_9allocatorIxEEEENS_17allocation_resultINS_16allocator_traitsIT_E7pointerEEERS5_m, symObjAddr: 0x1574, symBinAddr: 0x100004E30, symSize: 0x3C }
  - { offsetInCU: 0x7B16, offset: 0x7B16, size: 0x8, addend: 0x0, symName: __ZNSt3__117__libcpp_allocateB7v160006Emm, symObjAddr: 0x167C, symBinAddr: 0x100004F38, symSize: 0x60 }
  - { offsetInCU: 0x7B70, offset: 0x7B70, size: 0x8, addend: 0x0, symName: __ZNSt3__121__libcpp_operator_newB7v160006IJmSt11align_val_tEEEPvDpT_, symObjAddr: 0x16DC, symBinAddr: 0x100004F98, symSize: 0x2C }
  - { offsetInCU: 0x7BBD, offset: 0x7BBD, size: 0x8, addend: 0x0, symName: __ZNSt3__121__libcpp_operator_newB7v160006IJmEEEPvDpT_, symObjAddr: 0x1708, symBinAddr: 0x100004FC4, symSize: 0x24 }
  - { offsetInCU: 0x7BF6, offset: 0x7BF6, size: 0x8, addend: 0x0, symName: __ZNSt3__130__uninitialized_allocator_copyB7v160006INS_9allocatorIxEEPxS3_S3_EET2_RT_T0_T1_S4_, symObjAddr: 0x17A0, symBinAddr: 0x10000505C, symSize: 0xF4 }
  - { offsetInCU: 0x7C94, offset: 0x7C94, size: 0x8, addend: 0x0, symName: __ZNSt3__122__make_exception_guardB7v160006INS_29_AllocatorDestroyRangeReverseINS_9allocatorIxEEPxEEEENS_28__exception_guard_exceptionsIT_EES7_, symObjAddr: 0x1904, symBinAddr: 0x1000051C0, symSize: 0x4C }
  - { offsetInCU: 0x7CEF, offset: 0x7CEF, size: 0x8, addend: 0x0, symName: __ZNSt3__112construct_atB7v160006IxJRxEPxEEPT_S4_DpOT0_, symObjAddr: 0x1AA8, symBinAddr: 0x100005364, symSize: 0x2C }
  - { offsetInCU: 0x7D5F, offset: 0x7D5F, size: 0x8, addend: 0x0, symName: __ZNSt3__119__allocator_destroyB7v160006INS_9allocatorIxEENS_16reverse_iteratorIPxEES5_EEvRT_T0_T1_, symObjAddr: 0x1B8C, symBinAddr: 0x100005448, symSize: 0x70 }
  - { offsetInCU: 0x7DC2, offset: 0x7DC2, size: 0x8, addend: 0x0, symName: __ZNSt3__1neB7v160006IPxS1_EEbRKNS_16reverse_iteratorIT_EERKNS2_IT0_EE, symObjAddr: 0x1C30, symBinAddr: 0x1000054EC, symSize: 0x48 }
  - { offsetInCU: 0x7E0E, offset: 0x7E0E, size: 0x8, addend: 0x0, symName: __ZNSt3__112__to_addressB7v160006INS_16reverse_iteratorIPxEEvEENS_5decayIDTclsr19__to_address_helperIT_EE6__callclsr3stdE7declvalIRKS5_EEEEE4typeES7_, symObjAddr: 0x1C78, symBinAddr: 0x100005534, symSize: 0x24 }
  - { offsetInCU: 0x7E6D, offset: 0x7E6D, size: 0x8, addend: 0x0, symName: __ZNSt3__14prevB7v160006IPxEENS_9enable_ifIXsr25__is_cpp17_input_iteratorIT_EE5valueES3_E4typeES3_NS_15iterator_traitsIS3_E15difference_typeE, symObjAddr: 0x1D38, symBinAddr: 0x1000055F4, symSize: 0x50 }
  - { offsetInCU: 0x7EB0, offset: 0x7EB0, size: 0x8, addend: 0x0, symName: __ZNSt3__121__convert_to_integralB7v160006El, symObjAddr: 0x1DD8, symBinAddr: 0x100005694, symSize: 0x14 }
  - { offsetInCU: 0x7EDC, offset: 0x7EDC, size: 0x8, addend: 0x0, symName: __ZNSt3__19__advanceB7v160006IPxEEvRT_NS_15iterator_traitsIS2_E15difference_typeENS_26random_access_iterator_tagE, symObjAddr: 0x1DEC, symBinAddr: 0x1000056A8, symSize: 0x28 }
  - { offsetInCU: 0x7F25, offset: 0x7F25, size: 0x8, addend: 0x0, symName: __ZNSt3__112construct_atB7v160006IxJRKxEPxEEPT_S5_DpOT0_, symObjAddr: 0x2044, symBinAddr: 0x100005900, symSize: 0x2C }
  - { offsetInCU: 0x7F95, offset: 0x7F95, size: 0x8, addend: 0x0, symName: __ZNSt3__13maxB7v160006ImEERKT_S3_S3_, symObjAddr: 0x22AC, symBinAddr: 0x100005B68, symSize: 0x2C }
  - { offsetInCU: 0x7FD8, offset: 0x7FD8, size: 0x8, addend: 0x0, symName: __ZNSt3__13maxB7v160006ImNS_6__lessImmEEEERKT_S5_S5_T0_, symObjAddr: 0x22D8, symBinAddr: 0x100005B94, symSize: 0x54 }
  - { offsetInCU: 0x8032, offset: 0x8032, size: 0x8, addend: 0x0, symName: __ZNSt3__142__uninitialized_allocator_move_if_noexceptB7v160006INS_9allocatorIxEENS_16reverse_iteratorIPxEES5_xvEET1_RT_T0_S9_S6_, symObjAddr: 0x2558, symBinAddr: 0x100005E14, symSize: 0x78 }
  - { offsetInCU: 0x80AF, offset: 0x80AF, size: 0x8, addend: 0x0, symName: __ZNSt3__14swapB7v160006IPxEENS_9enable_ifIXaasr21is_move_constructibleIT_EE5valuesr18is_move_assignableIS3_EE5valueEvE4typeERS3_S6_, symObjAddr: 0x25D0, symBinAddr: 0x100005E8C, symSize: 0x3C }
  - { offsetInCU: 0x8100, offset: 0x8100, size: 0x8, addend: 0x0, symName: __ZNSt3__125__debug_db_invalidate_allB7v160006INS_6vectorIxNS_9allocatorIxEEEEEEvPT_, symObjAddr: 0x260C, symBinAddr: 0x100005EC8, symSize: 0x10 }
  - { offsetInCU: 0x8131, offset: 0x8131, size: 0x8, addend: 0x0, symName: __ZNSt3__14moveB7v160006INS_16reverse_iteratorIPxEES3_EET0_T_S5_S4_, symObjAddr: 0x261C, symBinAddr: 0x100005ED8, symSize: 0x78 }
  - { offsetInCU: 0x818B, offset: 0x818B, size: 0x8, addend: 0x0, symName: __ZNSt3__16__moveB7v160006INS_17_ClassicAlgPolicyENS_16reverse_iteratorIPxEES4_S4_EENS_4pairIT0_T2_EES6_T1_S7_, symObjAddr: 0x2694, symBinAddr: 0x100005F50, symSize: 0x64 }
  - { offsetInCU: 0x81F7, offset: 0x81F7, size: 0x8, addend: 0x0, symName: __ZNSt3__123__dispatch_copy_or_moveB7v160006INS_17_ClassicAlgPolicyENS_11__move_loopIS1_EENS_14__move_trivialENS_16reverse_iteratorIPxEES7_S7_EENS_4pairIT2_T4_EES9_T3_SA_, symObjAddr: 0x26F8, symBinAddr: 0x100005FB4, symSize: 0x64 }
  - { offsetInCU: 0x8275, offset: 0x8275, size: 0x8, addend: 0x0, symName: __ZNSt3__121__unwrap_and_dispatchB7v160006INS_10__overloadINS_11__move_loopINS_17_ClassicAlgPolicyEEENS_14__move_trivialEEENS_16reverse_iteratorIPxEES9_S9_Li0EEENS_4pairIT0_T2_EESB_T1_SC_, symObjAddr: 0x275C, symBinAddr: 0x100006018, symSize: 0x12C }
  - { offsetInCU: 0x8305, offset: 0x8305, size: 0x8, addend: 0x0, symName: __ZNSt3__114__unwrap_rangeB7v160006INS_16reverse_iteratorIPxEES3_EEDaT_T0_, symObjAddr: 0x2888, symBinAddr: 0x100006144, symSize: 0x4C }
  - { offsetInCU: 0x84CD, offset: 0x84CD, size: 0x8, addend: 0x0, symName: __ZNSt3__113__unwrap_iterB7v160006INS_16reverse_iteratorIPxEENS_18__unwrap_iter_implIS3_Lb0EEELi0EEEDTclsrT0_8__unwrapclsr3stdE7declvalIT_EEEES7_, symObjAddr: 0x2974, symBinAddr: 0x100006230, symSize: 0x44 }
  - { offsetInCU: 0x8511, offset: 0x8511, size: 0x8, addend: 0x0, symName: __ZNSt3__19make_pairB7v160006INS_16reverse_iteratorIPxEES3_EENS_4pairINS_18__unwrap_ref_decayIT_E4typeENS5_IT0_E4typeEEEOS6_OS9_, symObjAddr: 0x29B8, symBinAddr: 0x100006274, symSize: 0x38 }
  - { offsetInCU: 0x8560, offset: 0x8560, size: 0x8, addend: 0x0, symName: __ZNSt3__114__rewrap_rangeB7v160006INS_16reverse_iteratorIPxEES3_S3_EET0_S4_T1_, symObjAddr: 0x29F0, symBinAddr: 0x1000062AC, symSize: 0x5C }
  - { offsetInCU: 0x85B5, offset: 0x85B5, size: 0x8, addend: 0x0, symName: __ZNSt3__113__rewrap_iterB7v160006INS_16reverse_iteratorIPxEES3_NS_18__unwrap_iter_implIS3_Lb0EEEEET_S6_T0_, symObjAddr: 0x2A4C, symBinAddr: 0x100006308, symSize: 0x74 }
  - { offsetInCU: 0x870C, offset: 0x870C, size: 0x8, addend: 0x0, symName: __ZNSt3__112construct_atB7v160006IxJEPxEEPT_S3_DpOT0_, symObjAddr: 0x3274, symBinAddr: 0x100006B30, symSize: 0x20 }
  - { offsetInCU: 0x8768, offset: 0x8768, size: 0x8, addend: 0x0, symName: __ZNSt3__116__pad_and_outputB7v160006IcNS_11char_traitsIcEEEENS_19ostreambuf_iteratorIT_T0_EES6_PKS4_S8_S8_RNS_8ios_baseES4_, symObjAddr: 0x36A4, symBinAddr: 0x100006F60, symSize: 0x240 }
  - { offsetInCU: 0x8837, offset: 0x8837, size: 0x8, addend: 0x0, symName: __ZNSt3__119__debug_db_insert_cB7v160006INS_12basic_stringIcNS_11char_traitsIcEENS_9allocatorIcEEEEEEvPT_, symObjAddr: 0x3B58, symBinAddr: 0x100007414, symSize: 0x10 }
  - { offsetInCU: 0x8868, offset: 0x8868, size: 0x8, addend: 0x0, symName: __ZNSt3__112__to_addressB7v160006IcEEPT_S2_, symObjAddr: 0x3C24, symBinAddr: 0x1000074E0, symSize: 0x14 }
  - { offsetInCU: 0x889D, offset: 0x889D, size: 0x8, addend: 0x0, symName: __ZNSt3__19use_facetB7v160006INS_5ctypeIcEEEERKT_RKNS_6localeE, symObjAddr: 0x3EDC, symBinAddr: 0x100007798, symSize: 0x2C }
  - { offsetInCU: 0x9093, offset: 0x9093, size: 0x8, addend: 0x0, symName: __ZSt28__throw_bad_array_new_lengthB7v160006v, symObjAddr: 0x1648, symBinAddr: 0x100004F04, symSize: 0x34 }
  - { offsetInCU: 0x95FA, offset: 0x95FA, size: 0x8, addend: 0x0, symName: __ZNSt3__16vectorIxNS_9allocatorIxEEE26__swap_out_circular_bufferERNS_14__split_bufferIxRS2_EE, symObjAddr: 0x2168, symBinAddr: 0x100005A24, symSize: 0x118 }
  - { offsetInCU: 0xBD0F, offset: 0xBD0F, size: 0x8, addend: 0x0, symName: __ZNSt3__16vectorIxNS_9allocatorIxEEED1B7v160006Ev, symObjAddr: 0x0, symBinAddr: 0x1000038BC, symSize: 0x2C }
  - { offsetInCU: 0xBD38, offset: 0xBD38, size: 0x8, addend: 0x0, symName: __Z6incexcxxNSt3__16vectorIxNS_9allocatorIxEEEE, symObjAddr: 0x2C, symBinAddr: 0x1000038E8, symSize: 0x208 }
  - { offsetInCU: 0xBDFF, offset: 0xBDFF, size: 0x8, addend: 0x0, symName: __ZNSt3__16vectorIxNS_9allocatorIxEEE5beginB7v160006Ev, symObjAddr: 0x234, symBinAddr: 0x100003AF0, symSize: 0x30 }
  - { offsetInCU: 0xBE27, offset: 0xBE27, size: 0x8, addend: 0x0, symName: __ZNSt3__16vectorIxNS_9allocatorIxEEE3endB7v160006Ev, symObjAddr: 0x264, symBinAddr: 0x100003B20, symSize: 0x30 }
  - { offsetInCU: 0xBE4F, offset: 0xBE4F, size: 0x8, addend: 0x0, symName: __ZNKSt3__111__wrap_iterIPxEdeB7v160006Ev, symObjAddr: 0x2C8, symBinAddr: 0x100003B84, symSize: 0x18 }
  - { offsetInCU: 0xBE75, offset: 0xBE75, size: 0x8, addend: 0x0, symName: __ZNSt3__111__wrap_iterIPxEppB7v160006Ev, symObjAddr: 0x2E0, symBinAddr: 0x100003B9C, symSize: 0x20 }
  - { offsetInCU: 0xBE9B, offset: 0xBE9B, size: 0x8, addend: 0x0, symName: __ZNSt3__16vectorIxNS_9allocatorIxEEEC1ERKS3_, symObjAddr: 0x300, symBinAddr: 0x100003BBC, symSize: 0x34 }
  - { offsetInCU: 0xBED6, offset: 0xBED6, size: 0x8, addend: 0x0, symName: __ZNSt3__16vectorIxNS_9allocatorIxEEE9push_backB7v160006ERKx, symObjAddr: 0x334, symBinAddr: 0x100003BF0, symSize: 0x6C }
  - { offsetInCU: 0xBF0D, offset: 0xBF0D, size: 0x8, addend: 0x0, symName: __ZNSt3__16vectorIxNS_9allocatorIxEEEixB7v160006Em, symObjAddr: 0x3A0, symBinAddr: 0x100003C5C, symSize: 0x24 }
  - { offsetInCU: 0xBF44, offset: 0xBF44, size: 0x8, addend: 0x0, symName: __ZNSt3__16vectorIxNS_9allocatorIxEEE8pop_backEv, symObjAddr: 0x3C4, symBinAddr: 0x100003C80, symSize: 0x2C }
  - { offsetInCU: 0xBF6C, offset: 0xBF6C, size: 0x8, addend: 0x0, symName: _main, symObjAddr: 0x3F0, symBinAddr: 0x100003CAC, symSize: 0x154 }
  - { offsetInCU: 0xBFB1, offset: 0xBFB1, size: 0x8, addend: 0x0, symName: __ZNSt3__19basic_iosIcNS_11char_traitsIcEEE3tieB7v160006EPNS_13basic_ostreamIcS2_EE, symObjAddr: 0x544, symBinAddr: 0x100003E00, symSize: 0x2C }
  - { offsetInCU: 0xBFF7, offset: 0xBFF7, size: 0x8, addend: 0x0, symName: __ZNSt3__16vectorIxNS_9allocatorIxEEE6resizeEm, symObjAddr: 0x570, symBinAddr: 0x100003E2C, symSize: 0x94 }
  - { offsetInCU: 0xC03D, offset: 0xC03D, size: 0x8, addend: 0x0, symName: __ZNSt3__16vectorIxNS_9allocatorIxEEEC1B7v160006Ev, symObjAddr: 0x604, symBinAddr: 0x100003EC0, symSize: 0x2C }
  - { offsetInCU: 0xC067, offset: 0xC067, size: 0x8, addend: 0x0, symName: __ZNSt3__16vectorIxNS_9allocatorIxEEED2B7v160006Ev, symObjAddr: 0x664, symBinAddr: 0x100003F20, symSize: 0x44 }
  - { offsetInCU: 0xC091, offset: 0xC091, size: 0x8, addend: 0x0, symName: __ZNSt3__16vectorIxNS_9allocatorIxEEE16__destroy_vectorC1ERS3_, symObjAddr: 0x6A8, symBinAddr: 0x100003F64, symSize: 0x34 }
  - { offsetInCU: 0xC0CA, offset: 0xC0CA, size: 0x8, addend: 0x0, symName: __ZNSt3__16vectorIxNS_9allocatorIxEEE16__destroy_vectorclB7v160006Ev, symObjAddr: 0x6E8, symBinAddr: 0x100003FA4, symSize: 0x9C }
  - { offsetInCU: 0xC0F0, offset: 0xC0F0, size: 0x8, addend: 0x0, symName: __ZNSt3__16vectorIxNS_9allocatorIxEEE16__destroy_vectorC2ERS3_, symObjAddr: 0x784, symBinAddr: 0x100004040, symSize: 0x20 }
  - { offsetInCU: 0xC129, offset: 0xC129, size: 0x8, addend: 0x0, symName: __ZNKSt3__16vectorIxNS_9allocatorIxEEE17__annotate_deleteB7v160006Ev, symObjAddr: 0x7A4, symBinAddr: 0x100004060, symSize: 0xB8 }
  - { offsetInCU: 0xC14F, offset: 0xC14F, size: 0x8, addend: 0x0, symName: __ZNSt3__16vectorIxNS_9allocatorIxEEE7__clearB7v160006Ev, symObjAddr: 0x86C, symBinAddr: 0x100004128, symSize: 0x28 }
  - { offsetInCU: 0xC175, offset: 0xC175, size: 0x8, addend: 0x0, symName: __ZNSt3__116allocator_traitsINS_9allocatorIxEEE10deallocateB7v160006ERS2_Pxm, symObjAddr: 0x894, symBinAddr: 0x100004150, symSize: 0x34 }
  - { offsetInCU: 0xC1B7, offset: 0xC1B7, size: 0x8, addend: 0x0, symName: __ZNSt3__16vectorIxNS_9allocatorIxEEE7__allocB7v160006Ev, symObjAddr: 0x8C8, symBinAddr: 0x100004184, symSize: 0x28 }
  - { offsetInCU: 0xC1DD, offset: 0xC1DD, size: 0x8, addend: 0x0, symName: __ZNKSt3__16vectorIxNS_9allocatorIxEEE8capacityB7v160006Ev, symObjAddr: 0x8F0, symBinAddr: 0x1000041AC, symSize: 0x40 }
  - { offsetInCU: 0xC203, offset: 0xC203, size: 0x8, addend: 0x0, symName: __ZNKSt3__16vectorIxNS_9allocatorIxEEE31__annotate_contiguous_containerB7v160006EPKvS5_S5_S5_, symObjAddr: 0x930, symBinAddr: 0x1000041EC, symSize: 0x20 }
  - { offsetInCU: 0xC255, offset: 0xC255, size: 0x8, addend: 0x0, symName: __ZNKSt3__16vectorIxNS_9allocatorIxEEE4dataB7v160006Ev, symObjAddr: 0x950, symBinAddr: 0x10000420C, symSize: 0x28 }
  - { offsetInCU: 0xC27B, offset: 0xC27B, size: 0x8, addend: 0x0, symName: __ZNKSt3__16vectorIxNS_9allocatorIxEEE4sizeB7v160006Ev, symObjAddr: 0x978, symBinAddr: 0x100004234, symSize: 0x28 }
  - { offsetInCU: 0xC2A1, offset: 0xC2A1, size: 0x8, addend: 0x0, symName: __ZNSt3__16vectorIxNS_9allocatorIxEEE22__base_destruct_at_endB7v160006EPx, symObjAddr: 0x9B4, symBinAddr: 0x100004270, symSize: 0x8C }
  - { offsetInCU: 0xC2E5, offset: 0xC2E5, size: 0x8, addend: 0x0, symName: __ZNSt3__116allocator_traitsINS_9allocatorIxEEE7destroyB7v160006IxvvEEvRS2_PT_, symObjAddr: 0xA40, symBinAddr: 0x1000042FC, symSize: 0x28 }
  - { offsetInCU: 0xC31F, offset: 0xC31F, size: 0x8, addend: 0x0, symName: __ZNSt3__19allocatorIxE10deallocateB7v160006EPxm, symObjAddr: 0xA9C, symBinAddr: 0x100004358, symSize: 0x40 }
  - { offsetInCU: 0xC361, offset: 0xC361, size: 0x8, addend: 0x0, symName: __ZNSt3__117__compressed_pairIPxNS_9allocatorIxEEE6secondB7v160006Ev, symObjAddr: 0xC04, symBinAddr: 0x1000044C0, symSize: 0x24 }
  - { offsetInCU: 0xC387, offset: 0xC387, size: 0x8, addend: 0x0, symName: __ZNSt3__122__compressed_pair_elemINS_9allocatorIxEELi1ELb1EE5__getB7v160006Ev, symObjAddr: 0xC28, symBinAddr: 0x1000044E4, symSize: 0x14 }
  - { offsetInCU: 0xC3AD, offset: 0xC3AD, size: 0x8, addend: 0x0, symName: __ZNKSt3__16vectorIxNS_9allocatorIxEEE9__end_capB7v160006Ev, symObjAddr: 0xC3C, symBinAddr: 0x1000044F8, symSize: 0x28 }
  - { offsetInCU: 0xC3D3, offset: 0xC3D3, size: 0x8, addend: 0x0, symName: __ZNKSt3__117__compressed_pairIPxNS_9allocatorIxEEE5firstB7v160006Ev, symObjAddr: 0xC64, symBinAddr: 0x100004520, symSize: 0x24 }
  - { offsetInCU: 0xC3F9, offset: 0xC3F9, size: 0x8, addend: 0x0, symName: __ZNKSt3__122__compressed_pair_elemIPxLi0ELb0EE5__getB7v160006Ev, symObjAddr: 0xC88, symBinAddr: 0x100004544, symSize: 0x14 }
  - { offsetInCU: 0xC41F, offset: 0xC41F, size: 0x8, addend: 0x0, symName: __ZNSt3__16vectorIxNS_9allocatorIxEEE11__make_iterB7v160006EPx, symObjAddr: 0xC9C, symBinAddr: 0x100004558, symSize: 0x34 }
  - { offsetInCU: 0xC454, offset: 0xC454, size: 0x8, addend: 0x0, symName: __ZNSt3__111__wrap_iterIPxEC1B7v160006EPKvS1_, symObjAddr: 0xCD0, symBinAddr: 0x10000458C, symSize: 0x3C }
  - { offsetInCU: 0xC49A, offset: 0xC49A, size: 0x8, addend: 0x0, symName: __ZNSt3__111__wrap_iterIPxEC2B7v160006EPKvS1_, symObjAddr: 0xD0C, symBinAddr: 0x1000045C8, symSize: 0x24 }
  - { offsetInCU: 0xC4E0, offset: 0xC4E0, size: 0x8, addend: 0x0, symName: __ZNKSt3__111__wrap_iterIPxE4baseB7v160006Ev, symObjAddr: 0xD78, symBinAddr: 0x100004634, symSize: 0x18 }
  - { offsetInCU: 0xC506, offset: 0xC506, size: 0x8, addend: 0x0, symName: __ZNSt3__16vectorIxNS_9allocatorIxEEEC2ERKS3_, symObjAddr: 0xD90, symBinAddr: 0x10000464C, symSize: 0x114 }
  - { offsetInCU: 0xC56F, offset: 0xC56F, size: 0x8, addend: 0x0, symName: __ZNSt3__116allocator_traitsINS_9allocatorIxEEE37select_on_container_copy_constructionB7v160006IS2_vvEES2_RKS2_, symObjAddr: 0xEA4, symBinAddr: 0x100004760, symSize: 0x10 }
  - { offsetInCU: 0xC59E, offset: 0xC59E, size: 0x8, addend: 0x0, symName: __ZNKSt3__16vectorIxNS_9allocatorIxEEE7__allocB7v160006Ev, symObjAddr: 0xEB4, symBinAddr: 0x100004770, symSize: 0x28 }
  - { offsetInCU: 0xC5CE, offset: 0xC5CE, size: 0x8, addend: 0x0, symName: __ZNSt3__117__compressed_pairIPxNS_9allocatorIxEEEC1B7v160006IDnS3_EEOT_OT0_, symObjAddr: 0xEDC, symBinAddr: 0x100004798, symSize: 0x3C }
  - { offsetInCU: 0xC626, offset: 0xC626, size: 0x8, addend: 0x0, symName: __ZNSt3__16vectorIxNS_9allocatorIxEEE11__vallocateB7v160006Em, symObjAddr: 0xF68, symBinAddr: 0x100004824, symSize: 0xAC }
  - { offsetInCU: 0xC66A, offset: 0xC66A, size: 0x8, addend: 0x0, symName: __ZNSt3__16vectorIxNS_9allocatorIxEEE18__construct_at_endIPxLi0EEEvT_S6_m, symObjAddr: 0x1014, symBinAddr: 0x1000048D0, symSize: 0x8C }
  - { offsetInCU: 0xC6DD, offset: 0xC6DD, size: 0x8, addend: 0x0, symName: __ZNSt3__128__exception_guard_exceptionsINS_6vectorIxNS_9allocatorIxEEE16__destroy_vectorEE10__completeB7v160006Ev, symObjAddr: 0x10A0, symBinAddr: 0x10000495C, symSize: 0x1C }
  - { offsetInCU: 0xC703, offset: 0xC703, size: 0x8, addend: 0x0, symName: __ZNSt3__128__exception_guard_exceptionsINS_6vectorIxNS_9allocatorIxEEE16__destroy_vectorEED1B7v160006Ev, symObjAddr: 0x10BC, symBinAddr: 0x100004978, symSize: 0x2C }
  - { offsetInCU: 0xC72D, offset: 0xC72D, size: 0x8, addend: 0x0, symName: __ZNKSt3__117__compressed_pairIPxNS_9allocatorIxEEE6secondB7v160006Ev, symObjAddr: 0x10E8, symBinAddr: 0x1000049A4, symSize: 0x24 }
  - { offsetInCU: 0xC753, offset: 0xC753, size: 0x8, addend: 0x0, symName: __ZNKSt3__122__compressed_pair_elemINS_9allocatorIxEELi1ELb1EE5__getB7v160006Ev, symObjAddr: 0x110C, symBinAddr: 0x1000049C8, symSize: 0x14 }
  - { offsetInCU: 0xC779, offset: 0xC779, size: 0x8, addend: 0x0, symName: __ZNSt3__117__compressed_pairIPxNS_9allocatorIxEEEC2B7v160006IDnS3_EEOT_OT0_, symObjAddr: 0x1120, symBinAddr: 0x1000049DC, symSize: 0x44 }
  - { offsetInCU: 0xC7D1, offset: 0xC7D1, size: 0x8, addend: 0x0, symName: __ZNSt3__122__compressed_pair_elemIPxLi0ELb0EEC2B7v160006IDnvEEOT_, symObjAddr: 0x1164, symBinAddr: 0x100004A20, symSize: 0x1C }
  - { offsetInCU: 0xC813, offset: 0xC813, size: 0x8, addend: 0x0, symName: __ZNSt3__122__compressed_pair_elemINS_9allocatorIxEELi1ELb1EEC2B7v160006IS2_vEEOT_, symObjAddr: 0x1180, symBinAddr: 0x100004A3C, symSize: 0x18 }
  - { offsetInCU: 0xC855, offset: 0xC855, size: 0x8, addend: 0x0, symName: __ZNSt3__128__exception_guard_exceptionsINS_6vectorIxNS_9allocatorIxEEE16__destroy_vectorEEC1B7v160006ES5_, symObjAddr: 0x1198, symBinAddr: 0x100004A54, symSize: 0x34 }
  - { offsetInCU: 0xC88D, offset: 0xC88D, size: 0x8, addend: 0x0, symName: __ZNSt3__128__exception_guard_exceptionsINS_6vectorIxNS_9allocatorIxEEE16__destroy_vectorEEC2B7v160006ES5_, symObjAddr: 0x11CC, symBinAddr: 0x100004A88, symSize: 0x24 }
  - { offsetInCU: 0xC8C5, offset: 0xC8C5, size: 0x8, addend: 0x0, symName: __ZNKSt3__16vectorIxNS_9allocatorIxEEE8max_sizeEv, symObjAddr: 0x11F0, symBinAddr: 0x100004AAC, symSize: 0x60 }
  - { offsetInCU: 0xC8ED, offset: 0xC8ED, size: 0x8, addend: 0x0, symName: __ZNKSt3__16vectorIxNS_9allocatorIxEEE20__throw_length_errorB7v160006Ev, symObjAddr: 0x1250, symBinAddr: 0x100004B0C, symSize: 0x1C }
  - { offsetInCU: 0xC913, offset: 0xC913, size: 0x8, addend: 0x0, symName: __ZNSt3__16vectorIxNS_9allocatorIxEEE9__end_capB7v160006Ev, symObjAddr: 0x12A8, symBinAddr: 0x100004B64, symSize: 0x28 }
  - { offsetInCU: 0xC939, offset: 0xC939, size: 0x8, addend: 0x0, symName: __ZNKSt3__16vectorIxNS_9allocatorIxEEE14__annotate_newB7v160006Em, symObjAddr: 0x12D0, symBinAddr: 0x100004B8C, symSize: 0xAC }
  - { offsetInCU: 0xC96E, offset: 0xC96E, size: 0x8, addend: 0x0, symName: __ZNSt3__116allocator_traitsINS_9allocatorIxEEE8max_sizeB7v160006IS2_vvEEmRKS2_, symObjAddr: 0x13A8, symBinAddr: 0x100004C64, symSize: 0x28 }
  - { offsetInCU: 0xC999, offset: 0xC999, size: 0x8, addend: 0x0, symName: __ZNSt3__114numeric_limitsIlE3maxB7v160006Ev, symObjAddr: 0x13D0, symBinAddr: 0x100004C8C, symSize: 0x14 }
  - { offsetInCU: 0xC9C1, offset: 0xC9C1, size: 0x8, addend: 0x0, symName: __ZNKSt3__16__lessImmEclB7v160006ERKmS3_, symObjAddr: 0x1438, symBinAddr: 0x100004CF4, symSize: 0x34 }
  - { offsetInCU: 0xCA03, offset: 0xCA03, size: 0x8, addend: 0x0, symName: __ZNSt3__114numeric_limitsImE3maxB7v160006Ev, symObjAddr: 0x146C, symBinAddr: 0x100004D28, symSize: 0x14 }
  - { offsetInCU: 0xCA17, offset: 0xCA17, size: 0x8, addend: 0x0, symName: __ZNSt3__123__libcpp_numeric_limitsImLb1EE3maxB7v160006Ev, symObjAddr: 0x1480, symBinAddr: 0x100004D3C, symSize: 0x8 }
  - { offsetInCU: 0xCA2B, offset: 0xCA2B, size: 0x8, addend: 0x0, symName: __ZNSt3__123__libcpp_numeric_limitsIlLb1EE3maxB7v160006Ev, symObjAddr: 0x1488, symBinAddr: 0x100004D44, symSize: 0x8 }
  - { offsetInCU: 0xCA3F, offset: 0xCA3F, size: 0x8, addend: 0x0, symName: __ZNSt12length_errorC1B7v160006EPKc, symObjAddr: 0x14F4, symBinAddr: 0x100004DB0, symSize: 0x34 }
  - { offsetInCU: 0xCA77, offset: 0xCA77, size: 0x8, addend: 0x0, symName: __ZNSt12length_errorC2B7v160006EPKc, symObjAddr: 0x1528, symBinAddr: 0x100004DE4, symSize: 0x4C }
  - { offsetInCU: 0xCAAF, offset: 0xCAAF, size: 0x8, addend: 0x0, symName: __ZNSt3__19allocatorIxE17allocate_at_leastB7v160006Em, symObjAddr: 0x15B0, symBinAddr: 0x100004E6C, symSize: 0x40 }
  - { offsetInCU: 0xCAE3, offset: 0xCAE3, size: 0x8, addend: 0x0, symName: __ZNSt3__19allocatorIxE8allocateB7v160006Em, symObjAddr: 0x15F0, symBinAddr: 0x100004EAC, symSize: 0x58 }
  - { offsetInCU: 0xCB17, offset: 0xCB17, size: 0x8, addend: 0x0, symName: __ZNSt3__117__compressed_pairIPxNS_9allocatorIxEEE5firstB7v160006Ev, symObjAddr: 0x172C, symBinAddr: 0x100004FE8, symSize: 0x24 }
  - { offsetInCU: 0xCB3D, offset: 0xCB3D, size: 0x8, addend: 0x0, symName: __ZNSt3__122__compressed_pair_elemIPxLi0ELb0EE5__getB7v160006Ev, symObjAddr: 0x1750, symBinAddr: 0x10000500C, symSize: 0x14 }
  - { offsetInCU: 0xCB7C, offset: 0xCB7C, size: 0x8, addend: 0x0, symName: __ZNSt3__16vectorIxNS_9allocatorIxEEE21_ConstructTransactionC1B7v160006ERS3_m, symObjAddr: 0x1764, symBinAddr: 0x100005020, symSize: 0x3C }
  - { offsetInCU: 0xCBC4, offset: 0xCBC4, size: 0x8, addend: 0x0, symName: __ZNSt3__16vectorIxNS_9allocatorIxEEE21_ConstructTransactionD1B7v160006Ev, symObjAddr: 0x1894, symBinAddr: 0x100005150, symSize: 0x2C }
  - { offsetInCU: 0xCBEE, offset: 0xCBEE, size: 0x8, addend: 0x0, symName: __ZNSt3__16vectorIxNS_9allocatorIxEEE21_ConstructTransactionC2B7v160006ERS3_m, symObjAddr: 0x18C0, symBinAddr: 0x10000517C, symSize: 0x44 }
  - { offsetInCU: 0xCC36, offset: 0xCC36, size: 0x8, addend: 0x0, symName: __ZNSt3__129_AllocatorDestroyRangeReverseINS_9allocatorIxEEPxEC1B7v160006ERS2_RS3_S6_, symObjAddr: 0x1950, symBinAddr: 0x10000520C, symSize: 0x44 }
  - { offsetInCU: 0xCC8D, offset: 0xCC8D, size: 0x8, addend: 0x0, symName: __ZNSt3__116allocator_traitsINS_9allocatorIxEEE9constructB7v160006IxJRxEvvEEvRS2_PT_DpOT0_, symObjAddr: 0x1994, symBinAddr: 0x100005250, symSize: 0x30 }
  - { offsetInCU: 0xCCE1, offset: 0xCCE1, size: 0x8, addend: 0x0, symName: __ZNSt3__128__exception_guard_exceptionsINS_29_AllocatorDestroyRangeReverseINS_9allocatorIxEEPxEEE10__completeB7v160006Ev, symObjAddr: 0x19C4, symBinAddr: 0x100005280, symSize: 0x1C }
  - { offsetInCU: 0xCD07, offset: 0xCD07, size: 0x8, addend: 0x0, symName: __ZNSt3__128__exception_guard_exceptionsINS_29_AllocatorDestroyRangeReverseINS_9allocatorIxEEPxEEED1B7v160006Ev, symObjAddr: 0x19E0, symBinAddr: 0x10000529C, symSize: 0x2C }
  - { offsetInCU: 0xCD31, offset: 0xCD31, size: 0x8, addend: 0x0, symName: __ZNSt3__128__exception_guard_exceptionsINS_29_AllocatorDestroyRangeReverseINS_9allocatorIxEEPxEEEC1B7v160006ES5_, symObjAddr: 0x1A0C, symBinAddr: 0x1000052C8, symSize: 0x34 }
  - { offsetInCU: 0xCD6A, offset: 0xCD6A, size: 0x8, addend: 0x0, symName: __ZNSt3__128__exception_guard_exceptionsINS_29_AllocatorDestroyRangeReverseINS_9allocatorIxEEPxEEEC2B7v160006ES5_, symObjAddr: 0x1A40, symBinAddr: 0x1000052FC, symSize: 0x30 }
  - { offsetInCU: 0xCDA3, offset: 0xCDA3, size: 0x8, addend: 0x0, symName: __ZNSt3__129_AllocatorDestroyRangeReverseINS_9allocatorIxEEPxEC2B7v160006ERS2_RS3_S6_, symObjAddr: 0x1A70, symBinAddr: 0x10000532C, symSize: 0x38 }
  - { offsetInCU: 0xCDFA, offset: 0xCDFA, size: 0x8, addend: 0x0, symName: __ZNSt3__128__exception_guard_exceptionsINS_29_AllocatorDestroyRangeReverseINS_9allocatorIxEEPxEEED2B7v160006Ev, symObjAddr: 0x1AD4, symBinAddr: 0x100005390, symSize: 0x50 }
  - { offsetInCU: 0xCE24, offset: 0xCE24, size: 0x8, addend: 0x0, symName: __ZNKSt3__129_AllocatorDestroyRangeReverseINS_9allocatorIxEEPxEclB7v160006Ev, symObjAddr: 0x1B24, symBinAddr: 0x1000053E0, symSize: 0x68 }
  - { offsetInCU: 0xCE4A, offset: 0xCE4A, size: 0x8, addend: 0x0, symName: __ZNSt3__116reverse_iteratorIPxEC1B7v160006ES1_, symObjAddr: 0x1BFC, symBinAddr: 0x1000054B8, symSize: 0x34 }
  - { offsetInCU: 0xCE82, offset: 0xCE82, size: 0x8, addend: 0x0, symName: __ZNSt3__116reverse_iteratorIPxEppB7v160006Ev, symObjAddr: 0x1C9C, symBinAddr: 0x100005558, symSize: 0x20 }
  - { offsetInCU: 0xCEA8, offset: 0xCEA8, size: 0x8, addend: 0x0, symName: __ZNKSt3__116reverse_iteratorIPxE4baseB7v160006Ev, symObjAddr: 0x1CBC, symBinAddr: 0x100005578, symSize: 0x18 }
  - { offsetInCU: 0xCED3, offset: 0xCED3, size: 0x8, addend: 0x0, symName: __ZNSt3__119__to_address_helperINS_16reverse_iteratorIPxEEvE6__callB7v160006ERKS3_, symObjAddr: 0x1CD4, symBinAddr: 0x100005590, symSize: 0x38 }
  - { offsetInCU: 0xCEF6, offset: 0xCEF6, size: 0x8, addend: 0x0, symName: __ZNKSt3__116reverse_iteratorIPxEptB7v160006Ev, symObjAddr: 0x1D0C, symBinAddr: 0x1000055C8, symSize: 0x2C }
  - { offsetInCU: 0xCF1C, offset: 0xCF1C, size: 0x8, addend: 0x0, symName: __ZNSt3__116reverse_iteratorIPxEC2B7v160006ES1_, symObjAddr: 0x1E14, symBinAddr: 0x1000056D0, symSize: 0x28 }
  - { offsetInCU: 0xCF54, offset: 0xCF54, size: 0x8, addend: 0x0, symName: __ZNSt3__16vectorIxNS_9allocatorIxEEE21_ConstructTransactionD2B7v160006Ev, symObjAddr: 0x1E3C, symBinAddr: 0x1000056F8, symSize: 0x20 }
  - { offsetInCU: 0xCF7E, offset: 0xCF7E, size: 0x8, addend: 0x0, symName: __ZNSt3__128__exception_guard_exceptionsINS_6vectorIxNS_9allocatorIxEEE16__destroy_vectorEED2B7v160006Ev, symObjAddr: 0x1E5C, symBinAddr: 0x100005718, symSize: 0x50 }
  - { offsetInCU: 0xCFAD, offset: 0xCFAD, size: 0x8, addend: 0x0, symName: __ZNSt3__16vectorIxNS_9allocatorIxEEE22__construct_one_at_endB7v160006IJRKxEEEvDpOT_, symObjAddr: 0x1EAC, symBinAddr: 0x100005768, symSize: 0x90 }
  - { offsetInCU: 0xCFFC, offset: 0xCFFC, size: 0x8, addend: 0x0, symName: __ZNSt3__16vectorIxNS_9allocatorIxEEE21__push_back_slow_pathIRKxEEvOT_, symObjAddr: 0x1F3C, symBinAddr: 0x1000057F8, symSize: 0xD8 }
  - { offsetInCU: 0xD05A, offset: 0xD05A, size: 0x8, addend: 0x0, symName: __ZNSt3__116allocator_traitsINS_9allocatorIxEEE9constructB7v160006IxJRKxEvvEEvRS2_PT_DpOT0_, symObjAddr: 0x2014, symBinAddr: 0x1000058D0, symSize: 0x30 }
  - { offsetInCU: 0xD0AE, offset: 0xD0AE, size: 0x8, addend: 0x0, symName: __ZNKSt3__16vectorIxNS_9allocatorIxEEE11__recommendB7v160006Em, symObjAddr: 0x2070, symBinAddr: 0x10000592C, symSize: 0xB4 }
  - { offsetInCU: 0xD103, offset: 0xD103, size: 0x8, addend: 0x0, symName: __ZNSt3__114__split_bufferIxRNS_9allocatorIxEEEC1EmmS3_, symObjAddr: 0x2124, symBinAddr: 0x1000059E0, symSize: 0x44 }
  - { offsetInCU: 0xD159, offset: 0xD159, size: 0x8, addend: 0x0, symName: __ZNSt3__114__split_bufferIxRNS_9allocatorIxEEED1Ev, symObjAddr: 0x2280, symBinAddr: 0x100005B3C, symSize: 0x2C }
  - { offsetInCU: 0xD185, offset: 0xD185, size: 0x8, addend: 0x0, symName: __ZNSt3__114__split_bufferIxRNS_9allocatorIxEEEC2EmmS3_, symObjAddr: 0x232C, symBinAddr: 0x100005BE8, symSize: 0xD4 }
  - { offsetInCU: 0xD1F8, offset: 0xD1F8, size: 0x8, addend: 0x0, symName: __ZNSt3__117__compressed_pairIPxRNS_9allocatorIxEEEC1B7v160006IDnS4_EEOT_OT0_, symObjAddr: 0x2400, symBinAddr: 0x100005CBC, symSize: 0x3C }
  - { offsetInCU: 0xD250, offset: 0xD250, size: 0x8, addend: 0x0, symName: __ZNSt3__114__split_bufferIxRNS_9allocatorIxEEE7__allocB7v160006Ev, symObjAddr: 0x243C, symBinAddr: 0x100005CF8, symSize: 0x28 }
  - { offsetInCU: 0xD276, offset: 0xD276, size: 0x8, addend: 0x0, symName: __ZNSt3__114__split_bufferIxRNS_9allocatorIxEEE9__end_capB7v160006Ev, symObjAddr: 0x2464, symBinAddr: 0x100005D20, symSize: 0x28 }
  - { offsetInCU: 0xD29C, offset: 0xD29C, size: 0x8, addend: 0x0, symName: __ZNSt3__117__compressed_pairIPxRNS_9allocatorIxEEEC2B7v160006IDnS4_EEOT_OT0_, symObjAddr: 0x248C, symBinAddr: 0x100005D48, symSize: 0x48 }
  - { offsetInCU: 0xD2F4, offset: 0xD2F4, size: 0x8, addend: 0x0, symName: __ZNSt3__122__compressed_pair_elemIRNS_9allocatorIxEELi1ELb0EEC2B7v160006IS3_vEEOT_, symObjAddr: 0x24D4, symBinAddr: 0x100005D90, symSize: 0x20 }
  - { offsetInCU: 0xD336, offset: 0xD336, size: 0x8, addend: 0x0, symName: __ZNSt3__117__compressed_pairIPxRNS_9allocatorIxEEE6secondB7v160006Ev, symObjAddr: 0x24F4, symBinAddr: 0x100005DB0, symSize: 0x28 }
  - { offsetInCU: 0xD35C, offset: 0xD35C, size: 0x8, addend: 0x0, symName: __ZNSt3__122__compressed_pair_elemIRNS_9allocatorIxEELi1ELb0EE5__getB7v160006Ev, symObjAddr: 0x251C, symBinAddr: 0x100005DD8, symSize: 0x18 }
  - { offsetInCU: 0xD382, offset: 0xD382, size: 0x8, addend: 0x0, symName: __ZNSt3__117__compressed_pairIPxRNS_9allocatorIxEEE5firstB7v160006Ev, symObjAddr: 0x2534, symBinAddr: 0x100005DF0, symSize: 0x24 }
  - { offsetInCU: 0xD3D0, offset: 0xD3D0, size: 0x8, addend: 0x0, symName: __ZNKSt3__111__move_loopINS_17_ClassicAlgPolicyEEclB7v160006INS_16reverse_iteratorIPxEES6_S6_EENS_4pairIT_T1_EES8_T0_S9_, symObjAddr: 0x28D4, symBinAddr: 0x100006190, symSize: 0xA0 }
  - { offsetInCU: 0xD43B, offset: 0xD43B, size: 0x8, addend: 0x0, symName: __ZNSt3__119__unwrap_range_implINS_16reverse_iteratorIPxEES3_E8__unwrapB7v160006ES3_S3_, symObjAddr: 0x2AC0, symBinAddr: 0x10000637C, symSize: 0x84 }
  - { offsetInCU: 0xD471, offset: 0xD471, size: 0x8, addend: 0x0, symName: __ZNSt3__14pairINS_16reverse_iteratorIPxEES3_EC1B7v160006IS3_S3_LPv0EEEOT_OT0_, symObjAddr: 0x2B44, symBinAddr: 0x100006400, symSize: 0x3C }
  - { offsetInCU: 0xD4CF, offset: 0xD4CF, size: 0x8, addend: 0x0, symName: __ZNSt3__14pairINS_16reverse_iteratorIPxEES3_EC2B7v160006IS3_S3_LPv0EEEOT_OT0_, symObjAddr: 0x2B80, symBinAddr: 0x10000643C, symSize: 0x34 }
  - { offsetInCU: 0xD532, offset: 0xD532, size: 0x8, addend: 0x0, symName: __ZNSt3__18_IterOpsINS_17_ClassicAlgPolicyEE11__iter_moveB7v160006IRNS_16reverse_iteratorIPxEEEENS_9enable_ifIXsr12is_referenceIDTdeclsr3stdE7declvalIRT_EEEEE5valueEDTclsr3stdE4movedeclsr3stdE7declvalISA_EEEEE4typeEOS9_, symObjAddr: 0x2BB4, symBinAddr: 0x100006470, symSize: 0x28 }
  - { offsetInCU: 0xD55E, offset: 0xD55E, size: 0x8, addend: 0x0, symName: __ZNKSt3__116reverse_iteratorIPxEdeB7v160006Ev, symObjAddr: 0x2BDC, symBinAddr: 0x100006498, symSize: 0x28 }
  - { offsetInCU: 0xD592, offset: 0xD592, size: 0x8, addend: 0x0, symName: __ZNSt3__18_IterOpsINS_17_ClassicAlgPolicyEE25__validate_iter_referenceB7v160006IRNS_16reverse_iteratorIPxEEEEvv, symObjAddr: 0x2C04, symBinAddr: 0x1000064C0, symSize: 0x4 }
  - { offsetInCU: 0xD5B0, offset: 0xD5B0, size: 0x8, addend: 0x0, symName: __ZNSt3__118__unwrap_iter_implINS_16reverse_iteratorIPxEELb0EE8__unwrapB7v160006ES3_, symObjAddr: 0x2C08, symBinAddr: 0x1000064C4, symSize: 0x24 }
  - { offsetInCU: 0xD5D3, offset: 0xD5D3, size: 0x8, addend: 0x0, symName: __ZNSt3__119__unwrap_range_implINS_16reverse_iteratorIPxEES3_E8__rewrapB7v160006ES3_S3_, symObjAddr: 0x2C2C, symBinAddr: 0x1000064E8, symSize: 0x5C }
  - { offsetInCU: 0xD604, offset: 0xD604, size: 0x8, addend: 0x0, symName: __ZNSt3__118__unwrap_iter_implINS_16reverse_iteratorIPxEELb0EE8__rewrapB7v160006ES3_S3_, symObjAddr: 0x2C88, symBinAddr: 0x100006544, symSize: 0x2C }
  - { offsetInCU: 0xD631, offset: 0xD631, size: 0x8, addend: 0x0, symName: __ZNSt3__114__split_bufferIxRNS_9allocatorIxEEED2Ev, symObjAddr: 0x2CB4, symBinAddr: 0x100006570, symSize: 0x8C }
  - { offsetInCU: 0xD65D, offset: 0xD65D, size: 0x8, addend: 0x0, symName: __ZNSt3__114__split_bufferIxRNS_9allocatorIxEEE5clearB7v160006Ev, symObjAddr: 0x2D40, symBinAddr: 0x1000065FC, symSize: 0x28 }
  - { offsetInCU: 0xD683, offset: 0xD683, size: 0x8, addend: 0x0, symName: __ZNKSt3__114__split_bufferIxRNS_9allocatorIxEEE8capacityB7v160006Ev, symObjAddr: 0x2D68, symBinAddr: 0x100006624, symSize: 0x40 }
  - { offsetInCU: 0xD6A9, offset: 0xD6A9, size: 0x8, addend: 0x0, symName: __ZNSt3__114__split_bufferIxRNS_9allocatorIxEEE17__destruct_at_endB7v160006EPx, symObjAddr: 0x2DA8, symBinAddr: 0x100006664, symSize: 0x2C }
  - { offsetInCU: 0xD6DD, offset: 0xD6DD, size: 0x8, addend: 0x0, symName: __ZNSt3__114__split_bufferIxRNS_9allocatorIxEEE17__destruct_at_endB7v160006EPxNS_17integral_constantIbLb0EEE, symObjAddr: 0x2DD4, symBinAddr: 0x100006690, symSize: 0x80 }
  - { offsetInCU: 0xD71D, offset: 0xD71D, size: 0x8, addend: 0x0, symName: __ZNKSt3__114__split_bufferIxRNS_9allocatorIxEEE9__end_capB7v160006Ev, symObjAddr: 0x2E54, symBinAddr: 0x100006710, symSize: 0x28 }
  - { offsetInCU: 0xD743, offset: 0xD743, size: 0x8, addend: 0x0, symName: __ZNKSt3__117__compressed_pairIPxRNS_9allocatorIxEEE5firstB7v160006Ev, symObjAddr: 0x2E7C, symBinAddr: 0x100006738, symSize: 0x24 }
  - { offsetInCU: 0xD769, offset: 0xD769, size: 0x8, addend: 0x0, symName: __ZNSt3__16vectorIxNS_9allocatorIxEEE17__destruct_at_endB7v160006EPx, symObjAddr: 0x2EA0, symBinAddr: 0x10000675C, symSize: 0x60 }
  - { offsetInCU: 0xD7AD, offset: 0xD7AD, size: 0x8, addend: 0x0, symName: __ZNSt3__16vectorIxNS_9allocatorIxEEE27__invalidate_iterators_pastB7v160006EPx, symObjAddr: 0x2F00, symBinAddr: 0x1000067BC, symSize: 0x14 }
  - { offsetInCU: 0xD7E4, offset: 0xD7E4, size: 0x8, addend: 0x0, symName: __ZNKSt3__16vectorIxNS_9allocatorIxEEE17__annotate_shrinkB7v160006Em, symObjAddr: 0x2F14, symBinAddr: 0x1000067D0, symSize: 0xB4 }
  - { offsetInCU: 0xD819, offset: 0xD819, size: 0x8, addend: 0x0, symName: __ZNSt3__16vectorIxNS_9allocatorIxEEE8__appendEm, symObjAddr: 0x2FC8, symBinAddr: 0x100006884, symSize: 0x108 }
  - { offsetInCU: 0xD874, offset: 0xD874, size: 0x8, addend: 0x0, symName: __ZNSt3__16vectorIxNS_9allocatorIxEEE18__construct_at_endEm, symObjAddr: 0x30D0, symBinAddr: 0x10000698C, symSize: 0xC8 }
  - { offsetInCU: 0xD8E6, offset: 0xD8E6, size: 0x8, addend: 0x0, symName: __ZNSt3__114__split_bufferIxRNS_9allocatorIxEEE18__construct_at_endEm, symObjAddr: 0x3198, symBinAddr: 0x100006A54, symSize: 0xB4 }
  - { offsetInCU: 0xD929, offset: 0xD929, size: 0x8, addend: 0x0, symName: __ZNSt3__116allocator_traitsINS_9allocatorIxEEE9constructB7v160006IxJEvvEEvRS2_PT_DpOT0_, symObjAddr: 0x324C, symBinAddr: 0x100006B08, symSize: 0x28 }
  - { offsetInCU: 0xD972, offset: 0xD972, size: 0x8, addend: 0x0, symName: __ZNSt3__114__split_bufferIxRNS_9allocatorIxEEE21_ConstructTransactionC1B7v160006EPPxm, symObjAddr: 0x3294, symBinAddr: 0x100006B50, symSize: 0x3C }
  - { offsetInCU: 0xD9B8, offset: 0xD9B8, size: 0x8, addend: 0x0, symName: __ZNSt3__114__split_bufferIxRNS_9allocatorIxEEE21_ConstructTransactionD1B7v160006Ev, symObjAddr: 0x32D0, symBinAddr: 0x100006B8C, symSize: 0x2C }
  - { offsetInCU: 0xD9E2, offset: 0xD9E2, size: 0x8, addend: 0x0, symName: __ZNSt3__114__split_bufferIxRNS_9allocatorIxEEE21_ConstructTransactionC2B7v160006EPPxm, symObjAddr: 0x32FC, symBinAddr: 0x100006BB8, symSize: 0x44 }
  - { offsetInCU: 0xDA28, offset: 0xDA28, size: 0x8, addend: 0x0, symName: __ZNSt3__114__split_bufferIxRNS_9allocatorIxEEE21_ConstructTransactionD2B7v160006Ev, symObjAddr: 0x3340, symBinAddr: 0x100006BFC, symSize: 0x20 }
  - { offsetInCU: 0xDA52, offset: 0xDA52, size: 0x8, addend: 0x0, symName: __ZNSt3__16vectorIxNS_9allocatorIxEEEC2B7v160006Ev, symObjAddr: 0x3360, symBinAddr: 0x100006C1C, symSize: 0x54 }
  - { offsetInCU: 0xDA81, offset: 0xDA81, size: 0x8, addend: 0x0, symName: __ZNSt3__117__compressed_pairIPxNS_9allocatorIxEEEC1B7v160006IDnNS_18__default_init_tagEEEOT_OT0_, symObjAddr: 0x33B4, symBinAddr: 0x100006C70, symSize: 0x3C }
  - { offsetInCU: 0xDAD9, offset: 0xDAD9, size: 0x8, addend: 0x0, symName: __ZNSt3__117__compressed_pairIPxNS_9allocatorIxEEEC2B7v160006IDnNS_18__default_init_tagEEEOT_OT0_, symObjAddr: 0x33F0, symBinAddr: 0x100006CAC, symSize: 0x40 }
  - { offsetInCU: 0xDB31, offset: 0xDB31, size: 0x8, addend: 0x0, symName: __ZNSt3__122__compressed_pair_elemINS_9allocatorIxEELi1ELb1EEC2B7v160006ENS_18__default_init_tagE, symObjAddr: 0x3430, symBinAddr: 0x100006CEC, symSize: 0x2C }
  - { offsetInCU: 0xDB65, offset: 0xDB65, size: 0x8, addend: 0x0, symName: __ZNSt3__19allocatorIxEC2B7v160006Ev, symObjAddr: 0x345C, symBinAddr: 0x100006D18, symSize: 0x2C }
  - { offsetInCU: 0xDB8F, offset: 0xDB8F, size: 0x8, addend: 0x0, symName: __ZNSt3__116__non_trivial_ifILb1ENS_9allocatorIxEEEC2B7v160006Ev, symObjAddr: 0x3488, symBinAddr: 0x100006D44, symSize: 0x14 }
  - { offsetInCU: 0xDBD2, offset: 0xDBD2, size: 0x8, addend: 0x0, symName: __ZNKSt3__113basic_ostreamIcNS_11char_traitsIcEEE6sentrycvbB7v160006Ev, symObjAddr: 0x3688, symBinAddr: 0x100006F44, symSize: 0x1C }
  - { offsetInCU: 0xDBF8, offset: 0xDBF8, size: 0x8, addend: 0x0, symName: __ZNSt3__119ostreambuf_iteratorIcNS_11char_traitsIcEEEC1B7v160006ERNS_13basic_ostreamIcS2_EE, symObjAddr: 0x38E4, symBinAddr: 0x1000071A0, symSize: 0x34 }
  - { offsetInCU: 0xDC30, offset: 0xDC30, size: 0x8, addend: 0x0, symName: __ZNKSt3__18ios_base5flagsB7v160006Ev, symObjAddr: 0x3918, symBinAddr: 0x1000071D4, symSize: 0x18 }
  - { offsetInCU: 0xDC58, offset: 0xDC58, size: 0x8, addend: 0x0, symName: __ZNKSt3__19basic_iosIcNS_11char_traitsIcEEE4fillB7v160006Ev, symObjAddr: 0x3930, symBinAddr: 0x1000071EC, symSize: 0x64 }
  - { offsetInCU: 0xDC80, offset: 0xDC80, size: 0x8, addend: 0x0, symName: __ZNKSt3__119ostreambuf_iteratorIcNS_11char_traitsIcEEE6failedB7v160006Ev, symObjAddr: 0x3994, symBinAddr: 0x100007250, symSize: 0x24 }
  - { offsetInCU: 0xDCA6, offset: 0xDCA6, size: 0x8, addend: 0x0, symName: __ZNSt3__19basic_iosIcNS_11char_traitsIcEEE8setstateB7v160006Ej, symObjAddr: 0x39B8, symBinAddr: 0x100007274, symSize: 0x2C }
  - { offsetInCU: 0xDCDB, offset: 0xDCDB, size: 0x8, addend: 0x0, symName: __ZNKSt3__18ios_base5widthB7v160006Ev, symObjAddr: 0x39E4, symBinAddr: 0x1000072A0, symSize: 0x18 }
  - { offsetInCU: 0xDD03, offset: 0xDD03, size: 0x8, addend: 0x0, symName: __ZNSt3__115basic_streambufIcNS_11char_traitsIcEEE5sputnB7v160006EPKcl, symObjAddr: 0x39FC, symBinAddr: 0x1000072B8, symSize: 0x3C }
  - { offsetInCU: 0xDD45, offset: 0xDD45, size: 0x8, addend: 0x0, symName: __ZNSt3__112basic_stringIcNS_11char_traitsIcEENS_9allocatorIcEEEC1B7v160006Emc, symObjAddr: 0x3A38, symBinAddr: 0x1000072F4, symSize: 0x3C }
  - { offsetInCU: 0xDD8D, offset: 0xDD8D, size: 0x8, addend: 0x0, symName: __ZNSt3__112basic_stringIcNS_11char_traitsIcEENS_9allocatorIcEEE4dataB7v160006Ev, symObjAddr: 0x3A74, symBinAddr: 0x100007330, symSize: 0x28 }
  - { offsetInCU: 0xDDB3, offset: 0xDDB3, size: 0x8, addend: 0x0, symName: __ZNSt3__18ios_base5widthB7v160006El, symObjAddr: 0x3A9C, symBinAddr: 0x100007358, symSize: 0x2C }
  - { offsetInCU: 0xDDF9, offset: 0xDDF9, size: 0x8, addend: 0x0, symName: __ZNSt3__112basic_stringIcNS_11char_traitsIcEENS_9allocatorIcEEEC2B7v160006Emc, symObjAddr: 0x3AC8, symBinAddr: 0x100007384, symSize: 0x54 }
  - { offsetInCU: 0xDE41, offset: 0xDE41, size: 0x8, addend: 0x0, symName: __ZNSt3__117__compressed_pairINS_12basic_stringIcNS_11char_traitsIcEENS_9allocatorIcEEE5__repES5_EC1B7v160006INS_18__default_init_tagESA_EEOT_OT0_, symObjAddr: 0x3B1C, symBinAddr: 0x1000073D8, symSize: 0x3C }
  - { offsetInCU: 0xDE99, offset: 0xDE99, size: 0x8, addend: 0x0, symName: __ZNSt3__117__compressed_pairINS_12basic_stringIcNS_11char_traitsIcEENS_9allocatorIcEEE5__repES5_EC2B7v160006INS_18__default_init_tagESA_EEOT_OT0_, symObjAddr: 0x3B68, symBinAddr: 0x100007424, symSize: 0x3C }
  - { offsetInCU: 0xDEF1, offset: 0xDEF1, size: 0x8, addend: 0x0, symName: __ZNSt3__122__compressed_pair_elemINS_12basic_stringIcNS_11char_traitsIcEENS_9allocatorIcEEE5__repELi0ELb0EEC2B7v160006ENS_18__default_init_tagE, symObjAddr: 0x3BA4, symBinAddr: 0x100007460, symSize: 0x14 }
  - { offsetInCU: 0xDF25, offset: 0xDF25, size: 0x8, addend: 0x0, symName: __ZNSt3__122__compressed_pair_elemINS_9allocatorIcEELi1ELb1EEC2B7v160006ENS_18__default_init_tagE, symObjAddr: 0x3BB8, symBinAddr: 0x100007474, symSize: 0x2C }
  - { offsetInCU: 0xDF59, offset: 0xDF59, size: 0x8, addend: 0x0, symName: __ZNSt3__19allocatorIcEC2B7v160006Ev, symObjAddr: 0x3BE4, symBinAddr: 0x1000074A0, symSize: 0x2C }
  - { offsetInCU: 0xDF83, offset: 0xDF83, size: 0x8, addend: 0x0, symName: __ZNSt3__116__non_trivial_ifILb1ENS_9allocatorIcEEEC2B7v160006Ev, symObjAddr: 0x3C10, symBinAddr: 0x1000074CC, symSize: 0x14 }
  - { offsetInCU: 0xDFAD, offset: 0xDFAD, size: 0x8, addend: 0x0, symName: __ZNSt3__112basic_stringIcNS_11char_traitsIcEENS_9allocatorIcEEE13__get_pointerB7v160006Ev, symObjAddr: 0x3C38, symBinAddr: 0x1000074F4, symSize: 0x54 }
  - { offsetInCU: 0xDFD3, offset: 0xDFD3, size: 0x8, addend: 0x0, symName: __ZNKSt3__112basic_stringIcNS_11char_traitsIcEENS_9allocatorIcEEE9__is_longB7v160006Ev, symObjAddr: 0x3C8C, symBinAddr: 0x100007548, symSize: 0x38 }
  - { offsetInCU: 0xDFF9, offset: 0xDFF9, size: 0x8, addend: 0x0, symName: __ZNSt3__112basic_stringIcNS_11char_traitsIcEENS_9allocatorIcEEE18__get_long_pointerB7v160006Ev, symObjAddr: 0x3CC4, symBinAddr: 0x100007580, symSize: 0x28 }
  - { offsetInCU: 0xE01F, offset: 0xE01F, size: 0x8, addend: 0x0, symName: __ZNSt3__112basic_stringIcNS_11char_traitsIcEENS_9allocatorIcEEE19__get_short_pointerB7v160006Ev, symObjAddr: 0x3CEC, symBinAddr: 0x1000075A8, symSize: 0x28 }
  - { offsetInCU: 0xE045, offset: 0xE045, size: 0x8, addend: 0x0, symName: __ZNKSt3__117__compressed_pairINS_12basic_stringIcNS_11char_traitsIcEENS_9allocatorIcEEE5__repES5_E5firstB7v160006Ev, symObjAddr: 0x3D14, symBinAddr: 0x1000075D0, symSize: 0x24 }
  - { offsetInCU: 0xE06B, offset: 0xE06B, size: 0x8, addend: 0x0, symName: __ZNKSt3__122__compressed_pair_elemINS_12basic_stringIcNS_11char_traitsIcEENS_9allocatorIcEEE5__repELi0ELb0EE5__getB7v160006Ev, symObjAddr: 0x3D38, symBinAddr: 0x1000075F4, symSize: 0x14 }
  - { offsetInCU: 0xE091, offset: 0xE091, size: 0x8, addend: 0x0, symName: __ZNSt3__117__compressed_pairINS_12basic_stringIcNS_11char_traitsIcEENS_9allocatorIcEEE5__repES5_E5firstB7v160006Ev, symObjAddr: 0x3D4C, symBinAddr: 0x100007608, symSize: 0x24 }
  - { offsetInCU: 0xE0B7, offset: 0xE0B7, size: 0x8, addend: 0x0, symName: __ZNSt3__122__compressed_pair_elemINS_12basic_stringIcNS_11char_traitsIcEENS_9allocatorIcEEE5__repELi0ELb0EE5__getB7v160006Ev, symObjAddr: 0x3D70, symBinAddr: 0x10000762C, symSize: 0x14 }
  - { offsetInCU: 0xE0DD, offset: 0xE0DD, size: 0x8, addend: 0x0, symName: __ZNSt3__114pointer_traitsIPcE10pointer_toB7v160006ERc, symObjAddr: 0x3D84, symBinAddr: 0x100007640, symSize: 0x14 }
  - { offsetInCU: 0xE100, offset: 0xE100, size: 0x8, addend: 0x0, symName: __ZNSt3__119ostreambuf_iteratorIcNS_11char_traitsIcEEEC2B7v160006ERNS_13basic_ostreamIcS2_EE, symObjAddr: 0x3D98, symBinAddr: 0x100007654, symSize: 0x54 }
  - { offsetInCU: 0xE138, offset: 0xE138, size: 0x8, addend: 0x0, symName: __ZNKSt3__19basic_iosIcNS_11char_traitsIcEEE5rdbufB7v160006Ev, symObjAddr: 0x3DEC, symBinAddr: 0x1000076A8, symSize: 0x24 }
  - { offsetInCU: 0xE160, offset: 0xE160, size: 0x8, addend: 0x0, symName: __ZNKSt3__18ios_base5rdbufB7v160006Ev, symObjAddr: 0x3E10, symBinAddr: 0x1000076CC, symSize: 0x18 }
  - { offsetInCU: 0xE186, offset: 0xE186, size: 0x8, addend: 0x0, symName: __ZNSt3__111char_traitsIcE11eq_int_typeEii, symObjAddr: 0x3E28, symBinAddr: 0x1000076E4, symSize: 0x28 }
  - { offsetInCU: 0xE1B7, offset: 0xE1B7, size: 0x8, addend: 0x0, symName: __ZNSt3__111char_traitsIcE3eofEv, symObjAddr: 0x3E50, symBinAddr: 0x10000770C, symSize: 0x8 }
  - { offsetInCU: 0xE1CB, offset: 0xE1CB, size: 0x8, addend: 0x0, symName: __ZNKSt3__19basic_iosIcNS_11char_traitsIcEEE5widenB7v160006Ec, symObjAddr: 0x3E58, symBinAddr: 0x100007714, symSize: 0x84 }
  - { offsetInCU: 0xE239, offset: 0xE239, size: 0x8, addend: 0x0, symName: __ZNKSt3__15ctypeIcE5widenB7v160006Ec, symObjAddr: 0x3F08, symBinAddr: 0x1000077C4, symSize: 0x38 }
  - { offsetInCU: 0xE26E, offset: 0xE26E, size: 0x8, addend: 0x0, symName: __ZNSt3__18ios_base8setstateB7v160006Ej, symObjAddr: 0x3F40, symBinAddr: 0x1000077FC, symSize: 0x34 }
...
